; Listing generated by Microsoft (R) Optimizing Compiler Version 19.00.23026.0 

	TITLE	D:\cours\UQAC\Intelligence artificielle - jeux vidéos\Buckland_AISource\Mini_Projet_Raven\goals\Goal_AttackTarget.cpp
	.686P
	.XMM
	include listing.inc
	.model	flat

INCLUDELIB LIBCMTD
INCLUDELIB OLDNAMES

CONST	SEGMENT
?colors@@3QBKB DD 0ffH					; colors
	DD	0ff0000H
	DD	0ff00H
	DD	00H
	DD	0c8c8ffH
	DD	0c8c8c8H
	DD	0ffffH
	DD	0aaffH
	DD	0aa00ffH
	DD	05a85H
	DD	0ffffffH
	DD	06400H
	DD	0ffff00H
	DD	0c8c8c8H
	DD	0e6e6ffH
CONST	ENDS
PUBLIC	?__empty_global_delete@@YAXPAX@Z		; __empty_global_delete
PUBLIC	?__empty_global_delete@@YAXPAXI@Z		; __empty_global_delete
PUBLIC	?max@?$numeric_limits@H@std@@SAHXZ		; std::numeric_limits<int>::max
PUBLIC	?min@?$numeric_limits@M@std@@SAMXZ		; std::numeric_limits<float>::min
PUBLIC	?max@?$numeric_limits@M@std@@SAMXZ		; std::numeric_limits<float>::max
PUBLIC	?min@?$numeric_limits@N@std@@SANXZ		; std::numeric_limits<double>::min
PUBLIC	?max@?$numeric_limits@N@std@@SANXZ		; std::numeric_limits<double>::max
PUBLIC	??0exception@std@@QAE@QBD@Z			; std::exception::exception
PUBLIC	??0exception@std@@QAE@ABV01@@Z			; std::exception::exception
PUBLIC	??1exception@std@@UAE@XZ			; std::exception::~exception
PUBLIC	?what@exception@std@@UBEPBDXZ			; std::exception::what
PUBLIC	??_Gexception@std@@UAEPAXI@Z			; std::exception::`scalar deleting destructor'
PUBLIC	??2@YAPAXIPAX@Z					; operator new
PUBLIC	?copy@?$char_traits@D@std@@SAPADPADPBDI@Z	; std::char_traits<char>::copy
PUBLIC	?assign@?$char_traits@D@std@@SAXAADABD@Z	; std::char_traits<char>::assign
PUBLIC	?_Adopt@_Iterator_base0@std@@QAEXPBX@Z		; std::_Iterator_base0::_Adopt
PUBLIC	??0_Container_proxy@std@@QAE@XZ			; std::_Container_proxy::_Container_proxy
PUBLIC	??0_Container_base12@std@@QAE@XZ		; std::_Container_base12::_Container_base12
PUBLIC	??1_Container_base12@std@@QAE@XZ		; std::_Container_base12::~_Container_base12
PUBLIC	?_Getpfirst@_Container_base12@std@@QBEPAPAU_Iterator_base12@2@XZ ; std::_Container_base12::_Getpfirst
PUBLIC	?_Orphan_all@_Container_base12@std@@QAEXXZ	; std::_Container_base12::_Orphan_all
PUBLIC	??0_Iterator_base12@std@@QAE@XZ			; std::_Iterator_base12::_Iterator_base12
PUBLIC	??0_Iterator_base12@std@@QAE@ABU01@@Z		; std::_Iterator_base12::_Iterator_base12
PUBLIC	??4_Iterator_base12@std@@QAEAAU01@ABU01@@Z	; std::_Iterator_base12::operator=
PUBLIC	??1_Iterator_base12@std@@QAE@XZ			; std::_Iterator_base12::~_Iterator_base12
PUBLIC	?_Adopt@_Iterator_base12@std@@QAEXPBU_Container_base12@2@@Z ; std::_Iterator_base12::_Adopt
PUBLIC	?_Clrcont@_Iterator_base12@std@@QAEXXZ		; std::_Iterator_base12::_Clrcont
PUBLIC	?_Getcont@_Iterator_base12@std@@QBEPBU_Container_base12@2@XZ ; std::_Iterator_base12::_Getcont
PUBLIC	?_Getpnext@_Iterator_base12@std@@QAEPAPAU12@XZ	; std::_Iterator_base12::_Getpnext
PUBLIC	?_Orphan_me@_Iterator_base12@std@@QAEXXZ	; std::_Iterator_base12::_Orphan_me
PUBLIC	?deallocate@?$allocator@D@std@@QAEXPADI@Z	; std::allocator<char>::deallocate
PUBLIC	?deallocate@?$_Wrap_alloc@V?$allocator@D@std@@@std@@QAEXPADI@Z ; std::_Wrap_alloc<std::allocator<char> >::deallocate
PUBLIC	?_Myptr@?$_String_val@U?$_Simple_types@D@std@@@std@@QAEPADXZ ; std::_String_val<std::_Simple_types<char> >::_Myptr
PUBLIC	?_Myptr@?$_String_val@U?$_Simple_types@D@std@@@std@@QBEPBDXZ ; std::_String_val<std::_Simple_types<char> >::_Myptr
PUBLIC	??1?$_String_val@U?$_Simple_types@D@std@@@std@@QAE@XZ ; std::_String_val<std::_Simple_types<char> >::~_String_val<std::_Simple_types<char> >
PUBLIC	?_Myptr@?$_String_alloc@U?$_String_base_types@DV?$allocator@D@std@@@std@@@std@@QAEPADXZ ; std::_String_alloc<std::_String_base_types<char,std::allocator<char> > >::_Myptr
PUBLIC	?_Myptr@?$_String_alloc@U?$_String_base_types@DV?$allocator@D@std@@@std@@@std@@QBEPBDXZ ; std::_String_alloc<std::_String_base_types<char,std::allocator<char> > >::_Myptr
PUBLIC	??1?$_String_alloc@U?$_String_base_types@DV?$allocator@D@std@@@std@@@std@@QAE@XZ ; std::_String_alloc<std::_String_base_types<char,std::allocator<char> > >::~_String_alloc<std::_String_base_types<char,std::allocator<char> > >
PUBLIC	?_Free_proxy@?$_String_alloc@U?$_String_base_types@DV?$allocator@D@std@@@std@@@std@@QAEXXZ ; std::_String_alloc<std::_String_base_types<char,std::allocator<char> > >::_Free_proxy
PUBLIC	?_Myproxy@?$_String_alloc@U?$_String_base_types@DV?$allocator@D@std@@@std@@@std@@QAEAAPAU_Container_proxy@2@XZ ; std::_String_alloc<std::_String_base_types<char,std::allocator<char> > >::_Myproxy
PUBLIC	?_Orphan_all@?$_String_alloc@U?$_String_base_types@DV?$allocator@D@std@@@std@@@std@@QAEXXZ ; std::_String_alloc<std::_String_base_types<char,std::allocator<char> > >::_Orphan_all
PUBLIC	?_Getal@?$_String_alloc@U?$_String_base_types@DV?$allocator@D@std@@@std@@@std@@QAEAAU?$_Wrap_alloc@V?$allocator@D@std@@@2@XZ ; std::_String_alloc<std::_String_base_types<char,std::allocator<char> > >::_Getal
PUBLIC	?_Get_data@?$_String_alloc@U?$_String_base_types@DV?$allocator@D@std@@@std@@@std@@QAEAAV?$_String_val@U?$_Simple_types@D@std@@@2@XZ ; std::_String_alloc<std::_String_base_types<char,std::allocator<char> > >::_Get_data
PUBLIC	?_Get_data@?$_String_alloc@U?$_String_base_types@DV?$allocator@D@std@@@std@@@std@@QBEABV?$_String_val@U?$_Simple_types@D@std@@@2@XZ ; std::_String_alloc<std::_String_base_types<char,std::allocator<char> > >::_Get_data
PUBLIC	?_Bx@?$_String_alloc@U?$_String_base_types@DV?$allocator@D@std@@@std@@@std@@QAEAAT_Bxty@?$_String_val@U?$_Simple_types@D@std@@@2@XZ ; std::_String_alloc<std::_String_base_types<char,std::allocator<char> > >::_Bx
PUBLIC	?_Mysize@?$_String_alloc@U?$_String_base_types@DV?$allocator@D@std@@@std@@@std@@QAEAAIXZ ; std::_String_alloc<std::_String_base_types<char,std::allocator<char> > >::_Mysize
PUBLIC	?_Mysize@?$_String_alloc@U?$_String_base_types@DV?$allocator@D@std@@@std@@@std@@QBEABIXZ ; std::_String_alloc<std::_String_base_types<char,std::allocator<char> > >::_Mysize
PUBLIC	?_Myres@?$_String_alloc@U?$_String_base_types@DV?$allocator@D@std@@@std@@@std@@QAEAAIXZ ; std::_String_alloc<std::_String_base_types<char,std::allocator<char> > >::_Myres
PUBLIC	?_Get_first@?$_Compressed_pair@U?$_Wrap_alloc@V?$allocator@D@std@@@std@@V?$_String_val@U?$_Simple_types@D@std@@@2@$00@std@@QAEAAU?$_Wrap_alloc@V?$allocator@D@std@@@2@XZ ; std::_Compressed_pair<std::_Wrap_alloc<std::allocator<char> >,std::_String_val<std::_Simple_types<char> >,1>::_Get_first
PUBLIC	?_Get_second@?$_Compressed_pair@U?$_Wrap_alloc@V?$allocator@D@std@@@std@@V?$_String_val@U?$_Simple_types@D@std@@@2@$00@std@@QAEAAV?$_String_val@U?$_Simple_types@D@std@@@2@XZ ; std::_Compressed_pair<std::_Wrap_alloc<std::allocator<char> >,std::_String_val<std::_Simple_types<char> >,1>::_Get_second
PUBLIC	?_Get_second@?$_Compressed_pair@U?$_Wrap_alloc@V?$allocator@D@std@@@std@@V?$_String_val@U?$_Simple_types@D@std@@@2@$00@std@@QBEABV?$_String_val@U?$_Simple_types@D@std@@@2@XZ ; std::_Compressed_pair<std::_Wrap_alloc<std::allocator<char> >,std::_String_val<std::_Simple_types<char> >,1>::_Get_second
PUBLIC	??1?$_Compressed_pair@U?$_Wrap_alloc@V?$allocator@D@std@@@std@@V?$_String_val@U?$_Simple_types@D@std@@@2@$00@std@@QAE@XZ ; std::_Compressed_pair<std::_Wrap_alloc<std::allocator<char> >,std::_String_val<std::_Simple_types<char> >,1>::~_Compressed_pair<std::_Wrap_alloc<std::allocator<char> >,std::_String_val<std::_Simple_types<char> >,1>
PUBLIC	??1?$basic_string@DU?$char_traits@D@std@@V?$allocator@D@2@@std@@QAE@XZ ; std::basic_string<char,std::char_traits<char>,std::allocator<char> >::~basic_string<char,std::char_traits<char>,std::allocator<char> >
PUBLIC	?c_str@?$basic_string@DU?$char_traits@D@std@@V?$allocator@D@2@@std@@QBEPBDXZ ; std::basic_string<char,std::char_traits<char>,std::allocator<char> >::c_str
PUBLIC	?size@?$basic_string@DU?$char_traits@D@std@@V?$allocator@D@2@@std@@QBEIXZ ; std::basic_string<char,std::char_traits<char>,std::allocator<char> >::size
PUBLIC	?_Eos@?$basic_string@DU?$char_traits@D@std@@V?$allocator@D@2@@std@@QAEXI@Z ; std::basic_string<char,std::char_traits<char>,std::allocator<char> >::_Eos
PUBLIC	?_Tidy@?$basic_string@DU?$char_traits@D@std@@V?$allocator@D@2@@std@@QAEX_NI@Z ; std::basic_string<char,std::char_traits<char>,std::allocator<char> >::_Tidy
PUBLIC	??0runtime_error@std@@QAE@PBD@Z			; std::runtime_error::runtime_error
PUBLIC	??1runtime_error@std@@UAE@XZ			; std::runtime_error::~runtime_error
PUBLIC	??0runtime_error@std@@QAE@ABV01@@Z		; std::runtime_error::runtime_error
PUBLIC	??_Gruntime_error@std@@UAEPAXI@Z		; std::runtime_error::`scalar deleting destructor'
PUBLIC	?RandFloat@@YANXZ				; RandFloat
PUBLIC	?RandBool@@YA_NXZ				; RandBool
PUBLIC	??0Vector2D@@QAE@XZ				; Vector2D::Vector2D
PUBLIC	?TextAtPos@Cgdi@@QAEXNNABV?$basic_string@DU?$char_traits@D@std@@V?$allocator@D@2@@std@@@Z ; Cgdi::TextAtPos
PUBLIC	?TransparentText@Cgdi@@QAEXXZ			; Cgdi::TransparentText
PUBLIC	?TextColor@Cgdi@@QAEXHHH@Z			; Cgdi::TextColor
PUBLIC	?Pos@BaseGameEntity@@QBE?AUVector2D@@XZ		; BaseGameEntity::Pos
PUBLIC	?isTargetPresent@Raven_TargetingSystem@@QBE_NXZ	; Raven_TargetingSystem::isTargetPresent
PUBLIC	?GetTarget@Raven_TargetingSystem@@QBEPAVRaven_Bot@@XZ ; Raven_TargetingSystem::GetTarget
PUBLIC	?GetTargetSys@Raven_Bot@@QAEQAVRaven_TargetingSystem@@XZ ; Raven_Bot::GetTargetSys
PUBLIC	?GetTargetBot@Raven_Bot@@QBEQAV1@XZ		; Raven_Bot::GetTargetBot
PUBLIC	?ActivateIfInactive@?$Goal@VRaven_Bot@@@@IAEXXZ	; Goal<Raven_Bot>::ActivateIfInactive
PUBLIC	?ReactivateIfFailed@?$Goal@VRaven_Bot@@@@IAEXXZ	; Goal<Raven_Bot>::ReactivateIfFailed
PUBLIC	??0?$Goal@VRaven_Bot@@@@QAE@PAVRaven_Bot@@H@Z	; Goal<Raven_Bot>::Goal<Raven_Bot>
PUBLIC	??1?$Goal@VRaven_Bot@@@@UAE@XZ			; Goal<Raven_Bot>::~Goal<Raven_Bot>
PUBLIC	?HandleMessage@?$Goal@VRaven_Bot@@@@UAE_NABUTelegram@@@Z ; Goal<Raven_Bot>::HandleMessage
PUBLIC	?AddSubgoal@?$Goal@VRaven_Bot@@@@UAEXPAV1@@Z	; Goal<Raven_Bot>::AddSubgoal
PUBLIC	?isComplete@?$Goal@VRaven_Bot@@@@QBE_NXZ	; Goal<Raven_Bot>::isComplete
PUBLIC	?isActive@?$Goal@VRaven_Bot@@@@QBE_NXZ		; Goal<Raven_Bot>::isActive
PUBLIC	?isInactive@?$Goal@VRaven_Bot@@@@QBE_NXZ	; Goal<Raven_Bot>::isInactive
PUBLIC	?hasFailed@?$Goal@VRaven_Bot@@@@QBE_NXZ		; Goal<Raven_Bot>::hasFailed
PUBLIC	?GetType@?$Goal@VRaven_Bot@@@@QBEHXZ		; Goal<Raven_Bot>::GetType
PUBLIC	?RenderAtPos@?$Goal@VRaven_Bot@@@@UBEXAAUVector2D@@PAVTypeToString@@@Z ; Goal<Raven_Bot>::RenderAtPos
PUBLIC	?Render@?$Goal@VRaven_Bot@@@@UAEXXZ		; Goal<Raven_Bot>::Render
PUBLIC	??_G?$Goal@VRaven_Bot@@@@UAEPAXI@Z		; Goal<Raven_Bot>::`scalar deleting destructor'
PUBLIC	??0?$allocator@PAV?$Goal@VRaven_Bot@@@@@std@@QAE@XZ ; std::allocator<Goal<Raven_Bot> *>::allocator<Goal<Raven_Bot> *>
PUBLIC	?deallocate@?$allocator@U?$_List_node@PAV?$Goal@VRaven_Bot@@@@PAX@std@@@std@@QAEXPAU?$_List_node@PAV?$Goal@VRaven_Bot@@@@PAX@2@I@Z ; std::allocator<std::_List_node<Goal<Raven_Bot> *,void *> >::deallocate
PUBLIC	?allocate@?$allocator@U?$_List_node@PAV?$Goal@VRaven_Bot@@@@PAX@std@@@std@@QAEPAU?$_List_node@PAV?$Goal@VRaven_Bot@@@@PAX@2@I@Z ; std::allocator<std::_List_node<Goal<Raven_Bot> *,void *> >::allocate
PUBLIC	?max_size@?$allocator@U?$_List_node@PAV?$Goal@VRaven_Bot@@@@PAX@std@@@std@@QBEIXZ ; std::allocator<std::_List_node<Goal<Raven_Bot> *,void *> >::max_size
PUBLIC	?max_size@?$allocator_traits@V?$allocator@U?$_List_node@PAV?$Goal@VRaven_Bot@@@@PAX@std@@@std@@@std@@SAIABV?$allocator@U?$_List_node@PAV?$Goal@VRaven_Bot@@@@PAX@std@@@2@@Z ; std::allocator_traits<std::allocator<std::_List_node<Goal<Raven_Bot> *,void *> > >::max_size
PUBLIC	?allocate@?$_Wrap_alloc@V?$allocator@U?$_List_node@PAV?$Goal@VRaven_Bot@@@@PAX@std@@@std@@@std@@QAEPAU?$_List_node@PAV?$Goal@VRaven_Bot@@@@PAX@2@I@Z ; std::_Wrap_alloc<std::allocator<std::_List_node<Goal<Raven_Bot> *,void *> > >::allocate
PUBLIC	?deallocate@?$_Wrap_alloc@V?$allocator@U?$_List_node@PAV?$Goal@VRaven_Bot@@@@PAX@std@@@std@@@std@@QAEXPAU?$_List_node@PAV?$Goal@VRaven_Bot@@@@PAX@2@I@Z ; std::_Wrap_alloc<std::allocator<std::_List_node<Goal<Raven_Bot> *,void *> > >::deallocate
PUBLIC	?max_size@?$_Wrap_alloc@V?$allocator@U?$_List_node@PAV?$Goal@VRaven_Bot@@@@PAX@std@@@std@@@std@@QBEIU_Nil@2@@Z ; std::_Wrap_alloc<std::allocator<std::_List_node<Goal<Raven_Bot> *,void *> > >::max_size
PUBLIC	?_Nextnode@?$_List_alloc@U?$_List_base_types@PAV?$Goal@VRaven_Bot@@@@V?$allocator@PAV?$Goal@VRaven_Bot@@@@@std@@@std@@@std@@SAAAPAU?$_List_node@PAV?$Goal@VRaven_Bot@@@@PAX@2@PAU32@@Z ; std::_List_alloc<std::_List_base_types<Goal<Raven_Bot> *,std::allocator<Goal<Raven_Bot> *> > >::_Nextnode
PUBLIC	?_Prevnode@?$_List_alloc@U?$_List_base_types@PAV?$Goal@VRaven_Bot@@@@V?$allocator@PAV?$Goal@VRaven_Bot@@@@@std@@@std@@@std@@SAAAPAU?$_List_node@PAV?$Goal@VRaven_Bot@@@@PAX@2@PAU32@@Z ; std::_List_alloc<std::_List_base_types<Goal<Raven_Bot> *,std::allocator<Goal<Raven_Bot> *> > >::_Prevnode
PUBLIC	?_Myval@?$_List_alloc@U?$_List_base_types@PAV?$Goal@VRaven_Bot@@@@V?$allocator@PAV?$Goal@VRaven_Bot@@@@@std@@@std@@@std@@SAAAPAV?$Goal@VRaven_Bot@@@@PAU?$_List_node@PAV?$Goal@VRaven_Bot@@@@PAX@2@@Z ; std::_List_alloc<std::_List_base_types<Goal<Raven_Bot> *,std::allocator<Goal<Raven_Bot> *> > >::_Myval
PUBLIC	??0?$_List_alloc@U?$_List_base_types@PAV?$Goal@VRaven_Bot@@@@V?$allocator@PAV?$Goal@VRaven_Bot@@@@@std@@@std@@@std@@QAE@ABV?$allocator@PAV?$Goal@VRaven_Bot@@@@@1@@Z ; std::_List_alloc<std::_List_base_types<Goal<Raven_Bot> *,std::allocator<Goal<Raven_Bot> *> > >::_List_alloc<std::_List_base_types<Goal<Raven_Bot> *,std::allocator<Goal<Raven_Bot> *> > >
PUBLIC	??1?$_List_alloc@U?$_List_base_types@PAV?$Goal@VRaven_Bot@@@@V?$allocator@PAV?$Goal@VRaven_Bot@@@@@std@@@std@@@std@@QAE@XZ ; std::_List_alloc<std::_List_base_types<Goal<Raven_Bot> *,std::allocator<Goal<Raven_Bot> *> > >::~_List_alloc<std::_List_base_types<Goal<Raven_Bot> *,std::allocator<Goal<Raven_Bot> *> > >
PUBLIC	?_Alloc_proxy@?$_List_alloc@U?$_List_base_types@PAV?$Goal@VRaven_Bot@@@@V?$allocator@PAV?$Goal@VRaven_Bot@@@@@std@@@std@@@std@@QAEXXZ ; std::_List_alloc<std::_List_base_types<Goal<Raven_Bot> *,std::allocator<Goal<Raven_Bot> *> > >::_Alloc_proxy
PUBLIC	?_Free_proxy@?$_List_alloc@U?$_List_base_types@PAV?$Goal@VRaven_Bot@@@@V?$allocator@PAV?$Goal@VRaven_Bot@@@@@std@@@std@@@std@@QAEXXZ ; std::_List_alloc<std::_List_base_types<Goal<Raven_Bot> *,std::allocator<Goal<Raven_Bot> *> > >::_Free_proxy
PUBLIC	?_Getpfirst@?$_List_alloc@U?$_List_base_types@PAV?$Goal@VRaven_Bot@@@@V?$allocator@PAV?$Goal@VRaven_Bot@@@@@std@@@std@@@std@@QBEPAPAU_Iterator_base12@2@XZ ; std::_List_alloc<std::_List_base_types<Goal<Raven_Bot> *,std::allocator<Goal<Raven_Bot> *> > >::_Getpfirst
PUBLIC	?_Myproxy@?$_List_alloc@U?$_List_base_types@PAV?$Goal@VRaven_Bot@@@@V?$allocator@PAV?$Goal@VRaven_Bot@@@@@std@@@std@@@std@@QAEAAPAU_Container_proxy@2@XZ ; std::_List_alloc<std::_List_base_types<Goal<Raven_Bot> *,std::allocator<Goal<Raven_Bot> *> > >::_Myproxy
PUBLIC	?_Buyheadnode@?$_List_alloc@U?$_List_base_types@PAV?$Goal@VRaven_Bot@@@@V?$allocator@PAV?$Goal@VRaven_Bot@@@@@std@@@std@@@std@@QAEPAU?$_List_node@PAV?$Goal@VRaven_Bot@@@@PAX@2@XZ ; std::_List_alloc<std::_List_base_types<Goal<Raven_Bot> *,std::allocator<Goal<Raven_Bot> *> > >::_Buyheadnode
PUBLIC	?_Freeheadnode@?$_List_alloc@U?$_List_base_types@PAV?$Goal@VRaven_Bot@@@@V?$allocator@PAV?$Goal@VRaven_Bot@@@@@std@@@std@@@std@@QAEXPAU?$_List_node@PAV?$Goal@VRaven_Bot@@@@PAX@2@@Z ; std::_List_alloc<std::_List_base_types<Goal<Raven_Bot> *,std::allocator<Goal<Raven_Bot> *> > >::_Freeheadnode
PUBLIC	?_Buynode0@?$_List_alloc@U?$_List_base_types@PAV?$Goal@VRaven_Bot@@@@V?$allocator@PAV?$Goal@VRaven_Bot@@@@@std@@@std@@@std@@QAEPAU?$_List_node@PAV?$Goal@VRaven_Bot@@@@PAX@2@PAU32@0@Z ; std::_List_alloc<std::_List_base_types<Goal<Raven_Bot> *,std::allocator<Goal<Raven_Bot> *> > >::_Buynode0
PUBLIC	?_Orphan_all@?$_List_alloc@U?$_List_base_types@PAV?$Goal@VRaven_Bot@@@@V?$allocator@PAV?$Goal@VRaven_Bot@@@@@std@@@std@@@std@@QAEXXZ ; std::_List_alloc<std::_List_base_types<Goal<Raven_Bot> *,std::allocator<Goal<Raven_Bot> *> > >::_Orphan_all
PUBLIC	?_Getal@?$_List_alloc@U?$_List_base_types@PAV?$Goal@VRaven_Bot@@@@V?$allocator@PAV?$Goal@VRaven_Bot@@@@@std@@@std@@@std@@QAEAAU?$_Wrap_alloc@V?$allocator@U?$_List_node@PAV?$Goal@VRaven_Bot@@@@PAX@std@@@std@@@2@XZ ; std::_List_alloc<std::_List_base_types<Goal<Raven_Bot> *,std::allocator<Goal<Raven_Bot> *> > >::_Getal
PUBLIC	?_Getal@?$_List_alloc@U?$_List_base_types@PAV?$Goal@VRaven_Bot@@@@V?$allocator@PAV?$Goal@VRaven_Bot@@@@@std@@@std@@@std@@QBEABU?$_Wrap_alloc@V?$allocator@U?$_List_node@PAV?$Goal@VRaven_Bot@@@@PAX@std@@@std@@@2@XZ ; std::_List_alloc<std::_List_base_types<Goal<Raven_Bot> *,std::allocator<Goal<Raven_Bot> *> > >::_Getal
PUBLIC	?_Get_data@?$_List_alloc@U?$_List_base_types@PAV?$Goal@VRaven_Bot@@@@V?$allocator@PAV?$Goal@VRaven_Bot@@@@@std@@@std@@@std@@QAEAAV?$_List_val@U?$_List_simple_types@PAV?$Goal@VRaven_Bot@@@@@std@@@2@XZ ; std::_List_alloc<std::_List_base_types<Goal<Raven_Bot> *,std::allocator<Goal<Raven_Bot> *> > >::_Get_data
PUBLIC	?_Get_data@?$_List_alloc@U?$_List_base_types@PAV?$Goal@VRaven_Bot@@@@V?$allocator@PAV?$Goal@VRaven_Bot@@@@@std@@@std@@@std@@QBEABV?$_List_val@U?$_List_simple_types@PAV?$Goal@VRaven_Bot@@@@@std@@@2@XZ ; std::_List_alloc<std::_List_base_types<Goal<Raven_Bot> *,std::allocator<Goal<Raven_Bot> *> > >::_Get_data
PUBLIC	?_Myhead@?$_List_alloc@U?$_List_base_types@PAV?$Goal@VRaven_Bot@@@@V?$allocator@PAV?$Goal@VRaven_Bot@@@@@std@@@std@@@std@@QAEAAPAU?$_List_node@PAV?$Goal@VRaven_Bot@@@@PAX@2@XZ ; std::_List_alloc<std::_List_base_types<Goal<Raven_Bot> *,std::allocator<Goal<Raven_Bot> *> > >::_Myhead
PUBLIC	?_Myhead@?$_List_alloc@U?$_List_base_types@PAV?$Goal@VRaven_Bot@@@@V?$allocator@PAV?$Goal@VRaven_Bot@@@@@std@@@std@@@std@@QBEABQAU?$_List_node@PAV?$Goal@VRaven_Bot@@@@PAX@2@XZ ; std::_List_alloc<std::_List_base_types<Goal<Raven_Bot> *,std::allocator<Goal<Raven_Bot> *> > >::_Myhead
PUBLIC	?_Mysize@?$_List_alloc@U?$_List_base_types@PAV?$Goal@VRaven_Bot@@@@V?$allocator@PAV?$Goal@VRaven_Bot@@@@@std@@@std@@@std@@QAEAAIXZ ; std::_List_alloc<std::_List_base_types<Goal<Raven_Bot> *,std::allocator<Goal<Raven_Bot> *> > >::_Mysize
PUBLIC	?_Mysize@?$_List_alloc@U?$_List_base_types@PAV?$Goal@VRaven_Bot@@@@V?$allocator@PAV?$Goal@VRaven_Bot@@@@@std@@@std@@@std@@QBEABIXZ ; std::_List_alloc<std::_List_base_types<Goal<Raven_Bot> *,std::allocator<Goal<Raven_Bot> *> > >::_Mysize
PUBLIC	??0?$_List_val@U?$_List_simple_types@PAV?$Goal@VRaven_Bot@@@@@std@@@std@@QAE@XZ ; std::_List_val<std::_List_simple_types<Goal<Raven_Bot> *> >::_List_val<std::_List_simple_types<Goal<Raven_Bot> *> >
PUBLIC	?_Nextnode@?$_List_val@U?$_List_simple_types@PAV?$Goal@VRaven_Bot@@@@@std@@@std@@SAAAPAU?$_List_node@PAV?$Goal@VRaven_Bot@@@@PAX@2@PAU32@@Z ; std::_List_val<std::_List_simple_types<Goal<Raven_Bot> *> >::_Nextnode
PUBLIC	?_Prevnode@?$_List_val@U?$_List_simple_types@PAV?$Goal@VRaven_Bot@@@@@std@@@std@@SAAAPAU?$_List_node@PAV?$Goal@VRaven_Bot@@@@PAX@2@PAU32@@Z ; std::_List_val<std::_List_simple_types<Goal<Raven_Bot> *> >::_Prevnode
PUBLIC	?_Myval@?$_List_val@U?$_List_simple_types@PAV?$Goal@VRaven_Bot@@@@@std@@@std@@SAAAPAV?$Goal@VRaven_Bot@@@@PAU?$_List_node@PAV?$Goal@VRaven_Bot@@@@PAX@2@@Z ; std::_List_val<std::_List_simple_types<Goal<Raven_Bot> *> >::_Myval
PUBLIC	??1?$_List_val@U?$_List_simple_types@PAV?$Goal@VRaven_Bot@@@@@std@@@std@@QAE@XZ ; std::_List_val<std::_List_simple_types<Goal<Raven_Bot> *> >::~_List_val<std::_List_simple_types<Goal<Raven_Bot> *> >
PUBLIC	?_Get_first@?$_Compressed_pair@U?$_Wrap_alloc@V?$allocator@U?$_List_node@PAV?$Goal@VRaven_Bot@@@@PAX@std@@@std@@@std@@V?$_List_val@U?$_List_simple_types@PAV?$Goal@VRaven_Bot@@@@@std@@@2@$00@std@@QAEAAU?$_Wrap_alloc@V?$allocator@U?$_List_node@PAV?$Goal@VRaven_Bot@@@@PAX@std@@@std@@@2@XZ ; std::_Compressed_pair<std::_Wrap_alloc<std::allocator<std::_List_node<Goal<Raven_Bot> *,void *> > >,std::_List_val<std::_List_simple_types<Goal<Raven_Bot> *> >,1>::_Get_first
PUBLIC	?_Get_first@?$_Compressed_pair@U?$_Wrap_alloc@V?$allocator@U?$_List_node@PAV?$Goal@VRaven_Bot@@@@PAX@std@@@std@@@std@@V?$_List_val@U?$_List_simple_types@PAV?$Goal@VRaven_Bot@@@@@std@@@2@$00@std@@QBEABU?$_Wrap_alloc@V?$allocator@U?$_List_node@PAV?$Goal@VRaven_Bot@@@@PAX@std@@@std@@@2@XZ ; std::_Compressed_pair<std::_Wrap_alloc<std::allocator<std::_List_node<Goal<Raven_Bot> *,void *> > >,std::_List_val<std::_List_simple_types<Goal<Raven_Bot> *> >,1>::_Get_first
PUBLIC	?_Get_second@?$_Compressed_pair@U?$_Wrap_alloc@V?$allocator@U?$_List_node@PAV?$Goal@VRaven_Bot@@@@PAX@std@@@std@@@std@@V?$_List_val@U?$_List_simple_types@PAV?$Goal@VRaven_Bot@@@@@std@@@2@$00@std@@QAEAAV?$_List_val@U?$_List_simple_types@PAV?$Goal@VRaven_Bot@@@@@std@@@2@XZ ; std::_Compressed_pair<std::_Wrap_alloc<std::allocator<std::_List_node<Goal<Raven_Bot> *,void *> > >,std::_List_val<std::_List_simple_types<Goal<Raven_Bot> *> >,1>::_Get_second
PUBLIC	?_Get_second@?$_Compressed_pair@U?$_Wrap_alloc@V?$allocator@U?$_List_node@PAV?$Goal@VRaven_Bot@@@@PAX@std@@@std@@@std@@V?$_List_val@U?$_List_simple_types@PAV?$Goal@VRaven_Bot@@@@@std@@@2@$00@std@@QBEABV?$_List_val@U?$_List_simple_types@PAV?$Goal@VRaven_Bot@@@@@std@@@2@XZ ; std::_Compressed_pair<std::_Wrap_alloc<std::allocator<std::_List_node<Goal<Raven_Bot> *,void *> > >,std::_List_val<std::_List_simple_types<Goal<Raven_Bot> *> >,1>::_Get_second
PUBLIC	??1?$_Compressed_pair@U?$_Wrap_alloc@V?$allocator@U?$_List_node@PAV?$Goal@VRaven_Bot@@@@PAX@std@@@std@@@std@@V?$_List_val@U?$_List_simple_types@PAV?$Goal@VRaven_Bot@@@@@std@@@2@$00@std@@QAE@XZ ; std::_Compressed_pair<std::_Wrap_alloc<std::allocator<std::_List_node<Goal<Raven_Bot> *,void *> > >,std::_List_val<std::_List_simple_types<Goal<Raven_Bot> *> >,1>::~_Compressed_pair<std::_Wrap_alloc<std::allocator<std::_List_node<Goal<Raven_Bot> *,void *> > >,std::_List_val<std::_List_simple_types<Goal<Raven_Bot> *> >,1>
PUBLIC	??0?$_List_buy@PAV?$Goal@VRaven_Bot@@@@V?$allocator@PAV?$Goal@VRaven_Bot@@@@@std@@@std@@QAE@ABV?$allocator@PAV?$Goal@VRaven_Bot@@@@@1@@Z ; std::_List_buy<Goal<Raven_Bot> *,std::allocator<Goal<Raven_Bot> *> >::_List_buy<Goal<Raven_Bot> *,std::allocator<Goal<Raven_Bot> *> >
PUBLIC	?_Freenode@?$_List_buy@PAV?$Goal@VRaven_Bot@@@@V?$allocator@PAV?$Goal@VRaven_Bot@@@@@std@@@std@@QAEXPAU?$_List_node@PAV?$Goal@VRaven_Bot@@@@PAX@2@@Z ; std::_List_buy<Goal<Raven_Bot> *,std::allocator<Goal<Raven_Bot> *> >::_Freenode
PUBLIC	??1?$_List_buy@PAV?$Goal@VRaven_Bot@@@@V?$allocator@PAV?$Goal@VRaven_Bot@@@@@std@@@std@@QAE@XZ ; std::_List_buy<Goal<Raven_Bot> *,std::allocator<Goal<Raven_Bot> *> >::~_List_buy<Goal<Raven_Bot> *,std::allocator<Goal<Raven_Bot> *> >
PUBLIC	??0?$list@PAV?$Goal@VRaven_Bot@@@@V?$allocator@PAV?$Goal@VRaven_Bot@@@@@std@@@std@@QAE@XZ ; std::list<Goal<Raven_Bot> *,std::allocator<Goal<Raven_Bot> *> >::list<Goal<Raven_Bot> *,std::allocator<Goal<Raven_Bot> *> >
PUBLIC	??1?$list@PAV?$Goal@VRaven_Bot@@@@V?$allocator@PAV?$Goal@VRaven_Bot@@@@@std@@@std@@QAE@XZ ; std::list<Goal<Raven_Bot> *,std::allocator<Goal<Raven_Bot> *> >::~list<Goal<Raven_Bot> *,std::allocator<Goal<Raven_Bot> *> >
PUBLIC	?begin@?$list@PAV?$Goal@VRaven_Bot@@@@V?$allocator@PAV?$Goal@VRaven_Bot@@@@@std@@@std@@QAE?AV?$_List_iterator@V?$_List_val@U?$_List_simple_types@PAV?$Goal@VRaven_Bot@@@@@std@@@std@@@2@XZ ; std::list<Goal<Raven_Bot> *,std::allocator<Goal<Raven_Bot> *> >::begin
PUBLIC	?begin@?$list@PAV?$Goal@VRaven_Bot@@@@V?$allocator@PAV?$Goal@VRaven_Bot@@@@@std@@@std@@QBE?AV?$_List_const_iterator@V?$_List_val@U?$_List_simple_types@PAV?$Goal@VRaven_Bot@@@@@std@@@std@@@2@XZ ; std::list<Goal<Raven_Bot> *,std::allocator<Goal<Raven_Bot> *> >::begin
PUBLIC	?end@?$list@PAV?$Goal@VRaven_Bot@@@@V?$allocator@PAV?$Goal@VRaven_Bot@@@@@std@@@std@@QAE?AV?$_List_iterator@V?$_List_val@U?$_List_simple_types@PAV?$Goal@VRaven_Bot@@@@@std@@@std@@@2@XZ ; std::list<Goal<Raven_Bot> *,std::allocator<Goal<Raven_Bot> *> >::end
PUBLIC	?end@?$list@PAV?$Goal@VRaven_Bot@@@@V?$allocator@PAV?$Goal@VRaven_Bot@@@@@std@@@std@@QBE?AV?$_List_const_iterator@V?$_List_val@U?$_List_simple_types@PAV?$Goal@VRaven_Bot@@@@@std@@@std@@@2@XZ ; std::list<Goal<Raven_Bot> *,std::allocator<Goal<Raven_Bot> *> >::end
PUBLIC	?_Unchecked_begin@?$list@PAV?$Goal@VRaven_Bot@@@@V?$allocator@PAV?$Goal@VRaven_Bot@@@@@std@@@std@@QAE?AV?$_List_unchecked_iterator@V?$_List_val@U?$_List_simple_types@PAV?$Goal@VRaven_Bot@@@@@std@@@std@@@2@XZ ; std::list<Goal<Raven_Bot> *,std::allocator<Goal<Raven_Bot> *> >::_Unchecked_begin
PUBLIC	?_Make_iter@?$list@PAV?$Goal@VRaven_Bot@@@@V?$allocator@PAV?$Goal@VRaven_Bot@@@@@std@@@std@@QBE?AV?$_List_iterator@V?$_List_val@U?$_List_simple_types@PAV?$Goal@VRaven_Bot@@@@@std@@@std@@@2@V?$_List_const_iterator@V?$_List_val@U?$_List_simple_types@PAV?$Goal@VRaven_Bot@@@@@std@@@std@@@2@@Z ; std::list<Goal<Raven_Bot> *,std::allocator<Goal<Raven_Bot> *> >::_Make_iter
PUBLIC	?rbegin@?$list@PAV?$Goal@VRaven_Bot@@@@V?$allocator@PAV?$Goal@VRaven_Bot@@@@@std@@@std@@QBE?AV?$reverse_iterator@V?$_List_const_iterator@V?$_List_val@U?$_List_simple_types@PAV?$Goal@VRaven_Bot@@@@@std@@@std@@@std@@@2@XZ ; std::list<Goal<Raven_Bot> *,std::allocator<Goal<Raven_Bot> *> >::rbegin
PUBLIC	?rend@?$list@PAV?$Goal@VRaven_Bot@@@@V?$allocator@PAV?$Goal@VRaven_Bot@@@@@std@@@std@@QBE?AV?$reverse_iterator@V?$_List_const_iterator@V?$_List_val@U?$_List_simple_types@PAV?$Goal@VRaven_Bot@@@@@std@@@std@@@std@@@2@XZ ; std::list<Goal<Raven_Bot> *,std::allocator<Goal<Raven_Bot> *> >::rend
PUBLIC	?size@?$list@PAV?$Goal@VRaven_Bot@@@@V?$allocator@PAV?$Goal@VRaven_Bot@@@@@std@@@std@@QBEIXZ ; std::list<Goal<Raven_Bot> *,std::allocator<Goal<Raven_Bot> *> >::size
PUBLIC	?max_size@?$list@PAV?$Goal@VRaven_Bot@@@@V?$allocator@PAV?$Goal@VRaven_Bot@@@@@std@@@std@@QBEIXZ ; std::list<Goal<Raven_Bot> *,std::allocator<Goal<Raven_Bot> *> >::max_size
PUBLIC	?empty@?$list@PAV?$Goal@VRaven_Bot@@@@V?$allocator@PAV?$Goal@VRaven_Bot@@@@@std@@@std@@QBE_NXZ ; std::list<Goal<Raven_Bot> *,std::allocator<Goal<Raven_Bot> *> >::empty
PUBLIC	?front@?$list@PAV?$Goal@VRaven_Bot@@@@V?$allocator@PAV?$Goal@VRaven_Bot@@@@@std@@@std@@QAEAAPAV?$Goal@VRaven_Bot@@@@XZ ; std::list<Goal<Raven_Bot> *,std::allocator<Goal<Raven_Bot> *> >::front
PUBLIC	?push_front@?$list@PAV?$Goal@VRaven_Bot@@@@V?$allocator@PAV?$Goal@VRaven_Bot@@@@@std@@@std@@QAEXABQAV?$Goal@VRaven_Bot@@@@@Z ; std::list<Goal<Raven_Bot> *,std::allocator<Goal<Raven_Bot> *> >::push_front
PUBLIC	?pop_front@?$list@PAV?$Goal@VRaven_Bot@@@@V?$allocator@PAV?$Goal@VRaven_Bot@@@@@std@@@std@@QAEXXZ ; std::list<Goal<Raven_Bot> *,std::allocator<Goal<Raven_Bot> *> >::pop_front
PUBLIC	?_Unlinknode@?$list@PAV?$Goal@VRaven_Bot@@@@V?$allocator@PAV?$Goal@VRaven_Bot@@@@@std@@@std@@QAEPAU?$_List_node@PAV?$Goal@VRaven_Bot@@@@PAX@2@V?$_List_const_iterator@V?$_List_val@U?$_List_simple_types@PAV?$Goal@VRaven_Bot@@@@@std@@@std@@@2@@Z ; std::list<Goal<Raven_Bot> *,std::allocator<Goal<Raven_Bot> *> >::_Unlinknode
PUBLIC	?erase@?$list@PAV?$Goal@VRaven_Bot@@@@V?$allocator@PAV?$Goal@VRaven_Bot@@@@@std@@@std@@QAE?AV?$_List_iterator@V?$_List_val@U?$_List_simple_types@PAV?$Goal@VRaven_Bot@@@@@std@@@std@@@2@V?$_List_const_iterator@V?$_List_val@U?$_List_simple_types@PAV?$Goal@VRaven_Bot@@@@@std@@@std@@@2@@Z ; std::list<Goal<Raven_Bot> *,std::allocator<Goal<Raven_Bot> *> >::erase
PUBLIC	?clear@?$list@PAV?$Goal@VRaven_Bot@@@@V?$allocator@PAV?$Goal@VRaven_Bot@@@@@std@@@std@@QAEXXZ ; std::list<Goal<Raven_Bot> *,std::allocator<Goal<Raven_Bot> *> >::clear
PUBLIC	?_Tidy@?$list@PAV?$Goal@VRaven_Bot@@@@V?$allocator@PAV?$Goal@VRaven_Bot@@@@@std@@@std@@QAEXXZ ; std::list<Goal<Raven_Bot> *,std::allocator<Goal<Raven_Bot> *> >::_Tidy
PUBLIC	?_Incsize@?$list@PAV?$Goal@VRaven_Bot@@@@V?$allocator@PAV?$Goal@VRaven_Bot@@@@@std@@@std@@QAEXI@Z ; std::list<Goal<Raven_Bot> *,std::allocator<Goal<Raven_Bot> *> >::_Incsize
PUBLIC	?_Orphan_ptr@?$list@PAV?$Goal@VRaven_Bot@@@@V?$allocator@PAV?$Goal@VRaven_Bot@@@@@std@@@std@@QAEXPAU?$_List_node@PAV?$Goal@VRaven_Bot@@@@PAX@2@@Z ; std::list<Goal<Raven_Bot> *,std::allocator<Goal<Raven_Bot> *> >::_Orphan_ptr
PUBLIC	?ProcessSubgoals@?$Goal_Composite@VRaven_Bot@@@@IAEHXZ ; Goal_Composite<Raven_Bot>::ProcessSubgoals
PUBLIC	?ForwardMessageToFrontMostSubgoal@?$Goal_Composite@VRaven_Bot@@@@IAE_NABUTelegram@@@Z ; Goal_Composite<Raven_Bot>::ForwardMessageToFrontMostSubgoal
PUBLIC	??0?$Goal_Composite@VRaven_Bot@@@@QAE@PAVRaven_Bot@@H@Z ; Goal_Composite<Raven_Bot>::Goal_Composite<Raven_Bot>
PUBLIC	??1?$Goal_Composite@VRaven_Bot@@@@UAE@XZ	; Goal_Composite<Raven_Bot>::~Goal_Composite<Raven_Bot>
PUBLIC	?HandleMessage@?$Goal_Composite@VRaven_Bot@@@@UAE_NABUTelegram@@@Z ; Goal_Composite<Raven_Bot>::HandleMessage
PUBLIC	?AddSubgoal@?$Goal_Composite@VRaven_Bot@@@@UAEXPAV?$Goal@VRaven_Bot@@@@@Z ; Goal_Composite<Raven_Bot>::AddSubgoal
PUBLIC	?RemoveAllSubgoals@?$Goal_Composite@VRaven_Bot@@@@QAEXXZ ; Goal_Composite<Raven_Bot>::RemoveAllSubgoals
PUBLIC	?RenderAtPos@?$Goal_Composite@VRaven_Bot@@@@UBEXAAUVector2D@@PAVTypeToString@@@Z ; Goal_Composite<Raven_Bot>::RenderAtPos
PUBLIC	?Render@?$Goal_Composite@VRaven_Bot@@@@UAEXXZ	; Goal_Composite<Raven_Bot>::Render
PUBLIC	??_G?$Goal_Composite@VRaven_Bot@@@@UAEPAXI@Z	; Goal_Composite<Raven_Bot>::`scalar deleting destructor'
PUBLIC	?Activate@Goal_AttackTarget@@UAEXXZ		; Goal_AttackTarget::Activate
PUBLIC	?Process@Goal_AttackTarget@@UAEHXZ		; Goal_AttackTarget::Process
PUBLIC	??0Goal_HuntTarget@@QAE@PAVRaven_Bot@@@Z	; Goal_HuntTarget::Goal_HuntTarget
PUBLIC	?Terminate@Goal_HuntTarget@@UAEXXZ		; Goal_HuntTarget::Terminate
PUBLIC	??1Goal_HuntTarget@@UAE@XZ			; Goal_HuntTarget::~Goal_HuntTarget
PUBLIC	??_GGoal_HuntTarget@@UAEPAXI@Z			; Goal_HuntTarget::`scalar deleting destructor'
PUBLIC	??0Goal_DodgeSideToSide@@QAE@PAVRaven_Bot@@@Z	; Goal_DodgeSideToSide::Goal_DodgeSideToSide
PUBLIC	??1Goal_DodgeSideToSide@@UAE@XZ			; Goal_DodgeSideToSide::~Goal_DodgeSideToSide
PUBLIC	??_GGoal_DodgeSideToSide@@UAEPAXI@Z		; Goal_DodgeSideToSide::`scalar deleting destructor'
PUBLIC	??$destroy@PAD@?$_Wrap_alloc@V?$allocator@D@std@@@std@@QAEXPAPAD@Z ; std::_Wrap_alloc<std::allocator<char> >::destroy<char *>
PUBLIC	??$addressof@D@std@@YAPADAAD@Z			; std::addressof<char>
PUBLIC	?deallocate@?$allocator@U_Container_proxy@std@@@std@@QAEXPAU_Container_proxy@2@I@Z ; std::allocator<std::_Container_proxy>::deallocate
PUBLIC	?allocate@?$allocator@U_Container_proxy@std@@@std@@QAEPAU_Container_proxy@2@I@Z ; std::allocator<std::_Container_proxy>::allocate
PUBLIC	?allocate@?$_Wrap_alloc@V?$allocator@U_Container_proxy@std@@@std@@@std@@QAEPAU_Container_proxy@2@I@Z ; std::_Wrap_alloc<std::allocator<std::_Container_proxy> >::allocate
PUBLIC	?deallocate@?$_Wrap_alloc@V?$allocator@U_Container_proxy@std@@@std@@@std@@QAEXPAU_Container_proxy@2@I@Z ; std::_Wrap_alloc<std::allocator<std::_Container_proxy> >::deallocate
PUBLIC	??$destroy@U_Container_proxy@std@@@?$_Wrap_alloc@V?$allocator@U_Container_proxy@std@@@std@@@std@@QAEXPAU_Container_proxy@1@@Z ; std::_Wrap_alloc<std::allocator<std::_Container_proxy> >::destroy<std::_Container_proxy>
PUBLIC	??$construct@U_Container_proxy@std@@U12@@?$_Wrap_alloc@V?$allocator@U_Container_proxy@std@@@std@@@std@@QAEXPAU_Container_proxy@1@$$QAU21@@Z ; std::_Wrap_alloc<std::allocator<std::_Container_proxy> >::construct<std::_Container_proxy,std::_Container_proxy>
PUBLIC	??$?0U?$_Wrap_alloc@V?$allocator@D@std@@@std@@@?$_Wrap_alloc@V?$allocator@U_Container_proxy@std@@@std@@@std@@QAE@AAU?$_Wrap_alloc@V?$allocator@D@std@@@1@@Z ; std::_Wrap_alloc<std::allocator<std::_Container_proxy> >::_Wrap_alloc<std::allocator<std::_Container_proxy> ><std::_Wrap_alloc<std::allocator<char> > >
PUBLIC	??$?0D@?$allocator@U_Container_proxy@std@@@std@@QAE@ABV?$allocator@D@1@@Z ; std::allocator<std::_Container_proxy>::allocator<std::_Container_proxy><char>
PUBLIC	??$addressof@PAU?$_List_node@PAV?$Goal@VRaven_Bot@@@@PAX@std@@@std@@YAPAPAU?$_List_node@PAV?$Goal@VRaven_Bot@@@@PAX@0@AAPAU10@@Z ; std::addressof<std::_List_node<Goal<Raven_Bot> *,void *> *>
PUBLIC	??$destroy@PAU?$_List_node@PAV?$Goal@VRaven_Bot@@@@PAX@std@@@?$_Wrap_alloc@V?$allocator@U?$_List_node@PAV?$Goal@VRaven_Bot@@@@PAX@std@@@std@@@std@@QAEXPAPAU?$_List_node@PAV?$Goal@VRaven_Bot@@@@PAX@1@@Z ; std::_Wrap_alloc<std::allocator<std::_List_node<Goal<Raven_Bot> *,void *> > >::destroy<std::_List_node<Goal<Raven_Bot> *,void *> *>
PUBLIC	??$?0U?$_Wrap_alloc@V?$allocator@U?$_List_node@PAV?$Goal@VRaven_Bot@@@@PAX@std@@@std@@@std@@@?$_Wrap_alloc@V?$allocator@U_Container_proxy@std@@@std@@@std@@QAE@AAU?$_Wrap_alloc@V?$allocator@U?$_List_node@PAV?$Goal@VRaven_Bot@@@@PAX@std@@@std@@@1@@Z ; std::_Wrap_alloc<std::allocator<std::_Container_proxy> >::_Wrap_alloc<std::allocator<std::_Container_proxy> ><std::_Wrap_alloc<std::allocator<std::_List_node<Goal<Raven_Bot> *,void *> > > >
PUBLIC	??$?0U?$_List_node@PAV?$Goal@VRaven_Bot@@@@PAX@std@@@?$allocator@U_Container_proxy@std@@@std@@QAE@ABV?$allocator@U?$_List_node@PAV?$Goal@VRaven_Bot@@@@PAX@std@@@1@@Z ; std::allocator<std::_Container_proxy>::allocator<std::_Container_proxy><std::_List_node<Goal<Raven_Bot> *,void *> >
PUBLIC	??$?0ABV?$allocator@PAV?$Goal@VRaven_Bot@@@@@std@@$$V@?$_Compressed_pair@U?$_Wrap_alloc@V?$allocator@U?$_List_node@PAV?$Goal@VRaven_Bot@@@@PAX@std@@@std@@@std@@V?$_List_val@U?$_List_simple_types@PAV?$Goal@VRaven_Bot@@@@@std@@@2@$00@std@@QAE@U_One_then_variadic_args_t@1@ABV?$allocator@PAV?$Goal@VRaven_Bot@@@@@1@@Z ; std::_Compressed_pair<std::_Wrap_alloc<std::allocator<std::_List_node<Goal<Raven_Bot> *,void *> > >,std::_List_val<std::_List_simple_types<Goal<Raven_Bot> *> >,1>::_Compressed_pair<std::_Wrap_alloc<std::allocator<std::_List_node<Goal<Raven_Bot> *,void *> > >,std::_List_val<std::_List_simple_types<Goal<Raven_Bot> *> >,1><std::allocator<Goal<Raven_Bot> *> const &>
PUBLIC	??$_Deallocate@D@std@@YAXPADI@Z			; std::_Deallocate<char>
PUBLIC	??$_Allocate@U_Container_proxy@std@@@std@@YAPAU_Container_proxy@0@IPAU10@_N@Z ; std::_Allocate<std::_Container_proxy>
PUBLIC	??$_Deallocate@U_Container_proxy@std@@@std@@YAXPAU_Container_proxy@0@I@Z ; std::_Deallocate<std::_Container_proxy>
PUBLIC	??$addressof@PAV?$Goal@VRaven_Bot@@@@@std@@YAPAPAV?$Goal@VRaven_Bot@@@@AAPAV1@@Z ; std::addressof<Goal<Raven_Bot> *>
PUBLIC	??$destroy@PAV?$Goal@VRaven_Bot@@@@@?$_Wrap_alloc@V?$allocator@U?$_List_node@PAV?$Goal@VRaven_Bot@@@@PAX@std@@@std@@@std@@QAEXPAPAV?$Goal@VRaven_Bot@@@@@Z ; std::_Wrap_alloc<std::allocator<std::_List_node<Goal<Raven_Bot> *,void *> > >::destroy<Goal<Raven_Bot> *>
PUBLIC	??0?$_Iterator012@Ubidirectional_iterator_tag@std@@PAV?$Goal@VRaven_Bot@@@@HPBQAV3@ABQAV3@U_Iterator_base12@2@@std@@QAE@XZ ; std::_Iterator012<std::bidirectional_iterator_tag,Goal<Raven_Bot> *,int,Goal<Raven_Bot> * const *,Goal<Raven_Bot> * const &,std::_Iterator_base12>::_Iterator012<std::bidirectional_iterator_tag,Goal<Raven_Bot> *,int,Goal<Raven_Bot> * const *,Goal<Raven_Bot> * const &,std::_Iterator_base12>
PUBLIC	??1?$_Iterator012@Ubidirectional_iterator_tag@std@@PAV?$Goal@VRaven_Bot@@@@HPBQAV3@ABQAV3@U_Iterator_base12@2@@std@@QAE@XZ ; std::_Iterator012<std::bidirectional_iterator_tag,Goal<Raven_Bot> *,int,Goal<Raven_Bot> * const *,Goal<Raven_Bot> * const &,std::_Iterator_base12>::~_Iterator012<std::bidirectional_iterator_tag,Goal<Raven_Bot> *,int,Goal<Raven_Bot> * const *,Goal<Raven_Bot> * const &,std::_Iterator_base12>
PUBLIC	??0?$_Iterator012@Ubidirectional_iterator_tag@std@@PAV?$Goal@VRaven_Bot@@@@HPBQAV3@ABQAV3@U_Iterator_base12@2@@std@@QAE@ABU01@@Z ; std::_Iterator012<std::bidirectional_iterator_tag,Goal<Raven_Bot> *,int,Goal<Raven_Bot> * const *,Goal<Raven_Bot> * const &,std::_Iterator_base12>::_Iterator012<std::bidirectional_iterator_tag,Goal<Raven_Bot> *,int,Goal<Raven_Bot> * const *,Goal<Raven_Bot> * const &,std::_Iterator_base12>
PUBLIC	??0?$_Iterator012@Ubidirectional_iterator_tag@std@@PAV?$Goal@VRaven_Bot@@@@HPBQAV3@ABQAV3@U_Iterator_base12@2@@std@@QAE@$$QAU01@@Z ; std::_Iterator012<std::bidirectional_iterator_tag,Goal<Raven_Bot> *,int,Goal<Raven_Bot> * const *,Goal<Raven_Bot> * const &,std::_Iterator_base12>::_Iterator012<std::bidirectional_iterator_tag,Goal<Raven_Bot> *,int,Goal<Raven_Bot> * const *,Goal<Raven_Bot> * const &,std::_Iterator_base12>
PUBLIC	??4?$_Iterator012@Ubidirectional_iterator_tag@std@@PAV?$Goal@VRaven_Bot@@@@HPBQAV3@ABQAV3@U_Iterator_base12@2@@std@@QAEAAU01@$$QAU01@@Z ; std::_Iterator012<std::bidirectional_iterator_tag,Goal<Raven_Bot> *,int,Goal<Raven_Bot> * const *,Goal<Raven_Bot> * const &,std::_Iterator_base12>::operator=
PUBLIC	??0?$_List_unchecked_const_iterator@V?$_List_val@U?$_List_simple_types@PAV?$Goal@VRaven_Bot@@@@@std@@@std@@U_Iterator_base12@2@@std@@QAE@XZ ; std::_List_unchecked_const_iterator<std::_List_val<std::_List_simple_types<Goal<Raven_Bot> *> >,std::_Iterator_base12>::_List_unchecked_const_iterator<std::_List_val<std::_List_simple_types<Goal<Raven_Bot> *> >,std::_Iterator_base12>
PUBLIC	??0?$_List_unchecked_const_iterator@V?$_List_val@U?$_List_simple_types@PAV?$Goal@VRaven_Bot@@@@@std@@@std@@U_Iterator_base12@2@@std@@QAE@PAU?$_List_node@PAV?$Goal@VRaven_Bot@@@@PAX@1@PBV?$_List_val@U?$_List_simple_types@PAV?$Goal@VRaven_Bot@@@@@std@@@1@@Z ; std::_List_unchecked_const_iterator<std::_List_val<std::_List_simple_types<Goal<Raven_Bot> *> >,std::_Iterator_base12>::_List_unchecked_const_iterator<std::_List_val<std::_List_simple_types<Goal<Raven_Bot> *> >,std::_Iterator_base12>
PUBLIC	?_Mynode@?$_List_unchecked_const_iterator@V?$_List_val@U?$_List_simple_types@PAV?$Goal@VRaven_Bot@@@@@std@@@std@@U_Iterator_base12@2@@std@@QBEPAU?$_List_node@PAV?$Goal@VRaven_Bot@@@@PAX@2@XZ ; std::_List_unchecked_const_iterator<std::_List_val<std::_List_simple_types<Goal<Raven_Bot> *> >,std::_Iterator_base12>::_Mynode
PUBLIC	??1?$_List_unchecked_const_iterator@V?$_List_val@U?$_List_simple_types@PAV?$Goal@VRaven_Bot@@@@@std@@@std@@U_Iterator_base12@2@@std@@QAE@XZ ; std::_List_unchecked_const_iterator<std::_List_val<std::_List_simple_types<Goal<Raven_Bot> *> >,std::_Iterator_base12>::~_List_unchecked_const_iterator<std::_List_val<std::_List_simple_types<Goal<Raven_Bot> *> >,std::_Iterator_base12>
PUBLIC	??0?$_List_unchecked_const_iterator@V?$_List_val@U?$_List_simple_types@PAV?$Goal@VRaven_Bot@@@@@std@@@std@@U_Iterator_base12@2@@std@@QAE@ABV01@@Z ; std::_List_unchecked_const_iterator<std::_List_val<std::_List_simple_types<Goal<Raven_Bot> *> >,std::_Iterator_base12>::_List_unchecked_const_iterator<std::_List_val<std::_List_simple_types<Goal<Raven_Bot> *> >,std::_Iterator_base12>
PUBLIC	??0?$_List_unchecked_const_iterator@V?$_List_val@U?$_List_simple_types@PAV?$Goal@VRaven_Bot@@@@@std@@@std@@U_Iterator_base12@2@@std@@QAE@$$QAV01@@Z ; std::_List_unchecked_const_iterator<std::_List_val<std::_List_simple_types<Goal<Raven_Bot> *> >,std::_Iterator_base12>::_List_unchecked_const_iterator<std::_List_val<std::_List_simple_types<Goal<Raven_Bot> *> >,std::_Iterator_base12>
PUBLIC	??4?$_List_unchecked_const_iterator@V?$_List_val@U?$_List_simple_types@PAV?$Goal@VRaven_Bot@@@@@std@@@std@@U_Iterator_base12@2@@std@@QAEAAV01@$$QAV01@@Z ; std::_List_unchecked_const_iterator<std::_List_val<std::_List_simple_types<Goal<Raven_Bot> *> >,std::_Iterator_base12>::operator=
PUBLIC	??0?$_List_const_iterator@V?$_List_val@U?$_List_simple_types@PAV?$Goal@VRaven_Bot@@@@@std@@@std@@@std@@QAE@XZ ; std::_List_const_iterator<std::_List_val<std::_List_simple_types<Goal<Raven_Bot> *> > >::_List_const_iterator<std::_List_val<std::_List_simple_types<Goal<Raven_Bot> *> > >
PUBLIC	??0?$_List_const_iterator@V?$_List_val@U?$_List_simple_types@PAV?$Goal@VRaven_Bot@@@@@std@@@std@@@std@@QAE@PAU?$_List_node@PAV?$Goal@VRaven_Bot@@@@PAX@1@PBV?$_List_val@U?$_List_simple_types@PAV?$Goal@VRaven_Bot@@@@@std@@@1@@Z ; std::_List_const_iterator<std::_List_val<std::_List_simple_types<Goal<Raven_Bot> *> > >::_List_const_iterator<std::_List_val<std::_List_simple_types<Goal<Raven_Bot> *> > >
PUBLIC	??D?$_List_const_iterator@V?$_List_val@U?$_List_simple_types@PAV?$Goal@VRaven_Bot@@@@@std@@@std@@@std@@QBEABQAV?$Goal@VRaven_Bot@@@@XZ ; std::_List_const_iterator<std::_List_val<std::_List_simple_types<Goal<Raven_Bot> *> > >::operator*
PUBLIC	??E?$_List_const_iterator@V?$_List_val@U?$_List_simple_types@PAV?$Goal@VRaven_Bot@@@@@std@@@std@@@std@@QAEAAV01@XZ ; std::_List_const_iterator<std::_List_val<std::_List_simple_types<Goal<Raven_Bot> *> > >::operator++
PUBLIC	??E?$_List_const_iterator@V?$_List_val@U?$_List_simple_types@PAV?$Goal@VRaven_Bot@@@@@std@@@std@@@std@@QAE?AV01@H@Z ; std::_List_const_iterator<std::_List_val<std::_List_simple_types<Goal<Raven_Bot> *> > >::operator++
PUBLIC	??F?$_List_const_iterator@V?$_List_val@U?$_List_simple_types@PAV?$Goal@VRaven_Bot@@@@@std@@@std@@@std@@QAEAAV01@XZ ; std::_List_const_iterator<std::_List_val<std::_List_simple_types<Goal<Raven_Bot> *> > >::operator--
PUBLIC	??8?$_List_const_iterator@V?$_List_val@U?$_List_simple_types@PAV?$Goal@VRaven_Bot@@@@@std@@@std@@@std@@QBE_NABV01@@Z ; std::_List_const_iterator<std::_List_val<std::_List_simple_types<Goal<Raven_Bot> *> > >::operator==
PUBLIC	??9?$_List_const_iterator@V?$_List_val@U?$_List_simple_types@PAV?$Goal@VRaven_Bot@@@@@std@@@std@@@std@@QBE_NABV01@@Z ; std::_List_const_iterator<std::_List_val<std::_List_simple_types<Goal<Raven_Bot> *> > >::operator!=
PUBLIC	??1?$_List_const_iterator@V?$_List_val@U?$_List_simple_types@PAV?$Goal@VRaven_Bot@@@@@std@@@std@@@std@@QAE@XZ ; std::_List_const_iterator<std::_List_val<std::_List_simple_types<Goal<Raven_Bot> *> > >::~_List_const_iterator<std::_List_val<std::_List_simple_types<Goal<Raven_Bot> *> > >
PUBLIC	??0?$_List_const_iterator@V?$_List_val@U?$_List_simple_types@PAV?$Goal@VRaven_Bot@@@@@std@@@std@@@std@@QAE@ABV01@@Z ; std::_List_const_iterator<std::_List_val<std::_List_simple_types<Goal<Raven_Bot> *> > >::_List_const_iterator<std::_List_val<std::_List_simple_types<Goal<Raven_Bot> *> > >
PUBLIC	??0?$_List_const_iterator@V?$_List_val@U?$_List_simple_types@PAV?$Goal@VRaven_Bot@@@@@std@@@std@@@std@@QAE@$$QAV01@@Z ; std::_List_const_iterator<std::_List_val<std::_List_simple_types<Goal<Raven_Bot> *> > >::_List_const_iterator<std::_List_val<std::_List_simple_types<Goal<Raven_Bot> *> > >
PUBLIC	??4?$_List_const_iterator@V?$_List_val@U?$_List_simple_types@PAV?$Goal@VRaven_Bot@@@@@std@@@std@@@std@@QAEAAV01@$$QAV01@@Z ; std::_List_const_iterator<std::_List_val<std::_List_simple_types<Goal<Raven_Bot> *> > >::operator=
PUBLIC	??$_Deallocate@U?$_List_node@PAV?$Goal@VRaven_Bot@@@@PAX@std@@@std@@YAXPAU?$_List_node@PAV?$Goal@VRaven_Bot@@@@PAX@0@I@Z ; std::_Deallocate<std::_List_node<Goal<Raven_Bot> *,void *> >
PUBLIC	??$construct@PAU?$_List_node@PAV?$Goal@VRaven_Bot@@@@PAX@std@@AAPAU12@@?$_Wrap_alloc@V?$allocator@U?$_List_node@PAV?$Goal@VRaven_Bot@@@@PAX@std@@@std@@@std@@QAEXPAPAU?$_List_node@PAV?$Goal@VRaven_Bot@@@@PAX@1@AAPAU21@@Z ; std::_Wrap_alloc<std::allocator<std::_List_node<Goal<Raven_Bot> *,void *> > >::construct<std::_List_node<Goal<Raven_Bot> *,void *> *,std::_List_node<Goal<Raven_Bot> *,void *> * &>
PUBLIC	??$_Allocate@U?$_List_node@PAV?$Goal@VRaven_Bot@@@@PAX@std@@@std@@YAPAU?$_List_node@PAV?$Goal@VRaven_Bot@@@@PAX@0@IPAU10@_N@Z ; std::_Allocate<std::_List_node<Goal<Raven_Bot> *,void *> >
PUBLIC	??0?$_List_iterator@V?$_List_val@U?$_List_simple_types@PAV?$Goal@VRaven_Bot@@@@@std@@@std@@@std@@QAE@PAU?$_List_node@PAV?$Goal@VRaven_Bot@@@@PAX@1@PBV?$_List_val@U?$_List_simple_types@PAV?$Goal@VRaven_Bot@@@@@std@@@1@@Z ; std::_List_iterator<std::_List_val<std::_List_simple_types<Goal<Raven_Bot> *> > >::_List_iterator<std::_List_val<std::_List_simple_types<Goal<Raven_Bot> *> > >
PUBLIC	??D?$_List_iterator@V?$_List_val@U?$_List_simple_types@PAV?$Goal@VRaven_Bot@@@@@std@@@std@@@std@@QBEAAPAV?$Goal@VRaven_Bot@@@@XZ ; std::_List_iterator<std::_List_val<std::_List_simple_types<Goal<Raven_Bot> *> > >::operator*
PUBLIC	??E?$_List_iterator@V?$_List_val@U?$_List_simple_types@PAV?$Goal@VRaven_Bot@@@@@std@@@std@@@std@@QAEAAV01@XZ ; std::_List_iterator<std::_List_val<std::_List_simple_types<Goal<Raven_Bot> *> > >::operator++
PUBLIC	??1?$_List_iterator@V?$_List_val@U?$_List_simple_types@PAV?$Goal@VRaven_Bot@@@@@std@@@std@@@std@@QAE@XZ ; std::_List_iterator<std::_List_val<std::_List_simple_types<Goal<Raven_Bot> *> > >::~_List_iterator<std::_List_val<std::_List_simple_types<Goal<Raven_Bot> *> > >
PUBLIC	??0?$reverse_iterator@V?$_List_const_iterator@V?$_List_val@U?$_List_simple_types@PAV?$Goal@VRaven_Bot@@@@@std@@@std@@@std@@@std@@QAE@XZ ; std::reverse_iterator<std::_List_const_iterator<std::_List_val<std::_List_simple_types<Goal<Raven_Bot> *> > > >::reverse_iterator<std::_List_const_iterator<std::_List_val<std::_List_simple_types<Goal<Raven_Bot> *> > > >
PUBLIC	??0?$reverse_iterator@V?$_List_const_iterator@V?$_List_val@U?$_List_simple_types@PAV?$Goal@VRaven_Bot@@@@@std@@@std@@@std@@@std@@QAE@V?$_List_const_iterator@V?$_List_val@U?$_List_simple_types@PAV?$Goal@VRaven_Bot@@@@@std@@@std@@@1@@Z ; std::reverse_iterator<std::_List_const_iterator<std::_List_val<std::_List_simple_types<Goal<Raven_Bot> *> > > >::reverse_iterator<std::_List_const_iterator<std::_List_val<std::_List_simple_types<Goal<Raven_Bot> *> > > >
PUBLIC	?base@?$reverse_iterator@V?$_List_const_iterator@V?$_List_val@U?$_List_simple_types@PAV?$Goal@VRaven_Bot@@@@@std@@@std@@@std@@@std@@QBE?AV?$_List_const_iterator@V?$_List_val@U?$_List_simple_types@PAV?$Goal@VRaven_Bot@@@@@std@@@std@@@2@XZ ; std::reverse_iterator<std::_List_const_iterator<std::_List_val<std::_List_simple_types<Goal<Raven_Bot> *> > > >::base
PUBLIC	??D?$reverse_iterator@V?$_List_const_iterator@V?$_List_val@U?$_List_simple_types@PAV?$Goal@VRaven_Bot@@@@@std@@@std@@@std@@@std@@QBEABQAV?$Goal@VRaven_Bot@@@@XZ ; std::reverse_iterator<std::_List_const_iterator<std::_List_val<std::_List_simple_types<Goal<Raven_Bot> *> > > >::operator*
PUBLIC	??E?$reverse_iterator@V?$_List_const_iterator@V?$_List_val@U?$_List_simple_types@PAV?$Goal@VRaven_Bot@@@@@std@@@std@@@std@@@std@@QAEAAV01@XZ ; std::reverse_iterator<std::_List_const_iterator<std::_List_val<std::_List_simple_types<Goal<Raven_Bot> *> > > >::operator++
PUBLIC	??1?$reverse_iterator@V?$_List_const_iterator@V?$_List_val@U?$_List_simple_types@PAV?$Goal@VRaven_Bot@@@@@std@@@std@@@std@@@std@@QAE@XZ ; std::reverse_iterator<std::_List_const_iterator<std::_List_val<std::_List_simple_types<Goal<Raven_Bot> *> > > >::~reverse_iterator<std::_List_const_iterator<std::_List_val<std::_List_simple_types<Goal<Raven_Bot> *> > > >
PUBLIC	??4?$reverse_iterator@V?$_List_const_iterator@V?$_List_val@U?$_List_simple_types@PAV?$Goal@VRaven_Bot@@@@@std@@@std@@@std@@@std@@QAEAAV01@$$QAV01@@Z ; std::reverse_iterator<std::_List_const_iterator<std::_List_val<std::_List_simple_types<Goal<Raven_Bot> *> > > >::operator=
PUBLIC	??$?9V?$_List_const_iterator@V?$_List_val@U?$_List_simple_types@PAV?$Goal@VRaven_Bot@@@@@std@@@std@@@std@@V01@@std@@YA_NABV?$reverse_iterator@V?$_List_const_iterator@V?$_List_val@U?$_List_simple_types@PAV?$Goal@VRaven_Bot@@@@@std@@@std@@@std@@@0@0@Z ; std::operator!=<std::_List_const_iterator<std::_List_val<std::_List_simple_types<Goal<Raven_Bot> *> > >,std::_List_const_iterator<std::_List_val<std::_List_simple_types<Goal<Raven_Bot> *> > > >
PUBLIC	??$destroy@PAD@?$allocator_traits@V?$allocator@D@std@@@std@@SAXAAV?$allocator@D@1@PAPAD@Z ; std::allocator_traits<std::allocator<char> >::destroy<char *>
PUBLIC	??$_Addressof@D@std@@YAPADAADU?$integral_constant@_N$0A@@0@@Z ; std::_Addressof<char>
PUBLIC	??$destroy@U_Container_proxy@std@@@?$allocator_traits@V?$allocator@U_Container_proxy@std@@@std@@@std@@SAXAAV?$allocator@U_Container_proxy@std@@@1@PAU_Container_proxy@1@@Z ; std::allocator_traits<std::allocator<std::_Container_proxy> >::destroy<std::_Container_proxy>
PUBLIC	??$forward@U_Container_proxy@std@@@std@@YA$$QAU_Container_proxy@0@AAU10@@Z ; std::forward<std::_Container_proxy>
PUBLIC	??$construct@U_Container_proxy@std@@U12@@?$allocator_traits@V?$allocator@U_Container_proxy@std@@@std@@@std@@SAXAAV?$allocator@U_Container_proxy@std@@@1@PAU_Container_proxy@1@$$QAU31@@Z ; std::allocator_traits<std::allocator<std::_Container_proxy> >::construct<std::_Container_proxy,std::_Container_proxy>
PUBLIC	??$_Addressof@PAU?$_List_node@PAV?$Goal@VRaven_Bot@@@@PAX@std@@@std@@YAPAPAU?$_List_node@PAV?$Goal@VRaven_Bot@@@@PAX@0@AAPAU10@U?$integral_constant@_N$0A@@0@@Z ; std::_Addressof<std::_List_node<Goal<Raven_Bot> *,void *> *>
PUBLIC	??$destroy@PAU?$_List_node@PAV?$Goal@VRaven_Bot@@@@PAX@std@@@?$allocator_traits@V?$allocator@U?$_List_node@PAV?$Goal@VRaven_Bot@@@@PAX@std@@@std@@@std@@SAXAAV?$allocator@U?$_List_node@PAV?$Goal@VRaven_Bot@@@@PAX@std@@@1@PAPAU?$_List_node@PAV?$Goal@VRaven_Bot@@@@PAX@1@@Z ; std::allocator_traits<std::allocator<std::_List_node<Goal<Raven_Bot> *,void *> > >::destroy<std::_List_node<Goal<Raven_Bot> *,void *> *>
PUBLIC	??$forward@ABV?$allocator@PAV?$Goal@VRaven_Bot@@@@@std@@@std@@YAABV?$allocator@PAV?$Goal@VRaven_Bot@@@@@0@ABV10@@Z ; std::forward<std::allocator<Goal<Raven_Bot> *> const &>
PUBLIC	??$?0V?$allocator@PAV?$Goal@VRaven_Bot@@@@@std@@@?$_Wrap_alloc@V?$allocator@U?$_List_node@PAV?$Goal@VRaven_Bot@@@@PAX@std@@@std@@@std@@QAE@ABV?$allocator@PAV?$Goal@VRaven_Bot@@@@@1@@Z ; std::_Wrap_alloc<std::allocator<std::_List_node<Goal<Raven_Bot> *,void *> > >::_Wrap_alloc<std::allocator<std::_List_node<Goal<Raven_Bot> *,void *> > ><std::allocator<Goal<Raven_Bot> *> >
PUBLIC	??$?0PAV?$Goal@VRaven_Bot@@@@@?$allocator@U?$_List_node@PAV?$Goal@VRaven_Bot@@@@PAX@std@@@std@@QAE@ABV?$allocator@PAV?$Goal@VRaven_Bot@@@@@1@@Z ; std::allocator<std::_List_node<Goal<Raven_Bot> *,void *> >::allocator<std::_List_node<Goal<Raven_Bot> *,void *> ><Goal<Raven_Bot> *>
PUBLIC	??$_Addressof@PAV?$Goal@VRaven_Bot@@@@@std@@YAPAPAV?$Goal@VRaven_Bot@@@@AAPAV1@U?$integral_constant@_N$0A@@0@@Z ; std::_Addressof<Goal<Raven_Bot> *>
PUBLIC	??$destroy@PAV?$Goal@VRaven_Bot@@@@@?$allocator_traits@V?$allocator@U?$_List_node@PAV?$Goal@VRaven_Bot@@@@PAX@std@@@std@@@std@@SAXAAV?$allocator@U?$_List_node@PAV?$Goal@VRaven_Bot@@@@PAX@std@@@1@PAPAV?$Goal@VRaven_Bot@@@@@Z ; std::allocator_traits<std::allocator<std::_List_node<Goal<Raven_Bot> *,void *> > >::destroy<Goal<Raven_Bot> *>
PUBLIC	??$forward@AAPAU?$_List_node@PAV?$Goal@VRaven_Bot@@@@PAX@std@@@std@@YAAAPAU?$_List_node@PAV?$Goal@VRaven_Bot@@@@PAX@0@AAPAU10@@Z ; std::forward<std::_List_node<Goal<Raven_Bot> *,void *> * &>
PUBLIC	??$construct@PAU?$_List_node@PAV?$Goal@VRaven_Bot@@@@PAX@std@@AAPAU12@@?$allocator_traits@V?$allocator@U?$_List_node@PAV?$Goal@VRaven_Bot@@@@PAX@std@@@std@@@std@@SAXAAV?$allocator@U?$_List_node@PAV?$Goal@VRaven_Bot@@@@PAX@std@@@1@PAPAU?$_List_node@PAV?$Goal@VRaven_Bot@@@@PAX@1@AAPAU31@@Z ; std::allocator_traits<std::allocator<std::_List_node<Goal<Raven_Bot> *,void *> > >::construct<std::_List_node<Goal<Raven_Bot> *,void *> *,std::_List_node<Goal<Raven_Bot> *,void *> * &>
PUBLIC	??0?$_List_unchecked_const_iterator@V?$_List_val@U?$_List_simple_types@PAV?$Goal@VRaven_Bot@@@@@std@@@std@@U_Iterator_base0@2@@std@@QAE@PAU?$_List_node@PAV?$Goal@VRaven_Bot@@@@PAX@1@PBV?$_List_val@U?$_List_simple_types@PAV?$Goal@VRaven_Bot@@@@@std@@@1@@Z ; std::_List_unchecked_const_iterator<std::_List_val<std::_List_simple_types<Goal<Raven_Bot> *> >,std::_Iterator_base0>::_List_unchecked_const_iterator<std::_List_val<std::_List_simple_types<Goal<Raven_Bot> *> >,std::_Iterator_base0>
PUBLIC	?_Mynode@?$_List_unchecked_const_iterator@V?$_List_val@U?$_List_simple_types@PAV?$Goal@VRaven_Bot@@@@@std@@@std@@U_Iterator_base0@2@@std@@QBEPAU?$_List_node@PAV?$Goal@VRaven_Bot@@@@PAX@2@XZ ; std::_List_unchecked_const_iterator<std::_List_val<std::_List_simple_types<Goal<Raven_Bot> *> >,std::_Iterator_base0>::_Mynode
PUBLIC	??0?$_List_unchecked_iterator@V?$_List_val@U?$_List_simple_types@PAV?$Goal@VRaven_Bot@@@@@std@@@std@@@std@@QAE@PAU?$_List_node@PAV?$Goal@VRaven_Bot@@@@PAX@1@PBV?$_List_val@U?$_List_simple_types@PAV?$Goal@VRaven_Bot@@@@@std@@@1@@Z ; std::_List_unchecked_iterator<std::_List_val<std::_List_simple_types<Goal<Raven_Bot> *> > >::_List_unchecked_iterator<std::_List_val<std::_List_simple_types<Goal<Raven_Bot> *> > >
PUBLIC	??$_Insert@ABQAV?$Goal@VRaven_Bot@@@@@?$list@PAV?$Goal@VRaven_Bot@@@@V?$allocator@PAV?$Goal@VRaven_Bot@@@@@std@@@std@@QAEXV?$_List_unchecked_const_iterator@V?$_List_val@U?$_List_simple_types@PAV?$Goal@VRaven_Bot@@@@@std@@@std@@U_Iterator_base0@2@@1@ABQAV?$Goal@VRaven_Bot@@@@@Z ; std::list<Goal<Raven_Bot> *,std::allocator<Goal<Raven_Bot> *> >::_Insert<Goal<Raven_Bot> * const &>
PUBLIC	??$?8V?$_List_const_iterator@V?$_List_val@U?$_List_simple_types@PAV?$Goal@VRaven_Bot@@@@@std@@@std@@@std@@V01@@std@@YA_NABV?$reverse_iterator@V?$_List_const_iterator@V?$_List_val@U?$_List_simple_types@PAV?$Goal@VRaven_Bot@@@@@std@@@std@@@std@@@0@0@Z ; std::operator==<std::_List_const_iterator<std::_List_val<std::_List_simple_types<Goal<Raven_Bot> *> > >,std::_List_const_iterator<std::_List_val<std::_List_simple_types<Goal<Raven_Bot> *> > > >
PUBLIC	??$destroy@PAD@?$allocator@D@std@@QAEXPAPAD@Z	; std::allocator<char>::destroy<char *>
PUBLIC	??$destroy@U_Container_proxy@std@@@?$allocator@U_Container_proxy@std@@@std@@QAEXPAU_Container_proxy@1@@Z ; std::allocator<std::_Container_proxy>::destroy<std::_Container_proxy>
PUBLIC	??$construct@U_Container_proxy@std@@U12@@?$allocator@U_Container_proxy@std@@@std@@QAEXPAU_Container_proxy@1@$$QAU21@@Z ; std::allocator<std::_Container_proxy>::construct<std::_Container_proxy,std::_Container_proxy>
PUBLIC	??$destroy@PAU?$_List_node@PAV?$Goal@VRaven_Bot@@@@PAX@std@@@?$allocator@U?$_List_node@PAV?$Goal@VRaven_Bot@@@@PAX@std@@@std@@QAEXPAPAU?$_List_node@PAV?$Goal@VRaven_Bot@@@@PAX@1@@Z ; std::allocator<std::_List_node<Goal<Raven_Bot> *,void *> >::destroy<std::_List_node<Goal<Raven_Bot> *,void *> *>
PUBLIC	??$destroy@PAV?$Goal@VRaven_Bot@@@@@?$allocator@U?$_List_node@PAV?$Goal@VRaven_Bot@@@@PAX@std@@@std@@QAEXPAPAV?$Goal@VRaven_Bot@@@@@Z ; std::allocator<std::_List_node<Goal<Raven_Bot> *,void *> >::destroy<Goal<Raven_Bot> *>
PUBLIC	??$construct@PAU?$_List_node@PAV?$Goal@VRaven_Bot@@@@PAX@std@@AAPAU12@@?$allocator@U?$_List_node@PAV?$Goal@VRaven_Bot@@@@PAX@std@@@std@@QAEXPAPAU?$_List_node@PAV?$Goal@VRaven_Bot@@@@PAX@1@AAPAU21@@Z ; std::allocator<std::_List_node<Goal<Raven_Bot> *,void *> >::construct<std::_List_node<Goal<Raven_Bot> *,void *> *,std::_List_node<Goal<Raven_Bot> *,void *> * &>
PUBLIC	??$forward@ABQAV?$Goal@VRaven_Bot@@@@@std@@YAABQAV?$Goal@VRaven_Bot@@@@ABQAV1@@Z ; std::forward<Goal<Raven_Bot> * const &>
PUBLIC	??$_Buynode@ABQAV?$Goal@VRaven_Bot@@@@@?$_List_buy@PAV?$Goal@VRaven_Bot@@@@V?$allocator@PAV?$Goal@VRaven_Bot@@@@@std@@@std@@QAEPAU?$_List_node@PAV?$Goal@VRaven_Bot@@@@PAX@1@PAU21@0ABQAV?$Goal@VRaven_Bot@@@@@Z ; std::_List_buy<Goal<Raven_Bot> *,std::allocator<Goal<Raven_Bot> *> >::_Buynode<Goal<Raven_Bot> * const &>
PUBLIC	??$construct@PAV?$Goal@VRaven_Bot@@@@ABQAV1@@?$_Wrap_alloc@V?$allocator@U?$_List_node@PAV?$Goal@VRaven_Bot@@@@PAX@std@@@std@@@std@@QAEXPAPAV?$Goal@VRaven_Bot@@@@ABQAV2@@Z ; std::_Wrap_alloc<std::allocator<std::_List_node<Goal<Raven_Bot> *,void *> > >::construct<Goal<Raven_Bot> *,Goal<Raven_Bot> * const &>
PUBLIC	??$construct@PAV?$Goal@VRaven_Bot@@@@ABQAV1@@?$allocator_traits@V?$allocator@U?$_List_node@PAV?$Goal@VRaven_Bot@@@@PAX@std@@@std@@@std@@SAXAAV?$allocator@U?$_List_node@PAV?$Goal@VRaven_Bot@@@@PAX@std@@@1@PAPAV?$Goal@VRaven_Bot@@@@ABQAV3@@Z ; std::allocator_traits<std::allocator<std::_List_node<Goal<Raven_Bot> *,void *> > >::construct<Goal<Raven_Bot> *,Goal<Raven_Bot> * const &>
PUBLIC	??$construct@PAV?$Goal@VRaven_Bot@@@@ABQAV1@@?$allocator@U?$_List_node@PAV?$Goal@VRaven_Bot@@@@PAX@std@@@std@@QAEXPAPAV?$Goal@VRaven_Bot@@@@ABQAV2@@Z ; std::allocator<std::_List_node<Goal<Raven_Bot> *,void *> >::construct<Goal<Raven_Bot> *,Goal<Raven_Bot> * const &>
PUBLIC	??_7exception@std@@6B@				; std::exception::`vftable'
PUBLIC	??_C@_0BC@EOODALEL@Unknown?5exception?$AA@	; `string'
PUBLIC	??_C@_1GI@DDIAPGKN@?$AAD?$AA?3?$AA?2?$AAM?$AAi?$AAc?$AAr?$AAo?$AAs?$AAo?$AAf?$AAt?$AA?5?$AAV?$AAi?$AAs?$AAu?$AAa?$AAl?$AA?5?$AAS?$AAt?$AAu?$AAd?$AAi?$AAo?$AA?5?$AA1?$AA4?$AA?4?$AA0?$AA?2@ ; `string'
PUBLIC	??_C@_1DC@POOIKBAO@?$AAI?$AAT?$AAE?$AAR?$AAA?$AAT?$AAO?$AAR?$AA?5?$AAL?$AAI?$AAS?$AAT?$AA?5?$AAC?$AAO?$AAR?$AAR?$AAU?$AAP?$AAT?$AAE?$AAD?$AA?$CB?$AA?$AA@ ; `string'
PUBLIC	??_7runtime_error@std@@6B@			; std::runtime_error::`vftable'
PUBLIC	__TI2?AVruntime_error@std@@
PUBLIC	__CTA2?AVruntime_error@std@@
PUBLIC	??_R0?AVruntime_error@std@@@8			; std::runtime_error `RTTI Type Descriptor'
PUBLIC	__CT??_R0?AVruntime_error@std@@@8??0runtime_error@std@@QAE@ABV01@@Z12
PUBLIC	??_R0?AVexception@std@@@8			; std::exception `RTTI Type Descriptor'
PUBLIC	__CT??_R0?AVexception@std@@@8??0exception@std@@QAE@ABV01@@Z12
PUBLIC	??_7?$Goal@VRaven_Bot@@@@6B@			; Goal<Raven_Bot>::`vftable'
PUBLIC	??_7?$Goal_Composite@VRaven_Bot@@@@6B@		; Goal_Composite<Raven_Bot>::`vftable'
PUBLIC	??_7Goal_HuntTarget@@6B@			; Goal_HuntTarget::`vftable'
PUBLIC	??_7Goal_DodgeSideToSide@@6B@			; Goal_DodgeSideToSide::`vftable'
PUBLIC	??_C@_0CB@OHIHCHGJ@Cannot?5add?5goals?5to?5atomic?5goals@ ; `string'
PUBLIC	??_C@_0CE@OFMIGAMM@Standard?5C?$CL?$CL?5Libraries?5Out?5of?5Ra@ ; `string'
PUBLIC	??_C@_1FG@IBPIFFN@?$AA?$CC?$AAS?$AAt?$AAa?$AAn?$AAd?$AAa?$AAr?$AAd?$AA?5?$AAC?$AA?$CL?$AA?$CL?$AA?5?$AAL?$AAi?$AAb?$AAr?$AAa?$AAr?$AAi?$AAe?$AAs?$AA?5?$AAO?$AAu?$AAt?$AA?5?$AAo?$AAf?$AA?5?$AAR@ ; `string'
PUBLIC	??_C@_17CNPHIMPH@?$AA?$CF?$AAl?$AAs?$AA?$AA@	; `string'
PUBLIC	??_C@_1BO@MEPPHOO@?$AA?$CC?$AAo?$AAu?$AAt?$AA?5?$AAo?$AAf?$AA?5?$AAr?$AAa?$AAn?$AAg?$AAe?$AA?$CC?$AA?$AA@ ; `string'
PUBLIC	??_C@_0BE@LMNLACIC@_Ptr_container?5?$CB?$DN?50?$AA@ ; `string'
PUBLIC	??_C@_1DG@HGDKEBPG@?$AA?$CC?$AA_?$AAP?$AAt?$AAr?$AA_?$AAc?$AAo?$AAn?$AAt?$AAa?$AAi?$AAn?$AAe?$AAr?$AA?5?$AA?$CB?$AA?$DN?$AA?5?$AA0?$AA?$CC?$AA?5?$AA?$CG?$AA?$CG?$AA?5?$AA0?$AA?$AA@ ; `string'
PUBLIC	??_C@_1GI@MOGLCDAO@?$AAD?$AA?3?$AA?2?$AAM?$AAi?$AAc?$AAr?$AAo?$AAs?$AAo?$AAf?$AAt?$AA?5?$AAV?$AAi?$AAs?$AAu?$AAa?$AAl?$AA?5?$AAS?$AAt?$AAu?$AAd?$AAi?$AAo?$AA?5?$AA1?$AA4?$AA?4?$AA0?$AA?2@ ; `string'
PUBLIC	??_C@_1BO@NKFMJPA@?$AAs?$AAt?$AAd?$AA?3?$AA?3?$AA_?$AAA?$AAl?$AAl?$AAo?$AAc?$AAa?$AAt?$AAe?$AA?$AA@ ; `string'
PUBLIC	??_C@_1CG@JNLFBNGN@?$AA?$CC?$AAi?$AAn?$AAv?$AAa?$AAl?$AAi?$AAd?$AA?5?$AAa?$AAr?$AAg?$AAu?$AAm?$AAe?$AAn?$AAt?$AA?$CC?$AA?$AA@ ; `string'
PUBLIC	??_C@_09GLJCAGLP@_Ptr?5?$CB?$DN?50?$AA@		; `string'
PUBLIC	??_C@_1CC@GKJLLHIM@?$AA?$CC?$AA_?$AAP?$AAt?$AAr?$AA?5?$AA?$CB?$AA?$DN?$AA?5?$AA0?$AA?$CC?$AA?5?$AA?$CG?$AA?$CG?$AA?5?$AA0?$AA?$AA@ ; `string'
PUBLIC	??_C@_0CG@FHBDFCGK@_Count?5?$DM?$DN?5?$CIsize_t?$CJ?$CI?91?$CJ?5?1?5sizeof?5@ ; `string'
PUBLIC	??_C@_1FK@EJGLHMGC@?$AA?$CC?$AA_?$AAC?$AAo?$AAu?$AAn?$AAt?$AA?5?$AA?$DM?$AA?$DN?$AA?5?$AA?$CI?$AAs?$AAi?$AAz?$AAe?$AA_?$AAt?$AA?$CJ?$AA?$CI?$AA?9?$AA1?$AA?$CJ?$AA?5?$AA?1?$AA?5?$AAs?$AAi?$AAz?$AAe?$AAo?$AAf@ ; `string'
PUBLIC	??_C@_1CC@LOFJFFDB@?$AAs?$AAt?$AAd?$AA?3?$AA?3?$AA_?$AAD?$AAe?$AAa?$AAl?$AAl?$AAo?$AAc?$AAa?$AAt?$AAe?$AA?$AA@ ; `string'
PUBLIC	??_C@_0DD@GBGGGKGG@?$CI_Ptr_user?5?$CG?5?$CI_BIG_ALLOCATION_AL@ ; `string'
PUBLIC	??_C@_1HE@CDMBFOKC@?$AA?$CC?$AA?$CI?$AA_?$AAP?$AAt?$AAr?$AA_?$AAu?$AAs?$AAe?$AAr?$AA?5?$AA?$CG?$AA?5?$AA?$CI?$AA_?$AAB?$AAI?$AAG?$AA_?$AAA?$AAL?$AAL?$AAO?$AAC?$AAA?$AAT?$AAI?$AAO?$AAN?$AA_?$AAA@ ; `string'
PUBLIC	??_C@_0EI@NOJHEJCJ@reinterpret_cast?$DMuintptr_t?5?$CK?$DO?$CI_P@ ; `string'
PUBLIC	??_C@_1JO@EKLKIEHP@?$AA?$CC?$AAr?$AAe?$AAi?$AAn?$AAt?$AAe?$AAr?$AAp?$AAr?$AAe?$AAt?$AA_?$AAc?$AAa?$AAs?$AAt?$AA?$DM?$AAu?$AAi?$AAn?$AAt?$AAp?$AAt?$AAr?$AA_?$AAt?$AA?5?$AA?$CK?$AA?$DO?$AA?$CI?$AA_@ ; `string'
PUBLIC	??_C@_0BL@OCKMEJON@_Ptr_container?5?$DM?5_Ptr_user?$AA@ ; `string'
PUBLIC	??_C@_1EE@PDHAHDDC@?$AA?$CC?$AA_?$AAP?$AAt?$AAr?$AA_?$AAc?$AAo?$AAn?$AAt?$AAa?$AAi?$AAn?$AAe?$AAr?$AA?5?$AA?$DM?$AA?5?$AA_?$AAP?$AAt?$AAr?$AA_?$AAu?$AAs?$AAe?$AAr?$AA?$CC?$AA?5?$AA?$CG?$AA?$CG?$AA?5@ ; `string'
PUBLIC	??_C@_0DB@GLFJLNCE@2?5?$CK?5sizeof?$CIvoid?5?$CK?$CJ?5?$DM?$DN?5_Ptr_user?5@ ; `string'
PUBLIC	??_C@_1HA@NAPGMHAO@?$AA?$CC?$AA2?$AA?5?$AA?$CK?$AA?5?$AAs?$AAi?$AAz?$AAe?$AAo?$AAf?$AA?$CI?$AAv?$AAo?$AAi?$AAd?$AA?5?$AA?$CK?$AA?$CJ?$AA?5?$AA?$DM?$AA?$DN?$AA?5?$AA_?$AAP?$AAt?$AAr?$AA_?$AAu?$AAs?$AAe?$AAr@ ; `string'
PUBLIC	??_C@_0CN@BLHJCAL@_Ptr_user?5?9?5_Ptr_container?5?$DM?$DN?5_N@ ; `string'
PUBLIC	??_C@_1GI@DHJGPFNI@?$AA?$CC?$AA_?$AAP?$AAt?$AAr?$AA_?$AAu?$AAs?$AAe?$AAr?$AA?5?$AA?9?$AA?5?$AA_?$AAP?$AAt?$AAr?$AA_?$AAc?$AAo?$AAn?$AAt?$AAa?$AAi?$AAn?$AAe?$AAr?$AA?5?$AA?$DM?$AA?$DN?$AA?5?$AA_@ ; `string'
PUBLIC	??_C@_1GA@IINJPBGE@?$AAD?$AA?3?$AA?2?$AAM?$AAi?$AAc?$AAr?$AAo?$AAs?$AAo?$AAf?$AAt?$AA?5?$AAV?$AAi?$AAs?$AAu?$AAa?$AAl?$AA?5?$AAS?$AAt?$AAu?$AAd?$AAi?$AAo?$AA?5?$AA1?$AA4?$AA?4?$AA0?$AA?2@ ; `string'
PUBLIC	??_C@_1DI@MDELDGPI@?$AAl?$AAi?$AAs?$AAt?$AA?5?$AAi?$AAt?$AAe?$AAr?$AAa?$AAt?$AAo?$AAr?$AAs?$AA?5?$AAi?$AAn?$AAc?$AAo?$AAm?$AAp?$AAa?$AAt?$AAi?$AAb?$AAl?$AAe?$AA?$AA@ ; `string'
PUBLIC	??_C@_0CI@FNPHFCCM@Standard?5C?$CL?$CL?5Libraries?5Invalid?5A@ ; `string'
PUBLIC	??_C@_1FO@GJIHNDLM@?$AA?$CC?$AAS?$AAt?$AAa?$AAn?$AAd?$AAa?$AAr?$AAd?$AA?5?$AAC?$AA?$CL?$AA?$CL?$AA?5?$AAL?$AAi?$AAb?$AAr?$AAa?$AAr?$AAi?$AAe?$AAs?$AA?5?$AAI?$AAn?$AAv?$AAa?$AAl?$AAi?$AAd?$AA?5@ ; `string'
PUBLIC	??_C@_1PM@NGMJNEOB@?$AAs?$AAt?$AAd?$AA?3?$AA?3?$AA_?$AAL?$AAi?$AAs?$AAt?$AA_?$AAc?$AAo?$AAn?$AAs?$AAt?$AA_?$AAi?$AAt?$AAe?$AAr?$AAa?$AAt?$AAo?$AAr?$AA?$DM?$AAc?$AAl?$AAa?$AAs?$AAs?$AA?5@ ; `string'
PUBLIC	??_C@_1EA@JDNDELPC@?$AAl?$AAi?$AAs?$AAt?$AA?5?$AAi?$AAt?$AAe?$AAr?$AAa?$AAt?$AAo?$AAr?$AA?5?$AAn?$AAo?$AAt?$AA?5?$AAd?$AAe?$AAc?$AAr?$AAe?$AAm?$AAe?$AAn?$AAt?$AAa?$AAb?$AAl?$AAe?$AA?$AA@ ; `string'
PUBLIC	??_C@_1PM@IFAGIBOF@?$AAs?$AAt?$AAd?$AA?3?$AA?3?$AA_?$AAL?$AAi?$AAs?$AAt?$AA_?$AAc?$AAo?$AAn?$AAs?$AAt?$AA_?$AAi?$AAt?$AAe?$AAr?$AAa?$AAt?$AAo?$AAr?$AA?$DM?$AAc?$AAl?$AAa?$AAs?$AAs?$AA?5@ ; `string'
PUBLIC	??_C@_1EA@DOGAGKDH@?$AAl?$AAi?$AAs?$AAt?$AA?5?$AAi?$AAt?$AAe?$AAr?$AAa?$AAt?$AAo?$AAr?$AA?5?$AAn?$AAo?$AAt?$AA?5?$AAi?$AAn?$AAc?$AAr?$AAe?$AAm?$AAe?$AAn?$AAt?$AAa?$AAb?$AAl?$AAe?$AA?$AA@ ; `string'
PUBLIC	??_C@_1PM@HGDEDNCE@?$AAs?$AAt?$AAd?$AA?3?$AA?3?$AA_?$AAL?$AAi?$AAs?$AAt?$AA_?$AAc?$AAo?$AAn?$AAs?$AAt?$AA_?$AAi?$AAt?$AAe?$AAr?$AAa?$AAt?$AAo?$AAr?$AA?$DM?$AAc?$AAl?$AAa?$AAs?$AAs?$AA?5@ ; `string'
PUBLIC	??_C@_1EC@HILJLMMC@?$AAl?$AAi?$AAs?$AAt?$AA?5?$AAi?$AAt?$AAe?$AAr?$AAa?$AAt?$AAo?$AAr?$AA?5?$AAn?$AAo?$AAt?$AA?5?$AAd?$AAe?$AAr?$AAe?$AAf?$AAe?$AAr?$AAe?$AAn?$AAc?$AAa?$AAb?$AAl?$AAe@ ; `string'
PUBLIC	??_C@_1PK@KKMOJEL@?$AAs?$AAt?$AAd?$AA?3?$AA?3?$AA_?$AAL?$AAi?$AAs?$AAt?$AA_?$AAc?$AAo?$AAn?$AAs?$AAt?$AA_?$AAi?$AAt?$AAe?$AAr?$AAa?$AAt?$AAo?$AAr?$AA?$DM?$AAc?$AAl?$AAa?$AAs?$AAs?$AA?5@ ; `string'
PUBLIC	??_C@_1EE@BBMFLDOC@?$AAl?$AAi?$AAs?$AAt?$AA?5?$AAe?$AAr?$AAa?$AAs?$AAe?$AA?5?$AAi?$AAt?$AAe?$AAr?$AAa?$AAt?$AAo?$AAr?$AA?5?$AAo?$AAu?$AAt?$AAs?$AAi?$AAd?$AAe?$AA?5?$AAr?$AAa?$AAn?$AAg@ ; `string'
PUBLIC	??_C@_0BB@MOGOBHAF@list?$DMT?$DO?5too?5long?$AA@ ; `string'
PUBLIC	??_R4exception@std@@6B@				; std::exception::`RTTI Complete Object Locator'
PUBLIC	??_R3exception@std@@8				; std::exception::`RTTI Class Hierarchy Descriptor'
PUBLIC	??_R2exception@std@@8				; std::exception::`RTTI Base Class Array'
PUBLIC	??_R1A@?0A@EA@exception@std@@8			; std::exception::`RTTI Base Class Descriptor at (0,-1,0,64)'
PUBLIC	??_R4runtime_error@std@@6B@			; std::runtime_error::`RTTI Complete Object Locator'
PUBLIC	??_R3runtime_error@std@@8			; std::runtime_error::`RTTI Class Hierarchy Descriptor'
PUBLIC	??_R2runtime_error@std@@8			; std::runtime_error::`RTTI Base Class Array'
PUBLIC	??_R1A@?0A@EA@runtime_error@std@@8		; std::runtime_error::`RTTI Base Class Descriptor at (0,-1,0,64)'
PUBLIC	??_R1A@?0A@EA@?$Goal_Composite@VRaven_Bot@@@@8	; Goal_Composite<Raven_Bot>::`RTTI Base Class Descriptor at (0,-1,0,64)'
PUBLIC	??_R0?AV?$Goal_Composite@VRaven_Bot@@@@@8	; Goal_Composite<Raven_Bot> `RTTI Type Descriptor'
PUBLIC	??_R3?$Goal_Composite@VRaven_Bot@@@@8		; Goal_Composite<Raven_Bot>::`RTTI Class Hierarchy Descriptor'
PUBLIC	??_R2?$Goal_Composite@VRaven_Bot@@@@8		; Goal_Composite<Raven_Bot>::`RTTI Base Class Array'
PUBLIC	??_R1A@?0A@EA@?$Goal@VRaven_Bot@@@@8		; Goal<Raven_Bot>::`RTTI Base Class Descriptor at (0,-1,0,64)'
PUBLIC	??_R0?AV?$Goal@VRaven_Bot@@@@@8			; Goal<Raven_Bot> `RTTI Type Descriptor'
PUBLIC	??_R3?$Goal@VRaven_Bot@@@@8			; Goal<Raven_Bot>::`RTTI Class Hierarchy Descriptor'
PUBLIC	??_R2?$Goal@VRaven_Bot@@@@8			; Goal<Raven_Bot>::`RTTI Base Class Array'
PUBLIC	??_R4?$Goal_Composite@VRaven_Bot@@@@6B@		; Goal_Composite<Raven_Bot>::`RTTI Complete Object Locator'
PUBLIC	??_R4?$Goal@VRaven_Bot@@@@6B@			; Goal<Raven_Bot>::`RTTI Complete Object Locator'
PUBLIC	??_R4Goal_HuntTarget@@6B@			; Goal_HuntTarget::`RTTI Complete Object Locator'
PUBLIC	??_R0?AVGoal_HuntTarget@@@8			; Goal_HuntTarget `RTTI Type Descriptor'
PUBLIC	??_R3Goal_HuntTarget@@8				; Goal_HuntTarget::`RTTI Class Hierarchy Descriptor'
PUBLIC	??_R2Goal_HuntTarget@@8				; Goal_HuntTarget::`RTTI Base Class Array'
PUBLIC	??_R1A@?0A@EA@Goal_HuntTarget@@8		; Goal_HuntTarget::`RTTI Base Class Descriptor at (0,-1,0,64)'
PUBLIC	??_R4Goal_DodgeSideToSide@@6B@			; Goal_DodgeSideToSide::`RTTI Complete Object Locator'
PUBLIC	??_R0?AVGoal_DodgeSideToSide@@@8		; Goal_DodgeSideToSide `RTTI Type Descriptor'
PUBLIC	??_R3Goal_DodgeSideToSide@@8			; Goal_DodgeSideToSide::`RTTI Class Hierarchy Descriptor'
PUBLIC	??_R2Goal_DodgeSideToSide@@8			; Goal_DodgeSideToSide::`RTTI Base Class Array'
PUBLIC	??_R1A@?0A@EA@Goal_DodgeSideToSide@@8		; Goal_DodgeSideToSide::`RTTI Base Class Descriptor at (0,-1,0,64)'
PUBLIC	__real@0000000000000000
PUBLIC	__real@0010000000000000
PUBLIC	__real@00800000
PUBLIC	__real@3fe0000000000000
PUBLIC	__real@4024000000000000
PUBLIC	__real@402e000000000000
PUBLIC	__real@40e0000000000000
PUBLIC	__real@7f7fffff
PUBLIC	__real@7fefffffffffffff
EXTRN	__purecall:PROC
EXTRN	??2@YAPAXI@Z:PROC				; operator new
EXTRN	??3@YAXPAX@Z:PROC				; operator delete
EXTRN	??3@YAXPAXI@Z:PROC				; operator delete
EXTRN	__invalid_parameter:PROC
EXTRN	??0_Lockit@std@@QAE@H@Z:PROC			; std::_Lockit::_Lockit
EXTRN	??1_Lockit@std@@QAE@XZ:PROC			; std::_Lockit::~_Lockit
EXTRN	_rand:PROC
EXTRN	_memcpy:PROC
EXTRN	___std_exception_copy:PROC
EXTRN	___std_exception_destroy:PROC
EXTRN	??_Eexception@std@@UAEPAXI@Z:PROC		; std::exception::`vector deleting destructor'
EXTRN	__CrtDbgReportW:PROC
EXTRN	?_Debug_message@std@@YAXPB_W0I@Z:PROC		; std::_Debug_message
EXTRN	?_Xbad_alloc@std@@YAXXZ:PROC			; std::_Xbad_alloc
EXTRN	?_Xlength_error@std@@YAXPBD@Z:PROC		; std::_Xlength_error
EXTRN	??_Eruntime_error@std@@UAEPAXI@Z:PROC		; std::runtime_error::`vector deleting destructor'
EXTRN	__imp__SetBkMode@8:PROC
EXTRN	__imp__SetTextColor@8:PROC
EXTRN	__imp__TextOutA@20:PROC
EXTRN	?Instance@Cgdi@@SAPAV1@XZ:PROC			; Cgdi::Instance
EXTRN	?isTargetShootable@Raven_TargetingSystem@@QBE_NXZ:PROC ; Raven_TargetingSystem::isTargetShootable
EXTRN	?canStepLeft@Raven_Bot@@QBE_NAAUVector2D@@@Z:PROC ; Raven_Bot::canStepLeft
EXTRN	?canStepRight@Raven_Bot@@QBE_NAAUVector2D@@@Z:PROC ; Raven_Bot::canStepRight
EXTRN	??_E?$Goal@VRaven_Bot@@@@UAEPAXI@Z:PROC		; Goal<Raven_Bot>::`vector deleting destructor'
EXTRN	??_E?$Goal_Composite@VRaven_Bot@@@@UAEPAXI@Z:PROC ; Goal_Composite<Raven_Bot>::`vector deleting destructor'
EXTRN	??0Goal_SeekToPosition@@QAE@PAVRaven_Bot@@UVector2D@@@Z:PROC ; Goal_SeekToPosition::Goal_SeekToPosition
EXTRN	?Activate@Goal_HuntTarget@@UAEXXZ:PROC		; Goal_HuntTarget::Activate
EXTRN	?Process@Goal_HuntTarget@@UAEHXZ:PROC		; Goal_HuntTarget::Process
EXTRN	?Render@Goal_HuntTarget@@UAEXXZ:PROC		; Goal_HuntTarget::Render
EXTRN	??_EGoal_HuntTarget@@UAEPAXI@Z:PROC		; Goal_HuntTarget::`vector deleting destructor'
EXTRN	?Activate@Goal_DodgeSideToSide@@UAEXXZ:PROC	; Goal_DodgeSideToSide::Activate
EXTRN	?Process@Goal_DodgeSideToSide@@UAEHXZ:PROC	; Goal_DodgeSideToSide::Process
EXTRN	?Render@Goal_DodgeSideToSide@@UAEXXZ:PROC	; Goal_DodgeSideToSide::Render
EXTRN	?Terminate@Goal_DodgeSideToSide@@UAEXXZ:PROC	; Goal_DodgeSideToSide::Terminate
EXTRN	??_EGoal_DodgeSideToSide@@UAEPAXI@Z:PROC	; Goal_DodgeSideToSide::`vector deleting destructor'
EXTRN	@_RTC_CheckStackVars@8:PROC
EXTRN	@__security_check_cookie@4:PROC
EXTRN	__CxxThrowException@8:PROC
EXTRN	__RTC_CheckEsp:PROC
EXTRN	__RTC_InitBase:PROC
EXTRN	__RTC_Shutdown:PROC
EXTRN	___CxxFrameHandler3:PROC
EXTRN	??_7type_info@@6B@:QWORD			; type_info::`vftable'
EXTRN	___security_cookie:DWORD
EXTRN	__fltused:DWORD
_BSS	SEGMENT
?MaxInt@@3HB DD	01H DUP (?)				; MaxInt
	ALIGN	8

?MaxDouble@@3NB DQ 01H DUP (?)				; MaxDouble
?MinDouble@@3NB DQ 01H DUP (?)				; MinDouble
?MaxFloat@@3MB DD 01H DUP (?)				; MaxFloat
?MinFloat@@3MB DD 01H DUP (?)				; MinFloat
_BSS	ENDS
CRT$XCU	SEGMENT
?MaxInt$initializer$@@3P6AXXZA DD FLAT:??__EMaxInt@@YAXXZ ; MaxInt$initializer$
CRT$XCU	ENDS
;	COMDAT __real@7fefffffffffffff
CONST	SEGMENT
__real@7fefffffffffffff DQ 07fefffffffffffffr	; 1.79769e+308
CONST	ENDS
;	COMDAT __real@7f7fffff
CONST	SEGMENT
__real@7f7fffff DD 07f7fffffr			; 3.40282e+38
CONST	ENDS
;	COMDAT __real@40e0000000000000
CONST	SEGMENT
__real@40e0000000000000 DQ 040e0000000000000r	; 32768
CONST	ENDS
;	COMDAT __real@402e000000000000
CONST	SEGMENT
__real@402e000000000000 DQ 0402e000000000000r	; 15
CONST	ENDS
;	COMDAT __real@4024000000000000
CONST	SEGMENT
__real@4024000000000000 DQ 04024000000000000r	; 10
CONST	ENDS
;	COMDAT __real@3fe0000000000000
CONST	SEGMENT
__real@3fe0000000000000 DQ 03fe0000000000000r	; 0.5
CONST	ENDS
;	COMDAT __real@00800000
CONST	SEGMENT
__real@00800000 DD 000800000r			; 1.17549e-38
CONST	ENDS
;	COMDAT __real@0010000000000000
CONST	SEGMENT
__real@0010000000000000 DQ 00010000000000000r	; 2.22507e-308
CONST	ENDS
;	COMDAT __real@0000000000000000
CONST	SEGMENT
__real@0000000000000000 DQ 00000000000000000r	; 0
CONST	ENDS
;	COMDAT rtc$TMZ
rtc$TMZ	SEGMENT
__RTC_Shutdown.rtc$TMZ DD FLAT:__RTC_Shutdown
rtc$TMZ	ENDS
;	COMDAT rtc$IMZ
rtc$IMZ	SEGMENT
__RTC_InitBase.rtc$IMZ DD FLAT:__RTC_InitBase
rtc$IMZ	ENDS
;	COMDAT ??_R1A@?0A@EA@Goal_DodgeSideToSide@@8
rdata$r	SEGMENT
??_R1A@?0A@EA@Goal_DodgeSideToSide@@8 DD FLAT:??_R0?AVGoal_DodgeSideToSide@@@8 ; Goal_DodgeSideToSide::`RTTI Base Class Descriptor at (0,-1,0,64)'
	DD	01H
	DD	00H
	DD	0ffffffffH
	DD	00H
	DD	040H
	DD	FLAT:??_R3Goal_DodgeSideToSide@@8
rdata$r	ENDS
;	COMDAT ??_R2Goal_DodgeSideToSide@@8
rdata$r	SEGMENT
??_R2Goal_DodgeSideToSide@@8 DD FLAT:??_R1A@?0A@EA@Goal_DodgeSideToSide@@8 ; Goal_DodgeSideToSide::`RTTI Base Class Array'
	DD	FLAT:??_R1A@?0A@EA@?$Goal@VRaven_Bot@@@@8
rdata$r	ENDS
;	COMDAT ??_R3Goal_DodgeSideToSide@@8
rdata$r	SEGMENT
??_R3Goal_DodgeSideToSide@@8 DD 00H			; Goal_DodgeSideToSide::`RTTI Class Hierarchy Descriptor'
	DD	00H
	DD	02H
	DD	FLAT:??_R2Goal_DodgeSideToSide@@8
rdata$r	ENDS
;	COMDAT ??_R0?AVGoal_DodgeSideToSide@@@8
data$r	SEGMENT
??_R0?AVGoal_DodgeSideToSide@@@8 DD FLAT:??_7type_info@@6B@ ; Goal_DodgeSideToSide `RTTI Type Descriptor'
	DD	00H
	DB	'.?AVGoal_DodgeSideToSide@@', 00H
data$r	ENDS
;	COMDAT ??_R4Goal_DodgeSideToSide@@6B@
rdata$r	SEGMENT
??_R4Goal_DodgeSideToSide@@6B@ DD 00H			; Goal_DodgeSideToSide::`RTTI Complete Object Locator'
	DD	00H
	DD	00H
	DD	FLAT:??_R0?AVGoal_DodgeSideToSide@@@8
	DD	FLAT:??_R3Goal_DodgeSideToSide@@8
rdata$r	ENDS
;	COMDAT ??_R1A@?0A@EA@Goal_HuntTarget@@8
rdata$r	SEGMENT
??_R1A@?0A@EA@Goal_HuntTarget@@8 DD FLAT:??_R0?AVGoal_HuntTarget@@@8 ; Goal_HuntTarget::`RTTI Base Class Descriptor at (0,-1,0,64)'
	DD	02H
	DD	00H
	DD	0ffffffffH
	DD	00H
	DD	040H
	DD	FLAT:??_R3Goal_HuntTarget@@8
rdata$r	ENDS
;	COMDAT ??_R2Goal_HuntTarget@@8
rdata$r	SEGMENT
??_R2Goal_HuntTarget@@8 DD FLAT:??_R1A@?0A@EA@Goal_HuntTarget@@8 ; Goal_HuntTarget::`RTTI Base Class Array'
	DD	FLAT:??_R1A@?0A@EA@?$Goal_Composite@VRaven_Bot@@@@8
	DD	FLAT:??_R1A@?0A@EA@?$Goal@VRaven_Bot@@@@8
rdata$r	ENDS
;	COMDAT ??_R3Goal_HuntTarget@@8
rdata$r	SEGMENT
??_R3Goal_HuntTarget@@8 DD 00H				; Goal_HuntTarget::`RTTI Class Hierarchy Descriptor'
	DD	00H
	DD	03H
	DD	FLAT:??_R2Goal_HuntTarget@@8
rdata$r	ENDS
;	COMDAT ??_R0?AVGoal_HuntTarget@@@8
data$r	SEGMENT
??_R0?AVGoal_HuntTarget@@@8 DD FLAT:??_7type_info@@6B@	; Goal_HuntTarget `RTTI Type Descriptor'
	DD	00H
	DB	'.?AVGoal_HuntTarget@@', 00H
data$r	ENDS
;	COMDAT ??_R4Goal_HuntTarget@@6B@
rdata$r	SEGMENT
??_R4Goal_HuntTarget@@6B@ DD 00H			; Goal_HuntTarget::`RTTI Complete Object Locator'
	DD	00H
	DD	00H
	DD	FLAT:??_R0?AVGoal_HuntTarget@@@8
	DD	FLAT:??_R3Goal_HuntTarget@@8
rdata$r	ENDS
;	COMDAT ??_R4?$Goal@VRaven_Bot@@@@6B@
rdata$r	SEGMENT
??_R4?$Goal@VRaven_Bot@@@@6B@ DD 00H			; Goal<Raven_Bot>::`RTTI Complete Object Locator'
	DD	00H
	DD	00H
	DD	FLAT:??_R0?AV?$Goal@VRaven_Bot@@@@@8
	DD	FLAT:??_R3?$Goal@VRaven_Bot@@@@8
rdata$r	ENDS
;	COMDAT ??_R4?$Goal_Composite@VRaven_Bot@@@@6B@
rdata$r	SEGMENT
??_R4?$Goal_Composite@VRaven_Bot@@@@6B@ DD 00H		; Goal_Composite<Raven_Bot>::`RTTI Complete Object Locator'
	DD	00H
	DD	00H
	DD	FLAT:??_R0?AV?$Goal_Composite@VRaven_Bot@@@@@8
	DD	FLAT:??_R3?$Goal_Composite@VRaven_Bot@@@@8
rdata$r	ENDS
;	COMDAT ??_R2?$Goal@VRaven_Bot@@@@8
rdata$r	SEGMENT
??_R2?$Goal@VRaven_Bot@@@@8 DD FLAT:??_R1A@?0A@EA@?$Goal@VRaven_Bot@@@@8 ; Goal<Raven_Bot>::`RTTI Base Class Array'
rdata$r	ENDS
;	COMDAT ??_R3?$Goal@VRaven_Bot@@@@8
rdata$r	SEGMENT
??_R3?$Goal@VRaven_Bot@@@@8 DD 00H			; Goal<Raven_Bot>::`RTTI Class Hierarchy Descriptor'
	DD	00H
	DD	01H
	DD	FLAT:??_R2?$Goal@VRaven_Bot@@@@8
rdata$r	ENDS
;	COMDAT ??_R0?AV?$Goal@VRaven_Bot@@@@@8
data$r	SEGMENT
??_R0?AV?$Goal@VRaven_Bot@@@@@8 DD FLAT:??_7type_info@@6B@ ; Goal<Raven_Bot> `RTTI Type Descriptor'
	DD	00H
	DB	'.?AV?$Goal@VRaven_Bot@@@@', 00H
data$r	ENDS
;	COMDAT ??_R1A@?0A@EA@?$Goal@VRaven_Bot@@@@8
rdata$r	SEGMENT
??_R1A@?0A@EA@?$Goal@VRaven_Bot@@@@8 DD FLAT:??_R0?AV?$Goal@VRaven_Bot@@@@@8 ; Goal<Raven_Bot>::`RTTI Base Class Descriptor at (0,-1,0,64)'
	DD	00H
	DD	00H
	DD	0ffffffffH
	DD	00H
	DD	040H
	DD	FLAT:??_R3?$Goal@VRaven_Bot@@@@8
rdata$r	ENDS
;	COMDAT ??_R2?$Goal_Composite@VRaven_Bot@@@@8
rdata$r	SEGMENT
??_R2?$Goal_Composite@VRaven_Bot@@@@8 DD FLAT:??_R1A@?0A@EA@?$Goal_Composite@VRaven_Bot@@@@8 ; Goal_Composite<Raven_Bot>::`RTTI Base Class Array'
	DD	FLAT:??_R1A@?0A@EA@?$Goal@VRaven_Bot@@@@8
rdata$r	ENDS
;	COMDAT ??_R3?$Goal_Composite@VRaven_Bot@@@@8
rdata$r	SEGMENT
??_R3?$Goal_Composite@VRaven_Bot@@@@8 DD 00H		; Goal_Composite<Raven_Bot>::`RTTI Class Hierarchy Descriptor'
	DD	00H
	DD	02H
	DD	FLAT:??_R2?$Goal_Composite@VRaven_Bot@@@@8
rdata$r	ENDS
;	COMDAT ??_R0?AV?$Goal_Composite@VRaven_Bot@@@@@8
data$r	SEGMENT
??_R0?AV?$Goal_Composite@VRaven_Bot@@@@@8 DD FLAT:??_7type_info@@6B@ ; Goal_Composite<Raven_Bot> `RTTI Type Descriptor'
	DD	00H
	DB	'.?AV?$Goal_Composite@VRaven_Bot@@@@', 00H
data$r	ENDS
;	COMDAT ??_R1A@?0A@EA@?$Goal_Composite@VRaven_Bot@@@@8
rdata$r	SEGMENT
??_R1A@?0A@EA@?$Goal_Composite@VRaven_Bot@@@@8 DD FLAT:??_R0?AV?$Goal_Composite@VRaven_Bot@@@@@8 ; Goal_Composite<Raven_Bot>::`RTTI Base Class Descriptor at (0,-1,0,64)'
	DD	01H
	DD	00H
	DD	0ffffffffH
	DD	00H
	DD	040H
	DD	FLAT:??_R3?$Goal_Composite@VRaven_Bot@@@@8
rdata$r	ENDS
;	COMDAT ??_R1A@?0A@EA@runtime_error@std@@8
rdata$r	SEGMENT
??_R1A@?0A@EA@runtime_error@std@@8 DD FLAT:??_R0?AVruntime_error@std@@@8 ; std::runtime_error::`RTTI Base Class Descriptor at (0,-1,0,64)'
	DD	01H
	DD	00H
	DD	0ffffffffH
	DD	00H
	DD	040H
	DD	FLAT:??_R3runtime_error@std@@8
rdata$r	ENDS
;	COMDAT ??_R2runtime_error@std@@8
rdata$r	SEGMENT
??_R2runtime_error@std@@8 DD FLAT:??_R1A@?0A@EA@runtime_error@std@@8 ; std::runtime_error::`RTTI Base Class Array'
	DD	FLAT:??_R1A@?0A@EA@exception@std@@8
rdata$r	ENDS
;	COMDAT ??_R3runtime_error@std@@8
rdata$r	SEGMENT
??_R3runtime_error@std@@8 DD 00H			; std::runtime_error::`RTTI Class Hierarchy Descriptor'
	DD	00H
	DD	02H
	DD	FLAT:??_R2runtime_error@std@@8
rdata$r	ENDS
;	COMDAT ??_R4runtime_error@std@@6B@
rdata$r	SEGMENT
??_R4runtime_error@std@@6B@ DD 00H			; std::runtime_error::`RTTI Complete Object Locator'
	DD	00H
	DD	00H
	DD	FLAT:??_R0?AVruntime_error@std@@@8
	DD	FLAT:??_R3runtime_error@std@@8
rdata$r	ENDS
;	COMDAT ??_R1A@?0A@EA@exception@std@@8
rdata$r	SEGMENT
??_R1A@?0A@EA@exception@std@@8 DD FLAT:??_R0?AVexception@std@@@8 ; std::exception::`RTTI Base Class Descriptor at (0,-1,0,64)'
	DD	00H
	DD	00H
	DD	0ffffffffH
	DD	00H
	DD	040H
	DD	FLAT:??_R3exception@std@@8
rdata$r	ENDS
;	COMDAT ??_R2exception@std@@8
rdata$r	SEGMENT
??_R2exception@std@@8 DD FLAT:??_R1A@?0A@EA@exception@std@@8 ; std::exception::`RTTI Base Class Array'
rdata$r	ENDS
;	COMDAT ??_R3exception@std@@8
rdata$r	SEGMENT
??_R3exception@std@@8 DD 00H				; std::exception::`RTTI Class Hierarchy Descriptor'
	DD	00H
	DD	01H
	DD	FLAT:??_R2exception@std@@8
rdata$r	ENDS
;	COMDAT ??_R4exception@std@@6B@
rdata$r	SEGMENT
??_R4exception@std@@6B@ DD 00H				; std::exception::`RTTI Complete Object Locator'
	DD	00H
	DD	00H
	DD	FLAT:??_R0?AVexception@std@@@8
	DD	FLAT:??_R3exception@std@@8
rdata$r	ENDS
;	COMDAT ??_C@_0BB@MOGOBHAF@list?$DMT?$DO?5too?5long?$AA@
CONST	SEGMENT
??_C@_0BB@MOGOBHAF@list?$DMT?$DO?5too?5long?$AA@ DB 'list<T> too long', 00H ; `string'
CONST	ENDS
;	COMDAT ??_C@_1EE@BBMFLDOC@?$AAl?$AAi?$AAs?$AAt?$AA?5?$AAe?$AAr?$AAa?$AAs?$AAe?$AA?5?$AAi?$AAt?$AAe?$AAr?$AAa?$AAt?$AAo?$AAr?$AA?5?$AAo?$AAu?$AAt?$AAs?$AAi?$AAd?$AAe?$AA?5?$AAr?$AAa?$AAn?$AAg@
CONST	SEGMENT
??_C@_1EE@BBMFLDOC@?$AAl?$AAi?$AAs?$AAt?$AA?5?$AAe?$AAr?$AAa?$AAs?$AAe?$AA?5?$AAi?$AAt?$AAe?$AAr?$AAa?$AAt?$AAo?$AAr?$AA?5?$AAo?$AAu?$AAt?$AAs?$AAi?$AAd?$AAe?$AA?5?$AAr?$AAa?$AAn?$AAg@ DB 'l'
	DB	00H, 'i', 00H, 's', 00H, 't', 00H, ' ', 00H, 'e', 00H, 'r', 00H
	DB	'a', 00H, 's', 00H, 'e', 00H, ' ', 00H, 'i', 00H, 't', 00H, 'e'
	DB	00H, 'r', 00H, 'a', 00H, 't', 00H, 'o', 00H, 'r', 00H, ' ', 00H
	DB	'o', 00H, 'u', 00H, 't', 00H, 's', 00H, 'i', 00H, 'd', 00H, 'e'
	DB	00H, ' ', 00H, 'r', 00H, 'a', 00H, 'n', 00H, 'g', 00H, 'e', 00H
	DB	00H, 00H					; `string'
CONST	ENDS
;	COMDAT ??_C@_1PK@KKMOJEL@?$AAs?$AAt?$AAd?$AA?3?$AA?3?$AA_?$AAL?$AAi?$AAs?$AAt?$AA_?$AAc?$AAo?$AAn?$AAs?$AAt?$AA_?$AAi?$AAt?$AAe?$AAr?$AAa?$AAt?$AAo?$AAr?$AA?$DM?$AAc?$AAl?$AAa?$AAs?$AAs?$AA?5@
CONST	SEGMENT
??_C@_1PK@KKMOJEL@?$AAs?$AAt?$AAd?$AA?3?$AA?3?$AA_?$AAL?$AAi?$AAs?$AAt?$AA_?$AAc?$AAo?$AAn?$AAs?$AAt?$AA_?$AAi?$AAt?$AAe?$AAr?$AAa?$AAt?$AAo?$AAr?$AA?$DM?$AAc?$AAl?$AAa?$AAs?$AAs?$AA?5@ DB 's'
	DB	00H, 't', 00H, 'd', 00H, ':', 00H, ':', 00H, '_', 00H, 'L', 00H
	DB	'i', 00H, 's', 00H, 't', 00H, '_', 00H, 'c', 00H, 'o', 00H, 'n'
	DB	00H, 's', 00H, 't', 00H, '_', 00H, 'i', 00H, 't', 00H, 'e', 00H
	DB	'r', 00H, 'a', 00H, 't', 00H, 'o', 00H, 'r', 00H, '<', 00H, 'c'
	DB	00H, 'l', 00H, 'a', 00H, 's', 00H, 's', 00H, ' ', 00H, 's', 00H
	DB	't', 00H, 'd', 00H, ':', 00H, ':', 00H, '_', 00H, 'L', 00H, 'i'
	DB	00H, 's', 00H, 't', 00H, '_', 00H, 'v', 00H, 'a', 00H, 'l', 00H
	DB	'<', 00H, 's', 00H, 't', 00H, 'r', 00H, 'u', 00H, 'c', 00H, 't'
	DB	00H, ' ', 00H, 's', 00H, 't', 00H, 'd', 00H, ':', 00H, ':', 00H
	DB	'_', 00H, 'L', 00H, 'i', 00H, 's', 00H, 't', 00H, '_', 00H, 's'
	DB	00H, 'i', 00H, 'm', 00H, 'p', 00H, 'l', 00H, 'e', 00H, '_', 00H
	DB	't', 00H, 'y', 00H, 'p', 00H, 'e', 00H, 's', 00H, '<', 00H, 'c'
	DB	00H, 'l', 00H, 'a', 00H, 's', 00H, 's', 00H, ' ', 00H, 'G', 00H
	DB	'o', 00H, 'a', 00H, 'l', 00H, '<', 00H, 'c', 00H, 'l', 00H, 'a'
	DB	00H, 's', 00H, 's', 00H, ' ', 00H, 'R', 00H, 'a', 00H, 'v', 00H
	DB	'e', 00H, 'n', 00H, '_', 00H, 'B', 00H, 'o', 00H, 't', 00H, '>'
	DB	00H, ' ', 00H, '*', 00H, '>', 00H, ' ', 00H, '>', 00H, ' ', 00H
	DB	'>', 00H, ':', 00H, ':', 00H, 'o', 00H, 'p', 00H, 'e', 00H, 'r'
	DB	00H, 'a', 00H, 't', 00H, 'o', 00H, 'r', 00H, ' ', 00H, '*', 00H
	DB	00H, 00H					; `string'
CONST	ENDS
;	COMDAT ??_C@_1EC@HILJLMMC@?$AAl?$AAi?$AAs?$AAt?$AA?5?$AAi?$AAt?$AAe?$AAr?$AAa?$AAt?$AAo?$AAr?$AA?5?$AAn?$AAo?$AAt?$AA?5?$AAd?$AAe?$AAr?$AAe?$AAf?$AAe?$AAr?$AAe?$AAn?$AAc?$AAa?$AAb?$AAl?$AAe@
CONST	SEGMENT
??_C@_1EC@HILJLMMC@?$AAl?$AAi?$AAs?$AAt?$AA?5?$AAi?$AAt?$AAe?$AAr?$AAa?$AAt?$AAo?$AAr?$AA?5?$AAn?$AAo?$AAt?$AA?5?$AAd?$AAe?$AAr?$AAe?$AAf?$AAe?$AAr?$AAe?$AAn?$AAc?$AAa?$AAb?$AAl?$AAe@ DB 'l'
	DB	00H, 'i', 00H, 's', 00H, 't', 00H, ' ', 00H, 'i', 00H, 't', 00H
	DB	'e', 00H, 'r', 00H, 'a', 00H, 't', 00H, 'o', 00H, 'r', 00H, ' '
	DB	00H, 'n', 00H, 'o', 00H, 't', 00H, ' ', 00H, 'd', 00H, 'e', 00H
	DB	'r', 00H, 'e', 00H, 'f', 00H, 'e', 00H, 'r', 00H, 'e', 00H, 'n'
	DB	00H, 'c', 00H, 'a', 00H, 'b', 00H, 'l', 00H, 'e', 00H, 00H, 00H ; `string'
CONST	ENDS
;	COMDAT ??_C@_1PM@HGDEDNCE@?$AAs?$AAt?$AAd?$AA?3?$AA?3?$AA_?$AAL?$AAi?$AAs?$AAt?$AA_?$AAc?$AAo?$AAn?$AAs?$AAt?$AA_?$AAi?$AAt?$AAe?$AAr?$AAa?$AAt?$AAo?$AAr?$AA?$DM?$AAc?$AAl?$AAa?$AAs?$AAs?$AA?5@
CONST	SEGMENT
??_C@_1PM@HGDEDNCE@?$AAs?$AAt?$AAd?$AA?3?$AA?3?$AA_?$AAL?$AAi?$AAs?$AAt?$AA_?$AAc?$AAo?$AAn?$AAs?$AAt?$AA_?$AAi?$AAt?$AAe?$AAr?$AAa?$AAt?$AAo?$AAr?$AA?$DM?$AAc?$AAl?$AAa?$AAs?$AAs?$AA?5@ DB 's'
	DB	00H, 't', 00H, 'd', 00H, ':', 00H, ':', 00H, '_', 00H, 'L', 00H
	DB	'i', 00H, 's', 00H, 't', 00H, '_', 00H, 'c', 00H, 'o', 00H, 'n'
	DB	00H, 's', 00H, 't', 00H, '_', 00H, 'i', 00H, 't', 00H, 'e', 00H
	DB	'r', 00H, 'a', 00H, 't', 00H, 'o', 00H, 'r', 00H, '<', 00H, 'c'
	DB	00H, 'l', 00H, 'a', 00H, 's', 00H, 's', 00H, ' ', 00H, 's', 00H
	DB	't', 00H, 'd', 00H, ':', 00H, ':', 00H, '_', 00H, 'L', 00H, 'i'
	DB	00H, 's', 00H, 't', 00H, '_', 00H, 'v', 00H, 'a', 00H, 'l', 00H
	DB	'<', 00H, 's', 00H, 't', 00H, 'r', 00H, 'u', 00H, 'c', 00H, 't'
	DB	00H, ' ', 00H, 's', 00H, 't', 00H, 'd', 00H, ':', 00H, ':', 00H
	DB	'_', 00H, 'L', 00H, 'i', 00H, 's', 00H, 't', 00H, '_', 00H, 's'
	DB	00H, 'i', 00H, 'm', 00H, 'p', 00H, 'l', 00H, 'e', 00H, '_', 00H
	DB	't', 00H, 'y', 00H, 'p', 00H, 'e', 00H, 's', 00H, '<', 00H, 'c'
	DB	00H, 'l', 00H, 'a', 00H, 's', 00H, 's', 00H, ' ', 00H, 'G', 00H
	DB	'o', 00H, 'a', 00H, 'l', 00H, '<', 00H, 'c', 00H, 'l', 00H, 'a'
	DB	00H, 's', 00H, 's', 00H, ' ', 00H, 'R', 00H, 'a', 00H, 'v', 00H
	DB	'e', 00H, 'n', 00H, '_', 00H, 'B', 00H, 'o', 00H, 't', 00H, '>'
	DB	00H, ' ', 00H, '*', 00H, '>', 00H, ' ', 00H, '>', 00H, ' ', 00H
	DB	'>', 00H, ':', 00H, ':', 00H, 'o', 00H, 'p', 00H, 'e', 00H, 'r'
	DB	00H, 'a', 00H, 't', 00H, 'o', 00H, 'r', 00H, ' ', 00H, '+', 00H
	DB	'+', 00H, 00H, 00H				; `string'
CONST	ENDS
;	COMDAT ??_C@_1EA@DOGAGKDH@?$AAl?$AAi?$AAs?$AAt?$AA?5?$AAi?$AAt?$AAe?$AAr?$AAa?$AAt?$AAo?$AAr?$AA?5?$AAn?$AAo?$AAt?$AA?5?$AAi?$AAn?$AAc?$AAr?$AAe?$AAm?$AAe?$AAn?$AAt?$AAa?$AAb?$AAl?$AAe?$AA?$AA@
CONST	SEGMENT
??_C@_1EA@DOGAGKDH@?$AAl?$AAi?$AAs?$AAt?$AA?5?$AAi?$AAt?$AAe?$AAr?$AAa?$AAt?$AAo?$AAr?$AA?5?$AAn?$AAo?$AAt?$AA?5?$AAi?$AAn?$AAc?$AAr?$AAe?$AAm?$AAe?$AAn?$AAt?$AAa?$AAb?$AAl?$AAe?$AA?$AA@ DB 'l'
	DB	00H, 'i', 00H, 's', 00H, 't', 00H, ' ', 00H, 'i', 00H, 't', 00H
	DB	'e', 00H, 'r', 00H, 'a', 00H, 't', 00H, 'o', 00H, 'r', 00H, ' '
	DB	00H, 'n', 00H, 'o', 00H, 't', 00H, ' ', 00H, 'i', 00H, 'n', 00H
	DB	'c', 00H, 'r', 00H, 'e', 00H, 'm', 00H, 'e', 00H, 'n', 00H, 't'
	DB	00H, 'a', 00H, 'b', 00H, 'l', 00H, 'e', 00H, 00H, 00H ; `string'
CONST	ENDS
;	COMDAT ??_C@_1PM@IFAGIBOF@?$AAs?$AAt?$AAd?$AA?3?$AA?3?$AA_?$AAL?$AAi?$AAs?$AAt?$AA_?$AAc?$AAo?$AAn?$AAs?$AAt?$AA_?$AAi?$AAt?$AAe?$AAr?$AAa?$AAt?$AAo?$AAr?$AA?$DM?$AAc?$AAl?$AAa?$AAs?$AAs?$AA?5@
CONST	SEGMENT
??_C@_1PM@IFAGIBOF@?$AAs?$AAt?$AAd?$AA?3?$AA?3?$AA_?$AAL?$AAi?$AAs?$AAt?$AA_?$AAc?$AAo?$AAn?$AAs?$AAt?$AA_?$AAi?$AAt?$AAe?$AAr?$AAa?$AAt?$AAo?$AAr?$AA?$DM?$AAc?$AAl?$AAa?$AAs?$AAs?$AA?5@ DB 's'
	DB	00H, 't', 00H, 'd', 00H, ':', 00H, ':', 00H, '_', 00H, 'L', 00H
	DB	'i', 00H, 's', 00H, 't', 00H, '_', 00H, 'c', 00H, 'o', 00H, 'n'
	DB	00H, 's', 00H, 't', 00H, '_', 00H, 'i', 00H, 't', 00H, 'e', 00H
	DB	'r', 00H, 'a', 00H, 't', 00H, 'o', 00H, 'r', 00H, '<', 00H, 'c'
	DB	00H, 'l', 00H, 'a', 00H, 's', 00H, 's', 00H, ' ', 00H, 's', 00H
	DB	't', 00H, 'd', 00H, ':', 00H, ':', 00H, '_', 00H, 'L', 00H, 'i'
	DB	00H, 's', 00H, 't', 00H, '_', 00H, 'v', 00H, 'a', 00H, 'l', 00H
	DB	'<', 00H, 's', 00H, 't', 00H, 'r', 00H, 'u', 00H, 'c', 00H, 't'
	DB	00H, ' ', 00H, 's', 00H, 't', 00H, 'd', 00H, ':', 00H, ':', 00H
	DB	'_', 00H, 'L', 00H, 'i', 00H, 's', 00H, 't', 00H, '_', 00H, 's'
	DB	00H, 'i', 00H, 'm', 00H, 'p', 00H, 'l', 00H, 'e', 00H, '_', 00H
	DB	't', 00H, 'y', 00H, 'p', 00H, 'e', 00H, 's', 00H, '<', 00H, 'c'
	DB	00H, 'l', 00H, 'a', 00H, 's', 00H, 's', 00H, ' ', 00H, 'G', 00H
	DB	'o', 00H, 'a', 00H, 'l', 00H, '<', 00H, 'c', 00H, 'l', 00H, 'a'
	DB	00H, 's', 00H, 's', 00H, ' ', 00H, 'R', 00H, 'a', 00H, 'v', 00H
	DB	'e', 00H, 'n', 00H, '_', 00H, 'B', 00H, 'o', 00H, 't', 00H, '>'
	DB	00H, ' ', 00H, '*', 00H, '>', 00H, ' ', 00H, '>', 00H, ' ', 00H
	DB	'>', 00H, ':', 00H, ':', 00H, 'o', 00H, 'p', 00H, 'e', 00H, 'r'
	DB	00H, 'a', 00H, 't', 00H, 'o', 00H, 'r', 00H, ' ', 00H, '-', 00H
	DB	'-', 00H, 00H, 00H				; `string'
CONST	ENDS
;	COMDAT ??_C@_1EA@JDNDELPC@?$AAl?$AAi?$AAs?$AAt?$AA?5?$AAi?$AAt?$AAe?$AAr?$AAa?$AAt?$AAo?$AAr?$AA?5?$AAn?$AAo?$AAt?$AA?5?$AAd?$AAe?$AAc?$AAr?$AAe?$AAm?$AAe?$AAn?$AAt?$AAa?$AAb?$AAl?$AAe?$AA?$AA@
CONST	SEGMENT
??_C@_1EA@JDNDELPC@?$AAl?$AAi?$AAs?$AAt?$AA?5?$AAi?$AAt?$AAe?$AAr?$AAa?$AAt?$AAo?$AAr?$AA?5?$AAn?$AAo?$AAt?$AA?5?$AAd?$AAe?$AAc?$AAr?$AAe?$AAm?$AAe?$AAn?$AAt?$AAa?$AAb?$AAl?$AAe?$AA?$AA@ DB 'l'
	DB	00H, 'i', 00H, 's', 00H, 't', 00H, ' ', 00H, 'i', 00H, 't', 00H
	DB	'e', 00H, 'r', 00H, 'a', 00H, 't', 00H, 'o', 00H, 'r', 00H, ' '
	DB	00H, 'n', 00H, 'o', 00H, 't', 00H, ' ', 00H, 'd', 00H, 'e', 00H
	DB	'c', 00H, 'r', 00H, 'e', 00H, 'm', 00H, 'e', 00H, 'n', 00H, 't'
	DB	00H, 'a', 00H, 'b', 00H, 'l', 00H, 'e', 00H, 00H, 00H ; `string'
CONST	ENDS
;	COMDAT ??_C@_1PM@NGMJNEOB@?$AAs?$AAt?$AAd?$AA?3?$AA?3?$AA_?$AAL?$AAi?$AAs?$AAt?$AA_?$AAc?$AAo?$AAn?$AAs?$AAt?$AA_?$AAi?$AAt?$AAe?$AAr?$AAa?$AAt?$AAo?$AAr?$AA?$DM?$AAc?$AAl?$AAa?$AAs?$AAs?$AA?5@
CONST	SEGMENT
??_C@_1PM@NGMJNEOB@?$AAs?$AAt?$AAd?$AA?3?$AA?3?$AA_?$AAL?$AAi?$AAs?$AAt?$AA_?$AAc?$AAo?$AAn?$AAs?$AAt?$AA_?$AAi?$AAt?$AAe?$AAr?$AAa?$AAt?$AAo?$AAr?$AA?$DM?$AAc?$AAl?$AAa?$AAs?$AAs?$AA?5@ DB 's'
	DB	00H, 't', 00H, 'd', 00H, ':', 00H, ':', 00H, '_', 00H, 'L', 00H
	DB	'i', 00H, 's', 00H, 't', 00H, '_', 00H, 'c', 00H, 'o', 00H, 'n'
	DB	00H, 's', 00H, 't', 00H, '_', 00H, 'i', 00H, 't', 00H, 'e', 00H
	DB	'r', 00H, 'a', 00H, 't', 00H, 'o', 00H, 'r', 00H, '<', 00H, 'c'
	DB	00H, 'l', 00H, 'a', 00H, 's', 00H, 's', 00H, ' ', 00H, 's', 00H
	DB	't', 00H, 'd', 00H, ':', 00H, ':', 00H, '_', 00H, 'L', 00H, 'i'
	DB	00H, 's', 00H, 't', 00H, '_', 00H, 'v', 00H, 'a', 00H, 'l', 00H
	DB	'<', 00H, 's', 00H, 't', 00H, 'r', 00H, 'u', 00H, 'c', 00H, 't'
	DB	00H, ' ', 00H, 's', 00H, 't', 00H, 'd', 00H, ':', 00H, ':', 00H
	DB	'_', 00H, 'L', 00H, 'i', 00H, 's', 00H, 't', 00H, '_', 00H, 's'
	DB	00H, 'i', 00H, 'm', 00H, 'p', 00H, 'l', 00H, 'e', 00H, '_', 00H
	DB	't', 00H, 'y', 00H, 'p', 00H, 'e', 00H, 's', 00H, '<', 00H, 'c'
	DB	00H, 'l', 00H, 'a', 00H, 's', 00H, 's', 00H, ' ', 00H, 'G', 00H
	DB	'o', 00H, 'a', 00H, 'l', 00H, '<', 00H, 'c', 00H, 'l', 00H, 'a'
	DB	00H, 's', 00H, 's', 00H, ' ', 00H, 'R', 00H, 'a', 00H, 'v', 00H
	DB	'e', 00H, 'n', 00H, '_', 00H, 'B', 00H, 'o', 00H, 't', 00H, '>'
	DB	00H, ' ', 00H, '*', 00H, '>', 00H, ' ', 00H, '>', 00H, ' ', 00H
	DB	'>', 00H, ':', 00H, ':', 00H, 'o', 00H, 'p', 00H, 'e', 00H, 'r'
	DB	00H, 'a', 00H, 't', 00H, 'o', 00H, 'r', 00H, ' ', 00H, '=', 00H
	DB	'=', 00H, 00H, 00H				; `string'
CONST	ENDS
;	COMDAT ??_C@_1FO@GJIHNDLM@?$AA?$CC?$AAS?$AAt?$AAa?$AAn?$AAd?$AAa?$AAr?$AAd?$AA?5?$AAC?$AA?$CL?$AA?$CL?$AA?5?$AAL?$AAi?$AAb?$AAr?$AAa?$AAr?$AAi?$AAe?$AAs?$AA?5?$AAI?$AAn?$AAv?$AAa?$AAl?$AAi?$AAd?$AA?5@
CONST	SEGMENT
??_C@_1FO@GJIHNDLM@?$AA?$CC?$AAS?$AAt?$AAa?$AAn?$AAd?$AAa?$AAr?$AAd?$AA?5?$AAC?$AA?$CL?$AA?$CL?$AA?5?$AAL?$AAi?$AAb?$AAr?$AAa?$AAr?$AAi?$AAe?$AAs?$AA?5?$AAI?$AAn?$AAv?$AAa?$AAl?$AAi?$AAd?$AA?5@ DB '"'
	DB	00H, 'S', 00H, 't', 00H, 'a', 00H, 'n', 00H, 'd', 00H, 'a', 00H
	DB	'r', 00H, 'd', 00H, ' ', 00H, 'C', 00H, '+', 00H, '+', 00H, ' '
	DB	00H, 'L', 00H, 'i', 00H, 'b', 00H, 'r', 00H, 'a', 00H, 'r', 00H
	DB	'i', 00H, 'e', 00H, 's', 00H, ' ', 00H, 'I', 00H, 'n', 00H, 'v'
	DB	00H, 'a', 00H, 'l', 00H, 'i', 00H, 'd', 00H, ' ', 00H, 'A', 00H
	DB	'r', 00H, 'g', 00H, 'u', 00H, 'm', 00H, 'e', 00H, 'n', 00H, 't'
	DB	00H, '"', 00H, ' ', 00H, '&', 00H, '&', 00H, ' ', 00H, '0', 00H
	DB	00H, 00H					; `string'
CONST	ENDS
;	COMDAT ??_C@_0CI@FNPHFCCM@Standard?5C?$CL?$CL?5Libraries?5Invalid?5A@
CONST	SEGMENT
??_C@_0CI@FNPHFCCM@Standard?5C?$CL?$CL?5Libraries?5Invalid?5A@ DB 'Standa'
	DB	'rd C++ Libraries Invalid Argument', 00H	; `string'
CONST	ENDS
;	COMDAT ??_C@_1DI@MDELDGPI@?$AAl?$AAi?$AAs?$AAt?$AA?5?$AAi?$AAt?$AAe?$AAr?$AAa?$AAt?$AAo?$AAr?$AAs?$AA?5?$AAi?$AAn?$AAc?$AAo?$AAm?$AAp?$AAa?$AAt?$AAi?$AAb?$AAl?$AAe?$AA?$AA@
CONST	SEGMENT
??_C@_1DI@MDELDGPI@?$AAl?$AAi?$AAs?$AAt?$AA?5?$AAi?$AAt?$AAe?$AAr?$AAa?$AAt?$AAo?$AAr?$AAs?$AA?5?$AAi?$AAn?$AAc?$AAo?$AAm?$AAp?$AAa?$AAt?$AAi?$AAb?$AAl?$AAe?$AA?$AA@ DB 'l'
	DB	00H, 'i', 00H, 's', 00H, 't', 00H, ' ', 00H, 'i', 00H, 't', 00H
	DB	'e', 00H, 'r', 00H, 'a', 00H, 't', 00H, 'o', 00H, 'r', 00H, 's'
	DB	00H, ' ', 00H, 'i', 00H, 'n', 00H, 'c', 00H, 'o', 00H, 'm', 00H
	DB	'p', 00H, 'a', 00H, 't', 00H, 'i', 00H, 'b', 00H, 'l', 00H, 'e'
	DB	00H, 00H, 00H				; `string'
CONST	ENDS
;	COMDAT ??_C@_1GA@IINJPBGE@?$AAD?$AA?3?$AA?2?$AAM?$AAi?$AAc?$AAr?$AAo?$AAs?$AAo?$AAf?$AAt?$AA?5?$AAV?$AAi?$AAs?$AAu?$AAa?$AAl?$AA?5?$AAS?$AAt?$AAu?$AAd?$AAi?$AAo?$AA?5?$AA1?$AA4?$AA?4?$AA0?$AA?2@
CONST	SEGMENT
??_C@_1GA@IINJPBGE@?$AAD?$AA?3?$AA?2?$AAM?$AAi?$AAc?$AAr?$AAo?$AAs?$AAo?$AAf?$AAt?$AA?5?$AAV?$AAi?$AAs?$AAu?$AAa?$AAl?$AA?5?$AAS?$AAt?$AAu?$AAd?$AAi?$AAo?$AA?5?$AA1?$AA4?$AA?4?$AA0?$AA?2@ DB 'D'
	DB	00H, ':', 00H, '\', 00H, 'M', 00H, 'i', 00H, 'c', 00H, 'r', 00H
	DB	'o', 00H, 's', 00H, 'o', 00H, 'f', 00H, 't', 00H, ' ', 00H, 'V'
	DB	00H, 'i', 00H, 's', 00H, 'u', 00H, 'a', 00H, 'l', 00H, ' ', 00H
	DB	'S', 00H, 't', 00H, 'u', 00H, 'd', 00H, 'i', 00H, 'o', 00H, ' '
	DB	00H, '1', 00H, '4', 00H, '.', 00H, '0', 00H, '\', 00H, 'V', 00H
	DB	'C', 00H, '\', 00H, 'i', 00H, 'n', 00H, 'c', 00H, 'l', 00H, 'u'
	DB	00H, 'd', 00H, 'e', 00H, '\', 00H, 'l', 00H, 'i', 00H, 's', 00H
	DB	't', 00H, 00H, 00H				; `string'
CONST	ENDS
;	COMDAT ??_C@_1GI@DHJGPFNI@?$AA?$CC?$AA_?$AAP?$AAt?$AAr?$AA_?$AAu?$AAs?$AAe?$AAr?$AA?5?$AA?9?$AA?5?$AA_?$AAP?$AAt?$AAr?$AA_?$AAc?$AAo?$AAn?$AAt?$AAa?$AAi?$AAn?$AAe?$AAr?$AA?5?$AA?$DM?$AA?$DN?$AA?5?$AA_@
CONST	SEGMENT
??_C@_1GI@DHJGPFNI@?$AA?$CC?$AA_?$AAP?$AAt?$AAr?$AA_?$AAu?$AAs?$AAe?$AAr?$AA?5?$AA?9?$AA?5?$AA_?$AAP?$AAt?$AAr?$AA_?$AAc?$AAo?$AAn?$AAt?$AAa?$AAi?$AAn?$AAe?$AAr?$AA?5?$AA?$DM?$AA?$DN?$AA?5?$AA_@ DB '"'
	DB	00H, '_', 00H, 'P', 00H, 't', 00H, 'r', 00H, '_', 00H, 'u', 00H
	DB	's', 00H, 'e', 00H, 'r', 00H, ' ', 00H, '-', 00H, ' ', 00H, '_'
	DB	00H, 'P', 00H, 't', 00H, 'r', 00H, '_', 00H, 'c', 00H, 'o', 00H
	DB	'n', 00H, 't', 00H, 'a', 00H, 'i', 00H, 'n', 00H, 'e', 00H, 'r'
	DB	00H, ' ', 00H, '<', 00H, '=', 00H, ' ', 00H, '_', 00H, 'N', 00H
	DB	'O', 00H, 'N', 00H, '_', 00H, 'U', 00H, 'S', 00H, 'E', 00H, 'R'
	DB	00H, '_', 00H, 'S', 00H, 'I', 00H, 'Z', 00H, 'E', 00H, '"', 00H
	DB	' ', 00H, '&', 00H, '&', 00H, ' ', 00H, '0', 00H, 00H, 00H ; `string'
CONST	ENDS
;	COMDAT ??_C@_0CN@BLHJCAL@_Ptr_user?5?9?5_Ptr_container?5?$DM?$DN?5_N@
CONST	SEGMENT
??_C@_0CN@BLHJCAL@_Ptr_user?5?9?5_Ptr_container?5?$DM?$DN?5_N@ DB '_Ptr_u'
	DB	'ser - _Ptr_container <= _NON_USER_SIZE', 00H ; `string'
CONST	ENDS
;	COMDAT ??_C@_1HA@NAPGMHAO@?$AA?$CC?$AA2?$AA?5?$AA?$CK?$AA?5?$AAs?$AAi?$AAz?$AAe?$AAo?$AAf?$AA?$CI?$AAv?$AAo?$AAi?$AAd?$AA?5?$AA?$CK?$AA?$CJ?$AA?5?$AA?$DM?$AA?$DN?$AA?5?$AA_?$AAP?$AAt?$AAr?$AA_?$AAu?$AAs?$AAe?$AAr@
CONST	SEGMENT
??_C@_1HA@NAPGMHAO@?$AA?$CC?$AA2?$AA?5?$AA?$CK?$AA?5?$AAs?$AAi?$AAz?$AAe?$AAo?$AAf?$AA?$CI?$AAv?$AAo?$AAi?$AAd?$AA?5?$AA?$CK?$AA?$CJ?$AA?5?$AA?$DM?$AA?$DN?$AA?5?$AA_?$AAP?$AAt?$AAr?$AA_?$AAu?$AAs?$AAe?$AAr@ DB '"'
	DB	00H, '2', 00H, ' ', 00H, '*', 00H, ' ', 00H, 's', 00H, 'i', 00H
	DB	'z', 00H, 'e', 00H, 'o', 00H, 'f', 00H, '(', 00H, 'v', 00H, 'o'
	DB	00H, 'i', 00H, 'd', 00H, ' ', 00H, '*', 00H, ')', 00H, ' ', 00H
	DB	'<', 00H, '=', 00H, ' ', 00H, '_', 00H, 'P', 00H, 't', 00H, 'r'
	DB	00H, '_', 00H, 'u', 00H, 's', 00H, 'e', 00H, 'r', 00H, ' ', 00H
	DB	'-', 00H, ' ', 00H, '_', 00H, 'P', 00H, 't', 00H, 'r', 00H, '_'
	DB	00H, 'c', 00H, 'o', 00H, 'n', 00H, 't', 00H, 'a', 00H, 'i', 00H
	DB	'n', 00H, 'e', 00H, 'r', 00H, '"', 00H, ' ', 00H, '&', 00H, '&'
	DB	00H, ' ', 00H, '0', 00H, 00H, 00H		; `string'
CONST	ENDS
;	COMDAT ??_C@_0DB@GLFJLNCE@2?5?$CK?5sizeof?$CIvoid?5?$CK?$CJ?5?$DM?$DN?5_Ptr_user?5@
CONST	SEGMENT
??_C@_0DB@GLFJLNCE@2?5?$CK?5sizeof?$CIvoid?5?$CK?$CJ?5?$DM?$DN?5_Ptr_user?5@ DB '2'
	DB	' * sizeof(void *) <= _Ptr_user - _Ptr_container', 00H ; `string'
CONST	ENDS
;	COMDAT ??_C@_1EE@PDHAHDDC@?$AA?$CC?$AA_?$AAP?$AAt?$AAr?$AA_?$AAc?$AAo?$AAn?$AAt?$AAa?$AAi?$AAn?$AAe?$AAr?$AA?5?$AA?$DM?$AA?5?$AA_?$AAP?$AAt?$AAr?$AA_?$AAu?$AAs?$AAe?$AAr?$AA?$CC?$AA?5?$AA?$CG?$AA?$CG?$AA?5@
CONST	SEGMENT
??_C@_1EE@PDHAHDDC@?$AA?$CC?$AA_?$AAP?$AAt?$AAr?$AA_?$AAc?$AAo?$AAn?$AAt?$AAa?$AAi?$AAn?$AAe?$AAr?$AA?5?$AA?$DM?$AA?5?$AA_?$AAP?$AAt?$AAr?$AA_?$AAu?$AAs?$AAe?$AAr?$AA?$CC?$AA?5?$AA?$CG?$AA?$CG?$AA?5@ DB '"'
	DB	00H, '_', 00H, 'P', 00H, 't', 00H, 'r', 00H, '_', 00H, 'c', 00H
	DB	'o', 00H, 'n', 00H, 't', 00H, 'a', 00H, 'i', 00H, 'n', 00H, 'e'
	DB	00H, 'r', 00H, ' ', 00H, '<', 00H, ' ', 00H, '_', 00H, 'P', 00H
	DB	't', 00H, 'r', 00H, '_', 00H, 'u', 00H, 's', 00H, 'e', 00H, 'r'
	DB	00H, '"', 00H, ' ', 00H, '&', 00H, '&', 00H, ' ', 00H, '0', 00H
	DB	00H, 00H					; `string'
CONST	ENDS
;	COMDAT ??_C@_0BL@OCKMEJON@_Ptr_container?5?$DM?5_Ptr_user?$AA@
CONST	SEGMENT
??_C@_0BL@OCKMEJON@_Ptr_container?5?$DM?5_Ptr_user?$AA@ DB '_Ptr_containe'
	DB	'r < _Ptr_user', 00H				; `string'
CONST	ENDS
;	COMDAT ??_C@_1JO@EKLKIEHP@?$AA?$CC?$AAr?$AAe?$AAi?$AAn?$AAt?$AAe?$AAr?$AAp?$AAr?$AAe?$AAt?$AA_?$AAc?$AAa?$AAs?$AAt?$AA?$DM?$AAu?$AAi?$AAn?$AAt?$AAp?$AAt?$AAr?$AA_?$AAt?$AA?5?$AA?$CK?$AA?$DO?$AA?$CI?$AA_@
CONST	SEGMENT
??_C@_1JO@EKLKIEHP@?$AA?$CC?$AAr?$AAe?$AAi?$AAn?$AAt?$AAe?$AAr?$AAp?$AAr?$AAe?$AAt?$AA_?$AAc?$AAa?$AAs?$AAt?$AA?$DM?$AAu?$AAi?$AAn?$AAt?$AAp?$AAt?$AAr?$AA_?$AAt?$AA?5?$AA?$CK?$AA?$DO?$AA?$CI?$AA_@ DB '"'
	DB	00H, 'r', 00H, 'e', 00H, 'i', 00H, 'n', 00H, 't', 00H, 'e', 00H
	DB	'r', 00H, 'p', 00H, 'r', 00H, 'e', 00H, 't', 00H, '_', 00H, 'c'
	DB	00H, 'a', 00H, 's', 00H, 't', 00H, '<', 00H, 'u', 00H, 'i', 00H
	DB	'n', 00H, 't', 00H, 'p', 00H, 't', 00H, 'r', 00H, '_', 00H, 't'
	DB	00H, ' ', 00H, '*', 00H, '>', 00H, '(', 00H, '_', 00H, 'P', 00H
	DB	't', 00H, 'r', 00H, '_', 00H, 'p', 00H, 't', 00H, 'r', 00H, ')'
	DB	00H, '[', 00H, '-', 00H, '1', 00H, ']', 00H, ' ', 00H, '=', 00H
	DB	'=', 00H, ' ', 00H, '_', 00H, 'B', 00H, 'I', 00H, 'G', 00H, '_'
	DB	00H, 'A', 00H, 'L', 00H, 'L', 00H, 'O', 00H, 'C', 00H, 'A', 00H
	DB	'T', 00H, 'I', 00H, 'O', 00H, 'N', 00H, '_', 00H, 'S', 00H, 'E'
	DB	00H, 'N', 00H, 'T', 00H, 'I', 00H, 'N', 00H, 'E', 00H, 'L', 00H
	DB	'"', 00H, ' ', 00H, '&', 00H, '&', 00H, ' ', 00H, '0', 00H, 00H
	DB	00H						; `string'
CONST	ENDS
;	COMDAT ??_C@_0EI@NOJHEJCJ@reinterpret_cast?$DMuintptr_t?5?$CK?$DO?$CI_P@
CONST	SEGMENT
??_C@_0EI@NOJHEJCJ@reinterpret_cast?$DMuintptr_t?5?$CK?$DO?$CI_P@ DB 'rei'
	DB	'nterpret_cast<uintptr_t *>(_Ptr_ptr)[-1] == _BIG_ALLOCATION_S'
	DB	'ENTINEL', 00H				; `string'
CONST	ENDS
;	COMDAT ??_C@_1HE@CDMBFOKC@?$AA?$CC?$AA?$CI?$AA_?$AAP?$AAt?$AAr?$AA_?$AAu?$AAs?$AAe?$AAr?$AA?5?$AA?$CG?$AA?5?$AA?$CI?$AA_?$AAB?$AAI?$AAG?$AA_?$AAA?$AAL?$AAL?$AAO?$AAC?$AAA?$AAT?$AAI?$AAO?$AAN?$AA_?$AAA@
CONST	SEGMENT
??_C@_1HE@CDMBFOKC@?$AA?$CC?$AA?$CI?$AA_?$AAP?$AAt?$AAr?$AA_?$AAu?$AAs?$AAe?$AAr?$AA?5?$AA?$CG?$AA?5?$AA?$CI?$AA_?$AAB?$AAI?$AAG?$AA_?$AAA?$AAL?$AAL?$AAO?$AAC?$AAA?$AAT?$AAI?$AAO?$AAN?$AA_?$AAA@ DB '"'
	DB	00H, '(', 00H, '_', 00H, 'P', 00H, 't', 00H, 'r', 00H, '_', 00H
	DB	'u', 00H, 's', 00H, 'e', 00H, 'r', 00H, ' ', 00H, '&', 00H, ' '
	DB	00H, '(', 00H, '_', 00H, 'B', 00H, 'I', 00H, 'G', 00H, '_', 00H
	DB	'A', 00H, 'L', 00H, 'L', 00H, 'O', 00H, 'C', 00H, 'A', 00H, 'T'
	DB	00H, 'I', 00H, 'O', 00H, 'N', 00H, '_', 00H, 'A', 00H, 'L', 00H
	DB	'I', 00H, 'G', 00H, 'N', 00H, 'M', 00H, 'E', 00H, 'N', 00H, 'T'
	DB	00H, ' ', 00H, '-', 00H, ' ', 00H, '1', 00H, ')', 00H, ')', 00H
	DB	' ', 00H, '=', 00H, '=', 00H, ' ', 00H, '0', 00H, '"', 00H, ' '
	DB	00H, '&', 00H, '&', 00H, ' ', 00H, '0', 00H, 00H, 00H ; `string'
CONST	ENDS
;	COMDAT ??_C@_0DD@GBGGGKGG@?$CI_Ptr_user?5?$CG?5?$CI_BIG_ALLOCATION_AL@
CONST	SEGMENT
??_C@_0DD@GBGGGKGG@?$CI_Ptr_user?5?$CG?5?$CI_BIG_ALLOCATION_AL@ DB '(_Ptr'
	DB	'_user & (_BIG_ALLOCATION_ALIGNMENT - 1)) == 0', 00H ; `string'
CONST	ENDS
;	COMDAT ??_C@_1CC@LOFJFFDB@?$AAs?$AAt?$AAd?$AA?3?$AA?3?$AA_?$AAD?$AAe?$AAa?$AAl?$AAl?$AAo?$AAc?$AAa?$AAt?$AAe?$AA?$AA@
CONST	SEGMENT
??_C@_1CC@LOFJFFDB@?$AAs?$AAt?$AAd?$AA?3?$AA?3?$AA_?$AAD?$AAe?$AAa?$AAl?$AAl?$AAo?$AAc?$AAa?$AAt?$AAe?$AA?$AA@ DB 's'
	DB	00H, 't', 00H, 'd', 00H, ':', 00H, ':', 00H, '_', 00H, 'D', 00H
	DB	'e', 00H, 'a', 00H, 'l', 00H, 'l', 00H, 'o', 00H, 'c', 00H, 'a'
	DB	00H, 't', 00H, 'e', 00H, 00H, 00H		; `string'
CONST	ENDS
;	COMDAT ??_C@_1FK@EJGLHMGC@?$AA?$CC?$AA_?$AAC?$AAo?$AAu?$AAn?$AAt?$AA?5?$AA?$DM?$AA?$DN?$AA?5?$AA?$CI?$AAs?$AAi?$AAz?$AAe?$AA_?$AAt?$AA?$CJ?$AA?$CI?$AA?9?$AA1?$AA?$CJ?$AA?5?$AA?1?$AA?5?$AAs?$AAi?$AAz?$AAe?$AAo?$AAf@
CONST	SEGMENT
??_C@_1FK@EJGLHMGC@?$AA?$CC?$AA_?$AAC?$AAo?$AAu?$AAn?$AAt?$AA?5?$AA?$DM?$AA?$DN?$AA?5?$AA?$CI?$AAs?$AAi?$AAz?$AAe?$AA_?$AAt?$AA?$CJ?$AA?$CI?$AA?9?$AA1?$AA?$CJ?$AA?5?$AA?1?$AA?5?$AAs?$AAi?$AAz?$AAe?$AAo?$AAf@ DB '"'
	DB	00H, '_', 00H, 'C', 00H, 'o', 00H, 'u', 00H, 'n', 00H, 't', 00H
	DB	' ', 00H, '<', 00H, '=', 00H, ' ', 00H, '(', 00H, 's', 00H, 'i'
	DB	00H, 'z', 00H, 'e', 00H, '_', 00H, 't', 00H, ')', 00H, '(', 00H
	DB	'-', 00H, '1', 00H, ')', 00H, ' ', 00H, '/', 00H, ' ', 00H, 's'
	DB	00H, 'i', 00H, 'z', 00H, 'e', 00H, 'o', 00H, 'f', 00H, ' ', 00H
	DB	'(', 00H, '_', 00H, 'T', 00H, 'y', 00H, ')', 00H, '"', 00H, ' '
	DB	00H, '&', 00H, '&', 00H, ' ', 00H, '0', 00H, 00H, 00H ; `string'
CONST	ENDS
;	COMDAT ??_C@_0CG@FHBDFCGK@_Count?5?$DM?$DN?5?$CIsize_t?$CJ?$CI?91?$CJ?5?1?5sizeof?5@
CONST	SEGMENT
??_C@_0CG@FHBDFCGK@_Count?5?$DM?$DN?5?$CIsize_t?$CJ?$CI?91?$CJ?5?1?5sizeof?5@ DB '_'
	DB	'Count <= (size_t)(-1) / sizeof (_Ty)', 00H	; `string'
CONST	ENDS
;	COMDAT ??_C@_1CC@GKJLLHIM@?$AA?$CC?$AA_?$AAP?$AAt?$AAr?$AA?5?$AA?$CB?$AA?$DN?$AA?5?$AA0?$AA?$CC?$AA?5?$AA?$CG?$AA?$CG?$AA?5?$AA0?$AA?$AA@
CONST	SEGMENT
??_C@_1CC@GKJLLHIM@?$AA?$CC?$AA_?$AAP?$AAt?$AAr?$AA?5?$AA?$CB?$AA?$DN?$AA?5?$AA0?$AA?$CC?$AA?5?$AA?$CG?$AA?$CG?$AA?5?$AA0?$AA?$AA@ DB '"'
	DB	00H, '_', 00H, 'P', 00H, 't', 00H, 'r', 00H, ' ', 00H, '!', 00H
	DB	'=', 00H, ' ', 00H, '0', 00H, '"', 00H, ' ', 00H, '&', 00H, '&'
	DB	00H, ' ', 00H, '0', 00H, 00H, 00H		; `string'
CONST	ENDS
;	COMDAT ??_C@_09GLJCAGLP@_Ptr?5?$CB?$DN?50?$AA@
CONST	SEGMENT
??_C@_09GLJCAGLP@_Ptr?5?$CB?$DN?50?$AA@ DB '_Ptr != 0', 00H ; `string'
CONST	ENDS
;	COMDAT ??_C@_1CG@JNLFBNGN@?$AA?$CC?$AAi?$AAn?$AAv?$AAa?$AAl?$AAi?$AAd?$AA?5?$AAa?$AAr?$AAg?$AAu?$AAm?$AAe?$AAn?$AAt?$AA?$CC?$AA?$AA@
CONST	SEGMENT
??_C@_1CG@JNLFBNGN@?$AA?$CC?$AAi?$AAn?$AAv?$AAa?$AAl?$AAi?$AAd?$AA?5?$AAa?$AAr?$AAg?$AAu?$AAm?$AAe?$AAn?$AAt?$AA?$CC?$AA?$AA@ DB '"'
	DB	00H, 'i', 00H, 'n', 00H, 'v', 00H, 'a', 00H, 'l', 00H, 'i', 00H
	DB	'd', 00H, ' ', 00H, 'a', 00H, 'r', 00H, 'g', 00H, 'u', 00H, 'm'
	DB	00H, 'e', 00H, 'n', 00H, 't', 00H, '"', 00H, 00H, 00H ; `string'
CONST	ENDS
;	COMDAT ??_C@_1BO@NKFMJPA@?$AAs?$AAt?$AAd?$AA?3?$AA?3?$AA_?$AAA?$AAl?$AAl?$AAo?$AAc?$AAa?$AAt?$AAe?$AA?$AA@
CONST	SEGMENT
??_C@_1BO@NKFMJPA@?$AAs?$AAt?$AAd?$AA?3?$AA?3?$AA_?$AAA?$AAl?$AAl?$AAo?$AAc?$AAa?$AAt?$AAe?$AA?$AA@ DB 's'
	DB	00H, 't', 00H, 'd', 00H, ':', 00H, ':', 00H, '_', 00H, 'A', 00H
	DB	'l', 00H, 'l', 00H, 'o', 00H, 'c', 00H, 'a', 00H, 't', 00H, 'e'
	DB	00H, 00H, 00H				; `string'
CONST	ENDS
;	COMDAT ??_C@_1GI@MOGLCDAO@?$AAD?$AA?3?$AA?2?$AAM?$AAi?$AAc?$AAr?$AAo?$AAs?$AAo?$AAf?$AAt?$AA?5?$AAV?$AAi?$AAs?$AAu?$AAa?$AAl?$AA?5?$AAS?$AAt?$AAu?$AAd?$AAi?$AAo?$AA?5?$AA1?$AA4?$AA?4?$AA0?$AA?2@
CONST	SEGMENT
??_C@_1GI@MOGLCDAO@?$AAD?$AA?3?$AA?2?$AAM?$AAi?$AAc?$AAr?$AAo?$AAs?$AAo?$AAf?$AAt?$AA?5?$AAV?$AAi?$AAs?$AAu?$AAa?$AAl?$AA?5?$AAS?$AAt?$AAu?$AAd?$AAi?$AAo?$AA?5?$AA1?$AA4?$AA?4?$AA0?$AA?2@ DB 'D'
	DB	00H, ':', 00H, '\', 00H, 'M', 00H, 'i', 00H, 'c', 00H, 'r', 00H
	DB	'o', 00H, 's', 00H, 'o', 00H, 'f', 00H, 't', 00H, ' ', 00H, 'V'
	DB	00H, 'i', 00H, 's', 00H, 'u', 00H, 'a', 00H, 'l', 00H, ' ', 00H
	DB	'S', 00H, 't', 00H, 'u', 00H, 'd', 00H, 'i', 00H, 'o', 00H, ' '
	DB	00H, '1', 00H, '4', 00H, '.', 00H, '0', 00H, '\', 00H, 'V', 00H
	DB	'C', 00H, '\', 00H, 'i', 00H, 'n', 00H, 'c', 00H, 'l', 00H, 'u'
	DB	00H, 'd', 00H, 'e', 00H, '\', 00H, 'x', 00H, 'm', 00H, 'e', 00H
	DB	'm', 00H, 'o', 00H, 'r', 00H, 'y', 00H, '0', 00H, 00H, 00H ; `string'
CONST	ENDS
;	COMDAT ??_C@_1DG@HGDKEBPG@?$AA?$CC?$AA_?$AAP?$AAt?$AAr?$AA_?$AAc?$AAo?$AAn?$AAt?$AAa?$AAi?$AAn?$AAe?$AAr?$AA?5?$AA?$CB?$AA?$DN?$AA?5?$AA0?$AA?$CC?$AA?5?$AA?$CG?$AA?$CG?$AA?5?$AA0?$AA?$AA@
CONST	SEGMENT
??_C@_1DG@HGDKEBPG@?$AA?$CC?$AA_?$AAP?$AAt?$AAr?$AA_?$AAc?$AAo?$AAn?$AAt?$AAa?$AAi?$AAn?$AAe?$AAr?$AA?5?$AA?$CB?$AA?$DN?$AA?5?$AA0?$AA?$CC?$AA?5?$AA?$CG?$AA?$CG?$AA?5?$AA0?$AA?$AA@ DB '"'
	DB	00H, '_', 00H, 'P', 00H, 't', 00H, 'r', 00H, '_', 00H, 'c', 00H
	DB	'o', 00H, 'n', 00H, 't', 00H, 'a', 00H, 'i', 00H, 'n', 00H, 'e'
	DB	00H, 'r', 00H, ' ', 00H, '!', 00H, '=', 00H, ' ', 00H, '0', 00H
	DB	'"', 00H, ' ', 00H, '&', 00H, '&', 00H, ' ', 00H, '0', 00H, 00H
	DB	00H						; `string'
CONST	ENDS
;	COMDAT ??_C@_0BE@LMNLACIC@_Ptr_container?5?$CB?$DN?50?$AA@
CONST	SEGMENT
??_C@_0BE@LMNLACIC@_Ptr_container?5?$CB?$DN?50?$AA@ DB '_Ptr_container !='
	DB	' 0', 00H					; `string'
CONST	ENDS
;	COMDAT ??_C@_1BO@MEPPHOO@?$AA?$CC?$AAo?$AAu?$AAt?$AA?5?$AAo?$AAf?$AA?5?$AAr?$AAa?$AAn?$AAg?$AAe?$AA?$CC?$AA?$AA@
CONST	SEGMENT
??_C@_1BO@MEPPHOO@?$AA?$CC?$AAo?$AAu?$AAt?$AA?5?$AAo?$AAf?$AA?5?$AAr?$AAa?$AAn?$AAg?$AAe?$AA?$CC?$AA?$AA@ DB '"'
	DB	00H, 'o', 00H, 'u', 00H, 't', 00H, ' ', 00H, 'o', 00H, 'f', 00H
	DB	' ', 00H, 'r', 00H, 'a', 00H, 'n', 00H, 'g', 00H, 'e', 00H, '"'
	DB	00H, 00H, 00H				; `string'
CONST	ENDS
;	COMDAT ??_C@_17CNPHIMPH@?$AA?$CF?$AAl?$AAs?$AA?$AA@
CONST	SEGMENT
??_C@_17CNPHIMPH@?$AA?$CF?$AAl?$AAs?$AA?$AA@ DB '%', 00H, 'l', 00H, 's', 00H
	DB	00H, 00H					; `string'
CONST	ENDS
;	COMDAT ??_C@_1FG@IBPIFFN@?$AA?$CC?$AAS?$AAt?$AAa?$AAn?$AAd?$AAa?$AAr?$AAd?$AA?5?$AAC?$AA?$CL?$AA?$CL?$AA?5?$AAL?$AAi?$AAb?$AAr?$AAa?$AAr?$AAi?$AAe?$AAs?$AA?5?$AAO?$AAu?$AAt?$AA?5?$AAo?$AAf?$AA?5?$AAR@
CONST	SEGMENT
??_C@_1FG@IBPIFFN@?$AA?$CC?$AAS?$AAt?$AAa?$AAn?$AAd?$AAa?$AAr?$AAd?$AA?5?$AAC?$AA?$CL?$AA?$CL?$AA?5?$AAL?$AAi?$AAb?$AAr?$AAa?$AAr?$AAi?$AAe?$AAs?$AA?5?$AAO?$AAu?$AAt?$AA?5?$AAo?$AAf?$AA?5?$AAR@ DB '"'
	DB	00H, 'S', 00H, 't', 00H, 'a', 00H, 'n', 00H, 'd', 00H, 'a', 00H
	DB	'r', 00H, 'd', 00H, ' ', 00H, 'C', 00H, '+', 00H, '+', 00H, ' '
	DB	00H, 'L', 00H, 'i', 00H, 'b', 00H, 'r', 00H, 'a', 00H, 'r', 00H
	DB	'i', 00H, 'e', 00H, 's', 00H, ' ', 00H, 'O', 00H, 'u', 00H, 't'
	DB	00H, ' ', 00H, 'o', 00H, 'f', 00H, ' ', 00H, 'R', 00H, 'a', 00H
	DB	'n', 00H, 'g', 00H, 'e', 00H, '"', 00H, ' ', 00H, '&', 00H, '&'
	DB	00H, ' ', 00H, '0', 00H, 00H, 00H		; `string'
CONST	ENDS
;	COMDAT ??_C@_0CE@OFMIGAMM@Standard?5C?$CL?$CL?5Libraries?5Out?5of?5Ra@
CONST	SEGMENT
??_C@_0CE@OFMIGAMM@Standard?5C?$CL?$CL?5Libraries?5Out?5of?5Ra@ DB 'Stand'
	DB	'ard C++ Libraries Out of Range', 00H	; `string'
CONST	ENDS
;	COMDAT ??_C@_0CB@OHIHCHGJ@Cannot?5add?5goals?5to?5atomic?5goals@
CONST	SEGMENT
??_C@_0CB@OHIHCHGJ@Cannot?5add?5goals?5to?5atomic?5goals@ DB 'Cannot add '
	DB	'goals to atomic goals', 00H			; `string'
CONST	ENDS
;	COMDAT ??_7Goal_DodgeSideToSide@@6B@
CONST	SEGMENT
??_7Goal_DodgeSideToSide@@6B@ DD FLAT:??_R4Goal_DodgeSideToSide@@6B@ ; Goal_DodgeSideToSide::`vftable'
	DD	FLAT:??_EGoal_DodgeSideToSide@@UAEPAXI@Z
	DD	FLAT:?Activate@Goal_DodgeSideToSide@@UAEXXZ
	DD	FLAT:?Process@Goal_DodgeSideToSide@@UAEHXZ
	DD	FLAT:?Terminate@Goal_DodgeSideToSide@@UAEXXZ
	DD	FLAT:?HandleMessage@?$Goal@VRaven_Bot@@@@UAE_NABUTelegram@@@Z
	DD	FLAT:?AddSubgoal@?$Goal@VRaven_Bot@@@@UAEXPAV1@@Z
	DD	FLAT:?RenderAtPos@?$Goal@VRaven_Bot@@@@UBEXAAUVector2D@@PAVTypeToString@@@Z
	DD	FLAT:?Render@Goal_DodgeSideToSide@@UAEXXZ
CONST	ENDS
;	COMDAT ??_7Goal_HuntTarget@@6B@
CONST	SEGMENT
??_7Goal_HuntTarget@@6B@ DD FLAT:??_R4Goal_HuntTarget@@6B@ ; Goal_HuntTarget::`vftable'
	DD	FLAT:??_EGoal_HuntTarget@@UAEPAXI@Z
	DD	FLAT:?Activate@Goal_HuntTarget@@UAEXXZ
	DD	FLAT:?Process@Goal_HuntTarget@@UAEHXZ
	DD	FLAT:?Terminate@Goal_HuntTarget@@UAEXXZ
	DD	FLAT:?HandleMessage@?$Goal_Composite@VRaven_Bot@@@@UAE_NABUTelegram@@@Z
	DD	FLAT:?AddSubgoal@?$Goal_Composite@VRaven_Bot@@@@UAEXPAV?$Goal@VRaven_Bot@@@@@Z
	DD	FLAT:?RenderAtPos@?$Goal_Composite@VRaven_Bot@@@@UBEXAAUVector2D@@PAVTypeToString@@@Z
	DD	FLAT:?Render@Goal_HuntTarget@@UAEXXZ
CONST	ENDS
;	COMDAT ??_7?$Goal_Composite@VRaven_Bot@@@@6B@
CONST	SEGMENT
??_7?$Goal_Composite@VRaven_Bot@@@@6B@ DD FLAT:??_R4?$Goal_Composite@VRaven_Bot@@@@6B@ ; Goal_Composite<Raven_Bot>::`vftable'
	DD	FLAT:??_E?$Goal_Composite@VRaven_Bot@@@@UAEPAXI@Z
	DD	FLAT:__purecall
	DD	FLAT:__purecall
	DD	FLAT:__purecall
	DD	FLAT:?HandleMessage@?$Goal_Composite@VRaven_Bot@@@@UAE_NABUTelegram@@@Z
	DD	FLAT:?AddSubgoal@?$Goal_Composite@VRaven_Bot@@@@UAEXPAV?$Goal@VRaven_Bot@@@@@Z
	DD	FLAT:?RenderAtPos@?$Goal_Composite@VRaven_Bot@@@@UBEXAAUVector2D@@PAVTypeToString@@@Z
	DD	FLAT:?Render@?$Goal_Composite@VRaven_Bot@@@@UAEXXZ
CONST	ENDS
;	COMDAT ??_7?$Goal@VRaven_Bot@@@@6B@
CONST	SEGMENT
??_7?$Goal@VRaven_Bot@@@@6B@ DD FLAT:??_R4?$Goal@VRaven_Bot@@@@6B@ ; Goal<Raven_Bot>::`vftable'
	DD	FLAT:??_E?$Goal@VRaven_Bot@@@@UAEPAXI@Z
	DD	FLAT:__purecall
	DD	FLAT:__purecall
	DD	FLAT:__purecall
	DD	FLAT:?HandleMessage@?$Goal@VRaven_Bot@@@@UAE_NABUTelegram@@@Z
	DD	FLAT:?AddSubgoal@?$Goal@VRaven_Bot@@@@UAEXPAV1@@Z
	DD	FLAT:?RenderAtPos@?$Goal@VRaven_Bot@@@@UBEXAAUVector2D@@PAVTypeToString@@@Z
	DD	FLAT:?Render@?$Goal@VRaven_Bot@@@@UAEXXZ
CONST	ENDS
;	COMDAT __CT??_R0?AVexception@std@@@8??0exception@std@@QAE@ABV01@@Z12
xdata$x	SEGMENT
__CT??_R0?AVexception@std@@@8??0exception@std@@QAE@ABV01@@Z12 DD 00H
	DD	FLAT:??_R0?AVexception@std@@@8
	DD	00H
	DD	0ffffffffH
	ORG $+4
	DD	0cH
	DD	FLAT:??0exception@std@@QAE@ABV01@@Z
xdata$x	ENDS
;	COMDAT ??_R0?AVexception@std@@@8
data$r	SEGMENT
??_R0?AVexception@std@@@8 DD FLAT:??_7type_info@@6B@	; std::exception `RTTI Type Descriptor'
	DD	00H
	DB	'.?AVexception@std@@', 00H
data$r	ENDS
;	COMDAT __CT??_R0?AVruntime_error@std@@@8??0runtime_error@std@@QAE@ABV01@@Z12
xdata$x	SEGMENT
__CT??_R0?AVruntime_error@std@@@8??0runtime_error@std@@QAE@ABV01@@Z12 DD 00H
	DD	FLAT:??_R0?AVruntime_error@std@@@8
	DD	00H
	DD	0ffffffffH
	ORG $+4
	DD	0cH
	DD	FLAT:??0runtime_error@std@@QAE@ABV01@@Z
xdata$x	ENDS
;	COMDAT ??_R0?AVruntime_error@std@@@8
data$r	SEGMENT
??_R0?AVruntime_error@std@@@8 DD FLAT:??_7type_info@@6B@ ; std::runtime_error `RTTI Type Descriptor'
	DD	00H
	DB	'.?AVruntime_error@std@@', 00H
data$r	ENDS
;	COMDAT __CTA2?AVruntime_error@std@@
xdata$x	SEGMENT
__CTA2?AVruntime_error@std@@ DD 02H
	DD	FLAT:__CT??_R0?AVruntime_error@std@@@8??0runtime_error@std@@QAE@ABV01@@Z12
	DD	FLAT:__CT??_R0?AVexception@std@@@8??0exception@std@@QAE@ABV01@@Z12
xdata$x	ENDS
;	COMDAT __TI2?AVruntime_error@std@@
xdata$x	SEGMENT
__TI2?AVruntime_error@std@@ DD 00H
	DD	FLAT:??1runtime_error@std@@UAE@XZ
	DD	00H
	DD	FLAT:__CTA2?AVruntime_error@std@@
xdata$x	ENDS
;	COMDAT ??_7runtime_error@std@@6B@
CONST	SEGMENT
??_7runtime_error@std@@6B@ DD FLAT:??_R4runtime_error@std@@6B@ ; std::runtime_error::`vftable'
	DD	FLAT:??_Eruntime_error@std@@UAEPAXI@Z
	DD	FLAT:?what@exception@std@@UBEPBDXZ
CONST	ENDS
;	COMDAT ??_C@_1DC@POOIKBAO@?$AAI?$AAT?$AAE?$AAR?$AAA?$AAT?$AAO?$AAR?$AA?5?$AAL?$AAI?$AAS?$AAT?$AA?5?$AAC?$AAO?$AAR?$AAR?$AAU?$AAP?$AAT?$AAE?$AAD?$AA?$CB?$AA?$AA@
CONST	SEGMENT
??_C@_1DC@POOIKBAO@?$AAI?$AAT?$AAE?$AAR?$AAA?$AAT?$AAO?$AAR?$AA?5?$AAL?$AAI?$AAS?$AAT?$AA?5?$AAC?$AAO?$AAR?$AAR?$AAU?$AAP?$AAT?$AAE?$AAD?$AA?$CB?$AA?$AA@ DB 'I'
	DB	00H, 'T', 00H, 'E', 00H, 'R', 00H, 'A', 00H, 'T', 00H, 'O', 00H
	DB	'R', 00H, ' ', 00H, 'L', 00H, 'I', 00H, 'S', 00H, 'T', 00H, ' '
	DB	00H, 'C', 00H, 'O', 00H, 'R', 00H, 'R', 00H, 'U', 00H, 'P', 00H
	DB	'T', 00H, 'E', 00H, 'D', 00H, '!', 00H, 00H, 00H ; `string'
CONST	ENDS
;	COMDAT ??_C@_1GI@DDIAPGKN@?$AAD?$AA?3?$AA?2?$AAM?$AAi?$AAc?$AAr?$AAo?$AAs?$AAo?$AAf?$AAt?$AA?5?$AAV?$AAi?$AAs?$AAu?$AAa?$AAl?$AA?5?$AAS?$AAt?$AAu?$AAd?$AAi?$AAo?$AA?5?$AA1?$AA4?$AA?4?$AA0?$AA?2@
CONST	SEGMENT
??_C@_1GI@DDIAPGKN@?$AAD?$AA?3?$AA?2?$AAM?$AAi?$AAc?$AAr?$AAo?$AAs?$AAo?$AAf?$AAt?$AA?5?$AAV?$AAi?$AAs?$AAu?$AAa?$AAl?$AA?5?$AAS?$AAt?$AAu?$AAd?$AAi?$AAo?$AA?5?$AA1?$AA4?$AA?4?$AA0?$AA?2@ DB 'D'
	DB	00H, ':', 00H, '\', 00H, 'M', 00H, 'i', 00H, 'c', 00H, 'r', 00H
	DB	'o', 00H, 's', 00H, 'o', 00H, 'f', 00H, 't', 00H, ' ', 00H, 'V'
	DB	00H, 'i', 00H, 's', 00H, 'u', 00H, 'a', 00H, 'l', 00H, ' ', 00H
	DB	'S', 00H, 't', 00H, 'u', 00H, 'd', 00H, 'i', 00H, 'o', 00H, ' '
	DB	00H, '1', 00H, '4', 00H, '.', 00H, '0', 00H, '\', 00H, 'V', 00H
	DB	'C', 00H, '\', 00H, 'i', 00H, 'n', 00H, 'c', 00H, 'l', 00H, 'u'
	DB	00H, 'd', 00H, 'e', 00H, '\', 00H, 'x', 00H, 'u', 00H, 't', 00H
	DB	'i', 00H, 'l', 00H, 'i', 00H, 't', 00H, 'y', 00H, 00H, 00H ; `string'
CONST	ENDS
;	COMDAT ??_C@_0BC@EOODALEL@Unknown?5exception?$AA@
CONST	SEGMENT
??_C@_0BC@EOODALEL@Unknown?5exception?$AA@ DB 'Unknown exception', 00H ; `string'
CONST	ENDS
;	COMDAT ??_7exception@std@@6B@
CONST	SEGMENT
??_7exception@std@@6B@ DD FLAT:??_R4exception@std@@6B@	; std::exception::`vftable'
	DD	FLAT:??_Eexception@std@@UAEPAXI@Z
	DD	FLAT:?what@exception@std@@UBEPBDXZ
CONST	ENDS
;	COMDAT xdata$x
xdata$x	SEGMENT
__catchsym$??$_Buynode@ABQAV?$Goal@VRaven_Bot@@@@@?$_List_buy@PAV?$Goal@VRaven_Bot@@@@V?$allocator@PAV?$Goal@VRaven_Bot@@@@@std@@@std@@QAEPAU?$_List_node@PAV?$Goal@VRaven_Bot@@@@PAX@1@PAU21@0ABQAV?$Goal@VRaven_Bot@@@@@Z$2 DD 040H
	DD	00H
	DD	00H
	DD	FLAT:__catch$??$_Buynode@ABQAV?$Goal@VRaven_Bot@@@@@?$_List_buy@PAV?$Goal@VRaven_Bot@@@@V?$allocator@PAV?$Goal@VRaven_Bot@@@@@std@@@std@@QAEPAU?$_List_node@PAV?$Goal@VRaven_Bot@@@@PAX@1@PAU21@0ABQAV?$Goal@VRaven_Bot@@@@@Z$0
__unwindtable$??$_Buynode@ABQAV?$Goal@VRaven_Bot@@@@@?$_List_buy@PAV?$Goal@VRaven_Bot@@@@V?$allocator@PAV?$Goal@VRaven_Bot@@@@@std@@@std@@QAEPAU?$_List_node@PAV?$Goal@VRaven_Bot@@@@PAX@1@PAU21@0ABQAV?$Goal@VRaven_Bot@@@@@Z DD 0ffffffffH
	DD	00H
	DD	0ffffffffH
	DD	00H
__tryblocktable$??$_Buynode@ABQAV?$Goal@VRaven_Bot@@@@@?$_List_buy@PAV?$Goal@VRaven_Bot@@@@V?$allocator@PAV?$Goal@VRaven_Bot@@@@@std@@@std@@QAEPAU?$_List_node@PAV?$Goal@VRaven_Bot@@@@PAX@1@PAU21@0ABQAV?$Goal@VRaven_Bot@@@@@Z DD 00H
	DD	00H
	DD	01H
	DD	01H
	DD	FLAT:__catchsym$??$_Buynode@ABQAV?$Goal@VRaven_Bot@@@@@?$_List_buy@PAV?$Goal@VRaven_Bot@@@@V?$allocator@PAV?$Goal@VRaven_Bot@@@@@std@@@std@@QAEPAU?$_List_node@PAV?$Goal@VRaven_Bot@@@@PAX@1@PAU21@0ABQAV?$Goal@VRaven_Bot@@@@@Z$2
__ehfuncinfo$??$_Buynode@ABQAV?$Goal@VRaven_Bot@@@@@?$_List_buy@PAV?$Goal@VRaven_Bot@@@@V?$allocator@PAV?$Goal@VRaven_Bot@@@@@std@@@std@@QAEPAU?$_List_node@PAV?$Goal@VRaven_Bot@@@@PAX@1@PAU21@0ABQAV?$Goal@VRaven_Bot@@@@@Z DD 019930522H
	DD	02H
	DD	FLAT:__unwindtable$??$_Buynode@ABQAV?$Goal@VRaven_Bot@@@@@?$_List_buy@PAV?$Goal@VRaven_Bot@@@@V?$allocator@PAV?$Goal@VRaven_Bot@@@@@std@@@std@@QAEPAU?$_List_node@PAV?$Goal@VRaven_Bot@@@@PAX@1@PAU21@0ABQAV?$Goal@VRaven_Bot@@@@@Z
	DD	01H
	DD	FLAT:__tryblocktable$??$_Buynode@ABQAV?$Goal@VRaven_Bot@@@@@?$_List_buy@PAV?$Goal@VRaven_Bot@@@@V?$allocator@PAV?$Goal@VRaven_Bot@@@@@std@@@std@@QAEPAU?$_List_node@PAV?$Goal@VRaven_Bot@@@@PAX@1@PAU21@0ABQAV?$Goal@VRaven_Bot@@@@@Z
	DD	2 DUP(00H)
	DD	00H
	DD	01H
xdata$x	ENDS
;	COMDAT xdata$x
xdata$x	SEGMENT
__unwindtable$??$?8V?$_List_const_iterator@V?$_List_val@U?$_List_simple_types@PAV?$Goal@VRaven_Bot@@@@@std@@@std@@@std@@V01@@std@@YA_NABV?$reverse_iterator@V?$_List_const_iterator@V?$_List_val@U?$_List_simple_types@PAV?$Goal@VRaven_Bot@@@@@std@@@std@@@std@@@0@0@Z DD 0ffffffffH
	DD	FLAT:__unwindfunclet$??$?8V?$_List_const_iterator@V?$_List_val@U?$_List_simple_types@PAV?$Goal@VRaven_Bot@@@@@std@@@std@@@std@@V01@@std@@YA_NABV?$reverse_iterator@V?$_List_const_iterator@V?$_List_val@U?$_List_simple_types@PAV?$Goal@VRaven_Bot@@@@@std@@@std@@@std@@@0@0@Z$0
	DD	00H
	DD	FLAT:__unwindfunclet$??$?8V?$_List_const_iterator@V?$_List_val@U?$_List_simple_types@PAV?$Goal@VRaven_Bot@@@@@std@@@std@@@std@@V01@@std@@YA_NABV?$reverse_iterator@V?$_List_const_iterator@V?$_List_val@U?$_List_simple_types@PAV?$Goal@VRaven_Bot@@@@@std@@@std@@@std@@@0@0@Z$1
__ehfuncinfo$??$?8V?$_List_const_iterator@V?$_List_val@U?$_List_simple_types@PAV?$Goal@VRaven_Bot@@@@@std@@@std@@@std@@V01@@std@@YA_NABV?$reverse_iterator@V?$_List_const_iterator@V?$_List_val@U?$_List_simple_types@PAV?$Goal@VRaven_Bot@@@@@std@@@std@@@std@@@0@0@Z DD 019930522H
	DD	02H
	DD	FLAT:__unwindtable$??$?8V?$_List_const_iterator@V?$_List_val@U?$_List_simple_types@PAV?$Goal@VRaven_Bot@@@@@std@@@std@@@std@@V01@@std@@YA_NABV?$reverse_iterator@V?$_List_const_iterator@V?$_List_val@U?$_List_simple_types@PAV?$Goal@VRaven_Bot@@@@@std@@@std@@@std@@@0@0@Z
	DD	2 DUP(00H)
	DD	2 DUP(00H)
	DD	00H
	DD	01H
xdata$x	ENDS
;	COMDAT xdata$x
xdata$x	SEGMENT
__unwindtable$??D?$reverse_iterator@V?$_List_const_iterator@V?$_List_val@U?$_List_simple_types@PAV?$Goal@VRaven_Bot@@@@@std@@@std@@@std@@@std@@QBEABQAV?$Goal@VRaven_Bot@@@@XZ DD 0ffffffffH
	DD	FLAT:__unwindfunclet$??D?$reverse_iterator@V?$_List_const_iterator@V?$_List_val@U?$_List_simple_types@PAV?$Goal@VRaven_Bot@@@@@std@@@std@@@std@@@std@@QBEABQAV?$Goal@VRaven_Bot@@@@XZ$0
__ehfuncinfo$??D?$reverse_iterator@V?$_List_const_iterator@V?$_List_val@U?$_List_simple_types@PAV?$Goal@VRaven_Bot@@@@@std@@@std@@@std@@@std@@QBEABQAV?$Goal@VRaven_Bot@@@@XZ DD 019930522H
	DD	01H
	DD	FLAT:__unwindtable$??D?$reverse_iterator@V?$_List_const_iterator@V?$_List_val@U?$_List_simple_types@PAV?$Goal@VRaven_Bot@@@@@std@@@std@@@std@@@std@@QBEABQAV?$Goal@VRaven_Bot@@@@XZ
	DD	2 DUP(00H)
	DD	2 DUP(00H)
	DD	00H
	DD	01H
xdata$x	ENDS
;	COMDAT xdata$x
xdata$x	SEGMENT
__unwindtable$??0?$reverse_iterator@V?$_List_const_iterator@V?$_List_val@U?$_List_simple_types@PAV?$Goal@VRaven_Bot@@@@@std@@@std@@@std@@@std@@QAE@V?$_List_const_iterator@V?$_List_val@U?$_List_simple_types@PAV?$Goal@VRaven_Bot@@@@@std@@@std@@@1@@Z DD 0ffffffffH
	DD	FLAT:__unwindfunclet$??0?$reverse_iterator@V?$_List_const_iterator@V?$_List_val@U?$_List_simple_types@PAV?$Goal@VRaven_Bot@@@@@std@@@std@@@std@@@std@@QAE@V?$_List_const_iterator@V?$_List_val@U?$_List_simple_types@PAV?$Goal@VRaven_Bot@@@@@std@@@std@@@1@@Z$0
__ehfuncinfo$??0?$reverse_iterator@V?$_List_const_iterator@V?$_List_val@U?$_List_simple_types@PAV?$Goal@VRaven_Bot@@@@@std@@@std@@@std@@@std@@QAE@V?$_List_const_iterator@V?$_List_val@U?$_List_simple_types@PAV?$Goal@VRaven_Bot@@@@@std@@@std@@@1@@Z DD 019930522H
	DD	01H
	DD	FLAT:__unwindtable$??0?$reverse_iterator@V?$_List_const_iterator@V?$_List_val@U?$_List_simple_types@PAV?$Goal@VRaven_Bot@@@@@std@@@std@@@std@@@std@@QAE@V?$_List_const_iterator@V?$_List_val@U?$_List_simple_types@PAV?$Goal@VRaven_Bot@@@@@std@@@std@@@1@@Z
	DD	2 DUP(00H)
	DD	2 DUP(00H)
	DD	00H
	DD	01H
xdata$x	ENDS
;	COMDAT xdata$x
xdata$x	SEGMENT
__unwindtable$??E?$_List_const_iterator@V?$_List_val@U?$_List_simple_types@PAV?$Goal@VRaven_Bot@@@@@std@@@std@@@std@@QAE?AV01@H@Z DD 0ffffffffH
	DD	FLAT:__unwindfunclet$??E?$_List_const_iterator@V?$_List_val@U?$_List_simple_types@PAV?$Goal@VRaven_Bot@@@@@std@@@std@@@std@@QAE?AV01@H@Z$0
__ehfuncinfo$??E?$_List_const_iterator@V?$_List_val@U?$_List_simple_types@PAV?$Goal@VRaven_Bot@@@@@std@@@std@@@std@@QAE?AV01@H@Z DD 019930522H
	DD	01H
	DD	FLAT:__unwindtable$??E?$_List_const_iterator@V?$_List_val@U?$_List_simple_types@PAV?$Goal@VRaven_Bot@@@@@std@@@std@@@std@@QAE?AV01@H@Z
	DD	2 DUP(00H)
	DD	2 DUP(00H)
	DD	00H
	DD	01H
xdata$x	ENDS
;	COMDAT xdata$x
xdata$x	SEGMENT
__unwindtable$??0?$_List_unchecked_const_iterator@V?$_List_val@U?$_List_simple_types@PAV?$Goal@VRaven_Bot@@@@@std@@@std@@U_Iterator_base12@2@@std@@QAE@PAU?$_List_node@PAV?$Goal@VRaven_Bot@@@@PAX@1@PBV?$_List_val@U?$_List_simple_types@PAV?$Goal@VRaven_Bot@@@@@std@@@1@@Z DD 0ffffffffH
	DD	FLAT:__unwindfunclet$??0?$_List_unchecked_const_iterator@V?$_List_val@U?$_List_simple_types@PAV?$Goal@VRaven_Bot@@@@@std@@@std@@U_Iterator_base12@2@@std@@QAE@PAU?$_List_node@PAV?$Goal@VRaven_Bot@@@@PAX@1@PBV?$_List_val@U?$_List_simple_types@PAV?$Goal@VRaven_Bot@@@@@std@@@1@@Z$0
__ehfuncinfo$??0?$_List_unchecked_const_iterator@V?$_List_val@U?$_List_simple_types@PAV?$Goal@VRaven_Bot@@@@@std@@@std@@U_Iterator_base12@2@@std@@QAE@PAU?$_List_node@PAV?$Goal@VRaven_Bot@@@@PAX@1@PBV?$_List_val@U?$_List_simple_types@PAV?$Goal@VRaven_Bot@@@@@std@@@1@@Z DD 019930522H
	DD	01H
	DD	FLAT:__unwindtable$??0?$_List_unchecked_const_iterator@V?$_List_val@U?$_List_simple_types@PAV?$Goal@VRaven_Bot@@@@@std@@@std@@U_Iterator_base12@2@@std@@QAE@PAU?$_List_node@PAV?$Goal@VRaven_Bot@@@@PAX@1@PBV?$_List_val@U?$_List_simple_types@PAV?$Goal@VRaven_Bot@@@@@std@@@1@@Z
	DD	2 DUP(00H)
	DD	2 DUP(00H)
	DD	00H
	DD	01H
xdata$x	ENDS
;	COMDAT xdata$x
xdata$x	SEGMENT
__unwindtable$??0Goal_DodgeSideToSide@@QAE@PAVRaven_Bot@@@Z DD 0ffffffffH
	DD	FLAT:__unwindfunclet$??0Goal_DodgeSideToSide@@QAE@PAVRaven_Bot@@@Z$0
__ehfuncinfo$??0Goal_DodgeSideToSide@@QAE@PAVRaven_Bot@@@Z DD 019930522H
	DD	01H
	DD	FLAT:__unwindtable$??0Goal_DodgeSideToSide@@QAE@PAVRaven_Bot@@@Z
	DD	2 DUP(00H)
	DD	2 DUP(00H)
	DD	00H
	DD	01H
xdata$x	ENDS
xdata$x	SEGMENT
__unwindtable$?Activate@Goal_AttackTarget@@UAEXXZ DD 0ffffffffH
	DD	FLAT:__unwindfunclet$?Activate@Goal_AttackTarget@@UAEXXZ$0
	DD	0ffffffffH
	DD	FLAT:__unwindfunclet$?Activate@Goal_AttackTarget@@UAEXXZ$1
	DD	0ffffffffH
	DD	FLAT:__unwindfunclet$?Activate@Goal_AttackTarget@@UAEXXZ$2
__ehfuncinfo$?Activate@Goal_AttackTarget@@UAEXXZ DD 019930522H
	DD	03H
	DD	FLAT:__unwindtable$?Activate@Goal_AttackTarget@@UAEXXZ
	DD	2 DUP(00H)
	DD	2 DUP(00H)
	DD	00H
	DD	01H
xdata$x	ENDS
;	COMDAT xdata$x
xdata$x	SEGMENT
__unwindtable$?RenderAtPos@?$Goal_Composite@VRaven_Bot@@@@UBEXAAUVector2D@@PAVTypeToString@@@Z DD 0ffffffffH
	DD	FLAT:__unwindfunclet$?RenderAtPos@?$Goal_Composite@VRaven_Bot@@@@UBEXAAUVector2D@@PAVTypeToString@@@Z$0
	DD	00H
	DD	FLAT:__unwindfunclet$?RenderAtPos@?$Goal_Composite@VRaven_Bot@@@@UBEXAAUVector2D@@PAVTypeToString@@@Z$1
	DD	00H
	DD	FLAT:__unwindfunclet$?RenderAtPos@?$Goal_Composite@VRaven_Bot@@@@UBEXAAUVector2D@@PAVTypeToString@@@Z$2
__ehfuncinfo$?RenderAtPos@?$Goal_Composite@VRaven_Bot@@@@UBEXAAUVector2D@@PAVTypeToString@@@Z DD 019930522H
	DD	03H
	DD	FLAT:__unwindtable$?RenderAtPos@?$Goal_Composite@VRaven_Bot@@@@UBEXAAUVector2D@@PAVTypeToString@@@Z
	DD	2 DUP(00H)
	DD	2 DUP(00H)
	DD	00H
	DD	01H
xdata$x	ENDS
;	COMDAT xdata$x
xdata$x	SEGMENT
__unwindtable$?RemoveAllSubgoals@?$Goal_Composite@VRaven_Bot@@@@QAEXXZ DD 0ffffffffH
	DD	FLAT:__unwindfunclet$?RemoveAllSubgoals@?$Goal_Composite@VRaven_Bot@@@@QAEXXZ$0
	DD	00H
	DD	FLAT:__unwindfunclet$?RemoveAllSubgoals@?$Goal_Composite@VRaven_Bot@@@@QAEXXZ$1
__ehfuncinfo$?RemoveAllSubgoals@?$Goal_Composite@VRaven_Bot@@@@QAEXXZ DD 019930522H
	DD	02H
	DD	FLAT:__unwindtable$?RemoveAllSubgoals@?$Goal_Composite@VRaven_Bot@@@@QAEXXZ
	DD	2 DUP(00H)
	DD	2 DUP(00H)
	DD	00H
	DD	01H
xdata$x	ENDS
;	COMDAT xdata$x
xdata$x	SEGMENT
__ehfuncinfo$??1?$Goal_Composite@VRaven_Bot@@@@UAE@XZ DD 019930522H
	DD	00H
	DD	00H
	DD	2 DUP(00H)
	DD	2 DUP(00H)
	DD	00H
	DD	05H
xdata$x	ENDS
;	COMDAT xdata$x
xdata$x	SEGMENT
__unwindtable$??0?$Goal_Composite@VRaven_Bot@@@@QAE@PAVRaven_Bot@@H@Z DD 0ffffffffH
	DD	FLAT:__unwindfunclet$??0?$Goal_Composite@VRaven_Bot@@@@QAE@PAVRaven_Bot@@H@Z$0
__ehfuncinfo$??0?$Goal_Composite@VRaven_Bot@@@@QAE@PAVRaven_Bot@@H@Z DD 019930522H
	DD	01H
	DD	FLAT:__unwindtable$??0?$Goal_Composite@VRaven_Bot@@@@QAE@PAVRaven_Bot@@H@Z
	DD	2 DUP(00H)
	DD	2 DUP(00H)
	DD	00H
	DD	01H
xdata$x	ENDS
;	COMDAT xdata$x
xdata$x	SEGMENT
__unwindtable$?_Orphan_ptr@?$list@PAV?$Goal@VRaven_Bot@@@@V?$allocator@PAV?$Goal@VRaven_Bot@@@@@std@@@std@@QAEXPAU?$_List_node@PAV?$Goal@VRaven_Bot@@@@PAX@2@@Z DD 0ffffffffH
	DD	FLAT:__unwindfunclet$?_Orphan_ptr@?$list@PAV?$Goal@VRaven_Bot@@@@V?$allocator@PAV?$Goal@VRaven_Bot@@@@@std@@@std@@QAEXPAU?$_List_node@PAV?$Goal@VRaven_Bot@@@@PAX@2@@Z$0
__ehfuncinfo$?_Orphan_ptr@?$list@PAV?$Goal@VRaven_Bot@@@@V?$allocator@PAV?$Goal@VRaven_Bot@@@@@std@@@std@@QAEXPAU?$_List_node@PAV?$Goal@VRaven_Bot@@@@PAX@2@@Z DD 019930522H
	DD	01H
	DD	FLAT:__unwindtable$?_Orphan_ptr@?$list@PAV?$Goal@VRaven_Bot@@@@V?$allocator@PAV?$Goal@VRaven_Bot@@@@@std@@@std@@QAEXPAU?$_List_node@PAV?$Goal@VRaven_Bot@@@@PAX@2@@Z
	DD	2 DUP(00H)
	DD	2 DUP(00H)
	DD	00H
	DD	01H
xdata$x	ENDS
;	COMDAT xdata$x
xdata$x	SEGMENT
__ehfuncinfo$?clear@?$list@PAV?$Goal@VRaven_Bot@@@@V?$allocator@PAV?$Goal@VRaven_Bot@@@@@std@@@std@@QAEXXZ DD 019930522H
	DD	00H
	DD	00H
	DD	2 DUP(00H)
	DD	2 DUP(00H)
	DD	00H
	DD	05H
xdata$x	ENDS
;	COMDAT xdata$x
xdata$x	SEGMENT
__unwindtable$?erase@?$list@PAV?$Goal@VRaven_Bot@@@@V?$allocator@PAV?$Goal@VRaven_Bot@@@@@std@@@std@@QAE?AV?$_List_iterator@V?$_List_val@U?$_List_simple_types@PAV?$Goal@VRaven_Bot@@@@@std@@@std@@@2@V?$_List_const_iterator@V?$_List_val@U?$_List_simple_types@PAV?$Goal@VRaven_Bot@@@@@std@@@std@@@2@@Z DD 0ffffffffH
	DD	FLAT:__unwindfunclet$?erase@?$list@PAV?$Goal@VRaven_Bot@@@@V?$allocator@PAV?$Goal@VRaven_Bot@@@@@std@@@std@@QAE?AV?$_List_iterator@V?$_List_val@U?$_List_simple_types@PAV?$Goal@VRaven_Bot@@@@@std@@@std@@@2@V?$_List_const_iterator@V?$_List_val@U?$_List_simple_types@PAV?$Goal@VRaven_Bot@@@@@std@@@std@@@2@@Z$0
__ehfuncinfo$?erase@?$list@PAV?$Goal@VRaven_Bot@@@@V?$allocator@PAV?$Goal@VRaven_Bot@@@@@std@@@std@@QAE?AV?$_List_iterator@V?$_List_val@U?$_List_simple_types@PAV?$Goal@VRaven_Bot@@@@@std@@@std@@@2@V?$_List_const_iterator@V?$_List_val@U?$_List_simple_types@PAV?$Goal@VRaven_Bot@@@@@std@@@std@@@2@@Z DD 019930522H
	DD	01H
	DD	FLAT:__unwindtable$?erase@?$list@PAV?$Goal@VRaven_Bot@@@@V?$allocator@PAV?$Goal@VRaven_Bot@@@@@std@@@std@@QAE?AV?$_List_iterator@V?$_List_val@U?$_List_simple_types@PAV?$Goal@VRaven_Bot@@@@@std@@@std@@@2@V?$_List_const_iterator@V?$_List_val@U?$_List_simple_types@PAV?$Goal@VRaven_Bot@@@@@std@@@std@@@2@@Z
	DD	2 DUP(00H)
	DD	2 DUP(00H)
	DD	00H
	DD	01H
xdata$x	ENDS
;	COMDAT xdata$x
xdata$x	SEGMENT
__unwindtable$?_Unlinknode@?$list@PAV?$Goal@VRaven_Bot@@@@V?$allocator@PAV?$Goal@VRaven_Bot@@@@@std@@@std@@QAEPAU?$_List_node@PAV?$Goal@VRaven_Bot@@@@PAX@2@V?$_List_const_iterator@V?$_List_val@U?$_List_simple_types@PAV?$Goal@VRaven_Bot@@@@@std@@@std@@@2@@Z DD 0ffffffffH
	DD	FLAT:__unwindfunclet$?_Unlinknode@?$list@PAV?$Goal@VRaven_Bot@@@@V?$allocator@PAV?$Goal@VRaven_Bot@@@@@std@@@std@@QAEPAU?$_List_node@PAV?$Goal@VRaven_Bot@@@@PAX@2@V?$_List_const_iterator@V?$_List_val@U?$_List_simple_types@PAV?$Goal@VRaven_Bot@@@@@std@@@std@@@2@@Z$0
__ehfuncinfo$?_Unlinknode@?$list@PAV?$Goal@VRaven_Bot@@@@V?$allocator@PAV?$Goal@VRaven_Bot@@@@@std@@@std@@QAEPAU?$_List_node@PAV?$Goal@VRaven_Bot@@@@PAX@2@V?$_List_const_iterator@V?$_List_val@U?$_List_simple_types@PAV?$Goal@VRaven_Bot@@@@@std@@@std@@@2@@Z DD 019930522H
	DD	01H
	DD	FLAT:__unwindtable$?_Unlinknode@?$list@PAV?$Goal@VRaven_Bot@@@@V?$allocator@PAV?$Goal@VRaven_Bot@@@@@std@@@std@@QAEPAU?$_List_node@PAV?$Goal@VRaven_Bot@@@@PAX@2@V?$_List_const_iterator@V?$_List_val@U?$_List_simple_types@PAV?$Goal@VRaven_Bot@@@@@std@@@std@@@2@@Z
	DD	2 DUP(00H)
	DD	2 DUP(00H)
	DD	00H
	DD	01H
xdata$x	ENDS
;	COMDAT xdata$x
xdata$x	SEGMENT
__unwindtable$?pop_front@?$list@PAV?$Goal@VRaven_Bot@@@@V?$allocator@PAV?$Goal@VRaven_Bot@@@@@std@@@std@@QAEXXZ DD 0ffffffffH
	DD	FLAT:__unwindfunclet$?pop_front@?$list@PAV?$Goal@VRaven_Bot@@@@V?$allocator@PAV?$Goal@VRaven_Bot@@@@@std@@@std@@QAEXXZ$0
__ehfuncinfo$?pop_front@?$list@PAV?$Goal@VRaven_Bot@@@@V?$allocator@PAV?$Goal@VRaven_Bot@@@@@std@@@std@@QAEXXZ DD 019930522H
	DD	01H
	DD	FLAT:__unwindtable$?pop_front@?$list@PAV?$Goal@VRaven_Bot@@@@V?$allocator@PAV?$Goal@VRaven_Bot@@@@@std@@@std@@QAEXXZ
	DD	2 DUP(00H)
	DD	2 DUP(00H)
	DD	00H
	DD	01H
xdata$x	ENDS
;	COMDAT xdata$x
xdata$x	SEGMENT
__unwindtable$?front@?$list@PAV?$Goal@VRaven_Bot@@@@V?$allocator@PAV?$Goal@VRaven_Bot@@@@@std@@@std@@QAEAAPAV?$Goal@VRaven_Bot@@@@XZ DD 0ffffffffH
	DD	FLAT:__unwindfunclet$?front@?$list@PAV?$Goal@VRaven_Bot@@@@V?$allocator@PAV?$Goal@VRaven_Bot@@@@@std@@@std@@QAEAAPAV?$Goal@VRaven_Bot@@@@XZ$0
__ehfuncinfo$?front@?$list@PAV?$Goal@VRaven_Bot@@@@V?$allocator@PAV?$Goal@VRaven_Bot@@@@@std@@@std@@QAEAAPAV?$Goal@VRaven_Bot@@@@XZ DD 019930522H
	DD	01H
	DD	FLAT:__unwindtable$?front@?$list@PAV?$Goal@VRaven_Bot@@@@V?$allocator@PAV?$Goal@VRaven_Bot@@@@@std@@@std@@QAEAAPAV?$Goal@VRaven_Bot@@@@XZ
	DD	2 DUP(00H)
	DD	2 DUP(00H)
	DD	00H
	DD	01H
xdata$x	ENDS
;	COMDAT xdata$x
xdata$x	SEGMENT
__ehfuncinfo$?rend@?$list@PAV?$Goal@VRaven_Bot@@@@V?$allocator@PAV?$Goal@VRaven_Bot@@@@@std@@@std@@QBE?AV?$reverse_iterator@V?$_List_const_iterator@V?$_List_val@U?$_List_simple_types@PAV?$Goal@VRaven_Bot@@@@@std@@@std@@@std@@@2@XZ DD 019930522H
	DD	00H
	DD	00H
	DD	2 DUP(00H)
	DD	2 DUP(00H)
	DD	00H
	DD	05H
xdata$x	ENDS
;	COMDAT xdata$x
xdata$x	SEGMENT
__ehfuncinfo$?rbegin@?$list@PAV?$Goal@VRaven_Bot@@@@V?$allocator@PAV?$Goal@VRaven_Bot@@@@@std@@@std@@QBE?AV?$reverse_iterator@V?$_List_const_iterator@V?$_List_val@U?$_List_simple_types@PAV?$Goal@VRaven_Bot@@@@@std@@@std@@@std@@@2@XZ DD 019930522H
	DD	00H
	DD	00H
	DD	2 DUP(00H)
	DD	2 DUP(00H)
	DD	00H
	DD	05H
xdata$x	ENDS
;	COMDAT xdata$x
xdata$x	SEGMENT
__ehfuncinfo$?_Make_iter@?$list@PAV?$Goal@VRaven_Bot@@@@V?$allocator@PAV?$Goal@VRaven_Bot@@@@@std@@@std@@QBE?AV?$_List_iterator@V?$_List_val@U?$_List_simple_types@PAV?$Goal@VRaven_Bot@@@@@std@@@std@@@2@V?$_List_const_iterator@V?$_List_val@U?$_List_simple_types@PAV?$Goal@VRaven_Bot@@@@@std@@@std@@@2@@Z DD 019930522H
	DD	00H
	DD	00H
	DD	2 DUP(00H)
	DD	2 DUP(00H)
	DD	00H
	DD	05H
xdata$x	ENDS
;	COMDAT xdata$x
xdata$x	SEGMENT
__ehfuncinfo$?end@?$list@PAV?$Goal@VRaven_Bot@@@@V?$allocator@PAV?$Goal@VRaven_Bot@@@@@std@@@std@@QBE?AV?$_List_const_iterator@V?$_List_val@U?$_List_simple_types@PAV?$Goal@VRaven_Bot@@@@@std@@@std@@@2@XZ DD 019930522H
	DD	00H
	DD	00H
	DD	2 DUP(00H)
	DD	2 DUP(00H)
	DD	00H
	DD	05H
xdata$x	ENDS
;	COMDAT xdata$x
xdata$x	SEGMENT
__ehfuncinfo$?end@?$list@PAV?$Goal@VRaven_Bot@@@@V?$allocator@PAV?$Goal@VRaven_Bot@@@@@std@@@std@@QAE?AV?$_List_iterator@V?$_List_val@U?$_List_simple_types@PAV?$Goal@VRaven_Bot@@@@@std@@@std@@@2@XZ DD 019930522H
	DD	00H
	DD	00H
	DD	2 DUP(00H)
	DD	2 DUP(00H)
	DD	00H
	DD	05H
xdata$x	ENDS
;	COMDAT xdata$x
xdata$x	SEGMENT
__ehfuncinfo$?begin@?$list@PAV?$Goal@VRaven_Bot@@@@V?$allocator@PAV?$Goal@VRaven_Bot@@@@@std@@@std@@QBE?AV?$_List_const_iterator@V?$_List_val@U?$_List_simple_types@PAV?$Goal@VRaven_Bot@@@@@std@@@std@@@2@XZ DD 019930522H
	DD	00H
	DD	00H
	DD	2 DUP(00H)
	DD	2 DUP(00H)
	DD	00H
	DD	05H
xdata$x	ENDS
;	COMDAT xdata$x
xdata$x	SEGMENT
__ehfuncinfo$?begin@?$list@PAV?$Goal@VRaven_Bot@@@@V?$allocator@PAV?$Goal@VRaven_Bot@@@@@std@@@std@@QAE?AV?$_List_iterator@V?$_List_val@U?$_List_simple_types@PAV?$Goal@VRaven_Bot@@@@@std@@@std@@@2@XZ DD 019930522H
	DD	00H
	DD	00H
	DD	2 DUP(00H)
	DD	2 DUP(00H)
	DD	00H
	DD	05H
xdata$x	ENDS
;	COMDAT xdata$x
xdata$x	SEGMENT
__ehfuncinfo$??1?$list@PAV?$Goal@VRaven_Bot@@@@V?$allocator@PAV?$Goal@VRaven_Bot@@@@@std@@@std@@QAE@XZ DD 019930522H
	DD	00H
	DD	00H
	DD	2 DUP(00H)
	DD	2 DUP(00H)
	DD	00H
	DD	05H
xdata$x	ENDS
;	COMDAT xdata$x
xdata$x	SEGMENT
__catchsym$?_Buynode0@?$_List_alloc@U?$_List_base_types@PAV?$Goal@VRaven_Bot@@@@V?$allocator@PAV?$Goal@VRaven_Bot@@@@@std@@@std@@@std@@QAEPAU?$_List_node@PAV?$Goal@VRaven_Bot@@@@PAX@2@PAU32@0@Z$2 DD 040H
	DD	00H
	DD	00H
	DD	FLAT:__catch$?_Buynode0@?$_List_alloc@U?$_List_base_types@PAV?$Goal@VRaven_Bot@@@@V?$allocator@PAV?$Goal@VRaven_Bot@@@@@std@@@std@@@std@@QAEPAU?$_List_node@PAV?$Goal@VRaven_Bot@@@@PAX@2@PAU32@0@Z$0
__unwindtable$?_Buynode0@?$_List_alloc@U?$_List_base_types@PAV?$Goal@VRaven_Bot@@@@V?$allocator@PAV?$Goal@VRaven_Bot@@@@@std@@@std@@@std@@QAEPAU?$_List_node@PAV?$Goal@VRaven_Bot@@@@PAX@2@PAU32@0@Z DD 0ffffffffH
	DD	00H
	DD	0ffffffffH
	DD	00H
__tryblocktable$?_Buynode0@?$_List_alloc@U?$_List_base_types@PAV?$Goal@VRaven_Bot@@@@V?$allocator@PAV?$Goal@VRaven_Bot@@@@@std@@@std@@@std@@QAEPAU?$_List_node@PAV?$Goal@VRaven_Bot@@@@PAX@2@PAU32@0@Z DD 00H
	DD	00H
	DD	01H
	DD	01H
	DD	FLAT:__catchsym$?_Buynode0@?$_List_alloc@U?$_List_base_types@PAV?$Goal@VRaven_Bot@@@@V?$allocator@PAV?$Goal@VRaven_Bot@@@@@std@@@std@@@std@@QAEPAU?$_List_node@PAV?$Goal@VRaven_Bot@@@@PAX@2@PAU32@0@Z$2
__ehfuncinfo$?_Buynode0@?$_List_alloc@U?$_List_base_types@PAV?$Goal@VRaven_Bot@@@@V?$allocator@PAV?$Goal@VRaven_Bot@@@@@std@@@std@@@std@@QAEPAU?$_List_node@PAV?$Goal@VRaven_Bot@@@@PAX@2@PAU32@0@Z DD 019930522H
	DD	02H
	DD	FLAT:__unwindtable$?_Buynode0@?$_List_alloc@U?$_List_base_types@PAV?$Goal@VRaven_Bot@@@@V?$allocator@PAV?$Goal@VRaven_Bot@@@@@std@@@std@@@std@@QAEPAU?$_List_node@PAV?$Goal@VRaven_Bot@@@@PAX@2@PAU32@0@Z
	DD	01H
	DD	FLAT:__tryblocktable$?_Buynode0@?$_List_alloc@U?$_List_base_types@PAV?$Goal@VRaven_Bot@@@@V?$allocator@PAV?$Goal@VRaven_Bot@@@@@std@@@std@@@std@@QAEPAU?$_List_node@PAV?$Goal@VRaven_Bot@@@@PAX@2@PAU32@0@Z
	DD	2 DUP(00H)
	DD	00H
	DD	01H
xdata$x	ENDS
;	COMDAT xdata$x
xdata$x	SEGMENT
__ehfuncinfo$??1?$_List_alloc@U?$_List_base_types@PAV?$Goal@VRaven_Bot@@@@V?$allocator@PAV?$Goal@VRaven_Bot@@@@@std@@@std@@@std@@QAE@XZ DD 019930522H
	DD	00H
	DD	00H
	DD	2 DUP(00H)
	DD	2 DUP(00H)
	DD	00H
	DD	05H
xdata$x	ENDS
;	COMDAT xdata$x
xdata$x	SEGMENT
__catchsym$??0?$_List_alloc@U?$_List_base_types@PAV?$Goal@VRaven_Bot@@@@V?$allocator@PAV?$Goal@VRaven_Bot@@@@@std@@@std@@@std@@QAE@ABV?$allocator@PAV?$Goal@VRaven_Bot@@@@@1@@Z$3 DD 040H
	DD	00H
	DD	00H
	DD	FLAT:__catch$??0?$_List_alloc@U?$_List_base_types@PAV?$Goal@VRaven_Bot@@@@V?$allocator@PAV?$Goal@VRaven_Bot@@@@@std@@@std@@@std@@QAE@ABV?$allocator@PAV?$Goal@VRaven_Bot@@@@@1@@Z$0
__tryblocktable$??0?$_List_alloc@U?$_List_base_types@PAV?$Goal@VRaven_Bot@@@@V?$allocator@PAV?$Goal@VRaven_Bot@@@@@std@@@std@@@std@@QAE@ABV?$allocator@PAV?$Goal@VRaven_Bot@@@@@1@@Z DD 01H
	DD	01H
	DD	02H
	DD	01H
	DD	FLAT:__catchsym$??0?$_List_alloc@U?$_List_base_types@PAV?$Goal@VRaven_Bot@@@@V?$allocator@PAV?$Goal@VRaven_Bot@@@@@std@@@std@@@std@@QAE@ABV?$allocator@PAV?$Goal@VRaven_Bot@@@@@1@@Z$3
__unwindtable$??0?$_List_alloc@U?$_List_base_types@PAV?$Goal@VRaven_Bot@@@@V?$allocator@PAV?$Goal@VRaven_Bot@@@@@std@@@std@@@std@@QAE@ABV?$allocator@PAV?$Goal@VRaven_Bot@@@@@1@@Z DD 0ffffffffH
	DD	FLAT:__unwindfunclet$??0?$_List_alloc@U?$_List_base_types@PAV?$Goal@VRaven_Bot@@@@V?$allocator@PAV?$Goal@VRaven_Bot@@@@@std@@@std@@@std@@QAE@ABV?$allocator@PAV?$Goal@VRaven_Bot@@@@@1@@Z$2
	DD	00H
	DD	00H
	DD	00H
	DD	00H
__ehfuncinfo$??0?$_List_alloc@U?$_List_base_types@PAV?$Goal@VRaven_Bot@@@@V?$allocator@PAV?$Goal@VRaven_Bot@@@@@std@@@std@@@std@@QAE@ABV?$allocator@PAV?$Goal@VRaven_Bot@@@@@1@@Z DD 019930522H
	DD	03H
	DD	FLAT:__unwindtable$??0?$_List_alloc@U?$_List_base_types@PAV?$Goal@VRaven_Bot@@@@V?$allocator@PAV?$Goal@VRaven_Bot@@@@@std@@@std@@@std@@QAE@ABV?$allocator@PAV?$Goal@VRaven_Bot@@@@@1@@Z
	DD	01H
	DD	FLAT:__tryblocktable$??0?$_List_alloc@U?$_List_base_types@PAV?$Goal@VRaven_Bot@@@@V?$allocator@PAV?$Goal@VRaven_Bot@@@@@std@@@std@@@std@@QAE@ABV?$allocator@PAV?$Goal@VRaven_Bot@@@@@1@@Z
	DD	2 DUP(00H)
	DD	00H
	DD	01H
xdata$x	ENDS
;	COMDAT xdata$x
xdata$x	SEGMENT
__unwindtable$?RenderAtPos@?$Goal@VRaven_Bot@@@@UBEXAAUVector2D@@PAVTypeToString@@@Z DD 0ffffffffH
	DD	FLAT:__unwindfunclet$?RenderAtPos@?$Goal@VRaven_Bot@@@@UBEXAAUVector2D@@PAVTypeToString@@@Z$0
__ehfuncinfo$?RenderAtPos@?$Goal@VRaven_Bot@@@@UBEXAAUVector2D@@PAVTypeToString@@@Z DD 019930522H
	DD	01H
	DD	FLAT:__unwindtable$?RenderAtPos@?$Goal@VRaven_Bot@@@@UBEXAAUVector2D@@PAVTypeToString@@@Z
	DD	2 DUP(00H)
	DD	2 DUP(00H)
	DD	00H
	DD	01H
xdata$x	ENDS
;	COMDAT xdata$x
xdata$x	SEGMENT
__ehfuncinfo$?c_str@?$basic_string@DU?$char_traits@D@std@@V?$allocator@D@2@@std@@QBEPBDXZ DD 019930522H
	DD	00H
	DD	00H
	DD	2 DUP(00H)
	DD	2 DUP(00H)
	DD	00H
	DD	05H
xdata$x	ENDS
;	COMDAT xdata$x
xdata$x	SEGMENT
__ehfuncinfo$??1?$basic_string@DU?$char_traits@D@std@@V?$allocator@D@2@@std@@QAE@XZ DD 019930522H
	DD	00H
	DD	00H
	DD	2 DUP(00H)
	DD	2 DUP(00H)
	DD	00H
	DD	05H
xdata$x	ENDS
;	COMDAT xdata$x
xdata$x	SEGMENT
__ehfuncinfo$??1?$_String_alloc@U?$_String_base_types@DV?$allocator@D@std@@@std@@@std@@QAE@XZ DD 019930522H
	DD	00H
	DD	00H
	DD	2 DUP(00H)
	DD	2 DUP(00H)
	DD	00H
	DD	05H
xdata$x	ENDS
;	COMDAT xdata$x
xdata$x	SEGMENT
__unwindtable$?_Adopt@_Iterator_base12@std@@QAEXPBU_Container_base12@2@@Z DD 0ffffffffH
	DD	FLAT:__unwindfunclet$?_Adopt@_Iterator_base12@std@@QAEXPBU_Container_base12@2@@Z$0
	DD	0ffffffffH
	DD	FLAT:__unwindfunclet$?_Adopt@_Iterator_base12@std@@QAEXPBU_Container_base12@2@@Z$1
__ehfuncinfo$?_Adopt@_Iterator_base12@std@@QAEXPBU_Container_base12@2@@Z DD 019930522H
	DD	02H
	DD	FLAT:__unwindtable$?_Adopt@_Iterator_base12@std@@QAEXPBU_Container_base12@2@@Z
	DD	2 DUP(00H)
	DD	2 DUP(00H)
	DD	00H
	DD	01H
xdata$x	ENDS
;	COMDAT xdata$x
xdata$x	SEGMENT
__ehfuncinfo$??1_Iterator_base12@std@@QAE@XZ DD 019930522H
	DD	00H
	DD	00H
	DD	2 DUP(00H)
	DD	2 DUP(00H)
	DD	00H
	DD	05H
xdata$x	ENDS
;	COMDAT xdata$x
xdata$x	SEGMENT
__unwindtable$??4_Iterator_base12@std@@QAEAAU01@ABU01@@Z DD 0ffffffffH
	DD	FLAT:__unwindfunclet$??4_Iterator_base12@std@@QAEAAU01@ABU01@@Z$0
__ehfuncinfo$??4_Iterator_base12@std@@QAEAAU01@ABU01@@Z DD 019930522H
	DD	01H
	DD	FLAT:__unwindtable$??4_Iterator_base12@std@@QAEAAU01@ABU01@@Z
	DD	2 DUP(00H)
	DD	2 DUP(00H)
	DD	00H
	DD	01H
xdata$x	ENDS
;	COMDAT xdata$x
xdata$x	SEGMENT
__ehfuncinfo$??1_Container_base12@std@@QAE@XZ DD 019930522H
	DD	00H
	DD	00H
	DD	2 DUP(00H)
	DD	2 DUP(00H)
	DD	00H
	DD	05H
xdata$x	ENDS
CRT$XCU	SEGMENT
?MaxDouble$initializer$@@3P6AXXZA DD FLAT:??__EMaxDouble@@YAXXZ ; MaxDouble$initializer$
CRT$XCU	ENDS
CRT$XCU	SEGMENT
?MinDouble$initializer$@@3P6AXXZA DD FLAT:??__EMinDouble@@YAXXZ ; MinDouble$initializer$
CRT$XCU	ENDS
CRT$XCU	SEGMENT
?MaxFloat$initializer$@@3P6AXXZA DD FLAT:??__EMaxFloat@@YAXXZ ; MaxFloat$initializer$
CRT$XCU	ENDS
CRT$XCU	SEGMENT
?MinFloat$initializer$@@3P6AXXZA DD FLAT:??__EMinFloat@@YAXXZ ; MinFloat$initializer$
CRT$XCU	ENDS
; Function compile flags: /Odtp /RTCsu
; File d:\microsoft visual studio 14.0\vc\include\xmemory0
;	COMDAT ??$construct@PAV?$Goal@VRaven_Bot@@@@ABQAV1@@?$allocator@U?$_List_node@PAV?$Goal@VRaven_Bot@@@@PAX@std@@@std@@QAEXPAPAV?$Goal@VRaven_Bot@@@@ABQAV2@@Z
_TEXT	SEGMENT
tv73 = -12						; size = 4
$T1 = -8						; size = 4
_this$ = -4						; size = 4
__Ptr$ = 8						; size = 4
_<_Args_0>$ = 12					; size = 4
??$construct@PAV?$Goal@VRaven_Bot@@@@ABQAV1@@?$allocator@U?$_List_node@PAV?$Goal@VRaven_Bot@@@@PAX@std@@@std@@QAEXPAPAV?$Goal@VRaven_Bot@@@@ABQAV2@@Z PROC ; std::allocator<std::_List_node<Goal<Raven_Bot> *,void *> >::construct<Goal<Raven_Bot> *,Goal<Raven_Bot> * const &>, COMDAT
; _this$ = ecx

; 656  : 		{	// construct _Objty(_Types...) at _Ptr

	push	ebp
	mov	ebp, esp
	sub	esp, 12					; 0000000cH
	mov	DWORD PTR [ebp-12], -858993460		; ccccccccH
	mov	DWORD PTR [ebp-8], -858993460		; ccccccccH
	mov	DWORD PTR [ebp-4], -858993460		; ccccccccH
	mov	DWORD PTR _this$[ebp], ecx

; 657  : 		::new ((void *)_Ptr) _Objty(_STD forward<_Types>(_Args)...);

	mov	eax, DWORD PTR __Ptr$[ebp]
	push	eax
	push	4
	call	??2@YAPAXIPAX@Z				; operator new
	add	esp, 8
	mov	DWORD PTR $T1[ebp], eax
	cmp	DWORD PTR $T1[ebp], 0
	je	SHORT $LN3@construct
	mov	ecx, DWORD PTR _<_Args_0>$[ebp]
	push	ecx
	call	??$forward@ABQAV?$Goal@VRaven_Bot@@@@@std@@YAABQAV?$Goal@VRaven_Bot@@@@ABQAV1@@Z ; std::forward<Goal<Raven_Bot> * const &>
	add	esp, 4
	mov	edx, DWORD PTR $T1[ebp]
	mov	eax, DWORD PTR [eax]
	mov	DWORD PTR [edx], eax
	mov	ecx, DWORD PTR $T1[ebp]
	mov	DWORD PTR tv73[ebp], ecx
	jmp	SHORT $LN1@construct
$LN3@construct:
	mov	DWORD PTR tv73[ebp], 0
$LN1@construct:

; 658  : 		}

	add	esp, 12					; 0000000cH
	cmp	ebp, esp
	call	__RTC_CheckEsp
	mov	esp, ebp
	pop	ebp
	ret	8
??$construct@PAV?$Goal@VRaven_Bot@@@@ABQAV1@@?$allocator@U?$_List_node@PAV?$Goal@VRaven_Bot@@@@PAX@std@@@std@@QAEXPAPAV?$Goal@VRaven_Bot@@@@ABQAV2@@Z ENDP ; std::allocator<std::_List_node<Goal<Raven_Bot> *,void *> >::construct<Goal<Raven_Bot> *,Goal<Raven_Bot> * const &>
_TEXT	ENDS
; Function compile flags: /Odtp /RTCsu
; File d:\microsoft visual studio 14.0\vc\include\xmemory0
;	COMDAT ??$construct@PAV?$Goal@VRaven_Bot@@@@ABQAV1@@?$allocator_traits@V?$allocator@U?$_List_node@PAV?$Goal@VRaven_Bot@@@@PAX@std@@@std@@@std@@SAXAAV?$allocator@U?$_List_node@PAV?$Goal@VRaven_Bot@@@@PAX@std@@@1@PAPAV?$Goal@VRaven_Bot@@@@ABQAV3@@Z
_TEXT	SEGMENT
__Al$ = 8						; size = 4
__Ptr$ = 12						; size = 4
_<_Args_0>$ = 16					; size = 4
??$construct@PAV?$Goal@VRaven_Bot@@@@ABQAV1@@?$allocator_traits@V?$allocator@U?$_List_node@PAV?$Goal@VRaven_Bot@@@@PAX@std@@@std@@@std@@SAXAAV?$allocator@U?$_List_node@PAV?$Goal@VRaven_Bot@@@@PAX@std@@@1@PAPAV?$Goal@VRaven_Bot@@@@ABQAV3@@Z PROC ; std::allocator_traits<std::allocator<std::_List_node<Goal<Raven_Bot> *,void *> > >::construct<Goal<Raven_Bot> *,Goal<Raven_Bot> * const &>, COMDAT

; 774  : 		{	// construct _Objty(_Types...) at _Ptr

	push	ebp
	mov	ebp, esp

; 775  : 		_Al.construct(_Ptr, _STD forward<_Types>(_Args)...);

	mov	eax, DWORD PTR _<_Args_0>$[ebp]
	push	eax
	call	??$forward@ABQAV?$Goal@VRaven_Bot@@@@@std@@YAABQAV?$Goal@VRaven_Bot@@@@ABQAV1@@Z ; std::forward<Goal<Raven_Bot> * const &>
	add	esp, 4
	push	eax
	mov	ecx, DWORD PTR __Ptr$[ebp]
	push	ecx
	mov	ecx, DWORD PTR __Al$[ebp]
	call	??$construct@PAV?$Goal@VRaven_Bot@@@@ABQAV1@@?$allocator@U?$_List_node@PAV?$Goal@VRaven_Bot@@@@PAX@std@@@std@@QAEXPAPAV?$Goal@VRaven_Bot@@@@ABQAV2@@Z ; std::allocator<std::_List_node<Goal<Raven_Bot> *,void *> >::construct<Goal<Raven_Bot> *,Goal<Raven_Bot> * const &>

; 776  : 		}

	cmp	ebp, esp
	call	__RTC_CheckEsp
	pop	ebp
	ret	0
??$construct@PAV?$Goal@VRaven_Bot@@@@ABQAV1@@?$allocator_traits@V?$allocator@U?$_List_node@PAV?$Goal@VRaven_Bot@@@@PAX@std@@@std@@@std@@SAXAAV?$allocator@U?$_List_node@PAV?$Goal@VRaven_Bot@@@@PAX@std@@@1@PAPAV?$Goal@VRaven_Bot@@@@ABQAV3@@Z ENDP ; std::allocator_traits<std::allocator<std::_List_node<Goal<Raven_Bot> *,void *> > >::construct<Goal<Raven_Bot> *,Goal<Raven_Bot> * const &>
_TEXT	ENDS
; Function compile flags: /Odtp /RTCsu
; File d:\microsoft visual studio 14.0\vc\include\xmemory0
;	COMDAT ??$construct@PAV?$Goal@VRaven_Bot@@@@ABQAV1@@?$_Wrap_alloc@V?$allocator@U?$_List_node@PAV?$Goal@VRaven_Bot@@@@PAX@std@@@std@@@std@@QAEXPAPAV?$Goal@VRaven_Bot@@@@ABQAV2@@Z
_TEXT	SEGMENT
_this$ = -4						; size = 4
__Ptr$ = 8						; size = 4
_<_Args_0>$ = 12					; size = 4
??$construct@PAV?$Goal@VRaven_Bot@@@@ABQAV1@@?$_Wrap_alloc@V?$allocator@U?$_List_node@PAV?$Goal@VRaven_Bot@@@@PAX@std@@@std@@@std@@QAEXPAPAV?$Goal@VRaven_Bot@@@@ABQAV2@@Z PROC ; std::_Wrap_alloc<std::allocator<std::_List_node<Goal<Raven_Bot> *,void *> > >::construct<Goal<Raven_Bot> *,Goal<Raven_Bot> * const &>, COMDAT
; _this$ = ecx

; 918  : 		{	// construct _Ty(_Types...) at _Ptr

	push	ebp
	mov	ebp, esp
	push	ecx
	mov	DWORD PTR [ebp-4], -858993460		; ccccccccH
	mov	DWORD PTR _this$[ebp], ecx

; 919  : 		_Mytraits::construct(*this, _Ptr,

	mov	eax, DWORD PTR _<_Args_0>$[ebp]
	push	eax
	call	??$forward@ABQAV?$Goal@VRaven_Bot@@@@@std@@YAABQAV?$Goal@VRaven_Bot@@@@ABQAV1@@Z ; std::forward<Goal<Raven_Bot> * const &>
	add	esp, 4
	push	eax
	mov	ecx, DWORD PTR __Ptr$[ebp]
	push	ecx
	mov	edx, DWORD PTR _this$[ebp]
	push	edx
	call	??$construct@PAV?$Goal@VRaven_Bot@@@@ABQAV1@@?$allocator_traits@V?$allocator@U?$_List_node@PAV?$Goal@VRaven_Bot@@@@PAX@std@@@std@@@std@@SAXAAV?$allocator@U?$_List_node@PAV?$Goal@VRaven_Bot@@@@PAX@std@@@1@PAPAV?$Goal@VRaven_Bot@@@@ABQAV3@@Z ; std::allocator_traits<std::allocator<std::_List_node<Goal<Raven_Bot> *,void *> > >::construct<Goal<Raven_Bot> *,Goal<Raven_Bot> * const &>
	add	esp, 12					; 0000000cH

; 920  : 			_STD forward<_Types>(_Args)...);
; 921  : 		}

	add	esp, 4
	cmp	ebp, esp
	call	__RTC_CheckEsp
	mov	esp, ebp
	pop	ebp
	ret	8
??$construct@PAV?$Goal@VRaven_Bot@@@@ABQAV1@@?$_Wrap_alloc@V?$allocator@U?$_List_node@PAV?$Goal@VRaven_Bot@@@@PAX@std@@@std@@@std@@QAEXPAPAV?$Goal@VRaven_Bot@@@@ABQAV2@@Z ENDP ; std::_Wrap_alloc<std::allocator<std::_List_node<Goal<Raven_Bot> *,void *> > >::construct<Goal<Raven_Bot> *,Goal<Raven_Bot> * const &>
_TEXT	ENDS
; Function compile flags: /Odtp /RTCsu
; File d:\microsoft visual studio 14.0\vc\include\list
;	COMDAT ??$_Buynode@ABQAV?$Goal@VRaven_Bot@@@@@?$_List_buy@PAV?$Goal@VRaven_Bot@@@@V?$allocator@PAV?$Goal@VRaven_Bot@@@@@std@@@std@@QAEPAU?$_List_node@PAV?$Goal@VRaven_Bot@@@@PAX@1@PAU21@0ABQAV?$Goal@VRaven_Bot@@@@@Z
_TEXT	SEGMENT
tv131 = -28						; size = 4
__Pnode$ = -24						; size = 4
_this$ = -20						; size = 4
__$EHRec$ = -16						; size = 16
__Next$ = 8						; size = 4
__Prev$ = 12						; size = 4
_<_Val_0>$ = 16						; size = 4
??$_Buynode@ABQAV?$Goal@VRaven_Bot@@@@@?$_List_buy@PAV?$Goal@VRaven_Bot@@@@V?$allocator@PAV?$Goal@VRaven_Bot@@@@@std@@@std@@QAEPAU?$_List_node@PAV?$Goal@VRaven_Bot@@@@PAX@1@PAU21@0ABQAV?$Goal@VRaven_Bot@@@@@Z PROC ; std::_List_buy<Goal<Raven_Bot> *,std::allocator<Goal<Raven_Bot> *> >::_Buynode<Goal<Raven_Bot> * const &>, COMDAT
; _this$ = ecx

; 828  : 		{	// allocate a node and set links and value

	push	ebp
	mov	ebp, esp
	push	-1
	push	__ehhandler$??$_Buynode@ABQAV?$Goal@VRaven_Bot@@@@@?$_List_buy@PAV?$Goal@VRaven_Bot@@@@V?$allocator@PAV?$Goal@VRaven_Bot@@@@@std@@@std@@QAEPAU?$_List_node@PAV?$Goal@VRaven_Bot@@@@PAX@1@PAU21@0ABQAV?$Goal@VRaven_Bot@@@@@Z
	mov	eax, DWORD PTR fs:0
	push	eax
	push	ecx
	sub	esp, 12					; 0000000cH
	push	ebx
	push	esi
	push	edi
	mov	DWORD PTR [ebp-28], -858993460		; ccccccccH
	mov	DWORD PTR [ebp-24], -858993460		; ccccccccH
	mov	DWORD PTR [ebp-20], -858993460		; ccccccccH
	mov	eax, DWORD PTR ___security_cookie
	xor	eax, ebp
	push	eax
	lea	eax, DWORD PTR __$EHRec$[ebp+4]
	mov	DWORD PTR fs:0, eax
	mov	DWORD PTR __$EHRec$[ebp], esp
	mov	DWORD PTR _this$[ebp], ecx

; 829  : 		_Nodeptr _Pnode = this->_Buynode0(_Next, _Prev);

	mov	eax, DWORD PTR __Prev$[ebp]
	push	eax
	mov	ecx, DWORD PTR __Next$[ebp]
	push	ecx
	mov	ecx, DWORD PTR _this$[ebp]
	call	?_Buynode0@?$_List_alloc@U?$_List_base_types@PAV?$Goal@VRaven_Bot@@@@V?$allocator@PAV?$Goal@VRaven_Bot@@@@@std@@@std@@@std@@QAEPAU?$_List_node@PAV?$Goal@VRaven_Bot@@@@PAX@2@PAU32@0@Z ; std::_List_alloc<std::_List_base_types<Goal<Raven_Bot> *,std::allocator<Goal<Raven_Bot> *> > >::_Buynode0
	mov	DWORD PTR __Pnode$[ebp], eax

; 830  : 
; 831  : 		_TRY_BEGIN

	mov	DWORD PTR __$EHRec$[ebp+12], 0

; 832  : 		this->_Getal().construct(

	mov	edx, DWORD PTR __Pnode$[ebp]
	push	edx
	call	?_Myval@?$_List_alloc@U?$_List_base_types@PAV?$Goal@VRaven_Bot@@@@V?$allocator@PAV?$Goal@VRaven_Bot@@@@@std@@@std@@@std@@SAAAPAV?$Goal@VRaven_Bot@@@@PAU?$_List_node@PAV?$Goal@VRaven_Bot@@@@PAX@2@@Z ; std::_List_alloc<std::_List_base_types<Goal<Raven_Bot> *,std::allocator<Goal<Raven_Bot> *> > >::_Myval
	add	esp, 4
	mov	DWORD PTR tv131[ebp], eax
	mov	eax, DWORD PTR _<_Val_0>$[ebp]
	push	eax
	call	??$forward@ABQAV?$Goal@VRaven_Bot@@@@@std@@YAABQAV?$Goal@VRaven_Bot@@@@ABQAV1@@Z ; std::forward<Goal<Raven_Bot> * const &>
	add	esp, 4
	push	eax
	mov	ecx, DWORD PTR tv131[ebp]
	push	ecx
	call	??$addressof@PAV?$Goal@VRaven_Bot@@@@@std@@YAPAPAV?$Goal@VRaven_Bot@@@@AAPAV1@@Z ; std::addressof<Goal<Raven_Bot> *>
	add	esp, 4
	push	eax
	mov	ecx, DWORD PTR _this$[ebp]
	call	?_Getal@?$_List_alloc@U?$_List_base_types@PAV?$Goal@VRaven_Bot@@@@V?$allocator@PAV?$Goal@VRaven_Bot@@@@@std@@@std@@@std@@QAEAAU?$_Wrap_alloc@V?$allocator@U?$_List_node@PAV?$Goal@VRaven_Bot@@@@PAX@std@@@std@@@2@XZ ; std::_List_alloc<std::_List_base_types<Goal<Raven_Bot> *,std::allocator<Goal<Raven_Bot> *> > >::_Getal
	mov	ecx, eax
	call	??$construct@PAV?$Goal@VRaven_Bot@@@@ABQAV1@@?$_Wrap_alloc@V?$allocator@U?$_List_node@PAV?$Goal@VRaven_Bot@@@@PAX@std@@@std@@@std@@QAEXPAPAV?$Goal@VRaven_Bot@@@@ABQAV2@@Z ; std::_Wrap_alloc<std::allocator<std::_List_node<Goal<Raven_Bot> *,void *> > >::construct<Goal<Raven_Bot> *,Goal<Raven_Bot> * const &>
	jmp	SHORT $LN4@Buynode
__catch$??$_Buynode@ABQAV?$Goal@VRaven_Bot@@@@@?$_List_buy@PAV?$Goal@VRaven_Bot@@@@V?$allocator@PAV?$Goal@VRaven_Bot@@@@@std@@@std@@QAEPAU?$_List_node@PAV?$Goal@VRaven_Bot@@@@PAX@1@PAU21@0ABQAV?$Goal@VRaven_Bot@@@@@Z$0:

; 833  : 			_STD addressof(this->_Myval(_Pnode)),
; 834  : 				_STD forward<_Valty>(_Val)...);
; 835  : 		_CATCH_ALL
; 836  : 		this->_Getal().deallocate(_Pnode, 1);

	push	1
	mov	edx, DWORD PTR __Pnode$[ebp]
	push	edx
	mov	ecx, DWORD PTR _this$[ebp]
	call	?_Getal@?$_List_alloc@U?$_List_base_types@PAV?$Goal@VRaven_Bot@@@@V?$allocator@PAV?$Goal@VRaven_Bot@@@@@std@@@std@@@std@@QAEAAU?$_Wrap_alloc@V?$allocator@U?$_List_node@PAV?$Goal@VRaven_Bot@@@@PAX@std@@@std@@@2@XZ ; std::_List_alloc<std::_List_base_types<Goal<Raven_Bot> *,std::allocator<Goal<Raven_Bot> *> > >::_Getal
	mov	ecx, eax
	call	?deallocate@?$_Wrap_alloc@V?$allocator@U?$_List_node@PAV?$Goal@VRaven_Bot@@@@PAX@std@@@std@@@std@@QAEXPAU?$_List_node@PAV?$Goal@VRaven_Bot@@@@PAX@2@I@Z ; std::_Wrap_alloc<std::allocator<std::_List_node<Goal<Raven_Bot> *,void *> > >::deallocate

; 837  : 		_RERAISE;

	push	0
	push	0
	call	__CxxThrowException@8

; 838  : 		_CATCH_END

	mov	eax, $LN7@Buynode
	ret	0
$LN4@Buynode:
	mov	DWORD PTR __$EHRec$[ebp+12], -1
	jmp	SHORT __tryend$??$_Buynode@ABQAV?$Goal@VRaven_Bot@@@@@?$_List_buy@PAV?$Goal@VRaven_Bot@@@@V?$allocator@PAV?$Goal@VRaven_Bot@@@@@std@@@std@@QAEPAU?$_List_node@PAV?$Goal@VRaven_Bot@@@@PAX@1@PAU21@0ABQAV?$Goal@VRaven_Bot@@@@@Z$1
$LN7@Buynode:
	mov	DWORD PTR __$EHRec$[ebp+12], -1
__tryend$??$_Buynode@ABQAV?$Goal@VRaven_Bot@@@@@?$_List_buy@PAV?$Goal@VRaven_Bot@@@@V?$allocator@PAV?$Goal@VRaven_Bot@@@@@std@@@std@@QAEPAU?$_List_node@PAV?$Goal@VRaven_Bot@@@@PAX@1@PAU21@0ABQAV?$Goal@VRaven_Bot@@@@@Z$1:

; 839  : 
; 840  : 		return (_Pnode);

	mov	eax, DWORD PTR __Pnode$[ebp]
$LN3@Buynode:

; 841  : 		}

	mov	ecx, DWORD PTR __$EHRec$[ebp+4]
	mov	DWORD PTR fs:0, ecx
	pop	ecx
	pop	edi
	pop	esi
	pop	ebx
	add	esp, 28					; 0000001cH
	cmp	ebp, esp
	call	__RTC_CheckEsp
	mov	esp, ebp
	pop	ebp
	ret	12					; 0000000cH
_TEXT	ENDS
;	COMDAT text$x
text$x	SEGMENT
__ehhandler$??$_Buynode@ABQAV?$Goal@VRaven_Bot@@@@@?$_List_buy@PAV?$Goal@VRaven_Bot@@@@V?$allocator@PAV?$Goal@VRaven_Bot@@@@@std@@@std@@QAEPAU?$_List_node@PAV?$Goal@VRaven_Bot@@@@PAX@1@PAU21@0ABQAV?$Goal@VRaven_Bot@@@@@Z:
	mov	edx, DWORD PTR [esp+8]
	lea	eax, DWORD PTR [edx+12]
	mov	ecx, DWORD PTR [edx-32]
	xor	ecx, eax
	call	@__security_check_cookie@4
	mov	eax, OFFSET __ehfuncinfo$??$_Buynode@ABQAV?$Goal@VRaven_Bot@@@@@?$_List_buy@PAV?$Goal@VRaven_Bot@@@@V?$allocator@PAV?$Goal@VRaven_Bot@@@@@std@@@std@@QAEPAU?$_List_node@PAV?$Goal@VRaven_Bot@@@@PAX@1@PAU21@0ABQAV?$Goal@VRaven_Bot@@@@@Z
	jmp	___CxxFrameHandler3
text$x	ENDS
??$_Buynode@ABQAV?$Goal@VRaven_Bot@@@@@?$_List_buy@PAV?$Goal@VRaven_Bot@@@@V?$allocator@PAV?$Goal@VRaven_Bot@@@@@std@@@std@@QAEPAU?$_List_node@PAV?$Goal@VRaven_Bot@@@@PAX@1@PAU21@0ABQAV?$Goal@VRaven_Bot@@@@@Z ENDP ; std::_List_buy<Goal<Raven_Bot> *,std::allocator<Goal<Raven_Bot> *> >::_Buynode<Goal<Raven_Bot> * const &>
; Function compile flags: /Odtp /RTCsu
; File d:\microsoft visual studio 14.0\vc\include\type_traits
;	COMDAT ??$forward@ABQAV?$Goal@VRaven_Bot@@@@@std@@YAABQAV?$Goal@VRaven_Bot@@@@ABQAV1@@Z
_TEXT	SEGMENT
__Arg$ = 8						; size = 4
??$forward@ABQAV?$Goal@VRaven_Bot@@@@@std@@YAABQAV?$Goal@VRaven_Bot@@@@ABQAV1@@Z PROC ; std::forward<Goal<Raven_Bot> * const &>, COMDAT

; 1293 : 	{	// forward an lvalue as either an lvalue or an rvalue

	push	ebp
	mov	ebp, esp

; 1294 : 	return (static_cast<_Ty&&>(_Arg));

	mov	eax, DWORD PTR __Arg$[ebp]

; 1295 : 	}

	pop	ebp
	ret	0
??$forward@ABQAV?$Goal@VRaven_Bot@@@@@std@@YAABQAV?$Goal@VRaven_Bot@@@@ABQAV1@@Z ENDP ; std::forward<Goal<Raven_Bot> * const &>
_TEXT	ENDS
; Function compile flags: /Odtp /RTCsu
; File d:\microsoft visual studio 14.0\vc\include\xmemory0
;	COMDAT ??$construct@PAU?$_List_node@PAV?$Goal@VRaven_Bot@@@@PAX@std@@AAPAU12@@?$allocator@U?$_List_node@PAV?$Goal@VRaven_Bot@@@@PAX@std@@@std@@QAEXPAPAU?$_List_node@PAV?$Goal@VRaven_Bot@@@@PAX@1@AAPAU21@@Z
_TEXT	SEGMENT
tv73 = -12						; size = 4
$T1 = -8						; size = 4
_this$ = -4						; size = 4
__Ptr$ = 8						; size = 4
_<_Args_0>$ = 12					; size = 4
??$construct@PAU?$_List_node@PAV?$Goal@VRaven_Bot@@@@PAX@std@@AAPAU12@@?$allocator@U?$_List_node@PAV?$Goal@VRaven_Bot@@@@PAX@std@@@std@@QAEXPAPAU?$_List_node@PAV?$Goal@VRaven_Bot@@@@PAX@1@AAPAU21@@Z PROC ; std::allocator<std::_List_node<Goal<Raven_Bot> *,void *> >::construct<std::_List_node<Goal<Raven_Bot> *,void *> *,std::_List_node<Goal<Raven_Bot> *,void *> * &>, COMDAT
; _this$ = ecx

; 656  : 		{	// construct _Objty(_Types...) at _Ptr

	push	ebp
	mov	ebp, esp
	sub	esp, 12					; 0000000cH
	mov	DWORD PTR [ebp-12], -858993460		; ccccccccH
	mov	DWORD PTR [ebp-8], -858993460		; ccccccccH
	mov	DWORD PTR [ebp-4], -858993460		; ccccccccH
	mov	DWORD PTR _this$[ebp], ecx

; 657  : 		::new ((void *)_Ptr) _Objty(_STD forward<_Types>(_Args)...);

	mov	eax, DWORD PTR __Ptr$[ebp]
	push	eax
	push	4
	call	??2@YAPAXIPAX@Z				; operator new
	add	esp, 8
	mov	DWORD PTR $T1[ebp], eax
	cmp	DWORD PTR $T1[ebp], 0
	je	SHORT $LN3@construct
	mov	ecx, DWORD PTR _<_Args_0>$[ebp]
	push	ecx
	call	??$forward@AAPAU?$_List_node@PAV?$Goal@VRaven_Bot@@@@PAX@std@@@std@@YAAAPAU?$_List_node@PAV?$Goal@VRaven_Bot@@@@PAX@0@AAPAU10@@Z ; std::forward<std::_List_node<Goal<Raven_Bot> *,void *> * &>
	add	esp, 4
	mov	edx, DWORD PTR $T1[ebp]
	mov	eax, DWORD PTR [eax]
	mov	DWORD PTR [edx], eax
	mov	ecx, DWORD PTR $T1[ebp]
	mov	DWORD PTR tv73[ebp], ecx
	jmp	SHORT $LN1@construct
$LN3@construct:
	mov	DWORD PTR tv73[ebp], 0
$LN1@construct:

; 658  : 		}

	add	esp, 12					; 0000000cH
	cmp	ebp, esp
	call	__RTC_CheckEsp
	mov	esp, ebp
	pop	ebp
	ret	8
??$construct@PAU?$_List_node@PAV?$Goal@VRaven_Bot@@@@PAX@std@@AAPAU12@@?$allocator@U?$_List_node@PAV?$Goal@VRaven_Bot@@@@PAX@std@@@std@@QAEXPAPAU?$_List_node@PAV?$Goal@VRaven_Bot@@@@PAX@1@AAPAU21@@Z ENDP ; std::allocator<std::_List_node<Goal<Raven_Bot> *,void *> >::construct<std::_List_node<Goal<Raven_Bot> *,void *> *,std::_List_node<Goal<Raven_Bot> *,void *> * &>
_TEXT	ENDS
; Function compile flags: /Odtp /RTCsu
; File d:\microsoft visual studio 14.0\vc\include\xmemory0
;	COMDAT ??$destroy@PAV?$Goal@VRaven_Bot@@@@@?$allocator@U?$_List_node@PAV?$Goal@VRaven_Bot@@@@PAX@std@@@std@@QAEXPAPAV?$Goal@VRaven_Bot@@@@@Z
_TEXT	SEGMENT
_this$ = -4						; size = 4
__Ptr$ = 8						; size = 4
??$destroy@PAV?$Goal@VRaven_Bot@@@@@?$allocator@U?$_List_node@PAV?$Goal@VRaven_Bot@@@@PAX@std@@@std@@QAEXPAPAV?$Goal@VRaven_Bot@@@@@Z PROC ; std::allocator<std::_List_node<Goal<Raven_Bot> *,void *> >::destroy<Goal<Raven_Bot> *>, COMDAT
; _this$ = ecx

; 663  : 		{	// destroy object at _Ptr

	push	ebp
	mov	ebp, esp
	push	ecx
	mov	DWORD PTR [ebp-4], -858993460		; ccccccccH
	mov	DWORD PTR _this$[ebp], ecx

; 664  : 		_Ptr->~_Uty();
; 665  : 		}

	mov	esp, ebp
	pop	ebp
	ret	4
??$destroy@PAV?$Goal@VRaven_Bot@@@@@?$allocator@U?$_List_node@PAV?$Goal@VRaven_Bot@@@@PAX@std@@@std@@QAEXPAPAV?$Goal@VRaven_Bot@@@@@Z ENDP ; std::allocator<std::_List_node<Goal<Raven_Bot> *,void *> >::destroy<Goal<Raven_Bot> *>
_TEXT	ENDS
; Function compile flags: /Odtp /RTCsu
; File d:\microsoft visual studio 14.0\vc\include\xmemory0
;	COMDAT ??$destroy@PAU?$_List_node@PAV?$Goal@VRaven_Bot@@@@PAX@std@@@?$allocator@U?$_List_node@PAV?$Goal@VRaven_Bot@@@@PAX@std@@@std@@QAEXPAPAU?$_List_node@PAV?$Goal@VRaven_Bot@@@@PAX@1@@Z
_TEXT	SEGMENT
_this$ = -4						; size = 4
__Ptr$ = 8						; size = 4
??$destroy@PAU?$_List_node@PAV?$Goal@VRaven_Bot@@@@PAX@std@@@?$allocator@U?$_List_node@PAV?$Goal@VRaven_Bot@@@@PAX@std@@@std@@QAEXPAPAU?$_List_node@PAV?$Goal@VRaven_Bot@@@@PAX@1@@Z PROC ; std::allocator<std::_List_node<Goal<Raven_Bot> *,void *> >::destroy<std::_List_node<Goal<Raven_Bot> *,void *> *>, COMDAT
; _this$ = ecx

; 663  : 		{	// destroy object at _Ptr

	push	ebp
	mov	ebp, esp
	push	ecx
	mov	DWORD PTR [ebp-4], -858993460		; ccccccccH
	mov	DWORD PTR _this$[ebp], ecx

; 664  : 		_Ptr->~_Uty();
; 665  : 		}

	mov	esp, ebp
	pop	ebp
	ret	4
??$destroy@PAU?$_List_node@PAV?$Goal@VRaven_Bot@@@@PAX@std@@@?$allocator@U?$_List_node@PAV?$Goal@VRaven_Bot@@@@PAX@std@@@std@@QAEXPAPAU?$_List_node@PAV?$Goal@VRaven_Bot@@@@PAX@1@@Z ENDP ; std::allocator<std::_List_node<Goal<Raven_Bot> *,void *> >::destroy<std::_List_node<Goal<Raven_Bot> *,void *> *>
_TEXT	ENDS
; Function compile flags: /Odtp /RTCsu
; File d:\microsoft visual studio 14.0\vc\include\xmemory0
;	COMDAT ??$construct@U_Container_proxy@std@@U12@@?$allocator@U_Container_proxy@std@@@std@@QAEXPAU_Container_proxy@1@$$QAU21@@Z
_TEXT	SEGMENT
tv74 = -12						; size = 4
$T1 = -8						; size = 4
_this$ = -4						; size = 4
__Ptr$ = 8						; size = 4
_<_Args_0>$ = 12					; size = 4
??$construct@U_Container_proxy@std@@U12@@?$allocator@U_Container_proxy@std@@@std@@QAEXPAU_Container_proxy@1@$$QAU21@@Z PROC ; std::allocator<std::_Container_proxy>::construct<std::_Container_proxy,std::_Container_proxy>, COMDAT
; _this$ = ecx

; 656  : 		{	// construct _Objty(_Types...) at _Ptr

	push	ebp
	mov	ebp, esp
	sub	esp, 12					; 0000000cH
	mov	DWORD PTR [ebp-12], -858993460		; ccccccccH
	mov	DWORD PTR [ebp-8], -858993460		; ccccccccH
	mov	DWORD PTR [ebp-4], -858993460		; ccccccccH
	mov	DWORD PTR _this$[ebp], ecx

; 657  : 		::new ((void *)_Ptr) _Objty(_STD forward<_Types>(_Args)...);

	mov	eax, DWORD PTR __Ptr$[ebp]
	push	eax
	push	8
	call	??2@YAPAXIPAX@Z				; operator new
	add	esp, 8
	mov	DWORD PTR $T1[ebp], eax
	cmp	DWORD PTR $T1[ebp], 0
	je	SHORT $LN3@construct
	mov	ecx, DWORD PTR _<_Args_0>$[ebp]
	push	ecx
	call	??$forward@U_Container_proxy@std@@@std@@YA$$QAU_Container_proxy@0@AAU10@@Z ; std::forward<std::_Container_proxy>
	add	esp, 4
	mov	edx, DWORD PTR [eax]
	mov	eax, DWORD PTR [eax+4]
	mov	ecx, DWORD PTR $T1[ebp]
	mov	DWORD PTR [ecx], edx
	mov	DWORD PTR [ecx+4], eax
	mov	edx, DWORD PTR $T1[ebp]
	mov	DWORD PTR tv74[ebp], edx
	jmp	SHORT $LN1@construct
$LN3@construct:
	mov	DWORD PTR tv74[ebp], 0
$LN1@construct:

; 658  : 		}

	add	esp, 12					; 0000000cH
	cmp	ebp, esp
	call	__RTC_CheckEsp
	mov	esp, ebp
	pop	ebp
	ret	8
??$construct@U_Container_proxy@std@@U12@@?$allocator@U_Container_proxy@std@@@std@@QAEXPAU_Container_proxy@1@$$QAU21@@Z ENDP ; std::allocator<std::_Container_proxy>::construct<std::_Container_proxy,std::_Container_proxy>
_TEXT	ENDS
; Function compile flags: /Odtp /RTCsu
; File d:\microsoft visual studio 14.0\vc\include\xmemory0
;	COMDAT ??$destroy@U_Container_proxy@std@@@?$allocator@U_Container_proxy@std@@@std@@QAEXPAU_Container_proxy@1@@Z
_TEXT	SEGMENT
_this$ = -4						; size = 4
__Ptr$ = 8						; size = 4
??$destroy@U_Container_proxy@std@@@?$allocator@U_Container_proxy@std@@@std@@QAEXPAU_Container_proxy@1@@Z PROC ; std::allocator<std::_Container_proxy>::destroy<std::_Container_proxy>, COMDAT
; _this$ = ecx

; 663  : 		{	// destroy object at _Ptr

	push	ebp
	mov	ebp, esp
	push	ecx
	mov	DWORD PTR [ebp-4], -858993460		; ccccccccH
	mov	DWORD PTR _this$[ebp], ecx

; 664  : 		_Ptr->~_Uty();
; 665  : 		}

	mov	esp, ebp
	pop	ebp
	ret	4
??$destroy@U_Container_proxy@std@@@?$allocator@U_Container_proxy@std@@@std@@QAEXPAU_Container_proxy@1@@Z ENDP ; std::allocator<std::_Container_proxy>::destroy<std::_Container_proxy>
_TEXT	ENDS
; Function compile flags: /Odtp /RTCsu
; File d:\microsoft visual studio 14.0\vc\include\xmemory0
;	COMDAT ??$destroy@PAD@?$allocator@D@std@@QAEXPAPAD@Z
_TEXT	SEGMENT
_this$ = -4						; size = 4
__Ptr$ = 8						; size = 4
??$destroy@PAD@?$allocator@D@std@@QAEXPAPAD@Z PROC	; std::allocator<char>::destroy<char *>, COMDAT
; _this$ = ecx

; 663  : 		{	// destroy object at _Ptr

	push	ebp
	mov	ebp, esp
	push	ecx
	mov	DWORD PTR [ebp-4], -858993460		; ccccccccH
	mov	DWORD PTR _this$[ebp], ecx

; 664  : 		_Ptr->~_Uty();
; 665  : 		}

	mov	esp, ebp
	pop	ebp
	ret	4
??$destroy@PAD@?$allocator@D@std@@QAEXPAPAD@Z ENDP	; std::allocator<char>::destroy<char *>
_TEXT	ENDS
; Function compile flags: /Odtp /RTCsu
; File d:\microsoft visual studio 14.0\vc\include\xutility
;	COMDAT ??$?8V?$_List_const_iterator@V?$_List_val@U?$_List_simple_types@PAV?$Goal@VRaven_Bot@@@@@std@@@std@@@std@@V01@@std@@YA_NABV?$reverse_iterator@V?$_List_const_iterator@V?$_List_val@U?$_List_simple_types@PAV?$Goal@VRaven_Bot@@@@@std@@@std@@@std@@@0@0@Z
_TEXT	SEGMENT
tv80 = -56						; size = 4
tv82 = -52						; size = 4
tv78 = -48						; size = 4
tv81 = -44						; size = 4
$T2 = -40						; size = 12
$T3 = -28						; size = 12
$T4 = -13						; size = 1
__$EHRec$ = -12						; size = 12
__Left$ = 8						; size = 4
__Right$ = 12						; size = 4
??$?8V?$_List_const_iterator@V?$_List_val@U?$_List_simple_types@PAV?$Goal@VRaven_Bot@@@@@std@@@std@@@std@@V01@@std@@YA_NABV?$reverse_iterator@V?$_List_const_iterator@V?$_List_val@U?$_List_simple_types@PAV?$Goal@VRaven_Bot@@@@@std@@@std@@@std@@@0@0@Z PROC ; std::operator==<std::_List_const_iterator<std::_List_val<std::_List_simple_types<Goal<Raven_Bot> *> > >,std::_List_const_iterator<std::_List_val<std::_List_simple_types<Goal<Raven_Bot> *> > > >, COMDAT

; 1171 : 	{	// test for reverse_iterator equality

	push	ebp
	mov	ebp, esp
	push	-1
	push	__ehhandler$??$?8V?$_List_const_iterator@V?$_List_val@U?$_List_simple_types@PAV?$Goal@VRaven_Bot@@@@@std@@@std@@@std@@V01@@std@@YA_NABV?$reverse_iterator@V?$_List_const_iterator@V?$_List_val@U?$_List_simple_types@PAV?$Goal@VRaven_Bot@@@@@std@@@std@@@std@@@0@0@Z
	mov	eax, DWORD PTR fs:0
	push	eax
	sub	esp, 44					; 0000002cH
	push	edi
	lea	edi, DWORD PTR [ebp-56]
	mov	ecx, 11					; 0000000bH
	mov	eax, -858993460				; ccccccccH
	rep stosd
	mov	eax, DWORD PTR ___security_cookie
	xor	eax, ebp
	push	eax
	lea	eax, DWORD PTR __$EHRec$[ebp]
	mov	DWORD PTR fs:0, eax

; 1172 : 	return (_Left.base() == _Right.base());

	lea	eax, DWORD PTR $T2[ebp]
	push	eax
	mov	ecx, DWORD PTR __Right$[ebp]
	call	?base@?$reverse_iterator@V?$_List_const_iterator@V?$_List_val@U?$_List_simple_types@PAV?$Goal@VRaven_Bot@@@@@std@@@std@@@std@@@std@@QBE?AV?$_List_const_iterator@V?$_List_val@U?$_List_simple_types@PAV?$Goal@VRaven_Bot@@@@@std@@@std@@@2@XZ ; std::reverse_iterator<std::_List_const_iterator<std::_List_val<std::_List_simple_types<Goal<Raven_Bot> *> > > >::base
	mov	DWORD PTR tv81[ebp], eax
	mov	ecx, DWORD PTR tv81[ebp]
	mov	DWORD PTR tv78[ebp], ecx
	mov	DWORD PTR __$EHRec$[ebp+8], 0
	mov	edx, DWORD PTR tv78[ebp]
	push	edx
	lea	eax, DWORD PTR $T3[ebp]
	push	eax
	mov	ecx, DWORD PTR __Left$[ebp]
	call	?base@?$reverse_iterator@V?$_List_const_iterator@V?$_List_val@U?$_List_simple_types@PAV?$Goal@VRaven_Bot@@@@@std@@@std@@@std@@@std@@QBE?AV?$_List_const_iterator@V?$_List_val@U?$_List_simple_types@PAV?$Goal@VRaven_Bot@@@@@std@@@std@@@2@XZ ; std::reverse_iterator<std::_List_const_iterator<std::_List_val<std::_List_simple_types<Goal<Raven_Bot> *> > > >::base
	mov	DWORD PTR tv82[ebp], eax
	mov	ecx, DWORD PTR tv82[ebp]
	mov	DWORD PTR tv80[ebp], ecx
	mov	BYTE PTR __$EHRec$[ebp+8], 1
	mov	ecx, DWORD PTR tv80[ebp]
	call	??8?$_List_const_iterator@V?$_List_val@U?$_List_simple_types@PAV?$Goal@VRaven_Bot@@@@@std@@@std@@@std@@QBE_NABV01@@Z ; std::_List_const_iterator<std::_List_val<std::_List_simple_types<Goal<Raven_Bot> *> > >::operator==
	mov	BYTE PTR $T4[ebp], al
	mov	BYTE PTR __$EHRec$[ebp+8], 0
	lea	ecx, DWORD PTR $T3[ebp]
	call	??1?$_List_const_iterator@V?$_List_val@U?$_List_simple_types@PAV?$Goal@VRaven_Bot@@@@@std@@@std@@@std@@QAE@XZ
	mov	DWORD PTR __$EHRec$[ebp+8], -1
	lea	ecx, DWORD PTR $T2[ebp]
	call	??1?$_List_const_iterator@V?$_List_val@U?$_List_simple_types@PAV?$Goal@VRaven_Bot@@@@@std@@@std@@@std@@QAE@XZ
	mov	al, BYTE PTR $T4[ebp]

; 1173 : 	}

	mov	ecx, DWORD PTR __$EHRec$[ebp]
	mov	DWORD PTR fs:0, ecx
	pop	ecx
	pop	edi
	add	esp, 56					; 00000038H
	cmp	ebp, esp
	call	__RTC_CheckEsp
	mov	esp, ebp
	pop	ebp
	ret	0
_TEXT	ENDS
;	COMDAT text$x
text$x	SEGMENT
__unwindfunclet$??$?8V?$_List_const_iterator@V?$_List_val@U?$_List_simple_types@PAV?$Goal@VRaven_Bot@@@@@std@@@std@@@std@@V01@@std@@YA_NABV?$reverse_iterator@V?$_List_const_iterator@V?$_List_val@U?$_List_simple_types@PAV?$Goal@VRaven_Bot@@@@@std@@@std@@@std@@@0@0@Z$0:
	lea	ecx, DWORD PTR $T2[ebp]
	jmp	??1?$_List_const_iterator@V?$_List_val@U?$_List_simple_types@PAV?$Goal@VRaven_Bot@@@@@std@@@std@@@std@@QAE@XZ
__unwindfunclet$??$?8V?$_List_const_iterator@V?$_List_val@U?$_List_simple_types@PAV?$Goal@VRaven_Bot@@@@@std@@@std@@@std@@V01@@std@@YA_NABV?$reverse_iterator@V?$_List_const_iterator@V?$_List_val@U?$_List_simple_types@PAV?$Goal@VRaven_Bot@@@@@std@@@std@@@std@@@0@0@Z$1:
	lea	ecx, DWORD PTR $T3[ebp]
	jmp	??1?$_List_const_iterator@V?$_List_val@U?$_List_simple_types@PAV?$Goal@VRaven_Bot@@@@@std@@@std@@@std@@QAE@XZ
__ehhandler$??$?8V?$_List_const_iterator@V?$_List_val@U?$_List_simple_types@PAV?$Goal@VRaven_Bot@@@@@std@@@std@@@std@@V01@@std@@YA_NABV?$reverse_iterator@V?$_List_const_iterator@V?$_List_val@U?$_List_simple_types@PAV?$Goal@VRaven_Bot@@@@@std@@@std@@@std@@@0@0@Z:
	mov	edx, DWORD PTR [esp+8]
	lea	eax, DWORD PTR [edx+12]
	mov	ecx, DWORD PTR [edx-52]
	xor	ecx, eax
	call	@__security_check_cookie@4
	mov	eax, OFFSET __ehfuncinfo$??$?8V?$_List_const_iterator@V?$_List_val@U?$_List_simple_types@PAV?$Goal@VRaven_Bot@@@@@std@@@std@@@std@@V01@@std@@YA_NABV?$reverse_iterator@V?$_List_const_iterator@V?$_List_val@U?$_List_simple_types@PAV?$Goal@VRaven_Bot@@@@@std@@@std@@@std@@@0@0@Z
	jmp	___CxxFrameHandler3
text$x	ENDS
??$?8V?$_List_const_iterator@V?$_List_val@U?$_List_simple_types@PAV?$Goal@VRaven_Bot@@@@@std@@@std@@@std@@V01@@std@@YA_NABV?$reverse_iterator@V?$_List_const_iterator@V?$_List_val@U?$_List_simple_types@PAV?$Goal@VRaven_Bot@@@@@std@@@std@@@std@@@0@0@Z ENDP ; std::operator==<std::_List_const_iterator<std::_List_val<std::_List_simple_types<Goal<Raven_Bot> *> > >,std::_List_const_iterator<std::_List_val<std::_List_simple_types<Goal<Raven_Bot> *> > > >
; Function compile flags: /Odtp /RTCsu
; File d:\microsoft visual studio 14.0\vc\include\list
;	COMDAT ??$_Insert@ABQAV?$Goal@VRaven_Bot@@@@@?$list@PAV?$Goal@VRaven_Bot@@@@V?$allocator@PAV?$Goal@VRaven_Bot@@@@@std@@@std@@QAEXV?$_List_unchecked_const_iterator@V?$_List_val@U?$_List_simple_types@PAV?$Goal@VRaven_Bot@@@@@std@@@std@@U_Iterator_base0@2@@1@ABQAV?$Goal@VRaven_Bot@@@@@Z
_TEXT	SEGMENT
__Newnode$ = -12					; size = 4
__Pnode$ = -8						; size = 4
_this$ = -4						; size = 4
__Where$ = 8						; size = 4
_<_Val_0>$ = 12						; size = 4
??$_Insert@ABQAV?$Goal@VRaven_Bot@@@@@?$list@PAV?$Goal@VRaven_Bot@@@@V?$allocator@PAV?$Goal@VRaven_Bot@@@@@std@@@std@@QAEXV?$_List_unchecked_const_iterator@V?$_List_val@U?$_List_simple_types@PAV?$Goal@VRaven_Bot@@@@@std@@@std@@U_Iterator_base0@2@@1@ABQAV?$Goal@VRaven_Bot@@@@@Z PROC ; std::list<Goal<Raven_Bot> *,std::allocator<Goal<Raven_Bot> *> >::_Insert<Goal<Raven_Bot> * const &>, COMDAT
; _this$ = ecx

; 1058 : 		{	// insert element at _Where

	push	ebp
	mov	ebp, esp
	sub	esp, 12					; 0000000cH
	mov	DWORD PTR [ebp-12], -858993460		; ccccccccH
	mov	DWORD PTR [ebp-8], -858993460		; ccccccccH
	mov	DWORD PTR [ebp-4], -858993460		; ccccccccH
	mov	DWORD PTR _this$[ebp], ecx

; 1059 : 		_Nodeptr _Pnode = _Where._Mynode();

	lea	ecx, DWORD PTR __Where$[ebp]
	call	?_Mynode@?$_List_unchecked_const_iterator@V?$_List_val@U?$_List_simple_types@PAV?$Goal@VRaven_Bot@@@@@std@@@std@@U_Iterator_base0@2@@std@@QBEPAU?$_List_node@PAV?$Goal@VRaven_Bot@@@@PAX@2@XZ ; std::_List_unchecked_const_iterator<std::_List_val<std::_List_simple_types<Goal<Raven_Bot> *> >,std::_Iterator_base0>::_Mynode
	mov	DWORD PTR __Pnode$[ebp], eax

; 1060 : 		_Nodeptr _Newnode =
; 1061 : 			this->_Buynode(_Pnode, this->_Prevnode(_Pnode),

	mov	eax, DWORD PTR _<_Val_0>$[ebp]
	push	eax
	call	??$forward@ABQAV?$Goal@VRaven_Bot@@@@@std@@YAABQAV?$Goal@VRaven_Bot@@@@ABQAV1@@Z ; std::forward<Goal<Raven_Bot> * const &>
	add	esp, 4
	push	eax
	mov	ecx, DWORD PTR __Pnode$[ebp]
	push	ecx
	call	?_Prevnode@?$_List_alloc@U?$_List_base_types@PAV?$Goal@VRaven_Bot@@@@V?$allocator@PAV?$Goal@VRaven_Bot@@@@@std@@@std@@@std@@SAAAPAU?$_List_node@PAV?$Goal@VRaven_Bot@@@@PAX@2@PAU32@@Z ; std::_List_alloc<std::_List_base_types<Goal<Raven_Bot> *,std::allocator<Goal<Raven_Bot> *> > >::_Prevnode
	add	esp, 4
	mov	edx, DWORD PTR [eax]
	push	edx
	mov	eax, DWORD PTR __Pnode$[ebp]
	push	eax
	mov	ecx, DWORD PTR _this$[ebp]
	call	??$_Buynode@ABQAV?$Goal@VRaven_Bot@@@@@?$_List_buy@PAV?$Goal@VRaven_Bot@@@@V?$allocator@PAV?$Goal@VRaven_Bot@@@@@std@@@std@@QAEPAU?$_List_node@PAV?$Goal@VRaven_Bot@@@@PAX@1@PAU21@0ABQAV?$Goal@VRaven_Bot@@@@@Z ; std::_List_buy<Goal<Raven_Bot> *,std::allocator<Goal<Raven_Bot> *> >::_Buynode<Goal<Raven_Bot> * const &>
	mov	DWORD PTR __Newnode$[ebp], eax

; 1062 : 				_STD forward<_Valty>(_Val)...);
; 1063 : 		_Incsize(1);

	push	1
	mov	ecx, DWORD PTR _this$[ebp]
	call	?_Incsize@?$list@PAV?$Goal@VRaven_Bot@@@@V?$allocator@PAV?$Goal@VRaven_Bot@@@@@std@@@std@@QAEXI@Z ; std::list<Goal<Raven_Bot> *,std::allocator<Goal<Raven_Bot> *> >::_Incsize

; 1064 : 		this->_Prevnode(_Pnode) = _Newnode;

	mov	ecx, DWORD PTR __Pnode$[ebp]
	push	ecx
	call	?_Prevnode@?$_List_alloc@U?$_List_base_types@PAV?$Goal@VRaven_Bot@@@@V?$allocator@PAV?$Goal@VRaven_Bot@@@@@std@@@std@@@std@@SAAAPAU?$_List_node@PAV?$Goal@VRaven_Bot@@@@PAX@2@PAU32@@Z ; std::_List_alloc<std::_List_base_types<Goal<Raven_Bot> *,std::allocator<Goal<Raven_Bot> *> > >::_Prevnode
	add	esp, 4
	mov	edx, DWORD PTR __Newnode$[ebp]
	mov	DWORD PTR [eax], edx

; 1065 : 		this->_Nextnode(this->_Prevnode(_Newnode)) = _Newnode;

	mov	eax, DWORD PTR __Newnode$[ebp]
	push	eax
	call	?_Prevnode@?$_List_alloc@U?$_List_base_types@PAV?$Goal@VRaven_Bot@@@@V?$allocator@PAV?$Goal@VRaven_Bot@@@@@std@@@std@@@std@@SAAAPAU?$_List_node@PAV?$Goal@VRaven_Bot@@@@PAX@2@PAU32@@Z ; std::_List_alloc<std::_List_base_types<Goal<Raven_Bot> *,std::allocator<Goal<Raven_Bot> *> > >::_Prevnode
	add	esp, 4
	mov	ecx, DWORD PTR [eax]
	push	ecx
	call	?_Nextnode@?$_List_alloc@U?$_List_base_types@PAV?$Goal@VRaven_Bot@@@@V?$allocator@PAV?$Goal@VRaven_Bot@@@@@std@@@std@@@std@@SAAAPAU?$_List_node@PAV?$Goal@VRaven_Bot@@@@PAX@2@PAU32@@Z ; std::_List_alloc<std::_List_base_types<Goal<Raven_Bot> *,std::allocator<Goal<Raven_Bot> *> > >::_Nextnode
	add	esp, 4
	mov	edx, DWORD PTR __Newnode$[ebp]
	mov	DWORD PTR [eax], edx

; 1066 : 		}

	add	esp, 12					; 0000000cH
	cmp	ebp, esp
	call	__RTC_CheckEsp
	mov	esp, ebp
	pop	ebp
	ret	8
??$_Insert@ABQAV?$Goal@VRaven_Bot@@@@@?$list@PAV?$Goal@VRaven_Bot@@@@V?$allocator@PAV?$Goal@VRaven_Bot@@@@@std@@@std@@QAEXV?$_List_unchecked_const_iterator@V?$_List_val@U?$_List_simple_types@PAV?$Goal@VRaven_Bot@@@@@std@@@std@@U_Iterator_base0@2@@1@ABQAV?$Goal@VRaven_Bot@@@@@Z ENDP ; std::list<Goal<Raven_Bot> *,std::allocator<Goal<Raven_Bot> *> >::_Insert<Goal<Raven_Bot> * const &>
_TEXT	ENDS
; Function compile flags: /Odtp /RTCsu
; File d:\microsoft visual studio 14.0\vc\include\list
;	COMDAT ??0?$_List_unchecked_iterator@V?$_List_val@U?$_List_simple_types@PAV?$Goal@VRaven_Bot@@@@@std@@@std@@@std@@QAE@PAU?$_List_node@PAV?$Goal@VRaven_Bot@@@@PAX@1@PBV?$_List_val@U?$_List_simple_types@PAV?$Goal@VRaven_Bot@@@@@std@@@1@@Z
_TEXT	SEGMENT
_this$ = -4						; size = 4
__Pnode$ = 8						; size = 4
__Plist$ = 12						; size = 4
??0?$_List_unchecked_iterator@V?$_List_val@U?$_List_simple_types@PAV?$Goal@VRaven_Bot@@@@@std@@@std@@@std@@QAE@PAU?$_List_node@PAV?$Goal@VRaven_Bot@@@@PAX@1@PBV?$_List_val@U?$_List_simple_types@PAV?$Goal@VRaven_Bot@@@@@std@@@1@@Z PROC ; std::_List_unchecked_iterator<std::_List_val<std::_List_simple_types<Goal<Raven_Bot> *> > >::_List_unchecked_iterator<std::_List_val<std::_List_simple_types<Goal<Raven_Bot> *> > >, COMDAT
; _this$ = ecx

; 124  : 		{	// construct with node pointer _Pnode

	push	ebp
	mov	ebp, esp
	push	ecx
	mov	DWORD PTR [ebp-4], -858993460		; ccccccccH
	mov	DWORD PTR _this$[ebp], ecx

; 123  : 		: _Mybase(_Pnode, _Plist)

	mov	eax, DWORD PTR __Plist$[ebp]
	push	eax
	mov	ecx, DWORD PTR __Pnode$[ebp]
	push	ecx
	mov	ecx, DWORD PTR _this$[ebp]
	call	??0?$_List_unchecked_const_iterator@V?$_List_val@U?$_List_simple_types@PAV?$Goal@VRaven_Bot@@@@@std@@@std@@U_Iterator_base0@2@@std@@QAE@PAU?$_List_node@PAV?$Goal@VRaven_Bot@@@@PAX@1@PBV?$_List_val@U?$_List_simple_types@PAV?$Goal@VRaven_Bot@@@@@std@@@1@@Z ; std::_List_unchecked_const_iterator<std::_List_val<std::_List_simple_types<Goal<Raven_Bot> *> >,std::_Iterator_base0>::_List_unchecked_const_iterator<std::_List_val<std::_List_simple_types<Goal<Raven_Bot> *> >,std::_Iterator_base0>

; 125  : 		}

	mov	eax, DWORD PTR _this$[ebp]
	add	esp, 4
	cmp	ebp, esp
	call	__RTC_CheckEsp
	mov	esp, ebp
	pop	ebp
	ret	8
??0?$_List_unchecked_iterator@V?$_List_val@U?$_List_simple_types@PAV?$Goal@VRaven_Bot@@@@@std@@@std@@@std@@QAE@PAU?$_List_node@PAV?$Goal@VRaven_Bot@@@@PAX@1@PBV?$_List_val@U?$_List_simple_types@PAV?$Goal@VRaven_Bot@@@@@std@@@1@@Z ENDP ; std::_List_unchecked_iterator<std::_List_val<std::_List_simple_types<Goal<Raven_Bot> *> > >::_List_unchecked_iterator<std::_List_val<std::_List_simple_types<Goal<Raven_Bot> *> > >
_TEXT	ENDS
; Function compile flags: /Odtp /RTCsu
; File d:\microsoft visual studio 14.0\vc\include\list
;	COMDAT ?_Mynode@?$_List_unchecked_const_iterator@V?$_List_val@U?$_List_simple_types@PAV?$Goal@VRaven_Bot@@@@@std@@@std@@U_Iterator_base0@2@@std@@QBEPAU?$_List_node@PAV?$Goal@VRaven_Bot@@@@PAX@2@XZ
_TEXT	SEGMENT
_this$ = -4						; size = 4
?_Mynode@?$_List_unchecked_const_iterator@V?$_List_val@U?$_List_simple_types@PAV?$Goal@VRaven_Bot@@@@@std@@@std@@U_Iterator_base0@2@@std@@QBEPAU?$_List_node@PAV?$Goal@VRaven_Bot@@@@PAX@2@XZ PROC ; std::_List_unchecked_const_iterator<std::_List_val<std::_List_simple_types<Goal<Raven_Bot> *> >,std::_Iterator_base0>::_Mynode, COMDAT
; _this$ = ecx

; 95   : 		{	// return node pointer

	push	ebp
	mov	ebp, esp
	push	ecx
	mov	DWORD PTR [ebp-4], -858993460		; ccccccccH
	mov	DWORD PTR _this$[ebp], ecx

; 96   : 		return (_Ptr);

	mov	eax, DWORD PTR _this$[ebp]
	mov	eax, DWORD PTR [eax]

; 97   : 		}

	mov	esp, ebp
	pop	ebp
	ret	0
?_Mynode@?$_List_unchecked_const_iterator@V?$_List_val@U?$_List_simple_types@PAV?$Goal@VRaven_Bot@@@@@std@@@std@@U_Iterator_base0@2@@std@@QBEPAU?$_List_node@PAV?$Goal@VRaven_Bot@@@@PAX@2@XZ ENDP ; std::_List_unchecked_const_iterator<std::_List_val<std::_List_simple_types<Goal<Raven_Bot> *> >,std::_Iterator_base0>::_Mynode
_TEXT	ENDS
; Function compile flags: /Odtp /RTCsu
; File d:\microsoft visual studio 14.0\vc\include\list
;	COMDAT ??0?$_List_unchecked_const_iterator@V?$_List_val@U?$_List_simple_types@PAV?$Goal@VRaven_Bot@@@@@std@@@std@@U_Iterator_base0@2@@std@@QAE@PAU?$_List_node@PAV?$Goal@VRaven_Bot@@@@PAX@1@PBV?$_List_val@U?$_List_simple_types@PAV?$Goal@VRaven_Bot@@@@@std@@@1@@Z
_TEXT	SEGMENT
_this$ = -4						; size = 4
__Pnode$ = 8						; size = 4
__Plist$ = 12						; size = 4
??0?$_List_unchecked_const_iterator@V?$_List_val@U?$_List_simple_types@PAV?$Goal@VRaven_Bot@@@@@std@@@std@@U_Iterator_base0@2@@std@@QAE@PAU?$_List_node@PAV?$Goal@VRaven_Bot@@@@PAX@1@PBV?$_List_val@U?$_List_simple_types@PAV?$Goal@VRaven_Bot@@@@@std@@@1@@Z PROC ; std::_List_unchecked_const_iterator<std::_List_val<std::_List_simple_types<Goal<Raven_Bot> *> >,std::_Iterator_base0>::_List_unchecked_const_iterator<std::_List_val<std::_List_simple_types<Goal<Raven_Bot> *> >,std::_Iterator_base0>, COMDAT
; _this$ = ecx

; 44   : 		{	// construct with node pointer _Pnode

	push	ebp
	mov	ebp, esp
	push	ecx
	mov	DWORD PTR [ebp-4], -858993460		; ccccccccH
	mov	DWORD PTR _this$[ebp], ecx

; 43   : 		: _Ptr(_Pnode)

	mov	eax, DWORD PTR _this$[ebp]
	mov	ecx, DWORD PTR __Pnode$[ebp]
	mov	DWORD PTR [eax], ecx

; 45   : 		this->_Adopt(_Plist);

	mov	edx, DWORD PTR __Plist$[ebp]
	push	edx
	mov	ecx, DWORD PTR _this$[ebp]
	call	?_Adopt@_Iterator_base0@std@@QAEXPBX@Z	; std::_Iterator_base0::_Adopt

; 46   : 		}

	mov	eax, DWORD PTR _this$[ebp]
	add	esp, 4
	cmp	ebp, esp
	call	__RTC_CheckEsp
	mov	esp, ebp
	pop	ebp
	ret	8
??0?$_List_unchecked_const_iterator@V?$_List_val@U?$_List_simple_types@PAV?$Goal@VRaven_Bot@@@@@std@@@std@@U_Iterator_base0@2@@std@@QAE@PAU?$_List_node@PAV?$Goal@VRaven_Bot@@@@PAX@1@PBV?$_List_val@U?$_List_simple_types@PAV?$Goal@VRaven_Bot@@@@@std@@@1@@Z ENDP ; std::_List_unchecked_const_iterator<std::_List_val<std::_List_simple_types<Goal<Raven_Bot> *> >,std::_Iterator_base0>::_List_unchecked_const_iterator<std::_List_val<std::_List_simple_types<Goal<Raven_Bot> *> >,std::_Iterator_base0>
_TEXT	ENDS
; Function compile flags: /Odtp /RTCsu
; File d:\microsoft visual studio 14.0\vc\include\xmemory0
;	COMDAT ??$construct@PAU?$_List_node@PAV?$Goal@VRaven_Bot@@@@PAX@std@@AAPAU12@@?$allocator_traits@V?$allocator@U?$_List_node@PAV?$Goal@VRaven_Bot@@@@PAX@std@@@std@@@std@@SAXAAV?$allocator@U?$_List_node@PAV?$Goal@VRaven_Bot@@@@PAX@std@@@1@PAPAU?$_List_node@PAV?$Goal@VRaven_Bot@@@@PAX@1@AAPAU31@@Z
_TEXT	SEGMENT
__Al$ = 8						; size = 4
__Ptr$ = 12						; size = 4
_<_Args_0>$ = 16					; size = 4
??$construct@PAU?$_List_node@PAV?$Goal@VRaven_Bot@@@@PAX@std@@AAPAU12@@?$allocator_traits@V?$allocator@U?$_List_node@PAV?$Goal@VRaven_Bot@@@@PAX@std@@@std@@@std@@SAXAAV?$allocator@U?$_List_node@PAV?$Goal@VRaven_Bot@@@@PAX@std@@@1@PAPAU?$_List_node@PAV?$Goal@VRaven_Bot@@@@PAX@1@AAPAU31@@Z PROC ; std::allocator_traits<std::allocator<std::_List_node<Goal<Raven_Bot> *,void *> > >::construct<std::_List_node<Goal<Raven_Bot> *,void *> *,std::_List_node<Goal<Raven_Bot> *,void *> * &>, COMDAT

; 774  : 		{	// construct _Objty(_Types...) at _Ptr

	push	ebp
	mov	ebp, esp

; 775  : 		_Al.construct(_Ptr, _STD forward<_Types>(_Args)...);

	mov	eax, DWORD PTR _<_Args_0>$[ebp]
	push	eax
	call	??$forward@AAPAU?$_List_node@PAV?$Goal@VRaven_Bot@@@@PAX@std@@@std@@YAAAPAU?$_List_node@PAV?$Goal@VRaven_Bot@@@@PAX@0@AAPAU10@@Z ; std::forward<std::_List_node<Goal<Raven_Bot> *,void *> * &>
	add	esp, 4
	push	eax
	mov	ecx, DWORD PTR __Ptr$[ebp]
	push	ecx
	mov	ecx, DWORD PTR __Al$[ebp]
	call	??$construct@PAU?$_List_node@PAV?$Goal@VRaven_Bot@@@@PAX@std@@AAPAU12@@?$allocator@U?$_List_node@PAV?$Goal@VRaven_Bot@@@@PAX@std@@@std@@QAEXPAPAU?$_List_node@PAV?$Goal@VRaven_Bot@@@@PAX@1@AAPAU21@@Z ; std::allocator<std::_List_node<Goal<Raven_Bot> *,void *> >::construct<std::_List_node<Goal<Raven_Bot> *,void *> *,std::_List_node<Goal<Raven_Bot> *,void *> * &>

; 776  : 		}

	cmp	ebp, esp
	call	__RTC_CheckEsp
	pop	ebp
	ret	0
??$construct@PAU?$_List_node@PAV?$Goal@VRaven_Bot@@@@PAX@std@@AAPAU12@@?$allocator_traits@V?$allocator@U?$_List_node@PAV?$Goal@VRaven_Bot@@@@PAX@std@@@std@@@std@@SAXAAV?$allocator@U?$_List_node@PAV?$Goal@VRaven_Bot@@@@PAX@std@@@1@PAPAU?$_List_node@PAV?$Goal@VRaven_Bot@@@@PAX@1@AAPAU31@@Z ENDP ; std::allocator_traits<std::allocator<std::_List_node<Goal<Raven_Bot> *,void *> > >::construct<std::_List_node<Goal<Raven_Bot> *,void *> *,std::_List_node<Goal<Raven_Bot> *,void *> * &>
_TEXT	ENDS
; Function compile flags: /Odtp /RTCsu
; File d:\microsoft visual studio 14.0\vc\include\type_traits
;	COMDAT ??$forward@AAPAU?$_List_node@PAV?$Goal@VRaven_Bot@@@@PAX@std@@@std@@YAAAPAU?$_List_node@PAV?$Goal@VRaven_Bot@@@@PAX@0@AAPAU10@@Z
_TEXT	SEGMENT
__Arg$ = 8						; size = 4
??$forward@AAPAU?$_List_node@PAV?$Goal@VRaven_Bot@@@@PAX@std@@@std@@YAAAPAU?$_List_node@PAV?$Goal@VRaven_Bot@@@@PAX@0@AAPAU10@@Z PROC ; std::forward<std::_List_node<Goal<Raven_Bot> *,void *> * &>, COMDAT

; 1293 : 	{	// forward an lvalue as either an lvalue or an rvalue

	push	ebp
	mov	ebp, esp

; 1294 : 	return (static_cast<_Ty&&>(_Arg));

	mov	eax, DWORD PTR __Arg$[ebp]

; 1295 : 	}

	pop	ebp
	ret	0
??$forward@AAPAU?$_List_node@PAV?$Goal@VRaven_Bot@@@@PAX@std@@@std@@YAAAPAU?$_List_node@PAV?$Goal@VRaven_Bot@@@@PAX@0@AAPAU10@@Z ENDP ; std::forward<std::_List_node<Goal<Raven_Bot> *,void *> * &>
_TEXT	ENDS
; Function compile flags: /Odtp /RTCsu
; File d:\microsoft visual studio 14.0\vc\include\xmemory0
;	COMDAT ??$destroy@PAV?$Goal@VRaven_Bot@@@@@?$allocator_traits@V?$allocator@U?$_List_node@PAV?$Goal@VRaven_Bot@@@@PAX@std@@@std@@@std@@SAXAAV?$allocator@U?$_List_node@PAV?$Goal@VRaven_Bot@@@@PAX@std@@@1@PAPAV?$Goal@VRaven_Bot@@@@@Z
_TEXT	SEGMENT
__Al$ = 8						; size = 4
__Ptr$ = 12						; size = 4
??$destroy@PAV?$Goal@VRaven_Bot@@@@@?$allocator_traits@V?$allocator@U?$_List_node@PAV?$Goal@VRaven_Bot@@@@PAX@std@@@std@@@std@@SAXAAV?$allocator@U?$_List_node@PAV?$Goal@VRaven_Bot@@@@PAX@std@@@1@PAPAV?$Goal@VRaven_Bot@@@@@Z PROC ; std::allocator_traits<std::allocator<std::_List_node<Goal<Raven_Bot> *,void *> > >::destroy<Goal<Raven_Bot> *>, COMDAT

; 781  : 		{	// destroy object at _Ptr

	push	ebp
	mov	ebp, esp

; 782  : 		_Al.destroy(_Ptr);

	mov	eax, DWORD PTR __Ptr$[ebp]
	push	eax
	mov	ecx, DWORD PTR __Al$[ebp]
	call	??$destroy@PAV?$Goal@VRaven_Bot@@@@@?$allocator@U?$_List_node@PAV?$Goal@VRaven_Bot@@@@PAX@std@@@std@@QAEXPAPAV?$Goal@VRaven_Bot@@@@@Z ; std::allocator<std::_List_node<Goal<Raven_Bot> *,void *> >::destroy<Goal<Raven_Bot> *>

; 783  : 		}

	cmp	ebp, esp
	call	__RTC_CheckEsp
	pop	ebp
	ret	0
??$destroy@PAV?$Goal@VRaven_Bot@@@@@?$allocator_traits@V?$allocator@U?$_List_node@PAV?$Goal@VRaven_Bot@@@@PAX@std@@@std@@@std@@SAXAAV?$allocator@U?$_List_node@PAV?$Goal@VRaven_Bot@@@@PAX@std@@@1@PAPAV?$Goal@VRaven_Bot@@@@@Z ENDP ; std::allocator_traits<std::allocator<std::_List_node<Goal<Raven_Bot> *,void *> > >::destroy<Goal<Raven_Bot> *>
_TEXT	ENDS
; Function compile flags: /Odtp /RTCsu
; File d:\microsoft visual studio 14.0\vc\include\xstddef
;	COMDAT ??$_Addressof@PAV?$Goal@VRaven_Bot@@@@@std@@YAPAPAV?$Goal@VRaven_Bot@@@@AAPAV1@U?$integral_constant@_N$0A@@0@@Z
_TEXT	SEGMENT
__Val$ = 8						; size = 4
___formal$ = 12						; size = 1
??$_Addressof@PAV?$Goal@VRaven_Bot@@@@@std@@YAPAPAV?$Goal@VRaven_Bot@@@@AAPAV1@U?$integral_constant@_N$0A@@0@@Z PROC ; std::_Addressof<Goal<Raven_Bot> *>, COMDAT

; 691  : 	{	// return address of object _Val

	push	ebp
	mov	ebp, esp

; 692  : 	return (reinterpret_cast<_Ty *>(

	mov	eax, DWORD PTR __Val$[ebp]

; 693  : 		&const_cast<char&>(
; 694  : 		reinterpret_cast<const volatile char&>(_Val))));
; 695  : 	}

	pop	ebp
	ret	0
??$_Addressof@PAV?$Goal@VRaven_Bot@@@@@std@@YAPAPAV?$Goal@VRaven_Bot@@@@AAPAV1@U?$integral_constant@_N$0A@@0@@Z ENDP ; std::_Addressof<Goal<Raven_Bot> *>
_TEXT	ENDS
; Function compile flags: /Odtp /RTCsu
; File d:\microsoft visual studio 14.0\vc\include\xmemory0
;	COMDAT ??$?0PAV?$Goal@VRaven_Bot@@@@@?$allocator@U?$_List_node@PAV?$Goal@VRaven_Bot@@@@PAX@std@@@std@@QAE@ABV?$allocator@PAV?$Goal@VRaven_Bot@@@@@1@@Z
_TEXT	SEGMENT
_this$ = -4						; size = 4
___formal$ = 8						; size = 4
??$?0PAV?$Goal@VRaven_Bot@@@@@?$allocator@U?$_List_node@PAV?$Goal@VRaven_Bot@@@@PAX@std@@@std@@QAE@ABV?$allocator@PAV?$Goal@VRaven_Bot@@@@@1@@Z PROC ; std::allocator<std::_List_node<Goal<Raven_Bot> *,void *> >::allocator<std::_List_node<Goal<Raven_Bot> *,void *> ><Goal<Raven_Bot> *>, COMDAT
; _this$ = ecx

; 629  : 		{	// construct from a related allocator (do nothing)

	push	ebp
	mov	ebp, esp
	push	ecx
	mov	DWORD PTR [ebp-4], -858993460		; ccccccccH
	mov	DWORD PTR _this$[ebp], ecx

; 630  : 		}

	mov	eax, DWORD PTR _this$[ebp]
	mov	esp, ebp
	pop	ebp
	ret	4
??$?0PAV?$Goal@VRaven_Bot@@@@@?$allocator@U?$_List_node@PAV?$Goal@VRaven_Bot@@@@PAX@std@@@std@@QAE@ABV?$allocator@PAV?$Goal@VRaven_Bot@@@@@1@@Z ENDP ; std::allocator<std::_List_node<Goal<Raven_Bot> *,void *> >::allocator<std::_List_node<Goal<Raven_Bot> *,void *> ><Goal<Raven_Bot> *>
_TEXT	ENDS
; Function compile flags: /Odtp /RTCsu
; File d:\microsoft visual studio 14.0\vc\include\xmemory0
;	COMDAT ??$?0V?$allocator@PAV?$Goal@VRaven_Bot@@@@@std@@@?$_Wrap_alloc@V?$allocator@U?$_List_node@PAV?$Goal@VRaven_Bot@@@@PAX@std@@@std@@@std@@QAE@ABV?$allocator@PAV?$Goal@VRaven_Bot@@@@@1@@Z
_TEXT	SEGMENT
_this$ = -4						; size = 4
__Right$ = 8						; size = 4
??$?0V?$allocator@PAV?$Goal@VRaven_Bot@@@@@std@@@?$_Wrap_alloc@V?$allocator@U?$_List_node@PAV?$Goal@VRaven_Bot@@@@PAX@std@@@std@@@std@@QAE@ABV?$allocator@PAV?$Goal@VRaven_Bot@@@@@1@@Z PROC ; std::_Wrap_alloc<std::allocator<std::_List_node<Goal<Raven_Bot> *,void *> > >::_Wrap_alloc<std::allocator<std::_List_node<Goal<Raven_Bot> *,void *> > ><std::allocator<Goal<Raven_Bot> *> >, COMDAT
; _this$ = ecx

; 870  : 		{	// construct from a related allocator

	push	ebp
	mov	ebp, esp
	push	ecx
	mov	DWORD PTR [ebp-4], -858993460		; ccccccccH
	mov	DWORD PTR _this$[ebp], ecx

; 869  : 		: _Mybase(_Right)

	mov	eax, DWORD PTR __Right$[ebp]
	push	eax
	mov	ecx, DWORD PTR _this$[ebp]
	call	??$?0PAV?$Goal@VRaven_Bot@@@@@?$allocator@U?$_List_node@PAV?$Goal@VRaven_Bot@@@@PAX@std@@@std@@QAE@ABV?$allocator@PAV?$Goal@VRaven_Bot@@@@@1@@Z ; std::allocator<std::_List_node<Goal<Raven_Bot> *,void *> >::allocator<std::_List_node<Goal<Raven_Bot> *,void *> ><Goal<Raven_Bot> *>

; 871  : 		}

	mov	eax, DWORD PTR _this$[ebp]
	add	esp, 4
	cmp	ebp, esp
	call	__RTC_CheckEsp
	mov	esp, ebp
	pop	ebp
	ret	4
??$?0V?$allocator@PAV?$Goal@VRaven_Bot@@@@@std@@@?$_Wrap_alloc@V?$allocator@U?$_List_node@PAV?$Goal@VRaven_Bot@@@@PAX@std@@@std@@@std@@QAE@ABV?$allocator@PAV?$Goal@VRaven_Bot@@@@@1@@Z ENDP ; std::_Wrap_alloc<std::allocator<std::_List_node<Goal<Raven_Bot> *,void *> > >::_Wrap_alloc<std::allocator<std::_List_node<Goal<Raven_Bot> *,void *> > ><std::allocator<Goal<Raven_Bot> *> >
_TEXT	ENDS
; Function compile flags: /Odtp /RTCsu
; File d:\microsoft visual studio 14.0\vc\include\type_traits
;	COMDAT ??$forward@ABV?$allocator@PAV?$Goal@VRaven_Bot@@@@@std@@@std@@YAABV?$allocator@PAV?$Goal@VRaven_Bot@@@@@0@ABV10@@Z
_TEXT	SEGMENT
__Arg$ = 8						; size = 4
??$forward@ABV?$allocator@PAV?$Goal@VRaven_Bot@@@@@std@@@std@@YAABV?$allocator@PAV?$Goal@VRaven_Bot@@@@@0@ABV10@@Z PROC ; std::forward<std::allocator<Goal<Raven_Bot> *> const &>, COMDAT

; 1293 : 	{	// forward an lvalue as either an lvalue or an rvalue

	push	ebp
	mov	ebp, esp

; 1294 : 	return (static_cast<_Ty&&>(_Arg));

	mov	eax, DWORD PTR __Arg$[ebp]

; 1295 : 	}

	pop	ebp
	ret	0
??$forward@ABV?$allocator@PAV?$Goal@VRaven_Bot@@@@@std@@@std@@YAABV?$allocator@PAV?$Goal@VRaven_Bot@@@@@0@ABV10@@Z ENDP ; std::forward<std::allocator<Goal<Raven_Bot> *> const &>
_TEXT	ENDS
; Function compile flags: /Odtp /RTCsu
; File d:\microsoft visual studio 14.0\vc\include\xmemory0
;	COMDAT ??$destroy@PAU?$_List_node@PAV?$Goal@VRaven_Bot@@@@PAX@std@@@?$allocator_traits@V?$allocator@U?$_List_node@PAV?$Goal@VRaven_Bot@@@@PAX@std@@@std@@@std@@SAXAAV?$allocator@U?$_List_node@PAV?$Goal@VRaven_Bot@@@@PAX@std@@@1@PAPAU?$_List_node@PAV?$Goal@VRaven_Bot@@@@PAX@1@@Z
_TEXT	SEGMENT
__Al$ = 8						; size = 4
__Ptr$ = 12						; size = 4
??$destroy@PAU?$_List_node@PAV?$Goal@VRaven_Bot@@@@PAX@std@@@?$allocator_traits@V?$allocator@U?$_List_node@PAV?$Goal@VRaven_Bot@@@@PAX@std@@@std@@@std@@SAXAAV?$allocator@U?$_List_node@PAV?$Goal@VRaven_Bot@@@@PAX@std@@@1@PAPAU?$_List_node@PAV?$Goal@VRaven_Bot@@@@PAX@1@@Z PROC ; std::allocator_traits<std::allocator<std::_List_node<Goal<Raven_Bot> *,void *> > >::destroy<std::_List_node<Goal<Raven_Bot> *,void *> *>, COMDAT

; 781  : 		{	// destroy object at _Ptr

	push	ebp
	mov	ebp, esp

; 782  : 		_Al.destroy(_Ptr);

	mov	eax, DWORD PTR __Ptr$[ebp]
	push	eax
	mov	ecx, DWORD PTR __Al$[ebp]
	call	??$destroy@PAU?$_List_node@PAV?$Goal@VRaven_Bot@@@@PAX@std@@@?$allocator@U?$_List_node@PAV?$Goal@VRaven_Bot@@@@PAX@std@@@std@@QAEXPAPAU?$_List_node@PAV?$Goal@VRaven_Bot@@@@PAX@1@@Z ; std::allocator<std::_List_node<Goal<Raven_Bot> *,void *> >::destroy<std::_List_node<Goal<Raven_Bot> *,void *> *>

; 783  : 		}

	cmp	ebp, esp
	call	__RTC_CheckEsp
	pop	ebp
	ret	0
??$destroy@PAU?$_List_node@PAV?$Goal@VRaven_Bot@@@@PAX@std@@@?$allocator_traits@V?$allocator@U?$_List_node@PAV?$Goal@VRaven_Bot@@@@PAX@std@@@std@@@std@@SAXAAV?$allocator@U?$_List_node@PAV?$Goal@VRaven_Bot@@@@PAX@std@@@1@PAPAU?$_List_node@PAV?$Goal@VRaven_Bot@@@@PAX@1@@Z ENDP ; std::allocator_traits<std::allocator<std::_List_node<Goal<Raven_Bot> *,void *> > >::destroy<std::_List_node<Goal<Raven_Bot> *,void *> *>
_TEXT	ENDS
; Function compile flags: /Odtp /RTCsu
; File d:\microsoft visual studio 14.0\vc\include\xstddef
;	COMDAT ??$_Addressof@PAU?$_List_node@PAV?$Goal@VRaven_Bot@@@@PAX@std@@@std@@YAPAPAU?$_List_node@PAV?$Goal@VRaven_Bot@@@@PAX@0@AAPAU10@U?$integral_constant@_N$0A@@0@@Z
_TEXT	SEGMENT
__Val$ = 8						; size = 4
___formal$ = 12						; size = 1
??$_Addressof@PAU?$_List_node@PAV?$Goal@VRaven_Bot@@@@PAX@std@@@std@@YAPAPAU?$_List_node@PAV?$Goal@VRaven_Bot@@@@PAX@0@AAPAU10@U?$integral_constant@_N$0A@@0@@Z PROC ; std::_Addressof<std::_List_node<Goal<Raven_Bot> *,void *> *>, COMDAT

; 691  : 	{	// return address of object _Val

	push	ebp
	mov	ebp, esp

; 692  : 	return (reinterpret_cast<_Ty *>(

	mov	eax, DWORD PTR __Val$[ebp]

; 693  : 		&const_cast<char&>(
; 694  : 		reinterpret_cast<const volatile char&>(_Val))));
; 695  : 	}

	pop	ebp
	ret	0
??$_Addressof@PAU?$_List_node@PAV?$Goal@VRaven_Bot@@@@PAX@std@@@std@@YAPAPAU?$_List_node@PAV?$Goal@VRaven_Bot@@@@PAX@0@AAPAU10@U?$integral_constant@_N$0A@@0@@Z ENDP ; std::_Addressof<std::_List_node<Goal<Raven_Bot> *,void *> *>
_TEXT	ENDS
; Function compile flags: /Odtp /RTCsu
; File d:\microsoft visual studio 14.0\vc\include\xmemory0
;	COMDAT ??$construct@U_Container_proxy@std@@U12@@?$allocator_traits@V?$allocator@U_Container_proxy@std@@@std@@@std@@SAXAAV?$allocator@U_Container_proxy@std@@@1@PAU_Container_proxy@1@$$QAU31@@Z
_TEXT	SEGMENT
__Al$ = 8						; size = 4
__Ptr$ = 12						; size = 4
_<_Args_0>$ = 16					; size = 4
??$construct@U_Container_proxy@std@@U12@@?$allocator_traits@V?$allocator@U_Container_proxy@std@@@std@@@std@@SAXAAV?$allocator@U_Container_proxy@std@@@1@PAU_Container_proxy@1@$$QAU31@@Z PROC ; std::allocator_traits<std::allocator<std::_Container_proxy> >::construct<std::_Container_proxy,std::_Container_proxy>, COMDAT

; 774  : 		{	// construct _Objty(_Types...) at _Ptr

	push	ebp
	mov	ebp, esp

; 775  : 		_Al.construct(_Ptr, _STD forward<_Types>(_Args)...);

	mov	eax, DWORD PTR _<_Args_0>$[ebp]
	push	eax
	call	??$forward@U_Container_proxy@std@@@std@@YA$$QAU_Container_proxy@0@AAU10@@Z ; std::forward<std::_Container_proxy>
	add	esp, 4
	push	eax
	mov	ecx, DWORD PTR __Ptr$[ebp]
	push	ecx
	mov	ecx, DWORD PTR __Al$[ebp]
	call	??$construct@U_Container_proxy@std@@U12@@?$allocator@U_Container_proxy@std@@@std@@QAEXPAU_Container_proxy@1@$$QAU21@@Z ; std::allocator<std::_Container_proxy>::construct<std::_Container_proxy,std::_Container_proxy>

; 776  : 		}

	cmp	ebp, esp
	call	__RTC_CheckEsp
	pop	ebp
	ret	0
??$construct@U_Container_proxy@std@@U12@@?$allocator_traits@V?$allocator@U_Container_proxy@std@@@std@@@std@@SAXAAV?$allocator@U_Container_proxy@std@@@1@PAU_Container_proxy@1@$$QAU31@@Z ENDP ; std::allocator_traits<std::allocator<std::_Container_proxy> >::construct<std::_Container_proxy,std::_Container_proxy>
_TEXT	ENDS
; Function compile flags: /Odtp /RTCsu
; File d:\microsoft visual studio 14.0\vc\include\type_traits
;	COMDAT ??$forward@U_Container_proxy@std@@@std@@YA$$QAU_Container_proxy@0@AAU10@@Z
_TEXT	SEGMENT
__Arg$ = 8						; size = 4
??$forward@U_Container_proxy@std@@@std@@YA$$QAU_Container_proxy@0@AAU10@@Z PROC ; std::forward<std::_Container_proxy>, COMDAT

; 1293 : 	{	// forward an lvalue as either an lvalue or an rvalue

	push	ebp
	mov	ebp, esp

; 1294 : 	return (static_cast<_Ty&&>(_Arg));

	mov	eax, DWORD PTR __Arg$[ebp]

; 1295 : 	}

	pop	ebp
	ret	0
??$forward@U_Container_proxy@std@@@std@@YA$$QAU_Container_proxy@0@AAU10@@Z ENDP ; std::forward<std::_Container_proxy>
_TEXT	ENDS
; Function compile flags: /Odtp /RTCsu
; File d:\microsoft visual studio 14.0\vc\include\xmemory0
;	COMDAT ??$destroy@U_Container_proxy@std@@@?$allocator_traits@V?$allocator@U_Container_proxy@std@@@std@@@std@@SAXAAV?$allocator@U_Container_proxy@std@@@1@PAU_Container_proxy@1@@Z
_TEXT	SEGMENT
__Al$ = 8						; size = 4
__Ptr$ = 12						; size = 4
??$destroy@U_Container_proxy@std@@@?$allocator_traits@V?$allocator@U_Container_proxy@std@@@std@@@std@@SAXAAV?$allocator@U_Container_proxy@std@@@1@PAU_Container_proxy@1@@Z PROC ; std::allocator_traits<std::allocator<std::_Container_proxy> >::destroy<std::_Container_proxy>, COMDAT

; 781  : 		{	// destroy object at _Ptr

	push	ebp
	mov	ebp, esp

; 782  : 		_Al.destroy(_Ptr);

	mov	eax, DWORD PTR __Ptr$[ebp]
	push	eax
	mov	ecx, DWORD PTR __Al$[ebp]
	call	??$destroy@U_Container_proxy@std@@@?$allocator@U_Container_proxy@std@@@std@@QAEXPAU_Container_proxy@1@@Z ; std::allocator<std::_Container_proxy>::destroy<std::_Container_proxy>

; 783  : 		}

	cmp	ebp, esp
	call	__RTC_CheckEsp
	pop	ebp
	ret	0
??$destroy@U_Container_proxy@std@@@?$allocator_traits@V?$allocator@U_Container_proxy@std@@@std@@@std@@SAXAAV?$allocator@U_Container_proxy@std@@@1@PAU_Container_proxy@1@@Z ENDP ; std::allocator_traits<std::allocator<std::_Container_proxy> >::destroy<std::_Container_proxy>
_TEXT	ENDS
; Function compile flags: /Odtp /RTCsu
; File d:\microsoft visual studio 14.0\vc\include\xstddef
;	COMDAT ??$_Addressof@D@std@@YAPADAADU?$integral_constant@_N$0A@@0@@Z
_TEXT	SEGMENT
__Val$ = 8						; size = 4
___formal$ = 12						; size = 1
??$_Addressof@D@std@@YAPADAADU?$integral_constant@_N$0A@@0@@Z PROC ; std::_Addressof<char>, COMDAT

; 691  : 	{	// return address of object _Val

	push	ebp
	mov	ebp, esp

; 692  : 	return (reinterpret_cast<_Ty *>(

	mov	eax, DWORD PTR __Val$[ebp]

; 693  : 		&const_cast<char&>(
; 694  : 		reinterpret_cast<const volatile char&>(_Val))));
; 695  : 	}

	pop	ebp
	ret	0
??$_Addressof@D@std@@YAPADAADU?$integral_constant@_N$0A@@0@@Z ENDP ; std::_Addressof<char>
_TEXT	ENDS
; Function compile flags: /Odtp /RTCsu
; File d:\microsoft visual studio 14.0\vc\include\xmemory0
;	COMDAT ??$destroy@PAD@?$allocator_traits@V?$allocator@D@std@@@std@@SAXAAV?$allocator@D@1@PAPAD@Z
_TEXT	SEGMENT
__Al$ = 8						; size = 4
__Ptr$ = 12						; size = 4
??$destroy@PAD@?$allocator_traits@V?$allocator@D@std@@@std@@SAXAAV?$allocator@D@1@PAPAD@Z PROC ; std::allocator_traits<std::allocator<char> >::destroy<char *>, COMDAT

; 781  : 		{	// destroy object at _Ptr

	push	ebp
	mov	ebp, esp

; 782  : 		_Al.destroy(_Ptr);

	mov	eax, DWORD PTR __Ptr$[ebp]
	push	eax
	mov	ecx, DWORD PTR __Al$[ebp]
	call	??$destroy@PAD@?$allocator@D@std@@QAEXPAPAD@Z ; std::allocator<char>::destroy<char *>

; 783  : 		}

	cmp	ebp, esp
	call	__RTC_CheckEsp
	pop	ebp
	ret	0
??$destroy@PAD@?$allocator_traits@V?$allocator@D@std@@@std@@SAXAAV?$allocator@D@1@PAPAD@Z ENDP ; std::allocator_traits<std::allocator<char> >::destroy<char *>
_TEXT	ENDS
; Function compile flags: /Odtp /RTCsu
; File d:\microsoft visual studio 14.0\vc\include\xutility
;	COMDAT ??$?9V?$_List_const_iterator@V?$_List_val@U?$_List_simple_types@PAV?$Goal@VRaven_Bot@@@@@std@@@std@@@std@@V01@@std@@YA_NABV?$reverse_iterator@V?$_List_const_iterator@V?$_List_val@U?$_List_simple_types@PAV?$Goal@VRaven_Bot@@@@@std@@@std@@@std@@@0@0@Z
_TEXT	SEGMENT
tv69 = -4						; size = 4
__Left$ = 8						; size = 4
__Right$ = 12						; size = 4
??$?9V?$_List_const_iterator@V?$_List_val@U?$_List_simple_types@PAV?$Goal@VRaven_Bot@@@@@std@@@std@@@std@@V01@@std@@YA_NABV?$reverse_iterator@V?$_List_const_iterator@V?$_List_val@U?$_List_simple_types@PAV?$Goal@VRaven_Bot@@@@@std@@@std@@@std@@@0@0@Z PROC ; std::operator!=<std::_List_const_iterator<std::_List_val<std::_List_simple_types<Goal<Raven_Bot> *> > >,std::_List_const_iterator<std::_List_val<std::_List_simple_types<Goal<Raven_Bot> *> > > >, COMDAT

; 1179 : 	{	// test for reverse_iterator inequality

	push	ebp
	mov	ebp, esp
	push	ecx
	mov	DWORD PTR [ebp-4], -858993460		; ccccccccH

; 1180 : 	return (!(_Left == _Right));

	mov	eax, DWORD PTR __Right$[ebp]
	push	eax
	mov	ecx, DWORD PTR __Left$[ebp]
	push	ecx
	call	??$?8V?$_List_const_iterator@V?$_List_val@U?$_List_simple_types@PAV?$Goal@VRaven_Bot@@@@@std@@@std@@@std@@V01@@std@@YA_NABV?$reverse_iterator@V?$_List_const_iterator@V?$_List_val@U?$_List_simple_types@PAV?$Goal@VRaven_Bot@@@@@std@@@std@@@std@@@0@0@Z ; std::operator==<std::_List_const_iterator<std::_List_val<std::_List_simple_types<Goal<Raven_Bot> *> > >,std::_List_const_iterator<std::_List_val<std::_List_simple_types<Goal<Raven_Bot> *> > > >
	add	esp, 8
	movzx	edx, al
	test	edx, edx
	jne	SHORT $LN3@operator
	mov	DWORD PTR tv69[ebp], 1
	jmp	SHORT $LN4@operator
$LN3@operator:
	mov	DWORD PTR tv69[ebp], 0
$LN4@operator:
	mov	al, BYTE PTR tv69[ebp]

; 1181 : 	}

	add	esp, 4
	cmp	ebp, esp
	call	__RTC_CheckEsp
	mov	esp, ebp
	pop	ebp
	ret	0
??$?9V?$_List_const_iterator@V?$_List_val@U?$_List_simple_types@PAV?$Goal@VRaven_Bot@@@@@std@@@std@@@std@@V01@@std@@YA_NABV?$reverse_iterator@V?$_List_const_iterator@V?$_List_val@U?$_List_simple_types@PAV?$Goal@VRaven_Bot@@@@@std@@@std@@@std@@@0@0@Z ENDP ; std::operator!=<std::_List_const_iterator<std::_List_val<std::_List_simple_types<Goal<Raven_Bot> *> > >,std::_List_const_iterator<std::_List_val<std::_List_simple_types<Goal<Raven_Bot> *> > > >
_TEXT	ENDS
; Function compile flags: /Odtp /RTCsu
;	COMDAT ??4?$reverse_iterator@V?$_List_const_iterator@V?$_List_val@U?$_List_simple_types@PAV?$Goal@VRaven_Bot@@@@@std@@@std@@@std@@@std@@QAEAAV01@$$QAV01@@Z
_TEXT	SEGMENT
_this$ = -4						; size = 4
___that$ = 8						; size = 4
??4?$reverse_iterator@V?$_List_const_iterator@V?$_List_val@U?$_List_simple_types@PAV?$Goal@VRaven_Bot@@@@@std@@@std@@@std@@@std@@QAEAAV01@$$QAV01@@Z PROC ; std::reverse_iterator<std::_List_const_iterator<std::_List_val<std::_List_simple_types<Goal<Raven_Bot> *> > > >::operator=, COMDAT
; _this$ = ecx
	push	ebp
	mov	ebp, esp
	push	ecx
	mov	DWORD PTR [ebp-4], -858993460		; ccccccccH
	mov	DWORD PTR _this$[ebp], ecx
	mov	eax, DWORD PTR ___that$[ebp]
	push	eax
	mov	ecx, DWORD PTR _this$[ebp]
	call	??4?$_List_const_iterator@V?$_List_val@U?$_List_simple_types@PAV?$Goal@VRaven_Bot@@@@@std@@@std@@@std@@QAEAAV01@$$QAV01@@Z
	mov	eax, DWORD PTR _this$[ebp]
	add	esp, 4
	cmp	ebp, esp
	call	__RTC_CheckEsp
	mov	esp, ebp
	pop	ebp
	ret	4
??4?$reverse_iterator@V?$_List_const_iterator@V?$_List_val@U?$_List_simple_types@PAV?$Goal@VRaven_Bot@@@@@std@@@std@@@std@@@std@@QAEAAV01@$$QAV01@@Z ENDP ; std::reverse_iterator<std::_List_const_iterator<std::_List_val<std::_List_simple_types<Goal<Raven_Bot> *> > > >::operator=
_TEXT	ENDS
; Function compile flags: /Odtp /RTCsu
;	COMDAT ??1?$reverse_iterator@V?$_List_const_iterator@V?$_List_val@U?$_List_simple_types@PAV?$Goal@VRaven_Bot@@@@@std@@@std@@@std@@@std@@QAE@XZ
_TEXT	SEGMENT
_this$ = -4						; size = 4
??1?$reverse_iterator@V?$_List_const_iterator@V?$_List_val@U?$_List_simple_types@PAV?$Goal@VRaven_Bot@@@@@std@@@std@@@std@@@std@@QAE@XZ PROC ; std::reverse_iterator<std::_List_const_iterator<std::_List_val<std::_List_simple_types<Goal<Raven_Bot> *> > > >::~reverse_iterator<std::_List_const_iterator<std::_List_val<std::_List_simple_types<Goal<Raven_Bot> *> > > >, COMDAT
; _this$ = ecx
	push	ebp
	mov	ebp, esp
	push	ecx
	mov	DWORD PTR [ebp-4], -858993460		; ccccccccH
	mov	DWORD PTR _this$[ebp], ecx
	mov	ecx, DWORD PTR _this$[ebp]
	call	??1?$_List_const_iterator@V?$_List_val@U?$_List_simple_types@PAV?$Goal@VRaven_Bot@@@@@std@@@std@@@std@@QAE@XZ
	add	esp, 4
	cmp	ebp, esp
	call	__RTC_CheckEsp
	mov	esp, ebp
	pop	ebp
	ret	0
??1?$reverse_iterator@V?$_List_const_iterator@V?$_List_val@U?$_List_simple_types@PAV?$Goal@VRaven_Bot@@@@@std@@@std@@@std@@@std@@QAE@XZ ENDP ; std::reverse_iterator<std::_List_const_iterator<std::_List_val<std::_List_simple_types<Goal<Raven_Bot> *> > > >::~reverse_iterator<std::_List_const_iterator<std::_List_val<std::_List_simple_types<Goal<Raven_Bot> *> > > >
_TEXT	ENDS
; Function compile flags: /Odtp /RTCsu
; File d:\microsoft visual studio 14.0\vc\include\xutility
;	COMDAT ??E?$reverse_iterator@V?$_List_const_iterator@V?$_List_val@U?$_List_simple_types@PAV?$Goal@VRaven_Bot@@@@@std@@@std@@@std@@@std@@QAEAAV01@XZ
_TEXT	SEGMENT
_this$ = -4						; size = 4
??E?$reverse_iterator@V?$_List_const_iterator@V?$_List_val@U?$_List_simple_types@PAV?$Goal@VRaven_Bot@@@@@std@@@std@@@std@@@std@@QAEAAV01@XZ PROC ; std::reverse_iterator<std::_List_const_iterator<std::_List_val<std::_List_simple_types<Goal<Raven_Bot> *> > > >::operator++, COMDAT
; _this$ = ecx

; 1085 : 		{	// preincrement

	push	ebp
	mov	ebp, esp
	push	ecx
	mov	DWORD PTR [ebp-4], -858993460		; ccccccccH
	mov	DWORD PTR _this$[ebp], ecx

; 1086 : 		--current;

	mov	ecx, DWORD PTR _this$[ebp]
	call	??F?$_List_const_iterator@V?$_List_val@U?$_List_simple_types@PAV?$Goal@VRaven_Bot@@@@@std@@@std@@@std@@QAEAAV01@XZ ; std::_List_const_iterator<std::_List_val<std::_List_simple_types<Goal<Raven_Bot> *> > >::operator--

; 1087 : 		return (*this);

	mov	eax, DWORD PTR _this$[ebp]

; 1088 : 		}

	add	esp, 4
	cmp	ebp, esp
	call	__RTC_CheckEsp
	mov	esp, ebp
	pop	ebp
	ret	0
??E?$reverse_iterator@V?$_List_const_iterator@V?$_List_val@U?$_List_simple_types@PAV?$Goal@VRaven_Bot@@@@@std@@@std@@@std@@@std@@QAEAAV01@XZ ENDP ; std::reverse_iterator<std::_List_const_iterator<std::_List_val<std::_List_simple_types<Goal<Raven_Bot> *> > > >::operator++
_TEXT	ENDS
; Function compile flags: /Odtp /RTCsu
; File d:\microsoft visual studio 14.0\vc\include\xutility
;	COMDAT ??D?$reverse_iterator@V?$_List_const_iterator@V?$_List_val@U?$_List_simple_types@PAV?$Goal@VRaven_Bot@@@@@std@@@std@@@std@@@std@@QBEABQAV?$Goal@VRaven_Bot@@@@XZ
_TEXT	SEGMENT
$T2 = -40						; size = 4
__Tmp$ = -32						; size = 12
_this$ = -16						; size = 4
__$EHRec$ = -12						; size = 12
??D?$reverse_iterator@V?$_List_const_iterator@V?$_List_val@U?$_List_simple_types@PAV?$Goal@VRaven_Bot@@@@@std@@@std@@@std@@@std@@QBEABQAV?$Goal@VRaven_Bot@@@@XZ PROC ; std::reverse_iterator<std::_List_const_iterator<std::_List_val<std::_List_simple_types<Goal<Raven_Bot> *> > > >::operator*, COMDAT
; _this$ = ecx

; 1074 : 		{	// return designated value

	push	ebp
	mov	ebp, esp
	push	-1
	push	__ehhandler$??D?$reverse_iterator@V?$_List_const_iterator@V?$_List_val@U?$_List_simple_types@PAV?$Goal@VRaven_Bot@@@@@std@@@std@@@std@@@std@@QBEABQAV?$Goal@VRaven_Bot@@@@XZ
	mov	eax, DWORD PTR fs:0
	push	eax
	sub	esp, 28					; 0000001cH
	mov	eax, -858993460				; ccccccccH
	mov	DWORD PTR [ebp-40], eax
	mov	DWORD PTR [ebp-36], eax
	mov	DWORD PTR [ebp-32], eax
	mov	DWORD PTR [ebp-28], eax
	mov	DWORD PTR [ebp-24], eax
	mov	DWORD PTR [ebp-20], eax
	mov	DWORD PTR [ebp-16], eax
	mov	eax, DWORD PTR ___security_cookie
	xor	eax, ebp
	push	eax
	lea	eax, DWORD PTR __$EHRec$[ebp]
	mov	DWORD PTR fs:0, eax
	mov	DWORD PTR _this$[ebp], ecx

; 1075 : 		_RanIt _Tmp = current;

	mov	eax, DWORD PTR _this$[ebp]
	push	eax
	lea	ecx, DWORD PTR __Tmp$[ebp]
	call	??0?$_List_const_iterator@V?$_List_val@U?$_List_simple_types@PAV?$Goal@VRaven_Bot@@@@@std@@@std@@@std@@QAE@ABV01@@Z
	mov	DWORD PTR __$EHRec$[ebp+8], 0

; 1076 : 		return (*--_Tmp);

	lea	ecx, DWORD PTR __Tmp$[ebp]
	call	??F?$_List_const_iterator@V?$_List_val@U?$_List_simple_types@PAV?$Goal@VRaven_Bot@@@@@std@@@std@@@std@@QAEAAV01@XZ ; std::_List_const_iterator<std::_List_val<std::_List_simple_types<Goal<Raven_Bot> *> > >::operator--
	mov	ecx, eax
	call	??D?$_List_const_iterator@V?$_List_val@U?$_List_simple_types@PAV?$Goal@VRaven_Bot@@@@@std@@@std@@@std@@QBEABQAV?$Goal@VRaven_Bot@@@@XZ ; std::_List_const_iterator<std::_List_val<std::_List_simple_types<Goal<Raven_Bot> *> > >::operator*
	mov	DWORD PTR $T2[ebp], eax
	mov	DWORD PTR __$EHRec$[ebp+8], -1
	lea	ecx, DWORD PTR __Tmp$[ebp]
	call	??1?$_List_const_iterator@V?$_List_val@U?$_List_simple_types@PAV?$Goal@VRaven_Bot@@@@@std@@@std@@@std@@QAE@XZ
	mov	eax, DWORD PTR $T2[ebp]

; 1077 : 		}

	push	edx
	mov	ecx, ebp
	push	eax
	lea	edx, DWORD PTR $LN7@operator
	call	@_RTC_CheckStackVars@8
	pop	eax
	pop	edx
	mov	ecx, DWORD PTR __$EHRec$[ebp]
	mov	DWORD PTR fs:0, ecx
	pop	ecx
	add	esp, 40					; 00000028H
	cmp	ebp, esp
	call	__RTC_CheckEsp
	mov	esp, ebp
	pop	ebp
	ret	0
	npad	1
$LN7@operator:
	DD	1
	DD	$LN6@operator
$LN6@operator:
	DD	-32					; ffffffe0H
	DD	12					; 0000000cH
	DD	$LN4@operator
$LN4@operator:
	DB	95					; 0000005fH
	DB	84					; 00000054H
	DB	109					; 0000006dH
	DB	112					; 00000070H
	DB	0
_TEXT	ENDS
;	COMDAT text$x
text$x	SEGMENT
__unwindfunclet$??D?$reverse_iterator@V?$_List_const_iterator@V?$_List_val@U?$_List_simple_types@PAV?$Goal@VRaven_Bot@@@@@std@@@std@@@std@@@std@@QBEABQAV?$Goal@VRaven_Bot@@@@XZ$0:
	lea	ecx, DWORD PTR __Tmp$[ebp]
	jmp	??1?$_List_const_iterator@V?$_List_val@U?$_List_simple_types@PAV?$Goal@VRaven_Bot@@@@@std@@@std@@@std@@QAE@XZ
__ehhandler$??D?$reverse_iterator@V?$_List_const_iterator@V?$_List_val@U?$_List_simple_types@PAV?$Goal@VRaven_Bot@@@@@std@@@std@@@std@@@std@@QBEABQAV?$Goal@VRaven_Bot@@@@XZ:
	mov	edx, DWORD PTR [esp+8]
	lea	eax, DWORD PTR [edx+12]
	mov	ecx, DWORD PTR [edx-32]
	xor	ecx, eax
	call	@__security_check_cookie@4
	mov	eax, OFFSET __ehfuncinfo$??D?$reverse_iterator@V?$_List_const_iterator@V?$_List_val@U?$_List_simple_types@PAV?$Goal@VRaven_Bot@@@@@std@@@std@@@std@@@std@@QBEABQAV?$Goal@VRaven_Bot@@@@XZ
	jmp	___CxxFrameHandler3
text$x	ENDS
??D?$reverse_iterator@V?$_List_const_iterator@V?$_List_val@U?$_List_simple_types@PAV?$Goal@VRaven_Bot@@@@@std@@@std@@@std@@@std@@QBEABQAV?$Goal@VRaven_Bot@@@@XZ ENDP ; std::reverse_iterator<std::_List_const_iterator<std::_List_val<std::_List_simple_types<Goal<Raven_Bot> *> > > >::operator*
; Function compile flags: /Odtp /RTCsu
; File d:\microsoft visual studio 14.0\vc\include\xutility
;	COMDAT ?base@?$reverse_iterator@V?$_List_const_iterator@V?$_List_val@U?$_List_simple_types@PAV?$Goal@VRaven_Bot@@@@@std@@@std@@@std@@@std@@QBE?AV?$_List_const_iterator@V?$_List_val@U?$_List_simple_types@PAV?$Goal@VRaven_Bot@@@@@std@@@std@@@2@XZ
_TEXT	SEGMENT
$T1 = -8						; size = 4
_this$ = -4						; size = 4
___$ReturnUdt$ = 8					; size = 4
?base@?$reverse_iterator@V?$_List_const_iterator@V?$_List_val@U?$_List_simple_types@PAV?$Goal@VRaven_Bot@@@@@std@@@std@@@std@@@std@@QBE?AV?$_List_const_iterator@V?$_List_val@U?$_List_simple_types@PAV?$Goal@VRaven_Bot@@@@@std@@@std@@@2@XZ PROC ; std::reverse_iterator<std::_List_const_iterator<std::_List_val<std::_List_simple_types<Goal<Raven_Bot> *> > > >::base, COMDAT
; _this$ = ecx

; 1069 : 		{	// return wrapped iterator

	push	ebp
	mov	ebp, esp
	sub	esp, 8
	mov	DWORD PTR [ebp-8], -858993460		; ccccccccH
	mov	DWORD PTR [ebp-4], -858993460		; ccccccccH
	mov	DWORD PTR _this$[ebp], ecx
	mov	DWORD PTR $T1[ebp], 0

; 1070 : 		return (current);

	mov	eax, DWORD PTR _this$[ebp]
	push	eax
	mov	ecx, DWORD PTR ___$ReturnUdt$[ebp]
	call	??0?$_List_const_iterator@V?$_List_val@U?$_List_simple_types@PAV?$Goal@VRaven_Bot@@@@@std@@@std@@@std@@QAE@ABV01@@Z
	mov	ecx, DWORD PTR $T1[ebp]
	or	ecx, 1
	mov	DWORD PTR $T1[ebp], ecx
	mov	eax, DWORD PTR ___$ReturnUdt$[ebp]

; 1071 : 		}

	add	esp, 8
	cmp	ebp, esp
	call	__RTC_CheckEsp
	mov	esp, ebp
	pop	ebp
	ret	4
?base@?$reverse_iterator@V?$_List_const_iterator@V?$_List_val@U?$_List_simple_types@PAV?$Goal@VRaven_Bot@@@@@std@@@std@@@std@@@std@@QBE?AV?$_List_const_iterator@V?$_List_val@U?$_List_simple_types@PAV?$Goal@VRaven_Bot@@@@@std@@@std@@@2@XZ ENDP ; std::reverse_iterator<std::_List_const_iterator<std::_List_val<std::_List_simple_types<Goal<Raven_Bot> *> > > >::base
_TEXT	ENDS
; Function compile flags: /Odtp /RTCsu
; File d:\microsoft visual studio 14.0\vc\include\xutility
;	COMDAT ??0?$reverse_iterator@V?$_List_const_iterator@V?$_List_val@U?$_List_simple_types@PAV?$Goal@VRaven_Bot@@@@@std@@@std@@@std@@@std@@QAE@V?$_List_const_iterator@V?$_List_val@U?$_List_simple_types@PAV?$Goal@VRaven_Bot@@@@@std@@@std@@@1@@Z
_TEXT	SEGMENT
_this$ = -16						; size = 4
__$EHRec$ = -12						; size = 12
__Right$ = 8						; size = 12
??0?$reverse_iterator@V?$_List_const_iterator@V?$_List_val@U?$_List_simple_types@PAV?$Goal@VRaven_Bot@@@@@std@@@std@@@std@@@std@@QAE@V?$_List_const_iterator@V?$_List_val@U?$_List_simple_types@PAV?$Goal@VRaven_Bot@@@@@std@@@std@@@1@@Z PROC ; std::reverse_iterator<std::_List_const_iterator<std::_List_val<std::_List_simple_types<Goal<Raven_Bot> *> > > >::reverse_iterator<std::_List_const_iterator<std::_List_val<std::_List_simple_types<Goal<Raven_Bot> *> > > >, COMDAT
; _this$ = ecx

; 1052 : 		{	// construct wrapped iterator from _Right

	push	ebp
	mov	ebp, esp
	push	-1
	push	__ehhandler$??0?$reverse_iterator@V?$_List_const_iterator@V?$_List_val@U?$_List_simple_types@PAV?$Goal@VRaven_Bot@@@@@std@@@std@@@std@@@std@@QAE@V?$_List_const_iterator@V?$_List_val@U?$_List_simple_types@PAV?$Goal@VRaven_Bot@@@@@std@@@std@@@1@@Z
	mov	eax, DWORD PTR fs:0
	push	eax
	push	ecx
	mov	DWORD PTR [ebp-16], -858993460		; ccccccccH
	mov	eax, DWORD PTR ___security_cookie
	xor	eax, ebp
	push	eax
	lea	eax, DWORD PTR __$EHRec$[ebp]
	mov	DWORD PTR fs:0, eax
	mov	DWORD PTR _this$[ebp], ecx
	mov	DWORD PTR __$EHRec$[ebp+8], 0

; 1051 : 		: current(_Right)

	lea	eax, DWORD PTR __Right$[ebp]
	push	eax
	mov	ecx, DWORD PTR _this$[ebp]
	call	??0?$_List_const_iterator@V?$_List_val@U?$_List_simple_types@PAV?$Goal@VRaven_Bot@@@@@std@@@std@@@std@@QAE@ABV01@@Z

; 1053 : 		}

	mov	DWORD PTR __$EHRec$[ebp+8], -1
	lea	ecx, DWORD PTR __Right$[ebp]
	call	??1?$_List_const_iterator@V?$_List_val@U?$_List_simple_types@PAV?$Goal@VRaven_Bot@@@@@std@@@std@@@std@@QAE@XZ
	mov	eax, DWORD PTR _this$[ebp]
	mov	ecx, DWORD PTR __$EHRec$[ebp]
	mov	DWORD PTR fs:0, ecx
	pop	ecx
	add	esp, 16					; 00000010H
	cmp	ebp, esp
	call	__RTC_CheckEsp
	mov	esp, ebp
	pop	ebp
	ret	12					; 0000000cH
_TEXT	ENDS
;	COMDAT text$x
text$x	SEGMENT
__unwindfunclet$??0?$reverse_iterator@V?$_List_const_iterator@V?$_List_val@U?$_List_simple_types@PAV?$Goal@VRaven_Bot@@@@@std@@@std@@@std@@@std@@QAE@V?$_List_const_iterator@V?$_List_val@U?$_List_simple_types@PAV?$Goal@VRaven_Bot@@@@@std@@@std@@@1@@Z$0:
	lea	ecx, DWORD PTR __Right$[ebp]
	jmp	??1?$_List_const_iterator@V?$_List_val@U?$_List_simple_types@PAV?$Goal@VRaven_Bot@@@@@std@@@std@@@std@@QAE@XZ
__ehhandler$??0?$reverse_iterator@V?$_List_const_iterator@V?$_List_val@U?$_List_simple_types@PAV?$Goal@VRaven_Bot@@@@@std@@@std@@@std@@@std@@QAE@V?$_List_const_iterator@V?$_List_val@U?$_List_simple_types@PAV?$Goal@VRaven_Bot@@@@@std@@@std@@@1@@Z:
	mov	edx, DWORD PTR [esp+8]
	lea	eax, DWORD PTR [edx+12]
	mov	ecx, DWORD PTR [edx-8]
	xor	ecx, eax
	call	@__security_check_cookie@4
	mov	eax, OFFSET __ehfuncinfo$??0?$reverse_iterator@V?$_List_const_iterator@V?$_List_val@U?$_List_simple_types@PAV?$Goal@VRaven_Bot@@@@@std@@@std@@@std@@@std@@QAE@V?$_List_const_iterator@V?$_List_val@U?$_List_simple_types@PAV?$Goal@VRaven_Bot@@@@@std@@@std@@@1@@Z
	jmp	___CxxFrameHandler3
text$x	ENDS
??0?$reverse_iterator@V?$_List_const_iterator@V?$_List_val@U?$_List_simple_types@PAV?$Goal@VRaven_Bot@@@@@std@@@std@@@std@@@std@@QAE@V?$_List_const_iterator@V?$_List_val@U?$_List_simple_types@PAV?$Goal@VRaven_Bot@@@@@std@@@std@@@1@@Z ENDP ; std::reverse_iterator<std::_List_const_iterator<std::_List_val<std::_List_simple_types<Goal<Raven_Bot> *> > > >::reverse_iterator<std::_List_const_iterator<std::_List_val<std::_List_simple_types<Goal<Raven_Bot> *> > > >
; Function compile flags: /Odtp /RTCsu
; File d:\microsoft visual studio 14.0\vc\include\xutility
;	COMDAT ??0?$reverse_iterator@V?$_List_const_iterator@V?$_List_val@U?$_List_simple_types@PAV?$Goal@VRaven_Bot@@@@@std@@@std@@@std@@@std@@QAE@XZ
_TEXT	SEGMENT
_this$ = -4						; size = 4
??0?$reverse_iterator@V?$_List_const_iterator@V?$_List_val@U?$_List_simple_types@PAV?$Goal@VRaven_Bot@@@@@std@@@std@@@std@@@std@@QAE@XZ PROC ; std::reverse_iterator<std::_List_const_iterator<std::_List_val<std::_List_simple_types<Goal<Raven_Bot> *> > > >::reverse_iterator<std::_List_const_iterator<std::_List_val<std::_List_simple_types<Goal<Raven_Bot> *> > > >, COMDAT
; _this$ = ecx

; 1047 : 		{	// construct with value-initialized wrapped iterator

	push	ebp
	mov	ebp, esp
	push	ecx
	mov	DWORD PTR [ebp-4], -858993460		; ccccccccH
	mov	DWORD PTR _this$[ebp], ecx

; 1046 : 		: current()

	mov	ecx, DWORD PTR _this$[ebp]
	call	??0?$_List_const_iterator@V?$_List_val@U?$_List_simple_types@PAV?$Goal@VRaven_Bot@@@@@std@@@std@@@std@@QAE@XZ ; std::_List_const_iterator<std::_List_val<std::_List_simple_types<Goal<Raven_Bot> *> > >::_List_const_iterator<std::_List_val<std::_List_simple_types<Goal<Raven_Bot> *> > >

; 1048 : 		}

	mov	eax, DWORD PTR _this$[ebp]
	add	esp, 4
	cmp	ebp, esp
	call	__RTC_CheckEsp
	mov	esp, ebp
	pop	ebp
	ret	0
??0?$reverse_iterator@V?$_List_const_iterator@V?$_List_val@U?$_List_simple_types@PAV?$Goal@VRaven_Bot@@@@@std@@@std@@@std@@@std@@QAE@XZ ENDP ; std::reverse_iterator<std::_List_const_iterator<std::_List_val<std::_List_simple_types<Goal<Raven_Bot> *> > > >::reverse_iterator<std::_List_const_iterator<std::_List_val<std::_List_simple_types<Goal<Raven_Bot> *> > > >
_TEXT	ENDS
; Function compile flags: /Odtp /RTCsu
;	COMDAT ??1?$_List_iterator@V?$_List_val@U?$_List_simple_types@PAV?$Goal@VRaven_Bot@@@@@std@@@std@@@std@@QAE@XZ
_TEXT	SEGMENT
_this$ = -4						; size = 4
??1?$_List_iterator@V?$_List_val@U?$_List_simple_types@PAV?$Goal@VRaven_Bot@@@@@std@@@std@@@std@@QAE@XZ PROC ; std::_List_iterator<std::_List_val<std::_List_simple_types<Goal<Raven_Bot> *> > >::~_List_iterator<std::_List_val<std::_List_simple_types<Goal<Raven_Bot> *> > >, COMDAT
; _this$ = ecx
	push	ebp
	mov	ebp, esp
	push	ecx
	mov	DWORD PTR [ebp-4], -858993460		; ccccccccH
	mov	DWORD PTR _this$[ebp], ecx
	mov	ecx, DWORD PTR _this$[ebp]
	call	??1?$_List_const_iterator@V?$_List_val@U?$_List_simple_types@PAV?$Goal@VRaven_Bot@@@@@std@@@std@@@std@@QAE@XZ
	add	esp, 4
	cmp	ebp, esp
	call	__RTC_CheckEsp
	mov	esp, ebp
	pop	ebp
	ret	0
??1?$_List_iterator@V?$_List_val@U?$_List_simple_types@PAV?$Goal@VRaven_Bot@@@@@std@@@std@@@std@@QAE@XZ ENDP ; std::_List_iterator<std::_List_val<std::_List_simple_types<Goal<Raven_Bot> *> > >::~_List_iterator<std::_List_val<std::_List_simple_types<Goal<Raven_Bot> *> > >
_TEXT	ENDS
; Function compile flags: /Odtp /RTCsu
; File d:\microsoft visual studio 14.0\vc\include\list
;	COMDAT ??E?$_List_iterator@V?$_List_val@U?$_List_simple_types@PAV?$Goal@VRaven_Bot@@@@@std@@@std@@@std@@QAEAAV01@XZ
_TEXT	SEGMENT
_this$ = -4						; size = 4
??E?$_List_iterator@V?$_List_val@U?$_List_simple_types@PAV?$Goal@VRaven_Bot@@@@@std@@@std@@@std@@QAEAAV01@XZ PROC ; std::_List_iterator<std::_List_val<std::_List_simple_types<Goal<Raven_Bot> *> > >::operator++, COMDAT
; _this$ = ecx

; 370  : 		{	// preincrement

	push	ebp
	mov	ebp, esp
	push	ecx
	mov	DWORD PTR [ebp-4], -858993460		; ccccccccH
	mov	DWORD PTR _this$[ebp], ecx

; 371  : 		++(*(_Mybase *)this);

	mov	ecx, DWORD PTR _this$[ebp]
	call	??E?$_List_const_iterator@V?$_List_val@U?$_List_simple_types@PAV?$Goal@VRaven_Bot@@@@@std@@@std@@@std@@QAEAAV01@XZ ; std::_List_const_iterator<std::_List_val<std::_List_simple_types<Goal<Raven_Bot> *> > >::operator++

; 372  : 		return (*this);

	mov	eax, DWORD PTR _this$[ebp]

; 373  : 		}

	add	esp, 4
	cmp	ebp, esp
	call	__RTC_CheckEsp
	mov	esp, ebp
	pop	ebp
	ret	0
??E?$_List_iterator@V?$_List_val@U?$_List_simple_types@PAV?$Goal@VRaven_Bot@@@@@std@@@std@@@std@@QAEAAV01@XZ ENDP ; std::_List_iterator<std::_List_val<std::_List_simple_types<Goal<Raven_Bot> *> > >::operator++
_TEXT	ENDS
; Function compile flags: /Odtp /RTCsu
; File d:\microsoft visual studio 14.0\vc\include\list
;	COMDAT ??D?$_List_iterator@V?$_List_val@U?$_List_simple_types@PAV?$Goal@VRaven_Bot@@@@@std@@@std@@@std@@QBEAAPAV?$Goal@VRaven_Bot@@@@XZ
_TEXT	SEGMENT
_this$ = -4						; size = 4
??D?$_List_iterator@V?$_List_val@U?$_List_simple_types@PAV?$Goal@VRaven_Bot@@@@@std@@@std@@@std@@QBEAAPAV?$Goal@VRaven_Bot@@@@XZ PROC ; std::_List_iterator<std::_List_val<std::_List_simple_types<Goal<Raven_Bot> *> > >::operator*, COMDAT
; _this$ = ecx

; 360  : 		{	// return designated value

	push	ebp
	mov	ebp, esp
	push	ecx
	mov	DWORD PTR [ebp-4], -858993460		; ccccccccH
	mov	DWORD PTR _this$[ebp], ecx

; 361  : 		return ((reference)**(_Mybase *)this);

	mov	ecx, DWORD PTR _this$[ebp]
	call	??D?$_List_const_iterator@V?$_List_val@U?$_List_simple_types@PAV?$Goal@VRaven_Bot@@@@@std@@@std@@@std@@QBEABQAV?$Goal@VRaven_Bot@@@@XZ ; std::_List_const_iterator<std::_List_val<std::_List_simple_types<Goal<Raven_Bot> *> > >::operator*

; 362  : 		}

	add	esp, 4
	cmp	ebp, esp
	call	__RTC_CheckEsp
	mov	esp, ebp
	pop	ebp
	ret	0
??D?$_List_iterator@V?$_List_val@U?$_List_simple_types@PAV?$Goal@VRaven_Bot@@@@@std@@@std@@@std@@QBEAAPAV?$Goal@VRaven_Bot@@@@XZ ENDP ; std::_List_iterator<std::_List_val<std::_List_simple_types<Goal<Raven_Bot> *> > >::operator*
_TEXT	ENDS
; Function compile flags: /Odtp /RTCsu
; File d:\microsoft visual studio 14.0\vc\include\list
;	COMDAT ??0?$_List_iterator@V?$_List_val@U?$_List_simple_types@PAV?$Goal@VRaven_Bot@@@@@std@@@std@@@std@@QAE@PAU?$_List_node@PAV?$Goal@VRaven_Bot@@@@PAX@1@PBV?$_List_val@U?$_List_simple_types@PAV?$Goal@VRaven_Bot@@@@@std@@@1@@Z
_TEXT	SEGMENT
_this$ = -4						; size = 4
__Pnode$ = 8						; size = 4
__Plist$ = 12						; size = 4
??0?$_List_iterator@V?$_List_val@U?$_List_simple_types@PAV?$Goal@VRaven_Bot@@@@@std@@@std@@@std@@QAE@PAU?$_List_node@PAV?$Goal@VRaven_Bot@@@@PAX@1@PBV?$_List_val@U?$_List_simple_types@PAV?$Goal@VRaven_Bot@@@@@std@@@1@@Z PROC ; std::_List_iterator<std::_List_val<std::_List_simple_types<Goal<Raven_Bot> *> > >::_List_iterator<std::_List_val<std::_List_simple_types<Goal<Raven_Bot> *> > >, COMDAT
; _this$ = ecx

; 343  : 		{	// construct with node pointer _Pnode

	push	ebp
	mov	ebp, esp
	push	ecx
	mov	DWORD PTR [ebp-4], -858993460		; ccccccccH
	mov	DWORD PTR _this$[ebp], ecx

; 342  : 		: _Mybase(_Pnode, _Plist)

	mov	eax, DWORD PTR __Plist$[ebp]
	push	eax
	mov	ecx, DWORD PTR __Pnode$[ebp]
	push	ecx
	mov	ecx, DWORD PTR _this$[ebp]
	call	??0?$_List_const_iterator@V?$_List_val@U?$_List_simple_types@PAV?$Goal@VRaven_Bot@@@@@std@@@std@@@std@@QAE@PAU?$_List_node@PAV?$Goal@VRaven_Bot@@@@PAX@1@PBV?$_List_val@U?$_List_simple_types@PAV?$Goal@VRaven_Bot@@@@@std@@@1@@Z ; std::_List_const_iterator<std::_List_val<std::_List_simple_types<Goal<Raven_Bot> *> > >::_List_const_iterator<std::_List_val<std::_List_simple_types<Goal<Raven_Bot> *> > >

; 344  : 		}

	mov	eax, DWORD PTR _this$[ebp]
	add	esp, 4
	cmp	ebp, esp
	call	__RTC_CheckEsp
	mov	esp, ebp
	pop	ebp
	ret	8
??0?$_List_iterator@V?$_List_val@U?$_List_simple_types@PAV?$Goal@VRaven_Bot@@@@@std@@@std@@@std@@QAE@PAU?$_List_node@PAV?$Goal@VRaven_Bot@@@@PAX@1@PBV?$_List_val@U?$_List_simple_types@PAV?$Goal@VRaven_Bot@@@@@std@@@1@@Z ENDP ; std::_List_iterator<std::_List_val<std::_List_simple_types<Goal<Raven_Bot> *> > >::_List_iterator<std::_List_val<std::_List_simple_types<Goal<Raven_Bot> *> > >
_TEXT	ENDS
; Function compile flags: /Odtp /RTCsu
; File d:\microsoft visual studio 14.0\vc\include\xmemory0
;	COMDAT ??$_Allocate@U?$_List_node@PAV?$Goal@VRaven_Bot@@@@PAX@std@@@std@@YAPAU?$_List_node@PAV?$Goal@VRaven_Bot@@@@PAX@0@IPAU10@_N@Z
_TEXT	SEGMENT
__Ptr_container$1 = -16					; size = 4
__Block_size$2 = -12					; size = 4
__User_size$ = -8					; size = 4
__Ptr$ = -4						; size = 4
__Count$ = 8						; size = 4
___formal$ = 12						; size = 4
__Try_aligned_allocation$ = 16				; size = 1
??$_Allocate@U?$_List_node@PAV?$Goal@VRaven_Bot@@@@PAX@std@@@std@@YAPAU?$_List_node@PAV?$Goal@VRaven_Bot@@@@PAX@0@IPAU10@_N@Z PROC ; std::_Allocate<std::_List_node<Goal<Raven_Bot> *,void *> >, COMDAT

; 54   : 	{	// allocate storage for _Count elements of type _Ty

	push	ebp
	mov	ebp, esp
	sub	esp, 16					; 00000010H
	mov	eax, -858993460				; ccccccccH
	mov	DWORD PTR [ebp-16], eax
	mov	DWORD PTR [ebp-12], eax
	mov	DWORD PTR [ebp-8], eax
	mov	DWORD PTR [ebp-4], eax

; 55   : 	void *_Ptr = 0;

	mov	DWORD PTR __Ptr$[ebp], 0

; 56   : 
; 57   : 	if (_Count == 0)

	cmp	DWORD PTR __Count$[ebp], 0
	jne	SHORT $LN2@Allocate

; 58   : 		return (static_cast<_Ty *>(_Ptr));

	mov	eax, DWORD PTR __Ptr$[ebp]
	jmp	$LN9@Allocate
$LN2@Allocate:

; 59   : 
; 60   : 	// check overflow of multiply
; 61   : 	if ((size_t)(-1) / sizeof (_Ty) < _Count)

	cmp	DWORD PTR __Count$[ebp], 357913941	; 15555555H
	jbe	SHORT $LN3@Allocate

; 62   : 		_Xbad_alloc();	// report no memory

	call	?_Xbad_alloc@std@@YAXXZ			; std::_Xbad_alloc
$LN3@Allocate:

; 63   : 	const size_t _User_size = _Count * sizeof (_Ty);

	imul	eax, DWORD PTR __Count$[ebp], 12
	mov	DWORD PTR __User_size$[ebp], eax

; 64   : 
; 65   :  #if defined(_M_IX86) || defined(_M_X64)
; 66   : 	if (_Try_aligned_allocation
; 67   : 		&& _BIG_ALLOCATION_THRESHOLD <= _User_size)

	movzx	ecx, BYTE PTR __Try_aligned_allocation$[ebp]
	test	ecx, ecx
	je	$LN4@Allocate
	cmp	DWORD PTR __User_size$[ebp], 4096	; 00001000H
	jb	$LN4@Allocate

; 68   : 		{	// allocate large block
; 69   : 		static_assert(sizeof (void *) < _BIG_ALLOCATION_ALIGNMENT,
; 70   : 			"Big allocations should at least match vector register size");
; 71   : 		const size_t _Block_size = _NON_USER_SIZE + _User_size;

	mov	edx, DWORD PTR __User_size$[ebp]
	add	edx, 39					; 00000027H
	mov	DWORD PTR __Block_size$2[ebp], edx

; 72   : 		if (_Block_size <= _User_size)

	mov	eax, DWORD PTR __Block_size$2[ebp]
	cmp	eax, DWORD PTR __User_size$[ebp]
	ja	SHORT $LN6@Allocate

; 73   : 			_Xbad_alloc();	// report no memory

	call	?_Xbad_alloc@std@@YAXXZ			; std::_Xbad_alloc
$LN6@Allocate:

; 74   : 		const uintptr_t _Ptr_container =
; 75   : 			reinterpret_cast<uintptr_t>(::operator new(_Block_size));

	mov	ecx, DWORD PTR __Block_size$2[ebp]
	push	ecx
	call	??2@YAPAXI@Z				; operator new
	add	esp, 4
	mov	DWORD PTR __Ptr_container$1[ebp], eax

; 76   : 		_SCL_SECURE_ALWAYS_VALIDATE(_Ptr_container != 0);

	cmp	DWORD PTR __Ptr_container$1[ebp], 0
	jne	SHORT $LN7@Allocate
	mov	edx, OFFSET ??_C@_0BE@LMNLACIC@_Ptr_container?5?$CB?$DN?50?$AA@
	test	edx, edx
	je	SHORT $LN10@Allocate
	xor	eax, eax
	jne	SHORT $LN11@Allocate
$LN10@Allocate:
	push	OFFSET ??_C@_1DG@HGDKEBPG@?$AA?$CC?$AA_?$AAP?$AAt?$AAr?$AA_?$AAc?$AAo?$AAn?$AAt?$AAa?$AAi?$AAn?$AAe?$AAr?$AA?5?$AA?$CB?$AA?$DN?$AA?5?$AA0?$AA?$CC?$AA?5?$AA?$CG?$AA?$CG?$AA?5?$AA0?$AA?$AA@
	push	OFFSET ??_C@_17CNPHIMPH@?$AA?$CF?$AAl?$AAs?$AA?$AA@
	push	0
	push	76					; 0000004cH
	push	OFFSET ??_C@_1GI@MOGLCDAO@?$AAD?$AA?3?$AA?2?$AAM?$AAi?$AAc?$AAr?$AAo?$AAs?$AAo?$AAf?$AAt?$AA?5?$AAV?$AAi?$AAs?$AAu?$AAa?$AAl?$AA?5?$AAS?$AAt?$AAu?$AAd?$AAi?$AAo?$AA?5?$AA1?$AA4?$AA?4?$AA0?$AA?2@
	push	2
	call	__CrtDbgReportW
	add	esp, 24					; 00000018H
	cmp	eax, 1
	jne	SHORT $LN11@Allocate
	int	3
$LN11@Allocate:
	push	0
	push	76					; 0000004cH
	push	OFFSET ??_C@_1GI@MOGLCDAO@?$AAD?$AA?3?$AA?2?$AAM?$AAi?$AAc?$AAr?$AAo?$AAs?$AAo?$AAf?$AAt?$AA?5?$AAV?$AAi?$AAs?$AAu?$AAa?$AAl?$AA?5?$AAS?$AAt?$AAu?$AAd?$AAi?$AAo?$AA?5?$AA1?$AA4?$AA?4?$AA0?$AA?2@
	push	OFFSET ??_C@_1BO@NKFMJPA@?$AAs?$AAt?$AAd?$AA?3?$AA?3?$AA_?$AAA?$AAl?$AAl?$AAo?$AAc?$AAa?$AAt?$AAe?$AA?$AA@
	push	OFFSET ??_C@_1CG@JNLFBNGN@?$AA?$CC?$AAi?$AAn?$AAv?$AAa?$AAl?$AAi?$AAd?$AA?5?$AAa?$AAr?$AAg?$AAu?$AAm?$AAe?$AAn?$AAt?$AA?$CC?$AA?$AA@
	call	__invalid_parameter
	add	esp, 20					; 00000014H
$LN7@Allocate:

; 77   : 		_Ptr = reinterpret_cast<void *>((_Ptr_container + _NON_USER_SIZE)

	mov	edx, DWORD PTR __Ptr_container$1[ebp]
	add	edx, 39					; 00000027H
	and	edx, -32				; ffffffe0H
	mov	DWORD PTR __Ptr$[ebp], edx

; 78   : 			& ~(_BIG_ALLOCATION_ALIGNMENT - 1));
; 79   : 		static_cast<uintptr_t *>(_Ptr)[-1] = _Ptr_container;

	mov	eax, 4
	imul	ecx, eax, -1
	mov	edx, DWORD PTR __Ptr$[ebp]
	mov	eax, DWORD PTR __Ptr_container$1[ebp]
	mov	DWORD PTR [edx+ecx], eax

; 80   : 
; 81   :  #ifdef _DEBUG
; 82   : 		static_cast<uintptr_t *>(_Ptr)[-2] = _BIG_ALLOCATION_SENTINEL;

	mov	ecx, 4
	imul	edx, ecx, -2
	mov	eax, DWORD PTR __Ptr$[ebp]
	mov	DWORD PTR [eax+edx], -84215046		; fafafafaH

; 83   :  #endif /* _DEBUG */
; 84   : 		}
; 85   : 	else

	jmp	SHORT $LN5@Allocate
$LN4@Allocate:

; 86   :  #endif /* defined(_M_IX86) || defined(_M_X64) */
; 87   : 
; 88   : 		{	// allocate normal block
; 89   : 		_Ptr = ::operator new(_User_size);

	mov	ecx, DWORD PTR __User_size$[ebp]
	push	ecx
	call	??2@YAPAXI@Z				; operator new
	add	esp, 4
	mov	DWORD PTR __Ptr$[ebp], eax

; 90   : 		_SCL_SECURE_ALWAYS_VALIDATE(_Ptr != 0);

	cmp	DWORD PTR __Ptr$[ebp], 0
	jne	SHORT $LN5@Allocate
	mov	edx, OFFSET ??_C@_09GLJCAGLP@_Ptr?5?$CB?$DN?50?$AA@
	test	edx, edx
	je	SHORT $LN12@Allocate
	xor	eax, eax
	jne	SHORT $LN13@Allocate
$LN12@Allocate:
	push	OFFSET ??_C@_1CC@GKJLLHIM@?$AA?$CC?$AA_?$AAP?$AAt?$AAr?$AA?5?$AA?$CB?$AA?$DN?$AA?5?$AA0?$AA?$CC?$AA?5?$AA?$CG?$AA?$CG?$AA?5?$AA0?$AA?$AA@
	push	OFFSET ??_C@_17CNPHIMPH@?$AA?$CF?$AAl?$AAs?$AA?$AA@
	push	0
	push	90					; 0000005aH
	push	OFFSET ??_C@_1GI@MOGLCDAO@?$AAD?$AA?3?$AA?2?$AAM?$AAi?$AAc?$AAr?$AAo?$AAs?$AAo?$AAf?$AAt?$AA?5?$AAV?$AAi?$AAs?$AAu?$AAa?$AAl?$AA?5?$AAS?$AAt?$AAu?$AAd?$AAi?$AAo?$AA?5?$AA1?$AA4?$AA?4?$AA0?$AA?2@
	push	2
	call	__CrtDbgReportW
	add	esp, 24					; 00000018H
	cmp	eax, 1
	jne	SHORT $LN13@Allocate
	int	3
$LN13@Allocate:
	push	0
	push	90					; 0000005aH
	push	OFFSET ??_C@_1GI@MOGLCDAO@?$AAD?$AA?3?$AA?2?$AAM?$AAi?$AAc?$AAr?$AAo?$AAs?$AAo?$AAf?$AAt?$AA?5?$AAV?$AAi?$AAs?$AAu?$AAa?$AAl?$AA?5?$AAS?$AAt?$AAu?$AAd?$AAi?$AAo?$AA?5?$AA1?$AA4?$AA?4?$AA0?$AA?2@
	push	OFFSET ??_C@_1BO@NKFMJPA@?$AAs?$AAt?$AAd?$AA?3?$AA?3?$AA_?$AAA?$AAl?$AAl?$AAo?$AAc?$AAa?$AAt?$AAe?$AA?$AA@
	push	OFFSET ??_C@_1CG@JNLFBNGN@?$AA?$CC?$AAi?$AAn?$AAv?$AAa?$AAl?$AAi?$AAd?$AA?5?$AAa?$AAr?$AAg?$AAu?$AAm?$AAe?$AAn?$AAt?$AA?$CC?$AA?$AA@
	call	__invalid_parameter
	add	esp, 20					; 00000014H
$LN5@Allocate:

; 91   : 		}
; 92   : 	return (static_cast<_Ty *>(_Ptr));

	mov	eax, DWORD PTR __Ptr$[ebp]
$LN9@Allocate:

; 93   : 	}

	add	esp, 16					; 00000010H
	cmp	ebp, esp
	call	__RTC_CheckEsp
	mov	esp, ebp
	pop	ebp
	ret	0
??$_Allocate@U?$_List_node@PAV?$Goal@VRaven_Bot@@@@PAX@std@@@std@@YAPAU?$_List_node@PAV?$Goal@VRaven_Bot@@@@PAX@0@IPAU10@_N@Z ENDP ; std::_Allocate<std::_List_node<Goal<Raven_Bot> *,void *> >
_TEXT	ENDS
; Function compile flags: /Odtp /RTCsu
; File d:\microsoft visual studio 14.0\vc\include\xmemory0
;	COMDAT ??$construct@PAU?$_List_node@PAV?$Goal@VRaven_Bot@@@@PAX@std@@AAPAU12@@?$_Wrap_alloc@V?$allocator@U?$_List_node@PAV?$Goal@VRaven_Bot@@@@PAX@std@@@std@@@std@@QAEXPAPAU?$_List_node@PAV?$Goal@VRaven_Bot@@@@PAX@1@AAPAU21@@Z
_TEXT	SEGMENT
_this$ = -4						; size = 4
__Ptr$ = 8						; size = 4
_<_Args_0>$ = 12					; size = 4
??$construct@PAU?$_List_node@PAV?$Goal@VRaven_Bot@@@@PAX@std@@AAPAU12@@?$_Wrap_alloc@V?$allocator@U?$_List_node@PAV?$Goal@VRaven_Bot@@@@PAX@std@@@std@@@std@@QAEXPAPAU?$_List_node@PAV?$Goal@VRaven_Bot@@@@PAX@1@AAPAU21@@Z PROC ; std::_Wrap_alloc<std::allocator<std::_List_node<Goal<Raven_Bot> *,void *> > >::construct<std::_List_node<Goal<Raven_Bot> *,void *> *,std::_List_node<Goal<Raven_Bot> *,void *> * &>, COMDAT
; _this$ = ecx

; 918  : 		{	// construct _Ty(_Types...) at _Ptr

	push	ebp
	mov	ebp, esp
	push	ecx
	mov	DWORD PTR [ebp-4], -858993460		; ccccccccH
	mov	DWORD PTR _this$[ebp], ecx

; 919  : 		_Mytraits::construct(*this, _Ptr,

	mov	eax, DWORD PTR _<_Args_0>$[ebp]
	push	eax
	call	??$forward@AAPAU?$_List_node@PAV?$Goal@VRaven_Bot@@@@PAX@std@@@std@@YAAAPAU?$_List_node@PAV?$Goal@VRaven_Bot@@@@PAX@0@AAPAU10@@Z ; std::forward<std::_List_node<Goal<Raven_Bot> *,void *> * &>
	add	esp, 4
	push	eax
	mov	ecx, DWORD PTR __Ptr$[ebp]
	push	ecx
	mov	edx, DWORD PTR _this$[ebp]
	push	edx
	call	??$construct@PAU?$_List_node@PAV?$Goal@VRaven_Bot@@@@PAX@std@@AAPAU12@@?$allocator_traits@V?$allocator@U?$_List_node@PAV?$Goal@VRaven_Bot@@@@PAX@std@@@std@@@std@@SAXAAV?$allocator@U?$_List_node@PAV?$Goal@VRaven_Bot@@@@PAX@std@@@1@PAPAU?$_List_node@PAV?$Goal@VRaven_Bot@@@@PAX@1@AAPAU31@@Z ; std::allocator_traits<std::allocator<std::_List_node<Goal<Raven_Bot> *,void *> > >::construct<std::_List_node<Goal<Raven_Bot> *,void *> *,std::_List_node<Goal<Raven_Bot> *,void *> * &>
	add	esp, 12					; 0000000cH

; 920  : 			_STD forward<_Types>(_Args)...);
; 921  : 		}

	add	esp, 4
	cmp	ebp, esp
	call	__RTC_CheckEsp
	mov	esp, ebp
	pop	ebp
	ret	8
??$construct@PAU?$_List_node@PAV?$Goal@VRaven_Bot@@@@PAX@std@@AAPAU12@@?$_Wrap_alloc@V?$allocator@U?$_List_node@PAV?$Goal@VRaven_Bot@@@@PAX@std@@@std@@@std@@QAEXPAPAU?$_List_node@PAV?$Goal@VRaven_Bot@@@@PAX@1@AAPAU21@@Z ENDP ; std::_Wrap_alloc<std::allocator<std::_List_node<Goal<Raven_Bot> *,void *> > >::construct<std::_List_node<Goal<Raven_Bot> *,void *> *,std::_List_node<Goal<Raven_Bot> *,void *> * &>
_TEXT	ENDS
; Function compile flags: /Odtp /RTCsu
; File d:\microsoft visual studio 14.0\vc\include\xmemory0
;	COMDAT ??$_Deallocate@U?$_List_node@PAV?$Goal@VRaven_Bot@@@@PAX@std@@@std@@YAXPAU?$_List_node@PAV?$Goal@VRaven_Bot@@@@PAX@0@I@Z
_TEXT	SEGMENT
__Ptr_container$1 = -16					; size = 4
__Ptr_ptr$2 = -12					; size = 4
__Ptr_user$3 = -8					; size = 4
__User_size$ = -4					; size = 4
__Ptr$ = 8						; size = 4
__Count$ = 12						; size = 4
??$_Deallocate@U?$_List_node@PAV?$Goal@VRaven_Bot@@@@PAX@std@@@std@@YAXPAU?$_List_node@PAV?$Goal@VRaven_Bot@@@@PAX@0@I@Z PROC ; std::_Deallocate<std::_List_node<Goal<Raven_Bot> *,void *> >, COMDAT

; 98   : 	{	// deallocate storage for _Count elements of type _Ty

	push	ebp
	mov	ebp, esp
	sub	esp, 16					; 00000010H
	mov	eax, -858993460				; ccccccccH
	mov	DWORD PTR [ebp-16], eax
	mov	DWORD PTR [ebp-12], eax
	mov	DWORD PTR [ebp-8], eax
	mov	DWORD PTR [ebp-4], eax

; 99   :  #if defined(_M_IX86) || defined(_M_X64)
; 100  : 	_SCL_SECURE_ALWAYS_VALIDATE(_Count <= (size_t)(-1) / sizeof (_Ty));

	cmp	DWORD PTR __Count$[ebp], 357913941	; 15555555H
	jbe	SHORT $LN2@Deallocate
	mov	eax, OFFSET ??_C@_0CG@FHBDFCGK@_Count?5?$DM?$DN?5?$CIsize_t?$CJ?$CI?91?$CJ?5?1?5sizeof?5@
	test	eax, eax
	je	SHORT $LN10@Deallocate
	xor	ecx, ecx
	jne	SHORT $LN11@Deallocate
$LN10@Deallocate:
	push	OFFSET ??_C@_1FK@EJGLHMGC@?$AA?$CC?$AA_?$AAC?$AAo?$AAu?$AAn?$AAt?$AA?5?$AA?$DM?$AA?$DN?$AA?5?$AA?$CI?$AAs?$AAi?$AAz?$AAe?$AA_?$AAt?$AA?$CJ?$AA?$CI?$AA?9?$AA1?$AA?$CJ?$AA?5?$AA?1?$AA?5?$AAs?$AAi?$AAz?$AAe?$AAo?$AAf@
	push	OFFSET ??_C@_17CNPHIMPH@?$AA?$CF?$AAl?$AAs?$AA?$AA@
	push	0
	push	100					; 00000064H
	push	OFFSET ??_C@_1GI@MOGLCDAO@?$AAD?$AA?3?$AA?2?$AAM?$AAi?$AAc?$AAr?$AAo?$AAs?$AAo?$AAf?$AAt?$AA?5?$AAV?$AAi?$AAs?$AAu?$AAa?$AAl?$AA?5?$AAS?$AAt?$AAu?$AAd?$AAi?$AAo?$AA?5?$AA1?$AA4?$AA?4?$AA0?$AA?2@
	push	2
	call	__CrtDbgReportW
	add	esp, 24					; 00000018H
	cmp	eax, 1
	jne	SHORT $LN11@Deallocate
	int	3
$LN11@Deallocate:
	push	0
	push	100					; 00000064H
	push	OFFSET ??_C@_1GI@MOGLCDAO@?$AAD?$AA?3?$AA?2?$AAM?$AAi?$AAc?$AAr?$AAo?$AAs?$AAo?$AAf?$AAt?$AA?5?$AAV?$AAi?$AAs?$AAu?$AAa?$AAl?$AA?5?$AAS?$AAt?$AAu?$AAd?$AAi?$AAo?$AA?5?$AA1?$AA4?$AA?4?$AA0?$AA?2@
	push	OFFSET ??_C@_1CC@LOFJFFDB@?$AAs?$AAt?$AAd?$AA?3?$AA?3?$AA_?$AAD?$AAe?$AAa?$AAl?$AAl?$AAo?$AAc?$AAa?$AAt?$AAe?$AA?$AA@
	push	OFFSET ??_C@_1CG@JNLFBNGN@?$AA?$CC?$AAi?$AAn?$AAv?$AAa?$AAl?$AAi?$AAd?$AA?5?$AAa?$AAr?$AAg?$AAu?$AAm?$AAe?$AAn?$AAt?$AA?$CC?$AA?$AA@
	call	__invalid_parameter
	add	esp, 20					; 00000014H
$LN2@Deallocate:

; 101  : 	const size_t _User_size = _Count * sizeof (_Ty);

	imul	eax, DWORD PTR __Count$[ebp], 12
	mov	DWORD PTR __User_size$[ebp], eax

; 102  : 	if (_BIG_ALLOCATION_THRESHOLD <= _User_size)

	cmp	DWORD PTR __User_size$[ebp], 4096	; 00001000H
	jb	$LN3@Deallocate

; 103  : 		{	// deallocate large block
; 104  : 		const uintptr_t _Ptr_user = reinterpret_cast<uintptr_t>(_Ptr);

	mov	ecx, DWORD PTR __Ptr$[ebp]
	mov	DWORD PTR __Ptr_user$3[ebp], ecx

; 105  : 		_SCL_SECURE_ALWAYS_VALIDATE(

	mov	edx, DWORD PTR __Ptr_user$3[ebp]
	and	edx, 31					; 0000001fH
	je	SHORT $LN4@Deallocate
	mov	eax, OFFSET ??_C@_0DD@GBGGGKGG@?$CI_Ptr_user?5?$CG?5?$CI_BIG_ALLOCATION_AL@
	test	eax, eax
	je	SHORT $LN12@Deallocate
	xor	ecx, ecx
	jne	SHORT $LN13@Deallocate
$LN12@Deallocate:
	push	OFFSET ??_C@_1HE@CDMBFOKC@?$AA?$CC?$AA?$CI?$AA_?$AAP?$AAt?$AAr?$AA_?$AAu?$AAs?$AAe?$AAr?$AA?5?$AA?$CG?$AA?5?$AA?$CI?$AA_?$AAB?$AAI?$AAG?$AA_?$AAA?$AAL?$AAL?$AAO?$AAC?$AAA?$AAT?$AAI?$AAO?$AAN?$AA_?$AAA@
	push	OFFSET ??_C@_17CNPHIMPH@?$AA?$CF?$AAl?$AAs?$AA?$AA@
	push	0
	push	106					; 0000006aH
	push	OFFSET ??_C@_1GI@MOGLCDAO@?$AAD?$AA?3?$AA?2?$AAM?$AAi?$AAc?$AAr?$AAo?$AAs?$AAo?$AAf?$AAt?$AA?5?$AAV?$AAi?$AAs?$AAu?$AAa?$AAl?$AA?5?$AAS?$AAt?$AAu?$AAd?$AAi?$AAo?$AA?5?$AA1?$AA4?$AA?4?$AA0?$AA?2@
	push	2
	call	__CrtDbgReportW
	add	esp, 24					; 00000018H
	cmp	eax, 1
	jne	SHORT $LN13@Deallocate
	int	3
$LN13@Deallocate:
	push	0
	push	106					; 0000006aH
	push	OFFSET ??_C@_1GI@MOGLCDAO@?$AAD?$AA?3?$AA?2?$AAM?$AAi?$AAc?$AAr?$AAo?$AAs?$AAo?$AAf?$AAt?$AA?5?$AAV?$AAi?$AAs?$AAu?$AAa?$AAl?$AA?5?$AAS?$AAt?$AAu?$AAd?$AAi?$AAo?$AA?5?$AA1?$AA4?$AA?4?$AA0?$AA?2@
	push	OFFSET ??_C@_1CC@LOFJFFDB@?$AAs?$AAt?$AAd?$AA?3?$AA?3?$AA_?$AAD?$AAe?$AAa?$AAl?$AAl?$AAo?$AAc?$AAa?$AAt?$AAe?$AA?$AA@
	push	OFFSET ??_C@_1CG@JNLFBNGN@?$AA?$CC?$AAi?$AAn?$AAv?$AAa?$AAl?$AAi?$AAd?$AA?5?$AAa?$AAr?$AAg?$AAu?$AAm?$AAe?$AAn?$AAt?$AA?$CC?$AA?$AA@
	call	__invalid_parameter
	add	esp, 20					; 00000014H
$LN4@Deallocate:

; 106  : 			(_Ptr_user & (_BIG_ALLOCATION_ALIGNMENT - 1)) == 0);
; 107  : 		const uintptr_t _Ptr_ptr = _Ptr_user - sizeof(void *);

	mov	eax, DWORD PTR __Ptr_user$3[ebp]
	sub	eax, 4
	mov	DWORD PTR __Ptr_ptr$2[ebp], eax

; 108  : 		const uintptr_t _Ptr_container =
; 109  : 			*reinterpret_cast<uintptr_t *>(_Ptr_ptr);

	mov	ecx, DWORD PTR __Ptr_ptr$2[ebp]
	mov	edx, DWORD PTR [ecx]
	mov	DWORD PTR __Ptr_container$1[ebp], edx

; 110  : 
; 111  :  #ifdef _DEBUG
; 112  : 		// If the following asserts, it likely means that we are performing
; 113  : 		// an aligned delete on memory coming from an unaligned allocation.
; 114  : 		_SCL_SECURE_ALWAYS_VALIDATE(

	mov	eax, 4
	imul	ecx, eax, -1
	mov	edx, DWORD PTR __Ptr_ptr$2[ebp]
	cmp	DWORD PTR [edx+ecx], -84215046		; fafafafaH
	je	SHORT $LN5@Deallocate
	mov	eax, OFFSET ??_C@_0EI@NOJHEJCJ@reinterpret_cast?$DMuintptr_t?5?$CK?$DO?$CI_P@
	test	eax, eax
	je	SHORT $LN14@Deallocate
	xor	ecx, ecx
	jne	SHORT $LN15@Deallocate
$LN14@Deallocate:
	push	OFFSET ??_C@_1JO@EKLKIEHP@?$AA?$CC?$AAr?$AAe?$AAi?$AAn?$AAt?$AAe?$AAr?$AAp?$AAr?$AAe?$AAt?$AA_?$AAc?$AAa?$AAs?$AAt?$AA?$DM?$AAu?$AAi?$AAn?$AAt?$AAp?$AAt?$AAr?$AA_?$AAt?$AA?5?$AA?$CK?$AA?$DO?$AA?$CI?$AA_@
	push	OFFSET ??_C@_17CNPHIMPH@?$AA?$CF?$AAl?$AAs?$AA?$AA@
	push	0
	push	116					; 00000074H
	push	OFFSET ??_C@_1GI@MOGLCDAO@?$AAD?$AA?3?$AA?2?$AAM?$AAi?$AAc?$AAr?$AAo?$AAs?$AAo?$AAf?$AAt?$AA?5?$AAV?$AAi?$AAs?$AAu?$AAa?$AAl?$AA?5?$AAS?$AAt?$AAu?$AAd?$AAi?$AAo?$AA?5?$AA1?$AA4?$AA?4?$AA0?$AA?2@
	push	2
	call	__CrtDbgReportW
	add	esp, 24					; 00000018H
	cmp	eax, 1
	jne	SHORT $LN15@Deallocate
	int	3
$LN15@Deallocate:
	push	0
	push	116					; 00000074H
	push	OFFSET ??_C@_1GI@MOGLCDAO@?$AAD?$AA?3?$AA?2?$AAM?$AAi?$AAc?$AAr?$AAo?$AAs?$AAo?$AAf?$AAt?$AA?5?$AAV?$AAi?$AAs?$AAu?$AAa?$AAl?$AA?5?$AAS?$AAt?$AAu?$AAd?$AAi?$AAo?$AA?5?$AA1?$AA4?$AA?4?$AA0?$AA?2@
	push	OFFSET ??_C@_1CC@LOFJFFDB@?$AAs?$AAt?$AAd?$AA?3?$AA?3?$AA_?$AAD?$AAe?$AAa?$AAl?$AAl?$AAo?$AAc?$AAa?$AAt?$AAe?$AA?$AA@
	push	OFFSET ??_C@_1CG@JNLFBNGN@?$AA?$CC?$AAi?$AAn?$AAv?$AAa?$AAl?$AAi?$AAd?$AA?5?$AAa?$AAr?$AAg?$AAu?$AAm?$AAe?$AAn?$AAt?$AA?$CC?$AA?$AA@
	call	__invalid_parameter
	add	esp, 20					; 00000014H
$LN5@Deallocate:

; 115  : 			reinterpret_cast<uintptr_t *>(_Ptr_ptr)[-1] ==
; 116  : 				_BIG_ALLOCATION_SENTINEL);
; 117  :  #endif /* _DEBUG */
; 118  : 
; 119  : 		// Extra paranoia on aligned allocation/deallocation
; 120  : 		_SCL_SECURE_ALWAYS_VALIDATE(_Ptr_container < _Ptr_user);

	mov	eax, DWORD PTR __Ptr_container$1[ebp]
	cmp	eax, DWORD PTR __Ptr_user$3[ebp]
	jb	SHORT $LN6@Deallocate
	mov	ecx, OFFSET ??_C@_0BL@OCKMEJON@_Ptr_container?5?$DM?5_Ptr_user?$AA@
	test	ecx, ecx
	je	SHORT $LN16@Deallocate
	xor	edx, edx
	jne	SHORT $LN17@Deallocate
$LN16@Deallocate:
	push	OFFSET ??_C@_1EE@PDHAHDDC@?$AA?$CC?$AA_?$AAP?$AAt?$AAr?$AA_?$AAc?$AAo?$AAn?$AAt?$AAa?$AAi?$AAn?$AAe?$AAr?$AA?5?$AA?$DM?$AA?5?$AA_?$AAP?$AAt?$AAr?$AA_?$AAu?$AAs?$AAe?$AAr?$AA?$CC?$AA?5?$AA?$CG?$AA?$CG?$AA?5@
	push	OFFSET ??_C@_17CNPHIMPH@?$AA?$CF?$AAl?$AAs?$AA?$AA@
	push	0
	push	120					; 00000078H
	push	OFFSET ??_C@_1GI@MOGLCDAO@?$AAD?$AA?3?$AA?2?$AAM?$AAi?$AAc?$AAr?$AAo?$AAs?$AAo?$AAf?$AAt?$AA?5?$AAV?$AAi?$AAs?$AAu?$AAa?$AAl?$AA?5?$AAS?$AAt?$AAu?$AAd?$AAi?$AAo?$AA?5?$AA1?$AA4?$AA?4?$AA0?$AA?2@
	push	2
	call	__CrtDbgReportW
	add	esp, 24					; 00000018H
	cmp	eax, 1
	jne	SHORT $LN17@Deallocate
	int	3
$LN17@Deallocate:
	push	0
	push	120					; 00000078H
	push	OFFSET ??_C@_1GI@MOGLCDAO@?$AAD?$AA?3?$AA?2?$AAM?$AAi?$AAc?$AAr?$AAo?$AAs?$AAo?$AAf?$AAt?$AA?5?$AAV?$AAi?$AAs?$AAu?$AAa?$AAl?$AA?5?$AAS?$AAt?$AAu?$AAd?$AAi?$AAo?$AA?5?$AA1?$AA4?$AA?4?$AA0?$AA?2@
	push	OFFSET ??_C@_1CC@LOFJFFDB@?$AAs?$AAt?$AAd?$AA?3?$AA?3?$AA_?$AAD?$AAe?$AAa?$AAl?$AAl?$AAo?$AAc?$AAa?$AAt?$AAe?$AA?$AA@
	push	OFFSET ??_C@_1CG@JNLFBNGN@?$AA?$CC?$AAi?$AAn?$AAv?$AAa?$AAl?$AAi?$AAd?$AA?5?$AAa?$AAr?$AAg?$AAu?$AAm?$AAe?$AAn?$AAt?$AA?$CC?$AA?$AA@
	call	__invalid_parameter
	add	esp, 20					; 00000014H
$LN6@Deallocate:

; 121  : 
; 122  :  #ifdef _DEBUG
; 123  : 		_SCL_SECURE_ALWAYS_VALIDATE(2 * sizeof(void *)

	mov	ecx, DWORD PTR __Ptr_user$3[ebp]
	sub	ecx, DWORD PTR __Ptr_container$1[ebp]
	cmp	ecx, 8
	jae	SHORT $LN7@Deallocate
	mov	edx, OFFSET ??_C@_0DB@GLFJLNCE@2?5?$CK?5sizeof?$CIvoid?5?$CK?$CJ?5?$DM?$DN?5_Ptr_user?5@
	test	edx, edx
	je	SHORT $LN18@Deallocate
	xor	eax, eax
	jne	SHORT $LN19@Deallocate
$LN18@Deallocate:
	push	OFFSET ??_C@_1HA@NAPGMHAO@?$AA?$CC?$AA2?$AA?5?$AA?$CK?$AA?5?$AAs?$AAi?$AAz?$AAe?$AAo?$AAf?$AA?$CI?$AAv?$AAo?$AAi?$AAd?$AA?5?$AA?$CK?$AA?$CJ?$AA?5?$AA?$DM?$AA?$DN?$AA?5?$AA_?$AAP?$AAt?$AAr?$AA_?$AAu?$AAs?$AAe?$AAr@
	push	OFFSET ??_C@_17CNPHIMPH@?$AA?$CF?$AAl?$AAs?$AA?$AA@
	push	0
	push	124					; 0000007cH
	push	OFFSET ??_C@_1GI@MOGLCDAO@?$AAD?$AA?3?$AA?2?$AAM?$AAi?$AAc?$AAr?$AAo?$AAs?$AAo?$AAf?$AAt?$AA?5?$AAV?$AAi?$AAs?$AAu?$AAa?$AAl?$AA?5?$AAS?$AAt?$AAu?$AAd?$AAi?$AAo?$AA?5?$AA1?$AA4?$AA?4?$AA0?$AA?2@
	push	2
	call	__CrtDbgReportW
	add	esp, 24					; 00000018H
	cmp	eax, 1
	jne	SHORT $LN19@Deallocate
	int	3
$LN19@Deallocate:
	push	0
	push	124					; 0000007cH
	push	OFFSET ??_C@_1GI@MOGLCDAO@?$AAD?$AA?3?$AA?2?$AAM?$AAi?$AAc?$AAr?$AAo?$AAs?$AAo?$AAf?$AAt?$AA?5?$AAV?$AAi?$AAs?$AAu?$AAa?$AAl?$AA?5?$AAS?$AAt?$AAu?$AAd?$AAi?$AAo?$AA?5?$AA1?$AA4?$AA?4?$AA0?$AA?2@
	push	OFFSET ??_C@_1CC@LOFJFFDB@?$AAs?$AAt?$AAd?$AA?3?$AA?3?$AA_?$AAD?$AAe?$AAa?$AAl?$AAl?$AAo?$AAc?$AAa?$AAt?$AAe?$AA?$AA@
	push	OFFSET ??_C@_1CG@JNLFBNGN@?$AA?$CC?$AAi?$AAn?$AAv?$AAa?$AAl?$AAi?$AAd?$AA?5?$AAa?$AAr?$AAg?$AAu?$AAm?$AAe?$AAn?$AAt?$AA?$CC?$AA?$AA@
	call	__invalid_parameter
	add	esp, 20					; 00000014H
$LN7@Deallocate:

; 124  : 			<= _Ptr_user - _Ptr_container);
; 125  : 
; 126  :  #else /* _DEBUG */
; 127  : 		_SCL_SECURE_ALWAYS_VALIDATE(sizeof(void *)
; 128  : 			<= _Ptr_user - _Ptr_container);
; 129  :  #endif /* _DEBUG */
; 130  : 
; 131  : 		_SCL_SECURE_ALWAYS_VALIDATE(_Ptr_user - _Ptr_container

	mov	edx, DWORD PTR __Ptr_user$3[ebp]
	sub	edx, DWORD PTR __Ptr_container$1[ebp]
	cmp	edx, 39					; 00000027H
	jbe	SHORT $LN8@Deallocate
	mov	eax, OFFSET ??_C@_0CN@BLHJCAL@_Ptr_user?5?9?5_Ptr_container?5?$DM?$DN?5_N@
	test	eax, eax
	je	SHORT $LN20@Deallocate
	xor	ecx, ecx
	jne	SHORT $LN21@Deallocate
$LN20@Deallocate:
	push	OFFSET ??_C@_1GI@DHJGPFNI@?$AA?$CC?$AA_?$AAP?$AAt?$AAr?$AA_?$AAu?$AAs?$AAe?$AAr?$AA?5?$AA?9?$AA?5?$AA_?$AAP?$AAt?$AAr?$AA_?$AAc?$AAo?$AAn?$AAt?$AAa?$AAi?$AAn?$AAe?$AAr?$AA?5?$AA?$DM?$AA?$DN?$AA?5?$AA_@
	push	OFFSET ??_C@_17CNPHIMPH@?$AA?$CF?$AAl?$AAs?$AA?$AA@
	push	0
	push	132					; 00000084H
	push	OFFSET ??_C@_1GI@MOGLCDAO@?$AAD?$AA?3?$AA?2?$AAM?$AAi?$AAc?$AAr?$AAo?$AAs?$AAo?$AAf?$AAt?$AA?5?$AAV?$AAi?$AAs?$AAu?$AAa?$AAl?$AA?5?$AAS?$AAt?$AAu?$AAd?$AAi?$AAo?$AA?5?$AA1?$AA4?$AA?4?$AA0?$AA?2@
	push	2
	call	__CrtDbgReportW
	add	esp, 24					; 00000018H
	cmp	eax, 1
	jne	SHORT $LN21@Deallocate
	int	3
$LN21@Deallocate:
	push	0
	push	132					; 00000084H
	push	OFFSET ??_C@_1GI@MOGLCDAO@?$AAD?$AA?3?$AA?2?$AAM?$AAi?$AAc?$AAr?$AAo?$AAs?$AAo?$AAf?$AAt?$AA?5?$AAV?$AAi?$AAs?$AAu?$AAa?$AAl?$AA?5?$AAS?$AAt?$AAu?$AAd?$AAi?$AAo?$AA?5?$AA1?$AA4?$AA?4?$AA0?$AA?2@
	push	OFFSET ??_C@_1CC@LOFJFFDB@?$AAs?$AAt?$AAd?$AA?3?$AA?3?$AA_?$AAD?$AAe?$AAa?$AAl?$AAl?$AAo?$AAc?$AAa?$AAt?$AAe?$AA?$AA@
	push	OFFSET ??_C@_1CG@JNLFBNGN@?$AA?$CC?$AAi?$AAn?$AAv?$AAa?$AAl?$AAi?$AAd?$AA?5?$AAa?$AAr?$AAg?$AAu?$AAm?$AAe?$AAn?$AAt?$AA?$CC?$AA?$AA@
	call	__invalid_parameter
	add	esp, 20					; 00000014H
$LN8@Deallocate:

; 132  : 			<= _NON_USER_SIZE);
; 133  : 
; 134  : 		_Ptr = reinterpret_cast<_Ty *>(_Ptr_container);

	mov	eax, DWORD PTR __Ptr_container$1[ebp]
	mov	DWORD PTR __Ptr$[ebp], eax
$LN3@Deallocate:

; 135  : 		}
; 136  :  #endif /* defined(_M_IX86) || defined(_M_X64) */
; 137  : 
; 138  : 	::operator delete(_Ptr);

	mov	ecx, DWORD PTR __Ptr$[ebp]
	push	ecx
	call	??3@YAXPAX@Z				; operator delete
	add	esp, 4

; 139  : 	}

	add	esp, 16					; 00000010H
	cmp	ebp, esp
	call	__RTC_CheckEsp
	mov	esp, ebp
	pop	ebp
	ret	0
??$_Deallocate@U?$_List_node@PAV?$Goal@VRaven_Bot@@@@PAX@std@@@std@@YAXPAU?$_List_node@PAV?$Goal@VRaven_Bot@@@@PAX@0@I@Z ENDP ; std::_Deallocate<std::_List_node<Goal<Raven_Bot> *,void *> >
_TEXT	ENDS
; Function compile flags: /Odtp /RTCsu
;	COMDAT ??4?$_List_const_iterator@V?$_List_val@U?$_List_simple_types@PAV?$Goal@VRaven_Bot@@@@@std@@@std@@@std@@QAEAAV01@$$QAV01@@Z
_TEXT	SEGMENT
_this$ = -4						; size = 4
___that$ = 8						; size = 4
??4?$_List_const_iterator@V?$_List_val@U?$_List_simple_types@PAV?$Goal@VRaven_Bot@@@@@std@@@std@@@std@@QAEAAV01@$$QAV01@@Z PROC ; std::_List_const_iterator<std::_List_val<std::_List_simple_types<Goal<Raven_Bot> *> > >::operator=, COMDAT
; _this$ = ecx
	push	ebp
	mov	ebp, esp
	push	ecx
	mov	DWORD PTR [ebp-4], -858993460		; ccccccccH
	mov	DWORD PTR _this$[ebp], ecx
	mov	eax, DWORD PTR ___that$[ebp]
	push	eax
	mov	ecx, DWORD PTR _this$[ebp]
	call	??4?$_List_unchecked_const_iterator@V?$_List_val@U?$_List_simple_types@PAV?$Goal@VRaven_Bot@@@@@std@@@std@@U_Iterator_base12@2@@std@@QAEAAV01@$$QAV01@@Z
	mov	eax, DWORD PTR _this$[ebp]
	add	esp, 4
	cmp	ebp, esp
	call	__RTC_CheckEsp
	mov	esp, ebp
	pop	ebp
	ret	4
??4?$_List_const_iterator@V?$_List_val@U?$_List_simple_types@PAV?$Goal@VRaven_Bot@@@@@std@@@std@@@std@@QAEAAV01@$$QAV01@@Z ENDP ; std::_List_const_iterator<std::_List_val<std::_List_simple_types<Goal<Raven_Bot> *> > >::operator=
_TEXT	ENDS
; Function compile flags: /Odtp /RTCsu
;	COMDAT ??0?$_List_const_iterator@V?$_List_val@U?$_List_simple_types@PAV?$Goal@VRaven_Bot@@@@@std@@@std@@@std@@QAE@$$QAV01@@Z
_TEXT	SEGMENT
_this$ = -4						; size = 4
___that$ = 8						; size = 4
??0?$_List_const_iterator@V?$_List_val@U?$_List_simple_types@PAV?$Goal@VRaven_Bot@@@@@std@@@std@@@std@@QAE@$$QAV01@@Z PROC ; std::_List_const_iterator<std::_List_val<std::_List_simple_types<Goal<Raven_Bot> *> > >::_List_const_iterator<std::_List_val<std::_List_simple_types<Goal<Raven_Bot> *> > >, COMDAT
; _this$ = ecx
	push	ebp
	mov	ebp, esp
	push	ecx
	mov	DWORD PTR [ebp-4], -858993460		; ccccccccH
	mov	DWORD PTR _this$[ebp], ecx
	mov	eax, DWORD PTR ___that$[ebp]
	push	eax
	mov	ecx, DWORD PTR _this$[ebp]
	call	??0?$_List_unchecked_const_iterator@V?$_List_val@U?$_List_simple_types@PAV?$Goal@VRaven_Bot@@@@@std@@@std@@U_Iterator_base12@2@@std@@QAE@$$QAV01@@Z
	mov	eax, DWORD PTR _this$[ebp]
	add	esp, 4
	cmp	ebp, esp
	call	__RTC_CheckEsp
	mov	esp, ebp
	pop	ebp
	ret	4
??0?$_List_const_iterator@V?$_List_val@U?$_List_simple_types@PAV?$Goal@VRaven_Bot@@@@@std@@@std@@@std@@QAE@$$QAV01@@Z ENDP ; std::_List_const_iterator<std::_List_val<std::_List_simple_types<Goal<Raven_Bot> *> > >::_List_const_iterator<std::_List_val<std::_List_simple_types<Goal<Raven_Bot> *> > >
_TEXT	ENDS
; Function compile flags: /Odtp /RTCsu
;	COMDAT ??0?$_List_const_iterator@V?$_List_val@U?$_List_simple_types@PAV?$Goal@VRaven_Bot@@@@@std@@@std@@@std@@QAE@ABV01@@Z
_TEXT	SEGMENT
_this$ = -4						; size = 4
___that$ = 8						; size = 4
??0?$_List_const_iterator@V?$_List_val@U?$_List_simple_types@PAV?$Goal@VRaven_Bot@@@@@std@@@std@@@std@@QAE@ABV01@@Z PROC ; std::_List_const_iterator<std::_List_val<std::_List_simple_types<Goal<Raven_Bot> *> > >::_List_const_iterator<std::_List_val<std::_List_simple_types<Goal<Raven_Bot> *> > >, COMDAT
; _this$ = ecx
	push	ebp
	mov	ebp, esp
	push	ecx
	mov	DWORD PTR [ebp-4], -858993460		; ccccccccH
	mov	DWORD PTR _this$[ebp], ecx
	mov	eax, DWORD PTR ___that$[ebp]
	push	eax
	mov	ecx, DWORD PTR _this$[ebp]
	call	??0?$_List_unchecked_const_iterator@V?$_List_val@U?$_List_simple_types@PAV?$Goal@VRaven_Bot@@@@@std@@@std@@U_Iterator_base12@2@@std@@QAE@ABV01@@Z
	mov	eax, DWORD PTR _this$[ebp]
	add	esp, 4
	cmp	ebp, esp
	call	__RTC_CheckEsp
	mov	esp, ebp
	pop	ebp
	ret	4
??0?$_List_const_iterator@V?$_List_val@U?$_List_simple_types@PAV?$Goal@VRaven_Bot@@@@@std@@@std@@@std@@QAE@ABV01@@Z ENDP ; std::_List_const_iterator<std::_List_val<std::_List_simple_types<Goal<Raven_Bot> *> > >::_List_const_iterator<std::_List_val<std::_List_simple_types<Goal<Raven_Bot> *> > >
_TEXT	ENDS
; Function compile flags: /Odtp /RTCsu
;	COMDAT ??1?$_List_const_iterator@V?$_List_val@U?$_List_simple_types@PAV?$Goal@VRaven_Bot@@@@@std@@@std@@@std@@QAE@XZ
_TEXT	SEGMENT
_this$ = -4						; size = 4
??1?$_List_const_iterator@V?$_List_val@U?$_List_simple_types@PAV?$Goal@VRaven_Bot@@@@@std@@@std@@@std@@QAE@XZ PROC ; std::_List_const_iterator<std::_List_val<std::_List_simple_types<Goal<Raven_Bot> *> > >::~_List_const_iterator<std::_List_val<std::_List_simple_types<Goal<Raven_Bot> *> > >, COMDAT
; _this$ = ecx
	push	ebp
	mov	ebp, esp
	push	ecx
	mov	DWORD PTR [ebp-4], -858993460		; ccccccccH
	mov	DWORD PTR _this$[ebp], ecx
	mov	ecx, DWORD PTR _this$[ebp]
	call	??1?$_List_unchecked_const_iterator@V?$_List_val@U?$_List_simple_types@PAV?$Goal@VRaven_Bot@@@@@std@@@std@@U_Iterator_base12@2@@std@@QAE@XZ
	add	esp, 4
	cmp	ebp, esp
	call	__RTC_CheckEsp
	mov	esp, ebp
	pop	ebp
	ret	0
??1?$_List_const_iterator@V?$_List_val@U?$_List_simple_types@PAV?$Goal@VRaven_Bot@@@@@std@@@std@@@std@@QAE@XZ ENDP ; std::_List_const_iterator<std::_List_val<std::_List_simple_types<Goal<Raven_Bot> *> > >::~_List_const_iterator<std::_List_val<std::_List_simple_types<Goal<Raven_Bot> *> > >
_TEXT	ENDS
; Function compile flags: /Odtp /RTCsu
; File d:\microsoft visual studio 14.0\vc\include\list
;	COMDAT ??9?$_List_const_iterator@V?$_List_val@U?$_List_simple_types@PAV?$Goal@VRaven_Bot@@@@@std@@@std@@@std@@QBE_NABV01@@Z
_TEXT	SEGMENT
tv69 = -8						; size = 4
_this$ = -4						; size = 4
__Right$ = 8						; size = 4
??9?$_List_const_iterator@V?$_List_val@U?$_List_simple_types@PAV?$Goal@VRaven_Bot@@@@@std@@@std@@@std@@QBE_NABV01@@Z PROC ; std::_List_const_iterator<std::_List_val<std::_List_simple_types<Goal<Raven_Bot> *> > >::operator!=, COMDAT
; _this$ = ecx

; 300  : 		{	// test for iterator inequality

	push	ebp
	mov	ebp, esp
	sub	esp, 8
	mov	DWORD PTR [ebp-8], -858993460		; ccccccccH
	mov	DWORD PTR [ebp-4], -858993460		; ccccccccH
	mov	DWORD PTR _this$[ebp], ecx

; 301  : 		return (!(*this == _Right));

	mov	eax, DWORD PTR __Right$[ebp]
	push	eax
	mov	ecx, DWORD PTR _this$[ebp]
	call	??8?$_List_const_iterator@V?$_List_val@U?$_List_simple_types@PAV?$Goal@VRaven_Bot@@@@@std@@@std@@@std@@QBE_NABV01@@Z ; std::_List_const_iterator<std::_List_val<std::_List_simple_types<Goal<Raven_Bot> *> > >::operator==
	movzx	ecx, al
	test	ecx, ecx
	jne	SHORT $LN3@operator
	mov	DWORD PTR tv69[ebp], 1
	jmp	SHORT $LN4@operator
$LN3@operator:
	mov	DWORD PTR tv69[ebp], 0
$LN4@operator:
	mov	al, BYTE PTR tv69[ebp]

; 302  : 		}

	add	esp, 8
	cmp	ebp, esp
	call	__RTC_CheckEsp
	mov	esp, ebp
	pop	ebp
	ret	4
??9?$_List_const_iterator@V?$_List_val@U?$_List_simple_types@PAV?$Goal@VRaven_Bot@@@@@std@@@std@@@std@@QBE_NABV01@@Z ENDP ; std::_List_const_iterator<std::_List_val<std::_List_simple_types<Goal<Raven_Bot> *> > >::operator!=
_TEXT	ENDS
; Function compile flags: /Odtp /RTCsu
; File d:\microsoft visual studio 14.0\vc\include\list
;	COMDAT ??8?$_List_const_iterator@V?$_List_val@U?$_List_simple_types@PAV?$Goal@VRaven_Bot@@@@@std@@@std@@@std@@QBE_NABV01@@Z
_TEXT	SEGMENT
tv139 = -8						; size = 4
_this$ = -4						; size = 4
__Right$ = 8						; size = 4
??8?$_List_const_iterator@V?$_List_val@U?$_List_simple_types@PAV?$Goal@VRaven_Bot@@@@@std@@@std@@@std@@QBE_NABV01@@Z PROC ; std::_List_const_iterator<std::_List_val<std::_List_simple_types<Goal<Raven_Bot> *> > >::operator==, COMDAT
; _this$ = ecx

; 284  : 		{	// test for iterator equality

	push	ebp
	mov	ebp, esp
	sub	esp, 8
	push	esi
	mov	DWORD PTR [ebp-8], -858993460		; ccccccccH
	mov	DWORD PTR [ebp-4], -858993460		; ccccccccH
	mov	DWORD PTR _this$[ebp], ecx

; 285  :  #if _ITERATOR_DEBUG_LEVEL == 2
; 286  : 		if (this->_Getcont() != _Right._Getcont())

	mov	ecx, DWORD PTR _this$[ebp]
	call	?_Getcont@_Iterator_base12@std@@QBEPBU_Container_base12@2@XZ ; std::_Iterator_base12::_Getcont
	mov	esi, eax
	mov	ecx, DWORD PTR __Right$[ebp]
	call	?_Getcont@_Iterator_base12@std@@QBEPBU_Container_base12@2@XZ ; std::_Iterator_base12::_Getcont
	cmp	esi, eax
	je	SHORT $LN2@operator

; 287  : 			{	// report error
; 288  : 			_DEBUG_ERROR("list iterators incompatible");

	push	288					; 00000120H
	push	OFFSET ??_C@_1GA@IINJPBGE@?$AAD?$AA?3?$AA?2?$AAM?$AAi?$AAc?$AAr?$AAo?$AAs?$AAo?$AAf?$AAt?$AA?5?$AAV?$AAi?$AAs?$AAu?$AAa?$AAl?$AA?5?$AAS?$AAt?$AAu?$AAd?$AAi?$AAo?$AA?5?$AA1?$AA4?$AA?4?$AA0?$AA?2@
	push	OFFSET ??_C@_1DI@MDELDGPI@?$AAl?$AAi?$AAs?$AAt?$AA?5?$AAi?$AAt?$AAe?$AAr?$AAa?$AAt?$AAo?$AAr?$AAs?$AA?5?$AAi?$AAn?$AAc?$AAo?$AAm?$AAp?$AAa?$AAt?$AAi?$AAb?$AAl?$AAe?$AA?$AA@
	call	?_Debug_message@std@@YAXPB_W0I@Z	; std::_Debug_message
	add	esp, 12					; 0000000cH

; 289  : 			_SCL_SECURE_INVALID_ARGUMENT;

	mov	eax, OFFSET ??_C@_0CI@FNPHFCCM@Standard?5C?$CL?$CL?5Libraries?5Invalid?5A@
	test	eax, eax
	je	SHORT $LN4@operator
	xor	ecx, ecx
	jne	SHORT $LN5@operator
$LN4@operator:
	push	OFFSET ??_C@_1FO@GJIHNDLM@?$AA?$CC?$AAS?$AAt?$AAa?$AAn?$AAd?$AAa?$AAr?$AAd?$AA?5?$AAC?$AA?$CL?$AA?$CL?$AA?5?$AAL?$AAi?$AAb?$AAr?$AAa?$AAr?$AAi?$AAe?$AAs?$AA?5?$AAI?$AAn?$AAv?$AAa?$AAl?$AAi?$AAd?$AA?5@
	push	OFFSET ??_C@_17CNPHIMPH@?$AA?$CF?$AAl?$AAs?$AA?$AA@
	push	0
	push	289					; 00000121H
	push	OFFSET ??_C@_1GA@IINJPBGE@?$AAD?$AA?3?$AA?2?$AAM?$AAi?$AAc?$AAr?$AAo?$AAs?$AAo?$AAf?$AAt?$AA?5?$AAV?$AAi?$AAs?$AAu?$AAa?$AAl?$AA?5?$AAS?$AAt?$AAu?$AAd?$AAi?$AAo?$AA?5?$AA1?$AA4?$AA?4?$AA0?$AA?2@
	push	2
	call	__CrtDbgReportW
	add	esp, 24					; 00000018H
	cmp	eax, 1
	jne	SHORT $LN5@operator
	int	3
$LN5@operator:
	push	0
	push	289					; 00000121H
	push	OFFSET ??_C@_1GA@IINJPBGE@?$AAD?$AA?3?$AA?2?$AAM?$AAi?$AAc?$AAr?$AAo?$AAs?$AAo?$AAf?$AAt?$AA?5?$AAV?$AAi?$AAs?$AAu?$AAa?$AAl?$AA?5?$AAS?$AAt?$AAu?$AAd?$AAi?$AAo?$AA?5?$AA1?$AA4?$AA?4?$AA0?$AA?2@
	push	OFFSET ??_C@_1PM@NGMJNEOB@?$AAs?$AAt?$AAd?$AA?3?$AA?3?$AA_?$AAL?$AAi?$AAs?$AAt?$AA_?$AAc?$AAo?$AAn?$AAs?$AAt?$AA_?$AAi?$AAt?$AAe?$AAr?$AAa?$AAt?$AAo?$AAr?$AA?$DM?$AAc?$AAl?$AAa?$AAs?$AAs?$AA?5@
	push	OFFSET ??_C@_1CG@JNLFBNGN@?$AA?$CC?$AAi?$AAn?$AAv?$AAa?$AAl?$AAi?$AAd?$AA?5?$AAa?$AAr?$AAg?$AAu?$AAm?$AAe?$AAn?$AAt?$AA?$CC?$AA?$AA@
	call	__invalid_parameter
	add	esp, 20					; 00000014H
$LN2@operator:

; 290  : 			}
; 291  : 
; 292  :  #elif _ITERATOR_DEBUG_LEVEL == 1
; 293  : 		_SCL_SECURE_VALIDATE(this->_Getcont() == _Right._Getcont());
; 294  :  #endif /* _ITERATOR_DEBUG_LEVEL */
; 295  : 
; 296  : 		return (this->_Ptr == _Right._Ptr);

	mov	eax, DWORD PTR _this$[ebp]
	mov	ecx, DWORD PTR __Right$[ebp]
	mov	edx, DWORD PTR [eax+8]
	cmp	edx, DWORD PTR [ecx+8]
	jne	SHORT $LN6@operator
	mov	DWORD PTR tv139[ebp], 1
	jmp	SHORT $LN7@operator
$LN6@operator:
	mov	DWORD PTR tv139[ebp], 0
$LN7@operator:
	mov	al, BYTE PTR tv139[ebp]

; 297  : 		}

	pop	esi
	add	esp, 8
	cmp	ebp, esp
	call	__RTC_CheckEsp
	mov	esp, ebp
	pop	ebp
	ret	4
??8?$_List_const_iterator@V?$_List_val@U?$_List_simple_types@PAV?$Goal@VRaven_Bot@@@@@std@@@std@@@std@@QBE_NABV01@@Z ENDP ; std::_List_const_iterator<std::_List_val<std::_List_simple_types<Goal<Raven_Bot> *> > >::operator==
_TEXT	ENDS
; Function compile flags: /Odtp /RTCsu
; File d:\microsoft visual studio 14.0\vc\include\list
;	COMDAT ??F?$_List_const_iterator@V?$_List_val@U?$_List_simple_types@PAV?$Goal@VRaven_Bot@@@@@std@@@std@@@std@@QAEAAV01@XZ
_TEXT	SEGMENT
_this$ = -4						; size = 4
??F?$_List_const_iterator@V?$_List_val@U?$_List_simple_types@PAV?$Goal@VRaven_Bot@@@@@std@@@std@@@std@@QAEAAV01@XZ PROC ; std::_List_const_iterator<std::_List_val<std::_List_simple_types<Goal<Raven_Bot> *> > >::operator--, COMDAT
; _this$ = ecx

; 252  : 		{	// predecrement

	push	ebp
	mov	ebp, esp
	push	ecx
	mov	DWORD PTR [ebp-4], -858993460		; ccccccccH
	mov	DWORD PTR _this$[ebp], ecx

; 253  :  #if _ITERATOR_DEBUG_LEVEL == 2
; 254  : 		if (this->_Getcont() == 0
; 255  : 			|| this->_Ptr == 0
; 256  : 			|| (this->_Ptr = _Mylist::_Prevnode(this->_Ptr))

	mov	ecx, DWORD PTR _this$[ebp]
	call	?_Getcont@_Iterator_base12@std@@QBEPBU_Container_base12@2@XZ ; std::_Iterator_base12::_Getcont
	test	eax, eax
	je	SHORT $LN3@operator
	mov	eax, DWORD PTR _this$[ebp]
	cmp	DWORD PTR [eax+8], 0
	je	SHORT $LN3@operator
	mov	ecx, DWORD PTR _this$[ebp]
	mov	edx, DWORD PTR [ecx+8]
	push	edx
	call	?_Prevnode@?$_List_val@U?$_List_simple_types@PAV?$Goal@VRaven_Bot@@@@@std@@@std@@SAAAPAU?$_List_node@PAV?$Goal@VRaven_Bot@@@@PAX@2@PAU32@@Z ; std::_List_val<std::_List_simple_types<Goal<Raven_Bot> *> >::_Prevnode
	add	esp, 4
	mov	ecx, DWORD PTR _this$[ebp]
	mov	edx, DWORD PTR [eax]
	mov	DWORD PTR [ecx+8], edx
	mov	ecx, DWORD PTR _this$[ebp]
	call	?_Getcont@_Iterator_base12@std@@QBEPBU_Container_base12@2@XZ ; std::_Iterator_base12::_Getcont
	mov	ecx, DWORD PTR _this$[ebp]
	mov	edx, DWORD PTR [ecx+8]
	cmp	edx, DWORD PTR [eax+4]
	jne	SHORT $LN2@operator
$LN3@operator:

; 257  : 				== ((_Mylist *)this->_Getcont())->_Myhead)
; 258  : 			{	// report error
; 259  : 			_DEBUG_ERROR("list iterator not decrementable");

	push	259					; 00000103H
	push	OFFSET ??_C@_1GA@IINJPBGE@?$AAD?$AA?3?$AA?2?$AAM?$AAi?$AAc?$AAr?$AAo?$AAs?$AAo?$AAf?$AAt?$AA?5?$AAV?$AAi?$AAs?$AAu?$AAa?$AAl?$AA?5?$AAS?$AAt?$AAu?$AAd?$AAi?$AAo?$AA?5?$AA1?$AA4?$AA?4?$AA0?$AA?2@
	push	OFFSET ??_C@_1EA@JDNDELPC@?$AAl?$AAi?$AAs?$AAt?$AA?5?$AAi?$AAt?$AAe?$AAr?$AAa?$AAt?$AAo?$AAr?$AA?5?$AAn?$AAo?$AAt?$AA?5?$AAd?$AAe?$AAc?$AAr?$AAe?$AAm?$AAe?$AAn?$AAt?$AAa?$AAb?$AAl?$AAe?$AA?$AA@
	call	?_Debug_message@std@@YAXPB_W0I@Z	; std::_Debug_message
	add	esp, 12					; 0000000cH

; 260  : 			_SCL_SECURE_OUT_OF_RANGE;

	mov	eax, OFFSET ??_C@_0CE@OFMIGAMM@Standard?5C?$CL?$CL?5Libraries?5Out?5of?5Ra@
	test	eax, eax
	je	SHORT $LN5@operator
	xor	ecx, ecx
	jne	SHORT $LN6@operator
$LN5@operator:
	push	OFFSET ??_C@_1FG@IBPIFFN@?$AA?$CC?$AAS?$AAt?$AAa?$AAn?$AAd?$AAa?$AAr?$AAd?$AA?5?$AAC?$AA?$CL?$AA?$CL?$AA?5?$AAL?$AAi?$AAb?$AAr?$AAa?$AAr?$AAi?$AAe?$AAs?$AA?5?$AAO?$AAu?$AAt?$AA?5?$AAo?$AAf?$AA?5?$AAR@
	push	OFFSET ??_C@_17CNPHIMPH@?$AA?$CF?$AAl?$AAs?$AA?$AA@
	push	0
	push	260					; 00000104H
	push	OFFSET ??_C@_1GA@IINJPBGE@?$AAD?$AA?3?$AA?2?$AAM?$AAi?$AAc?$AAr?$AAo?$AAs?$AAo?$AAf?$AAt?$AA?5?$AAV?$AAi?$AAs?$AAu?$AAa?$AAl?$AA?5?$AAS?$AAt?$AAu?$AAd?$AAi?$AAo?$AA?5?$AA1?$AA4?$AA?4?$AA0?$AA?2@
	push	2
	call	__CrtDbgReportW
	add	esp, 24					; 00000018H
	cmp	eax, 1
	jne	SHORT $LN6@operator
	int	3
$LN6@operator:
	push	0
	push	260					; 00000104H
	push	OFFSET ??_C@_1GA@IINJPBGE@?$AAD?$AA?3?$AA?2?$AAM?$AAi?$AAc?$AAr?$AAo?$AAs?$AAo?$AAf?$AAt?$AA?5?$AAV?$AAi?$AAs?$AAu?$AAa?$AAl?$AA?5?$AAS?$AAt?$AAu?$AAd?$AAi?$AAo?$AA?5?$AA1?$AA4?$AA?4?$AA0?$AA?2@
	push	OFFSET ??_C@_1PM@IFAGIBOF@?$AAs?$AAt?$AAd?$AA?3?$AA?3?$AA_?$AAL?$AAi?$AAs?$AAt?$AA_?$AAc?$AAo?$AAn?$AAs?$AAt?$AA_?$AAi?$AAt?$AAe?$AAr?$AAa?$AAt?$AAo?$AAr?$AA?$DM?$AAc?$AAl?$AAa?$AAs?$AAs?$AA?5@
	push	OFFSET ??_C@_1BO@MEPPHOO@?$AA?$CC?$AAo?$AAu?$AAt?$AA?5?$AAo?$AAf?$AA?5?$AAr?$AAa?$AAn?$AAg?$AAe?$AA?$CC?$AA?$AA@
	call	__invalid_parameter
	add	esp, 20					; 00000014H
$LN2@operator:

; 261  : 			}
; 262  : 
; 263  :  #elif _ITERATOR_DEBUG_LEVEL == 1
; 264  : 		_SCL_SECURE_VALIDATE(this->_Getcont() != 0 && this->_Ptr != 0);
; 265  : 		this->_Ptr = _Mylist::_Prevnode(this->_Ptr);
; 266  : 		_SCL_SECURE_VALIDATE_RANGE(this->_Ptr !=
; 267  : 			((_Mylist *)this->_Getcont())->_Myhead);
; 268  : 
; 269  :  #else /* _ITERATOR_DEBUG_LEVEL */
; 270  : 		this->_Ptr = _Mylist::_Prevnode(this->_Ptr);
; 271  :  #endif /* _ITERATOR_DEBUG_LEVEL */
; 272  : 
; 273  : 		return (*this);

	mov	eax, DWORD PTR _this$[ebp]

; 274  : 		}

	add	esp, 4
	cmp	ebp, esp
	call	__RTC_CheckEsp
	mov	esp, ebp
	pop	ebp
	ret	0
??F?$_List_const_iterator@V?$_List_val@U?$_List_simple_types@PAV?$Goal@VRaven_Bot@@@@@std@@@std@@@std@@QAEAAV01@XZ ENDP ; std::_List_const_iterator<std::_List_val<std::_List_simple_types<Goal<Raven_Bot> *> > >::operator--
_TEXT	ENDS
; Function compile flags: /Odtp /RTCsu
; File d:\microsoft visual studio 14.0\vc\include\list
;	COMDAT ??E?$_List_const_iterator@V?$_List_val@U?$_List_simple_types@PAV?$Goal@VRaven_Bot@@@@@std@@@std@@@std@@QAE?AV01@H@Z
_TEXT	SEGMENT
$T2 = -40						; size = 4
__Tmp$ = -32						; size = 12
_this$ = -16						; size = 4
__$EHRec$ = -12						; size = 12
___$ReturnUdt$ = 8					; size = 4
___formal$ = 12						; size = 4
??E?$_List_const_iterator@V?$_List_val@U?$_List_simple_types@PAV?$Goal@VRaven_Bot@@@@@std@@@std@@@std@@QAE?AV01@H@Z PROC ; std::_List_const_iterator<std::_List_val<std::_List_simple_types<Goal<Raven_Bot> *> > >::operator++, COMDAT
; _this$ = ecx

; 245  : 		{	// postincrement

	push	ebp
	mov	ebp, esp
	push	-1
	push	__ehhandler$??E?$_List_const_iterator@V?$_List_val@U?$_List_simple_types@PAV?$Goal@VRaven_Bot@@@@@std@@@std@@@std@@QAE?AV01@H@Z
	mov	eax, DWORD PTR fs:0
	push	eax
	sub	esp, 28					; 0000001cH
	mov	eax, -858993460				; ccccccccH
	mov	DWORD PTR [ebp-40], eax
	mov	DWORD PTR [ebp-36], eax
	mov	DWORD PTR [ebp-32], eax
	mov	DWORD PTR [ebp-28], eax
	mov	DWORD PTR [ebp-24], eax
	mov	DWORD PTR [ebp-20], eax
	mov	DWORD PTR [ebp-16], eax
	mov	eax, DWORD PTR ___security_cookie
	xor	eax, ebp
	push	eax
	lea	eax, DWORD PTR __$EHRec$[ebp]
	mov	DWORD PTR fs:0, eax
	mov	DWORD PTR _this$[ebp], ecx
	mov	DWORD PTR $T2[ebp], 0

; 246  : 		_Myiter _Tmp = *this;

	mov	eax, DWORD PTR _this$[ebp]
	push	eax
	lea	ecx, DWORD PTR __Tmp$[ebp]
	call	??0?$_List_const_iterator@V?$_List_val@U?$_List_simple_types@PAV?$Goal@VRaven_Bot@@@@@std@@@std@@@std@@QAE@ABV01@@Z
	mov	DWORD PTR __$EHRec$[ebp+8], 0

; 247  : 		++*this;

	mov	ecx, DWORD PTR _this$[ebp]
	call	??E?$_List_const_iterator@V?$_List_val@U?$_List_simple_types@PAV?$Goal@VRaven_Bot@@@@@std@@@std@@@std@@QAEAAV01@XZ ; std::_List_const_iterator<std::_List_val<std::_List_simple_types<Goal<Raven_Bot> *> > >::operator++

; 248  : 		return (_Tmp);

	lea	ecx, DWORD PTR __Tmp$[ebp]
	push	ecx
	mov	ecx, DWORD PTR ___$ReturnUdt$[ebp]
	call	??0?$_List_const_iterator@V?$_List_val@U?$_List_simple_types@PAV?$Goal@VRaven_Bot@@@@@std@@@std@@@std@@QAE@$$QAV01@@Z
	mov	edx, DWORD PTR $T2[ebp]
	or	edx, 1
	mov	DWORD PTR $T2[ebp], edx
	mov	DWORD PTR __$EHRec$[ebp+8], -1
	lea	ecx, DWORD PTR __Tmp$[ebp]
	call	??1?$_List_const_iterator@V?$_List_val@U?$_List_simple_types@PAV?$Goal@VRaven_Bot@@@@@std@@@std@@@std@@QAE@XZ
	mov	eax, DWORD PTR ___$ReturnUdt$[ebp]

; 249  : 		}

	push	edx
	mov	ecx, ebp
	push	eax
	lea	edx, DWORD PTR $LN9@operator
	call	@_RTC_CheckStackVars@8
	pop	eax
	pop	edx
	mov	ecx, DWORD PTR __$EHRec$[ebp]
	mov	DWORD PTR fs:0, ecx
	pop	ecx
	add	esp, 40					; 00000028H
	cmp	ebp, esp
	call	__RTC_CheckEsp
	mov	esp, ebp
	pop	ebp
	ret	8
	npad	1
$LN9@operator:
	DD	1
	DD	$LN8@operator
$LN8@operator:
	DD	-32					; ffffffe0H
	DD	12					; 0000000cH
	DD	$LN6@operator
$LN6@operator:
	DB	95					; 0000005fH
	DB	84					; 00000054H
	DB	109					; 0000006dH
	DB	112					; 00000070H
	DB	0
_TEXT	ENDS
;	COMDAT text$x
text$x	SEGMENT
__unwindfunclet$??E?$_List_const_iterator@V?$_List_val@U?$_List_simple_types@PAV?$Goal@VRaven_Bot@@@@@std@@@std@@@std@@QAE?AV01@H@Z$0:
	lea	ecx, DWORD PTR __Tmp$[ebp]
	jmp	??1?$_List_const_iterator@V?$_List_val@U?$_List_simple_types@PAV?$Goal@VRaven_Bot@@@@@std@@@std@@@std@@QAE@XZ
__ehhandler$??E?$_List_const_iterator@V?$_List_val@U?$_List_simple_types@PAV?$Goal@VRaven_Bot@@@@@std@@@std@@@std@@QAE?AV01@H@Z:
	mov	edx, DWORD PTR [esp+8]
	lea	eax, DWORD PTR [edx+12]
	mov	ecx, DWORD PTR [edx-32]
	xor	ecx, eax
	call	@__security_check_cookie@4
	mov	eax, OFFSET __ehfuncinfo$??E?$_List_const_iterator@V?$_List_val@U?$_List_simple_types@PAV?$Goal@VRaven_Bot@@@@@std@@@std@@@std@@QAE?AV01@H@Z
	jmp	___CxxFrameHandler3
text$x	ENDS
??E?$_List_const_iterator@V?$_List_val@U?$_List_simple_types@PAV?$Goal@VRaven_Bot@@@@@std@@@std@@@std@@QAE?AV01@H@Z ENDP ; std::_List_const_iterator<std::_List_val<std::_List_simple_types<Goal<Raven_Bot> *> > >::operator++
; Function compile flags: /Odtp /RTCsu
; File d:\microsoft visual studio 14.0\vc\include\list
;	COMDAT ??E?$_List_const_iterator@V?$_List_val@U?$_List_simple_types@PAV?$Goal@VRaven_Bot@@@@@std@@@std@@@std@@QAEAAV01@XZ
_TEXT	SEGMENT
_this$ = -4						; size = 4
??E?$_List_const_iterator@V?$_List_val@U?$_List_simple_types@PAV?$Goal@VRaven_Bot@@@@@std@@@std@@@std@@QAEAAV01@XZ PROC ; std::_List_const_iterator<std::_List_val<std::_List_simple_types<Goal<Raven_Bot> *> > >::operator++, COMDAT
; _this$ = ecx

; 224  : 		{	// preincrement

	push	ebp
	mov	ebp, esp
	push	ecx
	mov	DWORD PTR [ebp-4], -858993460		; ccccccccH
	mov	DWORD PTR _this$[ebp], ecx

; 225  :  #if _ITERATOR_DEBUG_LEVEL == 2
; 226  : 		if (this->_Getcont() == 0
; 227  : 			|| this->_Ptr == 0
; 228  : 			|| this->_Ptr == ((_Mylist *)this->_Getcont())->_Myhead)

	mov	ecx, DWORD PTR _this$[ebp]
	call	?_Getcont@_Iterator_base12@std@@QBEPBU_Container_base12@2@XZ ; std::_Iterator_base12::_Getcont
	test	eax, eax
	je	SHORT $LN3@operator
	mov	eax, DWORD PTR _this$[ebp]
	cmp	DWORD PTR [eax+8], 0
	je	SHORT $LN3@operator
	mov	ecx, DWORD PTR _this$[ebp]
	call	?_Getcont@_Iterator_base12@std@@QBEPBU_Container_base12@2@XZ ; std::_Iterator_base12::_Getcont
	mov	ecx, DWORD PTR _this$[ebp]
	mov	edx, DWORD PTR [ecx+8]
	cmp	edx, DWORD PTR [eax+4]
	jne	SHORT $LN2@operator
$LN3@operator:

; 229  : 			{	// report error
; 230  : 			_DEBUG_ERROR("list iterator not incrementable");

	push	230					; 000000e6H
	push	OFFSET ??_C@_1GA@IINJPBGE@?$AAD?$AA?3?$AA?2?$AAM?$AAi?$AAc?$AAr?$AAo?$AAs?$AAo?$AAf?$AAt?$AA?5?$AAV?$AAi?$AAs?$AAu?$AAa?$AAl?$AA?5?$AAS?$AAt?$AAu?$AAd?$AAi?$AAo?$AA?5?$AA1?$AA4?$AA?4?$AA0?$AA?2@
	push	OFFSET ??_C@_1EA@DOGAGKDH@?$AAl?$AAi?$AAs?$AAt?$AA?5?$AAi?$AAt?$AAe?$AAr?$AAa?$AAt?$AAo?$AAr?$AA?5?$AAn?$AAo?$AAt?$AA?5?$AAi?$AAn?$AAc?$AAr?$AAe?$AAm?$AAe?$AAn?$AAt?$AAa?$AAb?$AAl?$AAe?$AA?$AA@
	call	?_Debug_message@std@@YAXPB_W0I@Z	; std::_Debug_message
	add	esp, 12					; 0000000cH

; 231  : 			_SCL_SECURE_OUT_OF_RANGE;

	mov	eax, OFFSET ??_C@_0CE@OFMIGAMM@Standard?5C?$CL?$CL?5Libraries?5Out?5of?5Ra@
	test	eax, eax
	je	SHORT $LN5@operator
	xor	ecx, ecx
	jne	SHORT $LN6@operator
$LN5@operator:
	push	OFFSET ??_C@_1FG@IBPIFFN@?$AA?$CC?$AAS?$AAt?$AAa?$AAn?$AAd?$AAa?$AAr?$AAd?$AA?5?$AAC?$AA?$CL?$AA?$CL?$AA?5?$AAL?$AAi?$AAb?$AAr?$AAa?$AAr?$AAi?$AAe?$AAs?$AA?5?$AAO?$AAu?$AAt?$AA?5?$AAo?$AAf?$AA?5?$AAR@
	push	OFFSET ??_C@_17CNPHIMPH@?$AA?$CF?$AAl?$AAs?$AA?$AA@
	push	0
	push	231					; 000000e7H
	push	OFFSET ??_C@_1GA@IINJPBGE@?$AAD?$AA?3?$AA?2?$AAM?$AAi?$AAc?$AAr?$AAo?$AAs?$AAo?$AAf?$AAt?$AA?5?$AAV?$AAi?$AAs?$AAu?$AAa?$AAl?$AA?5?$AAS?$AAt?$AAu?$AAd?$AAi?$AAo?$AA?5?$AA1?$AA4?$AA?4?$AA0?$AA?2@
	push	2
	call	__CrtDbgReportW
	add	esp, 24					; 00000018H
	cmp	eax, 1
	jne	SHORT $LN6@operator
	int	3
$LN6@operator:
	push	0
	push	231					; 000000e7H
	push	OFFSET ??_C@_1GA@IINJPBGE@?$AAD?$AA?3?$AA?2?$AAM?$AAi?$AAc?$AAr?$AAo?$AAs?$AAo?$AAf?$AAt?$AA?5?$AAV?$AAi?$AAs?$AAu?$AAa?$AAl?$AA?5?$AAS?$AAt?$AAu?$AAd?$AAi?$AAo?$AA?5?$AA1?$AA4?$AA?4?$AA0?$AA?2@
	push	OFFSET ??_C@_1PM@HGDEDNCE@?$AAs?$AAt?$AAd?$AA?3?$AA?3?$AA_?$AAL?$AAi?$AAs?$AAt?$AA_?$AAc?$AAo?$AAn?$AAs?$AAt?$AA_?$AAi?$AAt?$AAe?$AAr?$AAa?$AAt?$AAo?$AAr?$AA?$DM?$AAc?$AAl?$AAa?$AAs?$AAs?$AA?5@
	push	OFFSET ??_C@_1BO@MEPPHOO@?$AA?$CC?$AAo?$AAu?$AAt?$AA?5?$AAo?$AAf?$AA?5?$AAr?$AAa?$AAn?$AAg?$AAe?$AA?$CC?$AA?$AA@
	call	__invalid_parameter
	add	esp, 20					; 00000014H
$LN2@operator:

; 232  : 			}
; 233  : 
; 234  :  #elif _ITERATOR_DEBUG_LEVEL == 1
; 235  : 		_SCL_SECURE_VALIDATE(this->_Getcont() != 0 && this->_Ptr != 0);
; 236  : 		_SCL_SECURE_VALIDATE_RANGE(this->_Ptr !=
; 237  : 			((_Mylist *)this->_Getcont())->_Myhead);
; 238  :  #endif /* _ITERATOR_DEBUG_LEVEL */
; 239  : 
; 240  : 		this->_Ptr = _Mylist::_Nextnode(this->_Ptr);

	mov	eax, DWORD PTR _this$[ebp]
	mov	ecx, DWORD PTR [eax+8]
	push	ecx
	call	?_Nextnode@?$_List_val@U?$_List_simple_types@PAV?$Goal@VRaven_Bot@@@@@std@@@std@@SAAAPAU?$_List_node@PAV?$Goal@VRaven_Bot@@@@PAX@2@PAU32@@Z ; std::_List_val<std::_List_simple_types<Goal<Raven_Bot> *> >::_Nextnode
	add	esp, 4
	mov	edx, DWORD PTR _this$[ebp]
	mov	eax, DWORD PTR [eax]
	mov	DWORD PTR [edx+8], eax

; 241  : 		return (*this);

	mov	eax, DWORD PTR _this$[ebp]

; 242  : 		}

	add	esp, 4
	cmp	ebp, esp
	call	__RTC_CheckEsp
	mov	esp, ebp
	pop	ebp
	ret	0
??E?$_List_const_iterator@V?$_List_val@U?$_List_simple_types@PAV?$Goal@VRaven_Bot@@@@@std@@@std@@@std@@QAEAAV01@XZ ENDP ; std::_List_const_iterator<std::_List_val<std::_List_simple_types<Goal<Raven_Bot> *> > >::operator++
_TEXT	ENDS
; Function compile flags: /Odtp /RTCsu
; File d:\microsoft visual studio 14.0\vc\include\list
;	COMDAT ??D?$_List_const_iterator@V?$_List_val@U?$_List_simple_types@PAV?$Goal@VRaven_Bot@@@@@std@@@std@@@std@@QBEABQAV?$Goal@VRaven_Bot@@@@XZ
_TEXT	SEGMENT
_this$ = -4						; size = 4
??D?$_List_const_iterator@V?$_List_val@U?$_List_simple_types@PAV?$Goal@VRaven_Bot@@@@@std@@@std@@@std@@QBEABQAV?$Goal@VRaven_Bot@@@@XZ PROC ; std::_List_const_iterator<std::_List_val<std::_List_simple_types<Goal<Raven_Bot> *> > >::operator*, COMDAT
; _this$ = ecx

; 204  : 		{	// return designated value

	push	ebp
	mov	ebp, esp
	push	ecx
	mov	DWORD PTR [ebp-4], -858993460		; ccccccccH
	mov	DWORD PTR _this$[ebp], ecx

; 205  :  #if _ITERATOR_DEBUG_LEVEL == 2
; 206  : 		if (this->_Getcont() == 0
; 207  : 			|| this->_Ptr == 0
; 208  : 			|| this->_Ptr == ((_Mylist *)this->_Getcont())->_Myhead)

	mov	ecx, DWORD PTR _this$[ebp]
	call	?_Getcont@_Iterator_base12@std@@QBEPBU_Container_base12@2@XZ ; std::_Iterator_base12::_Getcont
	test	eax, eax
	je	SHORT $LN3@operator
	mov	eax, DWORD PTR _this$[ebp]
	cmp	DWORD PTR [eax+8], 0
	je	SHORT $LN3@operator
	mov	ecx, DWORD PTR _this$[ebp]
	call	?_Getcont@_Iterator_base12@std@@QBEPBU_Container_base12@2@XZ ; std::_Iterator_base12::_Getcont
	mov	ecx, DWORD PTR _this$[ebp]
	mov	edx, DWORD PTR [ecx+8]
	cmp	edx, DWORD PTR [eax+4]
	jne	SHORT $LN2@operator
$LN3@operator:

; 209  : 			{	// report error
; 210  : 			_DEBUG_ERROR("list iterator not dereferencable");

	push	210					; 000000d2H
	push	OFFSET ??_C@_1GA@IINJPBGE@?$AAD?$AA?3?$AA?2?$AAM?$AAi?$AAc?$AAr?$AAo?$AAs?$AAo?$AAf?$AAt?$AA?5?$AAV?$AAi?$AAs?$AAu?$AAa?$AAl?$AA?5?$AAS?$AAt?$AAu?$AAd?$AAi?$AAo?$AA?5?$AA1?$AA4?$AA?4?$AA0?$AA?2@
	push	OFFSET ??_C@_1EC@HILJLMMC@?$AAl?$AAi?$AAs?$AAt?$AA?5?$AAi?$AAt?$AAe?$AAr?$AAa?$AAt?$AAo?$AAr?$AA?5?$AAn?$AAo?$AAt?$AA?5?$AAd?$AAe?$AAr?$AAe?$AAf?$AAe?$AAr?$AAe?$AAn?$AAc?$AAa?$AAb?$AAl?$AAe@
	call	?_Debug_message@std@@YAXPB_W0I@Z	; std::_Debug_message
	add	esp, 12					; 0000000cH

; 211  : 			_SCL_SECURE_OUT_OF_RANGE;

	mov	eax, OFFSET ??_C@_0CE@OFMIGAMM@Standard?5C?$CL?$CL?5Libraries?5Out?5of?5Ra@
	test	eax, eax
	je	SHORT $LN5@operator
	xor	ecx, ecx
	jne	SHORT $LN6@operator
$LN5@operator:
	push	OFFSET ??_C@_1FG@IBPIFFN@?$AA?$CC?$AAS?$AAt?$AAa?$AAn?$AAd?$AAa?$AAr?$AAd?$AA?5?$AAC?$AA?$CL?$AA?$CL?$AA?5?$AAL?$AAi?$AAb?$AAr?$AAa?$AAr?$AAi?$AAe?$AAs?$AA?5?$AAO?$AAu?$AAt?$AA?5?$AAo?$AAf?$AA?5?$AAR@
	push	OFFSET ??_C@_17CNPHIMPH@?$AA?$CF?$AAl?$AAs?$AA?$AA@
	push	0
	push	211					; 000000d3H
	push	OFFSET ??_C@_1GA@IINJPBGE@?$AAD?$AA?3?$AA?2?$AAM?$AAi?$AAc?$AAr?$AAo?$AAs?$AAo?$AAf?$AAt?$AA?5?$AAV?$AAi?$AAs?$AAu?$AAa?$AAl?$AA?5?$AAS?$AAt?$AAu?$AAd?$AAi?$AAo?$AA?5?$AA1?$AA4?$AA?4?$AA0?$AA?2@
	push	2
	call	__CrtDbgReportW
	add	esp, 24					; 00000018H
	cmp	eax, 1
	jne	SHORT $LN6@operator
	int	3
$LN6@operator:
	push	0
	push	211					; 000000d3H
	push	OFFSET ??_C@_1GA@IINJPBGE@?$AAD?$AA?3?$AA?2?$AAM?$AAi?$AAc?$AAr?$AAo?$AAs?$AAo?$AAf?$AAt?$AA?5?$AAV?$AAi?$AAs?$AAu?$AAa?$AAl?$AA?5?$AAS?$AAt?$AAu?$AAd?$AAi?$AAo?$AA?5?$AA1?$AA4?$AA?4?$AA0?$AA?2@
	push	OFFSET ??_C@_1PK@KKMOJEL@?$AAs?$AAt?$AAd?$AA?3?$AA?3?$AA_?$AAL?$AAi?$AAs?$AAt?$AA_?$AAc?$AAo?$AAn?$AAs?$AAt?$AA_?$AAi?$AAt?$AAe?$AAr?$AAa?$AAt?$AAo?$AAr?$AA?$DM?$AAc?$AAl?$AAa?$AAs?$AAs?$AA?5@
	push	OFFSET ??_C@_1BO@MEPPHOO@?$AA?$CC?$AAo?$AAu?$AAt?$AA?5?$AAo?$AAf?$AA?5?$AAr?$AAa?$AAn?$AAg?$AAe?$AA?$CC?$AA?$AA@
	call	__invalid_parameter
	add	esp, 20					; 00000014H
$LN2@operator:

; 212  : 			}
; 213  : 
; 214  :  #elif _ITERATOR_DEBUG_LEVEL == 1
; 215  : 		_SCL_SECURE_VALIDATE(this->_Getcont() != 0 && this->_Ptr != 0);
; 216  : 		_SCL_SECURE_VALIDATE_RANGE(this->_Ptr !=
; 217  : 			((_Mylist *)this->_Getcont())->_Myhead);
; 218  :  #endif /* _ITERATOR_DEBUG_LEVEL */
; 219  : 
; 220  : 		return (_Mylist::_Myval(this->_Ptr));

	mov	eax, DWORD PTR _this$[ebp]
	mov	ecx, DWORD PTR [eax+8]
	push	ecx
	call	?_Myval@?$_List_val@U?$_List_simple_types@PAV?$Goal@VRaven_Bot@@@@@std@@@std@@SAAAPAV?$Goal@VRaven_Bot@@@@PAU?$_List_node@PAV?$Goal@VRaven_Bot@@@@PAX@2@@Z ; std::_List_val<std::_List_simple_types<Goal<Raven_Bot> *> >::_Myval
	add	esp, 4

; 221  : 		}

	add	esp, 4
	cmp	ebp, esp
	call	__RTC_CheckEsp
	mov	esp, ebp
	pop	ebp
	ret	0
??D?$_List_const_iterator@V?$_List_val@U?$_List_simple_types@PAV?$Goal@VRaven_Bot@@@@@std@@@std@@@std@@QBEABQAV?$Goal@VRaven_Bot@@@@XZ ENDP ; std::_List_const_iterator<std::_List_val<std::_List_simple_types<Goal<Raven_Bot> *> > >::operator*
_TEXT	ENDS
; Function compile flags: /Odtp /RTCsu
; File d:\microsoft visual studio 14.0\vc\include\list
;	COMDAT ??0?$_List_const_iterator@V?$_List_val@U?$_List_simple_types@PAV?$Goal@VRaven_Bot@@@@@std@@@std@@@std@@QAE@PAU?$_List_node@PAV?$Goal@VRaven_Bot@@@@PAX@1@PBV?$_List_val@U?$_List_simple_types@PAV?$Goal@VRaven_Bot@@@@@std@@@1@@Z
_TEXT	SEGMENT
_this$ = -4						; size = 4
__Pnode$ = 8						; size = 4
__Plist$ = 12						; size = 4
??0?$_List_const_iterator@V?$_List_val@U?$_List_simple_types@PAV?$Goal@VRaven_Bot@@@@@std@@@std@@@std@@QAE@PAU?$_List_node@PAV?$Goal@VRaven_Bot@@@@PAX@1@PBV?$_List_val@U?$_List_simple_types@PAV?$Goal@VRaven_Bot@@@@@std@@@1@@Z PROC ; std::_List_const_iterator<std::_List_val<std::_List_simple_types<Goal<Raven_Bot> *> > >::_List_const_iterator<std::_List_val<std::_List_simple_types<Goal<Raven_Bot> *> > >, COMDAT
; _this$ = ecx

; 187  : 		{	// construct with node pointer _Pnode

	push	ebp
	mov	ebp, esp
	push	ecx
	mov	DWORD PTR [ebp-4], -858993460		; ccccccccH
	mov	DWORD PTR _this$[ebp], ecx

; 186  : 		: _Mybase(_Pnode, _Plist)

	mov	eax, DWORD PTR __Plist$[ebp]
	push	eax
	mov	ecx, DWORD PTR __Pnode$[ebp]
	push	ecx
	mov	ecx, DWORD PTR _this$[ebp]
	call	??0?$_List_unchecked_const_iterator@V?$_List_val@U?$_List_simple_types@PAV?$Goal@VRaven_Bot@@@@@std@@@std@@U_Iterator_base12@2@@std@@QAE@PAU?$_List_node@PAV?$Goal@VRaven_Bot@@@@PAX@1@PBV?$_List_val@U?$_List_simple_types@PAV?$Goal@VRaven_Bot@@@@@std@@@1@@Z ; std::_List_unchecked_const_iterator<std::_List_val<std::_List_simple_types<Goal<Raven_Bot> *> >,std::_Iterator_base12>::_List_unchecked_const_iterator<std::_List_val<std::_List_simple_types<Goal<Raven_Bot> *> >,std::_Iterator_base12>

; 188  : 		}

	mov	eax, DWORD PTR _this$[ebp]
	add	esp, 4
	cmp	ebp, esp
	call	__RTC_CheckEsp
	mov	esp, ebp
	pop	ebp
	ret	8
??0?$_List_const_iterator@V?$_List_val@U?$_List_simple_types@PAV?$Goal@VRaven_Bot@@@@@std@@@std@@@std@@QAE@PAU?$_List_node@PAV?$Goal@VRaven_Bot@@@@PAX@1@PBV?$_List_val@U?$_List_simple_types@PAV?$Goal@VRaven_Bot@@@@@std@@@1@@Z ENDP ; std::_List_const_iterator<std::_List_val<std::_List_simple_types<Goal<Raven_Bot> *> > >::_List_const_iterator<std::_List_val<std::_List_simple_types<Goal<Raven_Bot> *> > >
_TEXT	ENDS
; Function compile flags: /Odtp /RTCsu
; File d:\microsoft visual studio 14.0\vc\include\list
;	COMDAT ??0?$_List_const_iterator@V?$_List_val@U?$_List_simple_types@PAV?$Goal@VRaven_Bot@@@@@std@@@std@@@std@@QAE@XZ
_TEXT	SEGMENT
_this$ = -4						; size = 4
??0?$_List_const_iterator@V?$_List_val@U?$_List_simple_types@PAV?$Goal@VRaven_Bot@@@@@std@@@std@@@std@@QAE@XZ PROC ; std::_List_const_iterator<std::_List_val<std::_List_simple_types<Goal<Raven_Bot> *> > >::_List_const_iterator<std::_List_val<std::_List_simple_types<Goal<Raven_Bot> *> > >, COMDAT
; _this$ = ecx

; 182  : 		{	// construct with null node pointer

	push	ebp
	mov	ebp, esp
	push	ecx
	mov	DWORD PTR [ebp-4], -858993460		; ccccccccH
	mov	DWORD PTR _this$[ebp], ecx

; 181  : 		: _Mybase()

	mov	ecx, DWORD PTR _this$[ebp]
	call	??0?$_List_unchecked_const_iterator@V?$_List_val@U?$_List_simple_types@PAV?$Goal@VRaven_Bot@@@@@std@@@std@@U_Iterator_base12@2@@std@@QAE@XZ ; std::_List_unchecked_const_iterator<std::_List_val<std::_List_simple_types<Goal<Raven_Bot> *> >,std::_Iterator_base12>::_List_unchecked_const_iterator<std::_List_val<std::_List_simple_types<Goal<Raven_Bot> *> >,std::_Iterator_base12>

; 183  : 		}

	mov	eax, DWORD PTR _this$[ebp]
	add	esp, 4
	cmp	ebp, esp
	call	__RTC_CheckEsp
	mov	esp, ebp
	pop	ebp
	ret	0
??0?$_List_const_iterator@V?$_List_val@U?$_List_simple_types@PAV?$Goal@VRaven_Bot@@@@@std@@@std@@@std@@QAE@XZ ENDP ; std::_List_const_iterator<std::_List_val<std::_List_simple_types<Goal<Raven_Bot> *> > >::_List_const_iterator<std::_List_val<std::_List_simple_types<Goal<Raven_Bot> *> > >
_TEXT	ENDS
; Function compile flags: /Odtp /RTCsu
;	COMDAT ??4?$_List_unchecked_const_iterator@V?$_List_val@U?$_List_simple_types@PAV?$Goal@VRaven_Bot@@@@@std@@@std@@U_Iterator_base12@2@@std@@QAEAAV01@$$QAV01@@Z
_TEXT	SEGMENT
_this$ = -4						; size = 4
___that$ = 8						; size = 4
??4?$_List_unchecked_const_iterator@V?$_List_val@U?$_List_simple_types@PAV?$Goal@VRaven_Bot@@@@@std@@@std@@U_Iterator_base12@2@@std@@QAEAAV01@$$QAV01@@Z PROC ; std::_List_unchecked_const_iterator<std::_List_val<std::_List_simple_types<Goal<Raven_Bot> *> >,std::_Iterator_base12>::operator=, COMDAT
; _this$ = ecx
	push	ebp
	mov	ebp, esp
	push	ecx
	mov	DWORD PTR [ebp-4], -858993460		; ccccccccH
	mov	DWORD PTR _this$[ebp], ecx
	mov	eax, DWORD PTR ___that$[ebp]
	push	eax
	mov	ecx, DWORD PTR _this$[ebp]
	call	??4?$_Iterator012@Ubidirectional_iterator_tag@std@@PAV?$Goal@VRaven_Bot@@@@HPBQAV3@ABQAV3@U_Iterator_base12@2@@std@@QAEAAU01@$$QAU01@@Z
	mov	ecx, DWORD PTR _this$[ebp]
	mov	edx, DWORD PTR ___that$[ebp]
	mov	eax, DWORD PTR [edx+8]
	mov	DWORD PTR [ecx+8], eax
	mov	eax, DWORD PTR _this$[ebp]
	add	esp, 4
	cmp	ebp, esp
	call	__RTC_CheckEsp
	mov	esp, ebp
	pop	ebp
	ret	4
??4?$_List_unchecked_const_iterator@V?$_List_val@U?$_List_simple_types@PAV?$Goal@VRaven_Bot@@@@@std@@@std@@U_Iterator_base12@2@@std@@QAEAAV01@$$QAV01@@Z ENDP ; std::_List_unchecked_const_iterator<std::_List_val<std::_List_simple_types<Goal<Raven_Bot> *> >,std::_Iterator_base12>::operator=
_TEXT	ENDS
; Function compile flags: /Odtp /RTCsu
;	COMDAT ??0?$_List_unchecked_const_iterator@V?$_List_val@U?$_List_simple_types@PAV?$Goal@VRaven_Bot@@@@@std@@@std@@U_Iterator_base12@2@@std@@QAE@$$QAV01@@Z
_TEXT	SEGMENT
_this$ = -4						; size = 4
___that$ = 8						; size = 4
??0?$_List_unchecked_const_iterator@V?$_List_val@U?$_List_simple_types@PAV?$Goal@VRaven_Bot@@@@@std@@@std@@U_Iterator_base12@2@@std@@QAE@$$QAV01@@Z PROC ; std::_List_unchecked_const_iterator<std::_List_val<std::_List_simple_types<Goal<Raven_Bot> *> >,std::_Iterator_base12>::_List_unchecked_const_iterator<std::_List_val<std::_List_simple_types<Goal<Raven_Bot> *> >,std::_Iterator_base12>, COMDAT
; _this$ = ecx
	push	ebp
	mov	ebp, esp
	push	ecx
	mov	DWORD PTR [ebp-4], -858993460		; ccccccccH
	mov	DWORD PTR _this$[ebp], ecx
	mov	eax, DWORD PTR ___that$[ebp]
	push	eax
	mov	ecx, DWORD PTR _this$[ebp]
	call	??0?$_Iterator012@Ubidirectional_iterator_tag@std@@PAV?$Goal@VRaven_Bot@@@@HPBQAV3@ABQAV3@U_Iterator_base12@2@@std@@QAE@$$QAU01@@Z
	mov	ecx, DWORD PTR _this$[ebp]
	mov	edx, DWORD PTR ___that$[ebp]
	mov	eax, DWORD PTR [edx+8]
	mov	DWORD PTR [ecx+8], eax
	mov	eax, DWORD PTR _this$[ebp]
	add	esp, 4
	cmp	ebp, esp
	call	__RTC_CheckEsp
	mov	esp, ebp
	pop	ebp
	ret	4
??0?$_List_unchecked_const_iterator@V?$_List_val@U?$_List_simple_types@PAV?$Goal@VRaven_Bot@@@@@std@@@std@@U_Iterator_base12@2@@std@@QAE@$$QAV01@@Z ENDP ; std::_List_unchecked_const_iterator<std::_List_val<std::_List_simple_types<Goal<Raven_Bot> *> >,std::_Iterator_base12>::_List_unchecked_const_iterator<std::_List_val<std::_List_simple_types<Goal<Raven_Bot> *> >,std::_Iterator_base12>
_TEXT	ENDS
; Function compile flags: /Odtp /RTCsu
;	COMDAT ??0?$_List_unchecked_const_iterator@V?$_List_val@U?$_List_simple_types@PAV?$Goal@VRaven_Bot@@@@@std@@@std@@U_Iterator_base12@2@@std@@QAE@ABV01@@Z
_TEXT	SEGMENT
_this$ = -4						; size = 4
___that$ = 8						; size = 4
??0?$_List_unchecked_const_iterator@V?$_List_val@U?$_List_simple_types@PAV?$Goal@VRaven_Bot@@@@@std@@@std@@U_Iterator_base12@2@@std@@QAE@ABV01@@Z PROC ; std::_List_unchecked_const_iterator<std::_List_val<std::_List_simple_types<Goal<Raven_Bot> *> >,std::_Iterator_base12>::_List_unchecked_const_iterator<std::_List_val<std::_List_simple_types<Goal<Raven_Bot> *> >,std::_Iterator_base12>, COMDAT
; _this$ = ecx
	push	ebp
	mov	ebp, esp
	push	ecx
	mov	DWORD PTR [ebp-4], -858993460		; ccccccccH
	mov	DWORD PTR _this$[ebp], ecx
	mov	eax, DWORD PTR ___that$[ebp]
	push	eax
	mov	ecx, DWORD PTR _this$[ebp]
	call	??0?$_Iterator012@Ubidirectional_iterator_tag@std@@PAV?$Goal@VRaven_Bot@@@@HPBQAV3@ABQAV3@U_Iterator_base12@2@@std@@QAE@ABU01@@Z
	mov	ecx, DWORD PTR _this$[ebp]
	mov	edx, DWORD PTR ___that$[ebp]
	mov	eax, DWORD PTR [edx+8]
	mov	DWORD PTR [ecx+8], eax
	mov	eax, DWORD PTR _this$[ebp]
	add	esp, 4
	cmp	ebp, esp
	call	__RTC_CheckEsp
	mov	esp, ebp
	pop	ebp
	ret	4
??0?$_List_unchecked_const_iterator@V?$_List_val@U?$_List_simple_types@PAV?$Goal@VRaven_Bot@@@@@std@@@std@@U_Iterator_base12@2@@std@@QAE@ABV01@@Z ENDP ; std::_List_unchecked_const_iterator<std::_List_val<std::_List_simple_types<Goal<Raven_Bot> *> >,std::_Iterator_base12>::_List_unchecked_const_iterator<std::_List_val<std::_List_simple_types<Goal<Raven_Bot> *> >,std::_Iterator_base12>
_TEXT	ENDS
; Function compile flags: /Odtp /RTCsu
;	COMDAT ??1?$_List_unchecked_const_iterator@V?$_List_val@U?$_List_simple_types@PAV?$Goal@VRaven_Bot@@@@@std@@@std@@U_Iterator_base12@2@@std@@QAE@XZ
_TEXT	SEGMENT
_this$ = -4						; size = 4
??1?$_List_unchecked_const_iterator@V?$_List_val@U?$_List_simple_types@PAV?$Goal@VRaven_Bot@@@@@std@@@std@@U_Iterator_base12@2@@std@@QAE@XZ PROC ; std::_List_unchecked_const_iterator<std::_List_val<std::_List_simple_types<Goal<Raven_Bot> *> >,std::_Iterator_base12>::~_List_unchecked_const_iterator<std::_List_val<std::_List_simple_types<Goal<Raven_Bot> *> >,std::_Iterator_base12>, COMDAT
; _this$ = ecx
	push	ebp
	mov	ebp, esp
	push	ecx
	mov	DWORD PTR [ebp-4], -858993460		; ccccccccH
	mov	DWORD PTR _this$[ebp], ecx
	mov	ecx, DWORD PTR _this$[ebp]
	call	??1?$_Iterator012@Ubidirectional_iterator_tag@std@@PAV?$Goal@VRaven_Bot@@@@HPBQAV3@ABQAV3@U_Iterator_base12@2@@std@@QAE@XZ
	add	esp, 4
	cmp	ebp, esp
	call	__RTC_CheckEsp
	mov	esp, ebp
	pop	ebp
	ret	0
??1?$_List_unchecked_const_iterator@V?$_List_val@U?$_List_simple_types@PAV?$Goal@VRaven_Bot@@@@@std@@@std@@U_Iterator_base12@2@@std@@QAE@XZ ENDP ; std::_List_unchecked_const_iterator<std::_List_val<std::_List_simple_types<Goal<Raven_Bot> *> >,std::_Iterator_base12>::~_List_unchecked_const_iterator<std::_List_val<std::_List_simple_types<Goal<Raven_Bot> *> >,std::_Iterator_base12>
_TEXT	ENDS
; Function compile flags: /Odtp /RTCsu
; File d:\microsoft visual studio 14.0\vc\include\list
;	COMDAT ?_Mynode@?$_List_unchecked_const_iterator@V?$_List_val@U?$_List_simple_types@PAV?$Goal@VRaven_Bot@@@@@std@@@std@@U_Iterator_base12@2@@std@@QBEPAU?$_List_node@PAV?$Goal@VRaven_Bot@@@@PAX@2@XZ
_TEXT	SEGMENT
_this$ = -4						; size = 4
?_Mynode@?$_List_unchecked_const_iterator@V?$_List_val@U?$_List_simple_types@PAV?$Goal@VRaven_Bot@@@@@std@@@std@@U_Iterator_base12@2@@std@@QBEPAU?$_List_node@PAV?$Goal@VRaven_Bot@@@@PAX@2@XZ PROC ; std::_List_unchecked_const_iterator<std::_List_val<std::_List_simple_types<Goal<Raven_Bot> *> >,std::_Iterator_base12>::_Mynode, COMDAT
; _this$ = ecx

; 95   : 		{	// return node pointer

	push	ebp
	mov	ebp, esp
	push	ecx
	mov	DWORD PTR [ebp-4], -858993460		; ccccccccH
	mov	DWORD PTR _this$[ebp], ecx

; 96   : 		return (_Ptr);

	mov	eax, DWORD PTR _this$[ebp]
	mov	eax, DWORD PTR [eax+8]

; 97   : 		}

	mov	esp, ebp
	pop	ebp
	ret	0
?_Mynode@?$_List_unchecked_const_iterator@V?$_List_val@U?$_List_simple_types@PAV?$Goal@VRaven_Bot@@@@@std@@@std@@U_Iterator_base12@2@@std@@QBEPAU?$_List_node@PAV?$Goal@VRaven_Bot@@@@PAX@2@XZ ENDP ; std::_List_unchecked_const_iterator<std::_List_val<std::_List_simple_types<Goal<Raven_Bot> *> >,std::_Iterator_base12>::_Mynode
_TEXT	ENDS
; Function compile flags: /Odtp /RTCsu
; File d:\microsoft visual studio 14.0\vc\include\list
;	COMDAT ??0?$_List_unchecked_const_iterator@V?$_List_val@U?$_List_simple_types@PAV?$Goal@VRaven_Bot@@@@@std@@@std@@U_Iterator_base12@2@@std@@QAE@PAU?$_List_node@PAV?$Goal@VRaven_Bot@@@@PAX@1@PBV?$_List_val@U?$_List_simple_types@PAV?$Goal@VRaven_Bot@@@@@std@@@1@@Z
_TEXT	SEGMENT
_this$ = -16						; size = 4
__$EHRec$ = -12						; size = 12
__Pnode$ = 8						; size = 4
__Plist$ = 12						; size = 4
??0?$_List_unchecked_const_iterator@V?$_List_val@U?$_List_simple_types@PAV?$Goal@VRaven_Bot@@@@@std@@@std@@U_Iterator_base12@2@@std@@QAE@PAU?$_List_node@PAV?$Goal@VRaven_Bot@@@@PAX@1@PBV?$_List_val@U?$_List_simple_types@PAV?$Goal@VRaven_Bot@@@@@std@@@1@@Z PROC ; std::_List_unchecked_const_iterator<std::_List_val<std::_List_simple_types<Goal<Raven_Bot> *> >,std::_Iterator_base12>::_List_unchecked_const_iterator<std::_List_val<std::_List_simple_types<Goal<Raven_Bot> *> >,std::_Iterator_base12>, COMDAT
; _this$ = ecx

; 44   : 		{	// construct with node pointer _Pnode

	push	ebp
	mov	ebp, esp
	push	-1
	push	__ehhandler$??0?$_List_unchecked_const_iterator@V?$_List_val@U?$_List_simple_types@PAV?$Goal@VRaven_Bot@@@@@std@@@std@@U_Iterator_base12@2@@std@@QAE@PAU?$_List_node@PAV?$Goal@VRaven_Bot@@@@PAX@1@PBV?$_List_val@U?$_List_simple_types@PAV?$Goal@VRaven_Bot@@@@@std@@@1@@Z
	mov	eax, DWORD PTR fs:0
	push	eax
	push	ecx
	mov	DWORD PTR [ebp-16], -858993460		; ccccccccH
	mov	eax, DWORD PTR ___security_cookie
	xor	eax, ebp
	push	eax
	lea	eax, DWORD PTR __$EHRec$[ebp]
	mov	DWORD PTR fs:0, eax
	mov	DWORD PTR _this$[ebp], ecx
	mov	ecx, DWORD PTR _this$[ebp]
	call	??0?$_Iterator012@Ubidirectional_iterator_tag@std@@PAV?$Goal@VRaven_Bot@@@@HPBQAV3@ABQAV3@U_Iterator_base12@2@@std@@QAE@XZ
	mov	DWORD PTR __$EHRec$[ebp+8], 0

; 43   : 		: _Ptr(_Pnode)

	mov	eax, DWORD PTR _this$[ebp]
	mov	ecx, DWORD PTR __Pnode$[ebp]
	mov	DWORD PTR [eax+8], ecx

; 45   : 		this->_Adopt(_Plist);

	mov	edx, DWORD PTR __Plist$[ebp]
	push	edx
	mov	ecx, DWORD PTR _this$[ebp]
	call	?_Adopt@_Iterator_base12@std@@QAEXPBU_Container_base12@2@@Z ; std::_Iterator_base12::_Adopt

; 46   : 		}

	mov	DWORD PTR __$EHRec$[ebp+8], -1
	mov	eax, DWORD PTR _this$[ebp]
	mov	ecx, DWORD PTR __$EHRec$[ebp]
	mov	DWORD PTR fs:0, ecx
	pop	ecx
	add	esp, 16					; 00000010H
	cmp	ebp, esp
	call	__RTC_CheckEsp
	mov	esp, ebp
	pop	ebp
	ret	8
_TEXT	ENDS
;	COMDAT text$x
text$x	SEGMENT
__unwindfunclet$??0?$_List_unchecked_const_iterator@V?$_List_val@U?$_List_simple_types@PAV?$Goal@VRaven_Bot@@@@@std@@@std@@U_Iterator_base12@2@@std@@QAE@PAU?$_List_node@PAV?$Goal@VRaven_Bot@@@@PAX@1@PBV?$_List_val@U?$_List_simple_types@PAV?$Goal@VRaven_Bot@@@@@std@@@1@@Z$0:
	mov	ecx, DWORD PTR _this$[ebp]
	jmp	??1?$_Iterator012@Ubidirectional_iterator_tag@std@@PAV?$Goal@VRaven_Bot@@@@HPBQAV3@ABQAV3@U_Iterator_base12@2@@std@@QAE@XZ
__ehhandler$??0?$_List_unchecked_const_iterator@V?$_List_val@U?$_List_simple_types@PAV?$Goal@VRaven_Bot@@@@@std@@@std@@U_Iterator_base12@2@@std@@QAE@PAU?$_List_node@PAV?$Goal@VRaven_Bot@@@@PAX@1@PBV?$_List_val@U?$_List_simple_types@PAV?$Goal@VRaven_Bot@@@@@std@@@1@@Z:
	mov	edx, DWORD PTR [esp+8]
	lea	eax, DWORD PTR [edx+12]
	mov	ecx, DWORD PTR [edx-8]
	xor	ecx, eax
	call	@__security_check_cookie@4
	mov	eax, OFFSET __ehfuncinfo$??0?$_List_unchecked_const_iterator@V?$_List_val@U?$_List_simple_types@PAV?$Goal@VRaven_Bot@@@@@std@@@std@@U_Iterator_base12@2@@std@@QAE@PAU?$_List_node@PAV?$Goal@VRaven_Bot@@@@PAX@1@PBV?$_List_val@U?$_List_simple_types@PAV?$Goal@VRaven_Bot@@@@@std@@@1@@Z
	jmp	___CxxFrameHandler3
text$x	ENDS
??0?$_List_unchecked_const_iterator@V?$_List_val@U?$_List_simple_types@PAV?$Goal@VRaven_Bot@@@@@std@@@std@@U_Iterator_base12@2@@std@@QAE@PAU?$_List_node@PAV?$Goal@VRaven_Bot@@@@PAX@1@PBV?$_List_val@U?$_List_simple_types@PAV?$Goal@VRaven_Bot@@@@@std@@@1@@Z ENDP ; std::_List_unchecked_const_iterator<std::_List_val<std::_List_simple_types<Goal<Raven_Bot> *> >,std::_Iterator_base12>::_List_unchecked_const_iterator<std::_List_val<std::_List_simple_types<Goal<Raven_Bot> *> >,std::_Iterator_base12>
; Function compile flags: /Odtp /RTCsu
; File d:\microsoft visual studio 14.0\vc\include\list
;	COMDAT ??0?$_List_unchecked_const_iterator@V?$_List_val@U?$_List_simple_types@PAV?$Goal@VRaven_Bot@@@@@std@@@std@@U_Iterator_base12@2@@std@@QAE@XZ
_TEXT	SEGMENT
_this$ = -4						; size = 4
??0?$_List_unchecked_const_iterator@V?$_List_val@U?$_List_simple_types@PAV?$Goal@VRaven_Bot@@@@@std@@@std@@U_Iterator_base12@2@@std@@QAE@XZ PROC ; std::_List_unchecked_const_iterator<std::_List_val<std::_List_simple_types<Goal<Raven_Bot> *> >,std::_Iterator_base12>::_List_unchecked_const_iterator<std::_List_val<std::_List_simple_types<Goal<Raven_Bot> *> >,std::_Iterator_base12>, COMDAT
; _this$ = ecx

; 39   : 		{	// construct with null node pointer

	push	ebp
	mov	ebp, esp
	push	ecx
	mov	DWORD PTR [ebp-4], -858993460		; ccccccccH
	mov	DWORD PTR _this$[ebp], ecx
	mov	ecx, DWORD PTR _this$[ebp]
	call	??0?$_Iterator012@Ubidirectional_iterator_tag@std@@PAV?$Goal@VRaven_Bot@@@@HPBQAV3@ABQAV3@U_Iterator_base12@2@@std@@QAE@XZ

; 38   : 		: _Ptr(0)

	mov	eax, DWORD PTR _this$[ebp]
	mov	DWORD PTR [eax+8], 0

; 40   : 		}

	mov	eax, DWORD PTR _this$[ebp]
	add	esp, 4
	cmp	ebp, esp
	call	__RTC_CheckEsp
	mov	esp, ebp
	pop	ebp
	ret	0
??0?$_List_unchecked_const_iterator@V?$_List_val@U?$_List_simple_types@PAV?$Goal@VRaven_Bot@@@@@std@@@std@@U_Iterator_base12@2@@std@@QAE@XZ ENDP ; std::_List_unchecked_const_iterator<std::_List_val<std::_List_simple_types<Goal<Raven_Bot> *> >,std::_Iterator_base12>::_List_unchecked_const_iterator<std::_List_val<std::_List_simple_types<Goal<Raven_Bot> *> >,std::_Iterator_base12>
_TEXT	ENDS
; Function compile flags: /Odtp /RTCsu
;	COMDAT ??4?$_Iterator012@Ubidirectional_iterator_tag@std@@PAV?$Goal@VRaven_Bot@@@@HPBQAV3@ABQAV3@U_Iterator_base12@2@@std@@QAEAAU01@$$QAU01@@Z
_TEXT	SEGMENT
_this$ = -4						; size = 4
___that$ = 8						; size = 4
??4?$_Iterator012@Ubidirectional_iterator_tag@std@@PAV?$Goal@VRaven_Bot@@@@HPBQAV3@ABQAV3@U_Iterator_base12@2@@std@@QAEAAU01@$$QAU01@@Z PROC ; std::_Iterator012<std::bidirectional_iterator_tag,Goal<Raven_Bot> *,int,Goal<Raven_Bot> * const *,Goal<Raven_Bot> * const &,std::_Iterator_base12>::operator=, COMDAT
; _this$ = ecx
	push	ebp
	mov	ebp, esp
	push	ecx
	mov	DWORD PTR [ebp-4], -858993460		; ccccccccH
	mov	DWORD PTR _this$[ebp], ecx
	mov	eax, DWORD PTR ___that$[ebp]
	push	eax
	mov	ecx, DWORD PTR _this$[ebp]
	call	??4_Iterator_base12@std@@QAEAAU01@ABU01@@Z ; std::_Iterator_base12::operator=
	mov	eax, DWORD PTR _this$[ebp]
	add	esp, 4
	cmp	ebp, esp
	call	__RTC_CheckEsp
	mov	esp, ebp
	pop	ebp
	ret	4
??4?$_Iterator012@Ubidirectional_iterator_tag@std@@PAV?$Goal@VRaven_Bot@@@@HPBQAV3@ABQAV3@U_Iterator_base12@2@@std@@QAEAAU01@$$QAU01@@Z ENDP ; std::_Iterator012<std::bidirectional_iterator_tag,Goal<Raven_Bot> *,int,Goal<Raven_Bot> * const *,Goal<Raven_Bot> * const &,std::_Iterator_base12>::operator=
_TEXT	ENDS
; Function compile flags: /Odtp /RTCsu
;	COMDAT ??0?$_Iterator012@Ubidirectional_iterator_tag@std@@PAV?$Goal@VRaven_Bot@@@@HPBQAV3@ABQAV3@U_Iterator_base12@2@@std@@QAE@$$QAU01@@Z
_TEXT	SEGMENT
_this$ = -4						; size = 4
___that$ = 8						; size = 4
??0?$_Iterator012@Ubidirectional_iterator_tag@std@@PAV?$Goal@VRaven_Bot@@@@HPBQAV3@ABQAV3@U_Iterator_base12@2@@std@@QAE@$$QAU01@@Z PROC ; std::_Iterator012<std::bidirectional_iterator_tag,Goal<Raven_Bot> *,int,Goal<Raven_Bot> * const *,Goal<Raven_Bot> * const &,std::_Iterator_base12>::_Iterator012<std::bidirectional_iterator_tag,Goal<Raven_Bot> *,int,Goal<Raven_Bot> * const *,Goal<Raven_Bot> * const &,std::_Iterator_base12>, COMDAT
; _this$ = ecx
	push	ebp
	mov	ebp, esp
	push	ecx
	mov	DWORD PTR [ebp-4], -858993460		; ccccccccH
	mov	DWORD PTR _this$[ebp], ecx
	mov	eax, DWORD PTR ___that$[ebp]
	push	eax
	mov	ecx, DWORD PTR _this$[ebp]
	call	??0_Iterator_base12@std@@QAE@ABU01@@Z	; std::_Iterator_base12::_Iterator_base12
	mov	eax, DWORD PTR _this$[ebp]
	add	esp, 4
	cmp	ebp, esp
	call	__RTC_CheckEsp
	mov	esp, ebp
	pop	ebp
	ret	4
??0?$_Iterator012@Ubidirectional_iterator_tag@std@@PAV?$Goal@VRaven_Bot@@@@HPBQAV3@ABQAV3@U_Iterator_base12@2@@std@@QAE@$$QAU01@@Z ENDP ; std::_Iterator012<std::bidirectional_iterator_tag,Goal<Raven_Bot> *,int,Goal<Raven_Bot> * const *,Goal<Raven_Bot> * const &,std::_Iterator_base12>::_Iterator012<std::bidirectional_iterator_tag,Goal<Raven_Bot> *,int,Goal<Raven_Bot> * const *,Goal<Raven_Bot> * const &,std::_Iterator_base12>
_TEXT	ENDS
; Function compile flags: /Odtp /RTCsu
;	COMDAT ??0?$_Iterator012@Ubidirectional_iterator_tag@std@@PAV?$Goal@VRaven_Bot@@@@HPBQAV3@ABQAV3@U_Iterator_base12@2@@std@@QAE@ABU01@@Z
_TEXT	SEGMENT
_this$ = -4						; size = 4
___that$ = 8						; size = 4
??0?$_Iterator012@Ubidirectional_iterator_tag@std@@PAV?$Goal@VRaven_Bot@@@@HPBQAV3@ABQAV3@U_Iterator_base12@2@@std@@QAE@ABU01@@Z PROC ; std::_Iterator012<std::bidirectional_iterator_tag,Goal<Raven_Bot> *,int,Goal<Raven_Bot> * const *,Goal<Raven_Bot> * const &,std::_Iterator_base12>::_Iterator012<std::bidirectional_iterator_tag,Goal<Raven_Bot> *,int,Goal<Raven_Bot> * const *,Goal<Raven_Bot> * const &,std::_Iterator_base12>, COMDAT
; _this$ = ecx
	push	ebp
	mov	ebp, esp
	push	ecx
	mov	DWORD PTR [ebp-4], -858993460		; ccccccccH
	mov	DWORD PTR _this$[ebp], ecx
	mov	eax, DWORD PTR ___that$[ebp]
	push	eax
	mov	ecx, DWORD PTR _this$[ebp]
	call	??0_Iterator_base12@std@@QAE@ABU01@@Z	; std::_Iterator_base12::_Iterator_base12
	mov	eax, DWORD PTR _this$[ebp]
	add	esp, 4
	cmp	ebp, esp
	call	__RTC_CheckEsp
	mov	esp, ebp
	pop	ebp
	ret	4
??0?$_Iterator012@Ubidirectional_iterator_tag@std@@PAV?$Goal@VRaven_Bot@@@@HPBQAV3@ABQAV3@U_Iterator_base12@2@@std@@QAE@ABU01@@Z ENDP ; std::_Iterator012<std::bidirectional_iterator_tag,Goal<Raven_Bot> *,int,Goal<Raven_Bot> * const *,Goal<Raven_Bot> * const &,std::_Iterator_base12>::_Iterator012<std::bidirectional_iterator_tag,Goal<Raven_Bot> *,int,Goal<Raven_Bot> * const *,Goal<Raven_Bot> * const &,std::_Iterator_base12>
_TEXT	ENDS
; Function compile flags: /Odtp /RTCsu
;	COMDAT ??1?$_Iterator012@Ubidirectional_iterator_tag@std@@PAV?$Goal@VRaven_Bot@@@@HPBQAV3@ABQAV3@U_Iterator_base12@2@@std@@QAE@XZ
_TEXT	SEGMENT
_this$ = -4						; size = 4
??1?$_Iterator012@Ubidirectional_iterator_tag@std@@PAV?$Goal@VRaven_Bot@@@@HPBQAV3@ABQAV3@U_Iterator_base12@2@@std@@QAE@XZ PROC ; std::_Iterator012<std::bidirectional_iterator_tag,Goal<Raven_Bot> *,int,Goal<Raven_Bot> * const *,Goal<Raven_Bot> * const &,std::_Iterator_base12>::~_Iterator012<std::bidirectional_iterator_tag,Goal<Raven_Bot> *,int,Goal<Raven_Bot> * const *,Goal<Raven_Bot> * const &,std::_Iterator_base12>, COMDAT
; _this$ = ecx
	push	ebp
	mov	ebp, esp
	push	ecx
	mov	DWORD PTR [ebp-4], -858993460		; ccccccccH
	mov	DWORD PTR _this$[ebp], ecx
	mov	ecx, DWORD PTR _this$[ebp]
	call	??1_Iterator_base12@std@@QAE@XZ		; std::_Iterator_base12::~_Iterator_base12
	add	esp, 4
	cmp	ebp, esp
	call	__RTC_CheckEsp
	mov	esp, ebp
	pop	ebp
	ret	0
??1?$_Iterator012@Ubidirectional_iterator_tag@std@@PAV?$Goal@VRaven_Bot@@@@HPBQAV3@ABQAV3@U_Iterator_base12@2@@std@@QAE@XZ ENDP ; std::_Iterator012<std::bidirectional_iterator_tag,Goal<Raven_Bot> *,int,Goal<Raven_Bot> * const *,Goal<Raven_Bot> * const &,std::_Iterator_base12>::~_Iterator012<std::bidirectional_iterator_tag,Goal<Raven_Bot> *,int,Goal<Raven_Bot> * const *,Goal<Raven_Bot> * const &,std::_Iterator_base12>
_TEXT	ENDS
; Function compile flags: /Odtp /RTCsu
;	COMDAT ??0?$_Iterator012@Ubidirectional_iterator_tag@std@@PAV?$Goal@VRaven_Bot@@@@HPBQAV3@ABQAV3@U_Iterator_base12@2@@std@@QAE@XZ
_TEXT	SEGMENT
_this$ = -4						; size = 4
??0?$_Iterator012@Ubidirectional_iterator_tag@std@@PAV?$Goal@VRaven_Bot@@@@HPBQAV3@ABQAV3@U_Iterator_base12@2@@std@@QAE@XZ PROC ; std::_Iterator012<std::bidirectional_iterator_tag,Goal<Raven_Bot> *,int,Goal<Raven_Bot> * const *,Goal<Raven_Bot> * const &,std::_Iterator_base12>::_Iterator012<std::bidirectional_iterator_tag,Goal<Raven_Bot> *,int,Goal<Raven_Bot> * const *,Goal<Raven_Bot> * const &,std::_Iterator_base12>, COMDAT
; _this$ = ecx
	push	ebp
	mov	ebp, esp
	push	ecx
	mov	DWORD PTR [ebp-4], -858993460		; ccccccccH
	mov	DWORD PTR _this$[ebp], ecx
	mov	ecx, DWORD PTR _this$[ebp]
	call	??0_Iterator_base12@std@@QAE@XZ		; std::_Iterator_base12::_Iterator_base12
	mov	eax, DWORD PTR _this$[ebp]
	add	esp, 4
	cmp	ebp, esp
	call	__RTC_CheckEsp
	mov	esp, ebp
	pop	ebp
	ret	0
??0?$_Iterator012@Ubidirectional_iterator_tag@std@@PAV?$Goal@VRaven_Bot@@@@HPBQAV3@ABQAV3@U_Iterator_base12@2@@std@@QAE@XZ ENDP ; std::_Iterator012<std::bidirectional_iterator_tag,Goal<Raven_Bot> *,int,Goal<Raven_Bot> * const *,Goal<Raven_Bot> * const &,std::_Iterator_base12>::_Iterator012<std::bidirectional_iterator_tag,Goal<Raven_Bot> *,int,Goal<Raven_Bot> * const *,Goal<Raven_Bot> * const &,std::_Iterator_base12>
_TEXT	ENDS
; Function compile flags: /Odtp /RTCsu
; File d:\microsoft visual studio 14.0\vc\include\xmemory0
;	COMDAT ??$destroy@PAV?$Goal@VRaven_Bot@@@@@?$_Wrap_alloc@V?$allocator@U?$_List_node@PAV?$Goal@VRaven_Bot@@@@PAX@std@@@std@@@std@@QAEXPAPAV?$Goal@VRaven_Bot@@@@@Z
_TEXT	SEGMENT
_this$ = -4						; size = 4
__Ptr$ = 8						; size = 4
??$destroy@PAV?$Goal@VRaven_Bot@@@@@?$_Wrap_alloc@V?$allocator@U?$_List_node@PAV?$Goal@VRaven_Bot@@@@PAX@std@@@std@@@std@@QAEXPAPAV?$Goal@VRaven_Bot@@@@@Z PROC ; std::_Wrap_alloc<std::allocator<std::_List_node<Goal<Raven_Bot> *,void *> > >::destroy<Goal<Raven_Bot> *>, COMDAT
; _this$ = ecx

; 926  : 		{	// destroy object at _Ptr

	push	ebp
	mov	ebp, esp
	push	ecx
	mov	DWORD PTR [ebp-4], -858993460		; ccccccccH
	mov	DWORD PTR _this$[ebp], ecx

; 927  : 		_Mytraits::destroy(*this, _Ptr);

	mov	eax, DWORD PTR __Ptr$[ebp]
	push	eax
	mov	ecx, DWORD PTR _this$[ebp]
	push	ecx
	call	??$destroy@PAV?$Goal@VRaven_Bot@@@@@?$allocator_traits@V?$allocator@U?$_List_node@PAV?$Goal@VRaven_Bot@@@@PAX@std@@@std@@@std@@SAXAAV?$allocator@U?$_List_node@PAV?$Goal@VRaven_Bot@@@@PAX@std@@@1@PAPAV?$Goal@VRaven_Bot@@@@@Z ; std::allocator_traits<std::allocator<std::_List_node<Goal<Raven_Bot> *,void *> > >::destroy<Goal<Raven_Bot> *>
	add	esp, 8

; 928  : 		}

	add	esp, 4
	cmp	ebp, esp
	call	__RTC_CheckEsp
	mov	esp, ebp
	pop	ebp
	ret	4
??$destroy@PAV?$Goal@VRaven_Bot@@@@@?$_Wrap_alloc@V?$allocator@U?$_List_node@PAV?$Goal@VRaven_Bot@@@@PAX@std@@@std@@@std@@QAEXPAPAV?$Goal@VRaven_Bot@@@@@Z ENDP ; std::_Wrap_alloc<std::allocator<std::_List_node<Goal<Raven_Bot> *,void *> > >::destroy<Goal<Raven_Bot> *>
_TEXT	ENDS
; Function compile flags: /Odtp /RTCsu
; File d:\microsoft visual studio 14.0\vc\include\xstddef
;	COMDAT ??$addressof@PAV?$Goal@VRaven_Bot@@@@@std@@YAPAPAV?$Goal@VRaven_Bot@@@@AAPAV1@@Z
_TEXT	SEGMENT
$T1 = -2						; size = 1
__Val$ = 8						; size = 4
??$addressof@PAV?$Goal@VRaven_Bot@@@@@std@@YAPAPAV?$Goal@VRaven_Bot@@@@AAPAV1@@Z PROC ; std::addressof<Goal<Raven_Bot> *>, COMDAT

; 699  : 	{	// return address of _Val

	push	ebp
	mov	ebp, esp
	push	ecx
	mov	DWORD PTR [ebp-4], -858993460		; ccccccccH

; 700  : 	return (_Addressof(_Val, is_function<_Ty>()));

	movzx	eax, BYTE PTR $T1[ebp]
	push	eax
	mov	ecx, DWORD PTR __Val$[ebp]
	push	ecx
	call	??$_Addressof@PAV?$Goal@VRaven_Bot@@@@@std@@YAPAPAV?$Goal@VRaven_Bot@@@@AAPAV1@U?$integral_constant@_N$0A@@0@@Z ; std::_Addressof<Goal<Raven_Bot> *>
	add	esp, 8

; 701  : 	}

	add	esp, 4
	cmp	ebp, esp
	call	__RTC_CheckEsp
	mov	esp, ebp
	pop	ebp
	ret	0
??$addressof@PAV?$Goal@VRaven_Bot@@@@@std@@YAPAPAV?$Goal@VRaven_Bot@@@@AAPAV1@@Z ENDP ; std::addressof<Goal<Raven_Bot> *>
_TEXT	ENDS
; Function compile flags: /Odtp /RTCsu
; File d:\microsoft visual studio 14.0\vc\include\xmemory0
;	COMDAT ??$_Deallocate@U_Container_proxy@std@@@std@@YAXPAU_Container_proxy@0@I@Z
_TEXT	SEGMENT
__Ptr_container$1 = -16					; size = 4
__Ptr_ptr$2 = -12					; size = 4
__Ptr_user$3 = -8					; size = 4
__User_size$ = -4					; size = 4
__Ptr$ = 8						; size = 4
__Count$ = 12						; size = 4
??$_Deallocate@U_Container_proxy@std@@@std@@YAXPAU_Container_proxy@0@I@Z PROC ; std::_Deallocate<std::_Container_proxy>, COMDAT

; 98   : 	{	// deallocate storage for _Count elements of type _Ty

	push	ebp
	mov	ebp, esp
	sub	esp, 16					; 00000010H
	mov	eax, -858993460				; ccccccccH
	mov	DWORD PTR [ebp-16], eax
	mov	DWORD PTR [ebp-12], eax
	mov	DWORD PTR [ebp-8], eax
	mov	DWORD PTR [ebp-4], eax

; 99   :  #if defined(_M_IX86) || defined(_M_X64)
; 100  : 	_SCL_SECURE_ALWAYS_VALIDATE(_Count <= (size_t)(-1) / sizeof (_Ty));

	cmp	DWORD PTR __Count$[ebp], 536870911	; 1fffffffH
	jbe	SHORT $LN2@Deallocate
	mov	eax, OFFSET ??_C@_0CG@FHBDFCGK@_Count?5?$DM?$DN?5?$CIsize_t?$CJ?$CI?91?$CJ?5?1?5sizeof?5@
	test	eax, eax
	je	SHORT $LN10@Deallocate
	xor	ecx, ecx
	jne	SHORT $LN11@Deallocate
$LN10@Deallocate:
	push	OFFSET ??_C@_1FK@EJGLHMGC@?$AA?$CC?$AA_?$AAC?$AAo?$AAu?$AAn?$AAt?$AA?5?$AA?$DM?$AA?$DN?$AA?5?$AA?$CI?$AAs?$AAi?$AAz?$AAe?$AA_?$AAt?$AA?$CJ?$AA?$CI?$AA?9?$AA1?$AA?$CJ?$AA?5?$AA?1?$AA?5?$AAs?$AAi?$AAz?$AAe?$AAo?$AAf@
	push	OFFSET ??_C@_17CNPHIMPH@?$AA?$CF?$AAl?$AAs?$AA?$AA@
	push	0
	push	100					; 00000064H
	push	OFFSET ??_C@_1GI@MOGLCDAO@?$AAD?$AA?3?$AA?2?$AAM?$AAi?$AAc?$AAr?$AAo?$AAs?$AAo?$AAf?$AAt?$AA?5?$AAV?$AAi?$AAs?$AAu?$AAa?$AAl?$AA?5?$AAS?$AAt?$AAu?$AAd?$AAi?$AAo?$AA?5?$AA1?$AA4?$AA?4?$AA0?$AA?2@
	push	2
	call	__CrtDbgReportW
	add	esp, 24					; 00000018H
	cmp	eax, 1
	jne	SHORT $LN11@Deallocate
	int	3
$LN11@Deallocate:
	push	0
	push	100					; 00000064H
	push	OFFSET ??_C@_1GI@MOGLCDAO@?$AAD?$AA?3?$AA?2?$AAM?$AAi?$AAc?$AAr?$AAo?$AAs?$AAo?$AAf?$AAt?$AA?5?$AAV?$AAi?$AAs?$AAu?$AAa?$AAl?$AA?5?$AAS?$AAt?$AAu?$AAd?$AAi?$AAo?$AA?5?$AA1?$AA4?$AA?4?$AA0?$AA?2@
	push	OFFSET ??_C@_1CC@LOFJFFDB@?$AAs?$AAt?$AAd?$AA?3?$AA?3?$AA_?$AAD?$AAe?$AAa?$AAl?$AAl?$AAo?$AAc?$AAa?$AAt?$AAe?$AA?$AA@
	push	OFFSET ??_C@_1CG@JNLFBNGN@?$AA?$CC?$AAi?$AAn?$AAv?$AAa?$AAl?$AAi?$AAd?$AA?5?$AAa?$AAr?$AAg?$AAu?$AAm?$AAe?$AAn?$AAt?$AA?$CC?$AA?$AA@
	call	__invalid_parameter
	add	esp, 20					; 00000014H
$LN2@Deallocate:

; 101  : 	const size_t _User_size = _Count * sizeof (_Ty);

	mov	eax, DWORD PTR __Count$[ebp]
	shl	eax, 3
	mov	DWORD PTR __User_size$[ebp], eax

; 102  : 	if (_BIG_ALLOCATION_THRESHOLD <= _User_size)

	cmp	DWORD PTR __User_size$[ebp], 4096	; 00001000H
	jb	$LN3@Deallocate

; 103  : 		{	// deallocate large block
; 104  : 		const uintptr_t _Ptr_user = reinterpret_cast<uintptr_t>(_Ptr);

	mov	ecx, DWORD PTR __Ptr$[ebp]
	mov	DWORD PTR __Ptr_user$3[ebp], ecx

; 105  : 		_SCL_SECURE_ALWAYS_VALIDATE(

	mov	edx, DWORD PTR __Ptr_user$3[ebp]
	and	edx, 31					; 0000001fH
	je	SHORT $LN4@Deallocate
	mov	eax, OFFSET ??_C@_0DD@GBGGGKGG@?$CI_Ptr_user?5?$CG?5?$CI_BIG_ALLOCATION_AL@
	test	eax, eax
	je	SHORT $LN12@Deallocate
	xor	ecx, ecx
	jne	SHORT $LN13@Deallocate
$LN12@Deallocate:
	push	OFFSET ??_C@_1HE@CDMBFOKC@?$AA?$CC?$AA?$CI?$AA_?$AAP?$AAt?$AAr?$AA_?$AAu?$AAs?$AAe?$AAr?$AA?5?$AA?$CG?$AA?5?$AA?$CI?$AA_?$AAB?$AAI?$AAG?$AA_?$AAA?$AAL?$AAL?$AAO?$AAC?$AAA?$AAT?$AAI?$AAO?$AAN?$AA_?$AAA@
	push	OFFSET ??_C@_17CNPHIMPH@?$AA?$CF?$AAl?$AAs?$AA?$AA@
	push	0
	push	106					; 0000006aH
	push	OFFSET ??_C@_1GI@MOGLCDAO@?$AAD?$AA?3?$AA?2?$AAM?$AAi?$AAc?$AAr?$AAo?$AAs?$AAo?$AAf?$AAt?$AA?5?$AAV?$AAi?$AAs?$AAu?$AAa?$AAl?$AA?5?$AAS?$AAt?$AAu?$AAd?$AAi?$AAo?$AA?5?$AA1?$AA4?$AA?4?$AA0?$AA?2@
	push	2
	call	__CrtDbgReportW
	add	esp, 24					; 00000018H
	cmp	eax, 1
	jne	SHORT $LN13@Deallocate
	int	3
$LN13@Deallocate:
	push	0
	push	106					; 0000006aH
	push	OFFSET ??_C@_1GI@MOGLCDAO@?$AAD?$AA?3?$AA?2?$AAM?$AAi?$AAc?$AAr?$AAo?$AAs?$AAo?$AAf?$AAt?$AA?5?$AAV?$AAi?$AAs?$AAu?$AAa?$AAl?$AA?5?$AAS?$AAt?$AAu?$AAd?$AAi?$AAo?$AA?5?$AA1?$AA4?$AA?4?$AA0?$AA?2@
	push	OFFSET ??_C@_1CC@LOFJFFDB@?$AAs?$AAt?$AAd?$AA?3?$AA?3?$AA_?$AAD?$AAe?$AAa?$AAl?$AAl?$AAo?$AAc?$AAa?$AAt?$AAe?$AA?$AA@
	push	OFFSET ??_C@_1CG@JNLFBNGN@?$AA?$CC?$AAi?$AAn?$AAv?$AAa?$AAl?$AAi?$AAd?$AA?5?$AAa?$AAr?$AAg?$AAu?$AAm?$AAe?$AAn?$AAt?$AA?$CC?$AA?$AA@
	call	__invalid_parameter
	add	esp, 20					; 00000014H
$LN4@Deallocate:

; 106  : 			(_Ptr_user & (_BIG_ALLOCATION_ALIGNMENT - 1)) == 0);
; 107  : 		const uintptr_t _Ptr_ptr = _Ptr_user - sizeof(void *);

	mov	eax, DWORD PTR __Ptr_user$3[ebp]
	sub	eax, 4
	mov	DWORD PTR __Ptr_ptr$2[ebp], eax

; 108  : 		const uintptr_t _Ptr_container =
; 109  : 			*reinterpret_cast<uintptr_t *>(_Ptr_ptr);

	mov	ecx, DWORD PTR __Ptr_ptr$2[ebp]
	mov	edx, DWORD PTR [ecx]
	mov	DWORD PTR __Ptr_container$1[ebp], edx

; 110  : 
; 111  :  #ifdef _DEBUG
; 112  : 		// If the following asserts, it likely means that we are performing
; 113  : 		// an aligned delete on memory coming from an unaligned allocation.
; 114  : 		_SCL_SECURE_ALWAYS_VALIDATE(

	mov	eax, 4
	imul	ecx, eax, -1
	mov	edx, DWORD PTR __Ptr_ptr$2[ebp]
	cmp	DWORD PTR [edx+ecx], -84215046		; fafafafaH
	je	SHORT $LN5@Deallocate
	mov	eax, OFFSET ??_C@_0EI@NOJHEJCJ@reinterpret_cast?$DMuintptr_t?5?$CK?$DO?$CI_P@
	test	eax, eax
	je	SHORT $LN14@Deallocate
	xor	ecx, ecx
	jne	SHORT $LN15@Deallocate
$LN14@Deallocate:
	push	OFFSET ??_C@_1JO@EKLKIEHP@?$AA?$CC?$AAr?$AAe?$AAi?$AAn?$AAt?$AAe?$AAr?$AAp?$AAr?$AAe?$AAt?$AA_?$AAc?$AAa?$AAs?$AAt?$AA?$DM?$AAu?$AAi?$AAn?$AAt?$AAp?$AAt?$AAr?$AA_?$AAt?$AA?5?$AA?$CK?$AA?$DO?$AA?$CI?$AA_@
	push	OFFSET ??_C@_17CNPHIMPH@?$AA?$CF?$AAl?$AAs?$AA?$AA@
	push	0
	push	116					; 00000074H
	push	OFFSET ??_C@_1GI@MOGLCDAO@?$AAD?$AA?3?$AA?2?$AAM?$AAi?$AAc?$AAr?$AAo?$AAs?$AAo?$AAf?$AAt?$AA?5?$AAV?$AAi?$AAs?$AAu?$AAa?$AAl?$AA?5?$AAS?$AAt?$AAu?$AAd?$AAi?$AAo?$AA?5?$AA1?$AA4?$AA?4?$AA0?$AA?2@
	push	2
	call	__CrtDbgReportW
	add	esp, 24					; 00000018H
	cmp	eax, 1
	jne	SHORT $LN15@Deallocate
	int	3
$LN15@Deallocate:
	push	0
	push	116					; 00000074H
	push	OFFSET ??_C@_1GI@MOGLCDAO@?$AAD?$AA?3?$AA?2?$AAM?$AAi?$AAc?$AAr?$AAo?$AAs?$AAo?$AAf?$AAt?$AA?5?$AAV?$AAi?$AAs?$AAu?$AAa?$AAl?$AA?5?$AAS?$AAt?$AAu?$AAd?$AAi?$AAo?$AA?5?$AA1?$AA4?$AA?4?$AA0?$AA?2@
	push	OFFSET ??_C@_1CC@LOFJFFDB@?$AAs?$AAt?$AAd?$AA?3?$AA?3?$AA_?$AAD?$AAe?$AAa?$AAl?$AAl?$AAo?$AAc?$AAa?$AAt?$AAe?$AA?$AA@
	push	OFFSET ??_C@_1CG@JNLFBNGN@?$AA?$CC?$AAi?$AAn?$AAv?$AAa?$AAl?$AAi?$AAd?$AA?5?$AAa?$AAr?$AAg?$AAu?$AAm?$AAe?$AAn?$AAt?$AA?$CC?$AA?$AA@
	call	__invalid_parameter
	add	esp, 20					; 00000014H
$LN5@Deallocate:

; 115  : 			reinterpret_cast<uintptr_t *>(_Ptr_ptr)[-1] ==
; 116  : 				_BIG_ALLOCATION_SENTINEL);
; 117  :  #endif /* _DEBUG */
; 118  : 
; 119  : 		// Extra paranoia on aligned allocation/deallocation
; 120  : 		_SCL_SECURE_ALWAYS_VALIDATE(_Ptr_container < _Ptr_user);

	mov	eax, DWORD PTR __Ptr_container$1[ebp]
	cmp	eax, DWORD PTR __Ptr_user$3[ebp]
	jb	SHORT $LN6@Deallocate
	mov	ecx, OFFSET ??_C@_0BL@OCKMEJON@_Ptr_container?5?$DM?5_Ptr_user?$AA@
	test	ecx, ecx
	je	SHORT $LN16@Deallocate
	xor	edx, edx
	jne	SHORT $LN17@Deallocate
$LN16@Deallocate:
	push	OFFSET ??_C@_1EE@PDHAHDDC@?$AA?$CC?$AA_?$AAP?$AAt?$AAr?$AA_?$AAc?$AAo?$AAn?$AAt?$AAa?$AAi?$AAn?$AAe?$AAr?$AA?5?$AA?$DM?$AA?5?$AA_?$AAP?$AAt?$AAr?$AA_?$AAu?$AAs?$AAe?$AAr?$AA?$CC?$AA?5?$AA?$CG?$AA?$CG?$AA?5@
	push	OFFSET ??_C@_17CNPHIMPH@?$AA?$CF?$AAl?$AAs?$AA?$AA@
	push	0
	push	120					; 00000078H
	push	OFFSET ??_C@_1GI@MOGLCDAO@?$AAD?$AA?3?$AA?2?$AAM?$AAi?$AAc?$AAr?$AAo?$AAs?$AAo?$AAf?$AAt?$AA?5?$AAV?$AAi?$AAs?$AAu?$AAa?$AAl?$AA?5?$AAS?$AAt?$AAu?$AAd?$AAi?$AAo?$AA?5?$AA1?$AA4?$AA?4?$AA0?$AA?2@
	push	2
	call	__CrtDbgReportW
	add	esp, 24					; 00000018H
	cmp	eax, 1
	jne	SHORT $LN17@Deallocate
	int	3
$LN17@Deallocate:
	push	0
	push	120					; 00000078H
	push	OFFSET ??_C@_1GI@MOGLCDAO@?$AAD?$AA?3?$AA?2?$AAM?$AAi?$AAc?$AAr?$AAo?$AAs?$AAo?$AAf?$AAt?$AA?5?$AAV?$AAi?$AAs?$AAu?$AAa?$AAl?$AA?5?$AAS?$AAt?$AAu?$AAd?$AAi?$AAo?$AA?5?$AA1?$AA4?$AA?4?$AA0?$AA?2@
	push	OFFSET ??_C@_1CC@LOFJFFDB@?$AAs?$AAt?$AAd?$AA?3?$AA?3?$AA_?$AAD?$AAe?$AAa?$AAl?$AAl?$AAo?$AAc?$AAa?$AAt?$AAe?$AA?$AA@
	push	OFFSET ??_C@_1CG@JNLFBNGN@?$AA?$CC?$AAi?$AAn?$AAv?$AAa?$AAl?$AAi?$AAd?$AA?5?$AAa?$AAr?$AAg?$AAu?$AAm?$AAe?$AAn?$AAt?$AA?$CC?$AA?$AA@
	call	__invalid_parameter
	add	esp, 20					; 00000014H
$LN6@Deallocate:

; 121  : 
; 122  :  #ifdef _DEBUG
; 123  : 		_SCL_SECURE_ALWAYS_VALIDATE(2 * sizeof(void *)

	mov	ecx, DWORD PTR __Ptr_user$3[ebp]
	sub	ecx, DWORD PTR __Ptr_container$1[ebp]
	cmp	ecx, 8
	jae	SHORT $LN7@Deallocate
	mov	edx, OFFSET ??_C@_0DB@GLFJLNCE@2?5?$CK?5sizeof?$CIvoid?5?$CK?$CJ?5?$DM?$DN?5_Ptr_user?5@
	test	edx, edx
	je	SHORT $LN18@Deallocate
	xor	eax, eax
	jne	SHORT $LN19@Deallocate
$LN18@Deallocate:
	push	OFFSET ??_C@_1HA@NAPGMHAO@?$AA?$CC?$AA2?$AA?5?$AA?$CK?$AA?5?$AAs?$AAi?$AAz?$AAe?$AAo?$AAf?$AA?$CI?$AAv?$AAo?$AAi?$AAd?$AA?5?$AA?$CK?$AA?$CJ?$AA?5?$AA?$DM?$AA?$DN?$AA?5?$AA_?$AAP?$AAt?$AAr?$AA_?$AAu?$AAs?$AAe?$AAr@
	push	OFFSET ??_C@_17CNPHIMPH@?$AA?$CF?$AAl?$AAs?$AA?$AA@
	push	0
	push	124					; 0000007cH
	push	OFFSET ??_C@_1GI@MOGLCDAO@?$AAD?$AA?3?$AA?2?$AAM?$AAi?$AAc?$AAr?$AAo?$AAs?$AAo?$AAf?$AAt?$AA?5?$AAV?$AAi?$AAs?$AAu?$AAa?$AAl?$AA?5?$AAS?$AAt?$AAu?$AAd?$AAi?$AAo?$AA?5?$AA1?$AA4?$AA?4?$AA0?$AA?2@
	push	2
	call	__CrtDbgReportW
	add	esp, 24					; 00000018H
	cmp	eax, 1
	jne	SHORT $LN19@Deallocate
	int	3
$LN19@Deallocate:
	push	0
	push	124					; 0000007cH
	push	OFFSET ??_C@_1GI@MOGLCDAO@?$AAD?$AA?3?$AA?2?$AAM?$AAi?$AAc?$AAr?$AAo?$AAs?$AAo?$AAf?$AAt?$AA?5?$AAV?$AAi?$AAs?$AAu?$AAa?$AAl?$AA?5?$AAS?$AAt?$AAu?$AAd?$AAi?$AAo?$AA?5?$AA1?$AA4?$AA?4?$AA0?$AA?2@
	push	OFFSET ??_C@_1CC@LOFJFFDB@?$AAs?$AAt?$AAd?$AA?3?$AA?3?$AA_?$AAD?$AAe?$AAa?$AAl?$AAl?$AAo?$AAc?$AAa?$AAt?$AAe?$AA?$AA@
	push	OFFSET ??_C@_1CG@JNLFBNGN@?$AA?$CC?$AAi?$AAn?$AAv?$AAa?$AAl?$AAi?$AAd?$AA?5?$AAa?$AAr?$AAg?$AAu?$AAm?$AAe?$AAn?$AAt?$AA?$CC?$AA?$AA@
	call	__invalid_parameter
	add	esp, 20					; 00000014H
$LN7@Deallocate:

; 124  : 			<= _Ptr_user - _Ptr_container);
; 125  : 
; 126  :  #else /* _DEBUG */
; 127  : 		_SCL_SECURE_ALWAYS_VALIDATE(sizeof(void *)
; 128  : 			<= _Ptr_user - _Ptr_container);
; 129  :  #endif /* _DEBUG */
; 130  : 
; 131  : 		_SCL_SECURE_ALWAYS_VALIDATE(_Ptr_user - _Ptr_container

	mov	edx, DWORD PTR __Ptr_user$3[ebp]
	sub	edx, DWORD PTR __Ptr_container$1[ebp]
	cmp	edx, 39					; 00000027H
	jbe	SHORT $LN8@Deallocate
	mov	eax, OFFSET ??_C@_0CN@BLHJCAL@_Ptr_user?5?9?5_Ptr_container?5?$DM?$DN?5_N@
	test	eax, eax
	je	SHORT $LN20@Deallocate
	xor	ecx, ecx
	jne	SHORT $LN21@Deallocate
$LN20@Deallocate:
	push	OFFSET ??_C@_1GI@DHJGPFNI@?$AA?$CC?$AA_?$AAP?$AAt?$AAr?$AA_?$AAu?$AAs?$AAe?$AAr?$AA?5?$AA?9?$AA?5?$AA_?$AAP?$AAt?$AAr?$AA_?$AAc?$AAo?$AAn?$AAt?$AAa?$AAi?$AAn?$AAe?$AAr?$AA?5?$AA?$DM?$AA?$DN?$AA?5?$AA_@
	push	OFFSET ??_C@_17CNPHIMPH@?$AA?$CF?$AAl?$AAs?$AA?$AA@
	push	0
	push	132					; 00000084H
	push	OFFSET ??_C@_1GI@MOGLCDAO@?$AAD?$AA?3?$AA?2?$AAM?$AAi?$AAc?$AAr?$AAo?$AAs?$AAo?$AAf?$AAt?$AA?5?$AAV?$AAi?$AAs?$AAu?$AAa?$AAl?$AA?5?$AAS?$AAt?$AAu?$AAd?$AAi?$AAo?$AA?5?$AA1?$AA4?$AA?4?$AA0?$AA?2@
	push	2
	call	__CrtDbgReportW
	add	esp, 24					; 00000018H
	cmp	eax, 1
	jne	SHORT $LN21@Deallocate
	int	3
$LN21@Deallocate:
	push	0
	push	132					; 00000084H
	push	OFFSET ??_C@_1GI@MOGLCDAO@?$AAD?$AA?3?$AA?2?$AAM?$AAi?$AAc?$AAr?$AAo?$AAs?$AAo?$AAf?$AAt?$AA?5?$AAV?$AAi?$AAs?$AAu?$AAa?$AAl?$AA?5?$AAS?$AAt?$AAu?$AAd?$AAi?$AAo?$AA?5?$AA1?$AA4?$AA?4?$AA0?$AA?2@
	push	OFFSET ??_C@_1CC@LOFJFFDB@?$AAs?$AAt?$AAd?$AA?3?$AA?3?$AA_?$AAD?$AAe?$AAa?$AAl?$AAl?$AAo?$AAc?$AAa?$AAt?$AAe?$AA?$AA@
	push	OFFSET ??_C@_1CG@JNLFBNGN@?$AA?$CC?$AAi?$AAn?$AAv?$AAa?$AAl?$AAi?$AAd?$AA?5?$AAa?$AAr?$AAg?$AAu?$AAm?$AAe?$AAn?$AAt?$AA?$CC?$AA?$AA@
	call	__invalid_parameter
	add	esp, 20					; 00000014H
$LN8@Deallocate:

; 132  : 			<= _NON_USER_SIZE);
; 133  : 
; 134  : 		_Ptr = reinterpret_cast<_Ty *>(_Ptr_container);

	mov	eax, DWORD PTR __Ptr_container$1[ebp]
	mov	DWORD PTR __Ptr$[ebp], eax
$LN3@Deallocate:

; 135  : 		}
; 136  :  #endif /* defined(_M_IX86) || defined(_M_X64) */
; 137  : 
; 138  : 	::operator delete(_Ptr);

	mov	ecx, DWORD PTR __Ptr$[ebp]
	push	ecx
	call	??3@YAXPAX@Z				; operator delete
	add	esp, 4

; 139  : 	}

	add	esp, 16					; 00000010H
	cmp	ebp, esp
	call	__RTC_CheckEsp
	mov	esp, ebp
	pop	ebp
	ret	0
??$_Deallocate@U_Container_proxy@std@@@std@@YAXPAU_Container_proxy@0@I@Z ENDP ; std::_Deallocate<std::_Container_proxy>
_TEXT	ENDS
; Function compile flags: /Odtp /RTCsu
; File d:\microsoft visual studio 14.0\vc\include\xmemory0
;	COMDAT ??$_Allocate@U_Container_proxy@std@@@std@@YAPAU_Container_proxy@0@IPAU10@_N@Z
_TEXT	SEGMENT
__Ptr_container$1 = -16					; size = 4
__Block_size$2 = -12					; size = 4
__User_size$ = -8					; size = 4
__Ptr$ = -4						; size = 4
__Count$ = 8						; size = 4
___formal$ = 12						; size = 4
__Try_aligned_allocation$ = 16				; size = 1
??$_Allocate@U_Container_proxy@std@@@std@@YAPAU_Container_proxy@0@IPAU10@_N@Z PROC ; std::_Allocate<std::_Container_proxy>, COMDAT

; 54   : 	{	// allocate storage for _Count elements of type _Ty

	push	ebp
	mov	ebp, esp
	sub	esp, 16					; 00000010H
	mov	eax, -858993460				; ccccccccH
	mov	DWORD PTR [ebp-16], eax
	mov	DWORD PTR [ebp-12], eax
	mov	DWORD PTR [ebp-8], eax
	mov	DWORD PTR [ebp-4], eax

; 55   : 	void *_Ptr = 0;

	mov	DWORD PTR __Ptr$[ebp], 0

; 56   : 
; 57   : 	if (_Count == 0)

	cmp	DWORD PTR __Count$[ebp], 0
	jne	SHORT $LN2@Allocate

; 58   : 		return (static_cast<_Ty *>(_Ptr));

	mov	eax, DWORD PTR __Ptr$[ebp]
	jmp	$LN9@Allocate
$LN2@Allocate:

; 59   : 
; 60   : 	// check overflow of multiply
; 61   : 	if ((size_t)(-1) / sizeof (_Ty) < _Count)

	cmp	DWORD PTR __Count$[ebp], 536870911	; 1fffffffH
	jbe	SHORT $LN3@Allocate

; 62   : 		_Xbad_alloc();	// report no memory

	call	?_Xbad_alloc@std@@YAXXZ			; std::_Xbad_alloc
$LN3@Allocate:

; 63   : 	const size_t _User_size = _Count * sizeof (_Ty);

	mov	eax, DWORD PTR __Count$[ebp]
	shl	eax, 3
	mov	DWORD PTR __User_size$[ebp], eax

; 64   : 
; 65   :  #if defined(_M_IX86) || defined(_M_X64)
; 66   : 	if (_Try_aligned_allocation
; 67   : 		&& _BIG_ALLOCATION_THRESHOLD <= _User_size)

	movzx	ecx, BYTE PTR __Try_aligned_allocation$[ebp]
	test	ecx, ecx
	je	$LN4@Allocate
	cmp	DWORD PTR __User_size$[ebp], 4096	; 00001000H
	jb	$LN4@Allocate

; 68   : 		{	// allocate large block
; 69   : 		static_assert(sizeof (void *) < _BIG_ALLOCATION_ALIGNMENT,
; 70   : 			"Big allocations should at least match vector register size");
; 71   : 		const size_t _Block_size = _NON_USER_SIZE + _User_size;

	mov	edx, DWORD PTR __User_size$[ebp]
	add	edx, 39					; 00000027H
	mov	DWORD PTR __Block_size$2[ebp], edx

; 72   : 		if (_Block_size <= _User_size)

	mov	eax, DWORD PTR __Block_size$2[ebp]
	cmp	eax, DWORD PTR __User_size$[ebp]
	ja	SHORT $LN6@Allocate

; 73   : 			_Xbad_alloc();	// report no memory

	call	?_Xbad_alloc@std@@YAXXZ			; std::_Xbad_alloc
$LN6@Allocate:

; 74   : 		const uintptr_t _Ptr_container =
; 75   : 			reinterpret_cast<uintptr_t>(::operator new(_Block_size));

	mov	ecx, DWORD PTR __Block_size$2[ebp]
	push	ecx
	call	??2@YAPAXI@Z				; operator new
	add	esp, 4
	mov	DWORD PTR __Ptr_container$1[ebp], eax

; 76   : 		_SCL_SECURE_ALWAYS_VALIDATE(_Ptr_container != 0);

	cmp	DWORD PTR __Ptr_container$1[ebp], 0
	jne	SHORT $LN7@Allocate
	mov	edx, OFFSET ??_C@_0BE@LMNLACIC@_Ptr_container?5?$CB?$DN?50?$AA@
	test	edx, edx
	je	SHORT $LN10@Allocate
	xor	eax, eax
	jne	SHORT $LN11@Allocate
$LN10@Allocate:
	push	OFFSET ??_C@_1DG@HGDKEBPG@?$AA?$CC?$AA_?$AAP?$AAt?$AAr?$AA_?$AAc?$AAo?$AAn?$AAt?$AAa?$AAi?$AAn?$AAe?$AAr?$AA?5?$AA?$CB?$AA?$DN?$AA?5?$AA0?$AA?$CC?$AA?5?$AA?$CG?$AA?$CG?$AA?5?$AA0?$AA?$AA@
	push	OFFSET ??_C@_17CNPHIMPH@?$AA?$CF?$AAl?$AAs?$AA?$AA@
	push	0
	push	76					; 0000004cH
	push	OFFSET ??_C@_1GI@MOGLCDAO@?$AAD?$AA?3?$AA?2?$AAM?$AAi?$AAc?$AAr?$AAo?$AAs?$AAo?$AAf?$AAt?$AA?5?$AAV?$AAi?$AAs?$AAu?$AAa?$AAl?$AA?5?$AAS?$AAt?$AAu?$AAd?$AAi?$AAo?$AA?5?$AA1?$AA4?$AA?4?$AA0?$AA?2@
	push	2
	call	__CrtDbgReportW
	add	esp, 24					; 00000018H
	cmp	eax, 1
	jne	SHORT $LN11@Allocate
	int	3
$LN11@Allocate:
	push	0
	push	76					; 0000004cH
	push	OFFSET ??_C@_1GI@MOGLCDAO@?$AAD?$AA?3?$AA?2?$AAM?$AAi?$AAc?$AAr?$AAo?$AAs?$AAo?$AAf?$AAt?$AA?5?$AAV?$AAi?$AAs?$AAu?$AAa?$AAl?$AA?5?$AAS?$AAt?$AAu?$AAd?$AAi?$AAo?$AA?5?$AA1?$AA4?$AA?4?$AA0?$AA?2@
	push	OFFSET ??_C@_1BO@NKFMJPA@?$AAs?$AAt?$AAd?$AA?3?$AA?3?$AA_?$AAA?$AAl?$AAl?$AAo?$AAc?$AAa?$AAt?$AAe?$AA?$AA@
	push	OFFSET ??_C@_1CG@JNLFBNGN@?$AA?$CC?$AAi?$AAn?$AAv?$AAa?$AAl?$AAi?$AAd?$AA?5?$AAa?$AAr?$AAg?$AAu?$AAm?$AAe?$AAn?$AAt?$AA?$CC?$AA?$AA@
	call	__invalid_parameter
	add	esp, 20					; 00000014H
$LN7@Allocate:

; 77   : 		_Ptr = reinterpret_cast<void *>((_Ptr_container + _NON_USER_SIZE)

	mov	edx, DWORD PTR __Ptr_container$1[ebp]
	add	edx, 39					; 00000027H
	and	edx, -32				; ffffffe0H
	mov	DWORD PTR __Ptr$[ebp], edx

; 78   : 			& ~(_BIG_ALLOCATION_ALIGNMENT - 1));
; 79   : 		static_cast<uintptr_t *>(_Ptr)[-1] = _Ptr_container;

	mov	eax, 4
	imul	ecx, eax, -1
	mov	edx, DWORD PTR __Ptr$[ebp]
	mov	eax, DWORD PTR __Ptr_container$1[ebp]
	mov	DWORD PTR [edx+ecx], eax

; 80   : 
; 81   :  #ifdef _DEBUG
; 82   : 		static_cast<uintptr_t *>(_Ptr)[-2] = _BIG_ALLOCATION_SENTINEL;

	mov	ecx, 4
	imul	edx, ecx, -2
	mov	eax, DWORD PTR __Ptr$[ebp]
	mov	DWORD PTR [eax+edx], -84215046		; fafafafaH

; 83   :  #endif /* _DEBUG */
; 84   : 		}
; 85   : 	else

	jmp	SHORT $LN5@Allocate
$LN4@Allocate:

; 86   :  #endif /* defined(_M_IX86) || defined(_M_X64) */
; 87   : 
; 88   : 		{	// allocate normal block
; 89   : 		_Ptr = ::operator new(_User_size);

	mov	ecx, DWORD PTR __User_size$[ebp]
	push	ecx
	call	??2@YAPAXI@Z				; operator new
	add	esp, 4
	mov	DWORD PTR __Ptr$[ebp], eax

; 90   : 		_SCL_SECURE_ALWAYS_VALIDATE(_Ptr != 0);

	cmp	DWORD PTR __Ptr$[ebp], 0
	jne	SHORT $LN5@Allocate
	mov	edx, OFFSET ??_C@_09GLJCAGLP@_Ptr?5?$CB?$DN?50?$AA@
	test	edx, edx
	je	SHORT $LN12@Allocate
	xor	eax, eax
	jne	SHORT $LN13@Allocate
$LN12@Allocate:
	push	OFFSET ??_C@_1CC@GKJLLHIM@?$AA?$CC?$AA_?$AAP?$AAt?$AAr?$AA?5?$AA?$CB?$AA?$DN?$AA?5?$AA0?$AA?$CC?$AA?5?$AA?$CG?$AA?$CG?$AA?5?$AA0?$AA?$AA@
	push	OFFSET ??_C@_17CNPHIMPH@?$AA?$CF?$AAl?$AAs?$AA?$AA@
	push	0
	push	90					; 0000005aH
	push	OFFSET ??_C@_1GI@MOGLCDAO@?$AAD?$AA?3?$AA?2?$AAM?$AAi?$AAc?$AAr?$AAo?$AAs?$AAo?$AAf?$AAt?$AA?5?$AAV?$AAi?$AAs?$AAu?$AAa?$AAl?$AA?5?$AAS?$AAt?$AAu?$AAd?$AAi?$AAo?$AA?5?$AA1?$AA4?$AA?4?$AA0?$AA?2@
	push	2
	call	__CrtDbgReportW
	add	esp, 24					; 00000018H
	cmp	eax, 1
	jne	SHORT $LN13@Allocate
	int	3
$LN13@Allocate:
	push	0
	push	90					; 0000005aH
	push	OFFSET ??_C@_1GI@MOGLCDAO@?$AAD?$AA?3?$AA?2?$AAM?$AAi?$AAc?$AAr?$AAo?$AAs?$AAo?$AAf?$AAt?$AA?5?$AAV?$AAi?$AAs?$AAu?$AAa?$AAl?$AA?5?$AAS?$AAt?$AAu?$AAd?$AAi?$AAo?$AA?5?$AA1?$AA4?$AA?4?$AA0?$AA?2@
	push	OFFSET ??_C@_1BO@NKFMJPA@?$AAs?$AAt?$AAd?$AA?3?$AA?3?$AA_?$AAA?$AAl?$AAl?$AAo?$AAc?$AAa?$AAt?$AAe?$AA?$AA@
	push	OFFSET ??_C@_1CG@JNLFBNGN@?$AA?$CC?$AAi?$AAn?$AAv?$AAa?$AAl?$AAi?$AAd?$AA?5?$AAa?$AAr?$AAg?$AAu?$AAm?$AAe?$AAn?$AAt?$AA?$CC?$AA?$AA@
	call	__invalid_parameter
	add	esp, 20					; 00000014H
$LN5@Allocate:

; 91   : 		}
; 92   : 	return (static_cast<_Ty *>(_Ptr));

	mov	eax, DWORD PTR __Ptr$[ebp]
$LN9@Allocate:

; 93   : 	}

	add	esp, 16					; 00000010H
	cmp	ebp, esp
	call	__RTC_CheckEsp
	mov	esp, ebp
	pop	ebp
	ret	0
??$_Allocate@U_Container_proxy@std@@@std@@YAPAU_Container_proxy@0@IPAU10@_N@Z ENDP ; std::_Allocate<std::_Container_proxy>
_TEXT	ENDS
; Function compile flags: /Odtp /RTCsu
; File d:\microsoft visual studio 14.0\vc\include\xmemory0
;	COMDAT ??$_Deallocate@D@std@@YAXPADI@Z
_TEXT	SEGMENT
__Ptr_container$1 = -16					; size = 4
__Ptr_ptr$2 = -12					; size = 4
__Ptr_user$3 = -8					; size = 4
__User_size$ = -4					; size = 4
__Ptr$ = 8						; size = 4
__Count$ = 12						; size = 4
??$_Deallocate@D@std@@YAXPADI@Z PROC			; std::_Deallocate<char>, COMDAT

; 98   : 	{	// deallocate storage for _Count elements of type _Ty

	push	ebp
	mov	ebp, esp
	sub	esp, 16					; 00000010H
	mov	eax, -858993460				; ccccccccH
	mov	DWORD PTR [ebp-16], eax
	mov	DWORD PTR [ebp-12], eax
	mov	DWORD PTR [ebp-8], eax
	mov	DWORD PTR [ebp-4], eax

; 99   :  #if defined(_M_IX86) || defined(_M_X64)
; 100  : 	_SCL_SECURE_ALWAYS_VALIDATE(_Count <= (size_t)(-1) / sizeof (_Ty));

	cmp	DWORD PTR __Count$[ebp], -1
	jbe	SHORT $LN2@Deallocate
	mov	eax, OFFSET ??_C@_0CG@FHBDFCGK@_Count?5?$DM?$DN?5?$CIsize_t?$CJ?$CI?91?$CJ?5?1?5sizeof?5@
	test	eax, eax
	je	SHORT $LN10@Deallocate
	xor	ecx, ecx
	jne	SHORT $LN11@Deallocate
$LN10@Deallocate:
	push	OFFSET ??_C@_1FK@EJGLHMGC@?$AA?$CC?$AA_?$AAC?$AAo?$AAu?$AAn?$AAt?$AA?5?$AA?$DM?$AA?$DN?$AA?5?$AA?$CI?$AAs?$AAi?$AAz?$AAe?$AA_?$AAt?$AA?$CJ?$AA?$CI?$AA?9?$AA1?$AA?$CJ?$AA?5?$AA?1?$AA?5?$AAs?$AAi?$AAz?$AAe?$AAo?$AAf@
	push	OFFSET ??_C@_17CNPHIMPH@?$AA?$CF?$AAl?$AAs?$AA?$AA@
	push	0
	push	100					; 00000064H
	push	OFFSET ??_C@_1GI@MOGLCDAO@?$AAD?$AA?3?$AA?2?$AAM?$AAi?$AAc?$AAr?$AAo?$AAs?$AAo?$AAf?$AAt?$AA?5?$AAV?$AAi?$AAs?$AAu?$AAa?$AAl?$AA?5?$AAS?$AAt?$AAu?$AAd?$AAi?$AAo?$AA?5?$AA1?$AA4?$AA?4?$AA0?$AA?2@
	push	2
	call	__CrtDbgReportW
	add	esp, 24					; 00000018H
	cmp	eax, 1
	jne	SHORT $LN11@Deallocate
	int	3
$LN11@Deallocate:
	push	0
	push	100					; 00000064H
	push	OFFSET ??_C@_1GI@MOGLCDAO@?$AAD?$AA?3?$AA?2?$AAM?$AAi?$AAc?$AAr?$AAo?$AAs?$AAo?$AAf?$AAt?$AA?5?$AAV?$AAi?$AAs?$AAu?$AAa?$AAl?$AA?5?$AAS?$AAt?$AAu?$AAd?$AAi?$AAo?$AA?5?$AA1?$AA4?$AA?4?$AA0?$AA?2@
	push	OFFSET ??_C@_1CC@LOFJFFDB@?$AAs?$AAt?$AAd?$AA?3?$AA?3?$AA_?$AAD?$AAe?$AAa?$AAl?$AAl?$AAo?$AAc?$AAa?$AAt?$AAe?$AA?$AA@
	push	OFFSET ??_C@_1CG@JNLFBNGN@?$AA?$CC?$AAi?$AAn?$AAv?$AAa?$AAl?$AAi?$AAd?$AA?5?$AAa?$AAr?$AAg?$AAu?$AAm?$AAe?$AAn?$AAt?$AA?$CC?$AA?$AA@
	call	__invalid_parameter
	add	esp, 20					; 00000014H
$LN2@Deallocate:

; 101  : 	const size_t _User_size = _Count * sizeof (_Ty);

	mov	eax, DWORD PTR __Count$[ebp]
	mov	DWORD PTR __User_size$[ebp], eax

; 102  : 	if (_BIG_ALLOCATION_THRESHOLD <= _User_size)

	cmp	DWORD PTR __User_size$[ebp], 4096	; 00001000H
	jb	$LN3@Deallocate

; 103  : 		{	// deallocate large block
; 104  : 		const uintptr_t _Ptr_user = reinterpret_cast<uintptr_t>(_Ptr);

	mov	ecx, DWORD PTR __Ptr$[ebp]
	mov	DWORD PTR __Ptr_user$3[ebp], ecx

; 105  : 		_SCL_SECURE_ALWAYS_VALIDATE(

	mov	edx, DWORD PTR __Ptr_user$3[ebp]
	and	edx, 31					; 0000001fH
	je	SHORT $LN4@Deallocate
	mov	eax, OFFSET ??_C@_0DD@GBGGGKGG@?$CI_Ptr_user?5?$CG?5?$CI_BIG_ALLOCATION_AL@
	test	eax, eax
	je	SHORT $LN12@Deallocate
	xor	ecx, ecx
	jne	SHORT $LN13@Deallocate
$LN12@Deallocate:
	push	OFFSET ??_C@_1HE@CDMBFOKC@?$AA?$CC?$AA?$CI?$AA_?$AAP?$AAt?$AAr?$AA_?$AAu?$AAs?$AAe?$AAr?$AA?5?$AA?$CG?$AA?5?$AA?$CI?$AA_?$AAB?$AAI?$AAG?$AA_?$AAA?$AAL?$AAL?$AAO?$AAC?$AAA?$AAT?$AAI?$AAO?$AAN?$AA_?$AAA@
	push	OFFSET ??_C@_17CNPHIMPH@?$AA?$CF?$AAl?$AAs?$AA?$AA@
	push	0
	push	106					; 0000006aH
	push	OFFSET ??_C@_1GI@MOGLCDAO@?$AAD?$AA?3?$AA?2?$AAM?$AAi?$AAc?$AAr?$AAo?$AAs?$AAo?$AAf?$AAt?$AA?5?$AAV?$AAi?$AAs?$AAu?$AAa?$AAl?$AA?5?$AAS?$AAt?$AAu?$AAd?$AAi?$AAo?$AA?5?$AA1?$AA4?$AA?4?$AA0?$AA?2@
	push	2
	call	__CrtDbgReportW
	add	esp, 24					; 00000018H
	cmp	eax, 1
	jne	SHORT $LN13@Deallocate
	int	3
$LN13@Deallocate:
	push	0
	push	106					; 0000006aH
	push	OFFSET ??_C@_1GI@MOGLCDAO@?$AAD?$AA?3?$AA?2?$AAM?$AAi?$AAc?$AAr?$AAo?$AAs?$AAo?$AAf?$AAt?$AA?5?$AAV?$AAi?$AAs?$AAu?$AAa?$AAl?$AA?5?$AAS?$AAt?$AAu?$AAd?$AAi?$AAo?$AA?5?$AA1?$AA4?$AA?4?$AA0?$AA?2@
	push	OFFSET ??_C@_1CC@LOFJFFDB@?$AAs?$AAt?$AAd?$AA?3?$AA?3?$AA_?$AAD?$AAe?$AAa?$AAl?$AAl?$AAo?$AAc?$AAa?$AAt?$AAe?$AA?$AA@
	push	OFFSET ??_C@_1CG@JNLFBNGN@?$AA?$CC?$AAi?$AAn?$AAv?$AAa?$AAl?$AAi?$AAd?$AA?5?$AAa?$AAr?$AAg?$AAu?$AAm?$AAe?$AAn?$AAt?$AA?$CC?$AA?$AA@
	call	__invalid_parameter
	add	esp, 20					; 00000014H
$LN4@Deallocate:

; 106  : 			(_Ptr_user & (_BIG_ALLOCATION_ALIGNMENT - 1)) == 0);
; 107  : 		const uintptr_t _Ptr_ptr = _Ptr_user - sizeof(void *);

	mov	eax, DWORD PTR __Ptr_user$3[ebp]
	sub	eax, 4
	mov	DWORD PTR __Ptr_ptr$2[ebp], eax

; 108  : 		const uintptr_t _Ptr_container =
; 109  : 			*reinterpret_cast<uintptr_t *>(_Ptr_ptr);

	mov	ecx, DWORD PTR __Ptr_ptr$2[ebp]
	mov	edx, DWORD PTR [ecx]
	mov	DWORD PTR __Ptr_container$1[ebp], edx

; 110  : 
; 111  :  #ifdef _DEBUG
; 112  : 		// If the following asserts, it likely means that we are performing
; 113  : 		// an aligned delete on memory coming from an unaligned allocation.
; 114  : 		_SCL_SECURE_ALWAYS_VALIDATE(

	mov	eax, 4
	imul	ecx, eax, -1
	mov	edx, DWORD PTR __Ptr_ptr$2[ebp]
	cmp	DWORD PTR [edx+ecx], -84215046		; fafafafaH
	je	SHORT $LN5@Deallocate
	mov	eax, OFFSET ??_C@_0EI@NOJHEJCJ@reinterpret_cast?$DMuintptr_t?5?$CK?$DO?$CI_P@
	test	eax, eax
	je	SHORT $LN14@Deallocate
	xor	ecx, ecx
	jne	SHORT $LN15@Deallocate
$LN14@Deallocate:
	push	OFFSET ??_C@_1JO@EKLKIEHP@?$AA?$CC?$AAr?$AAe?$AAi?$AAn?$AAt?$AAe?$AAr?$AAp?$AAr?$AAe?$AAt?$AA_?$AAc?$AAa?$AAs?$AAt?$AA?$DM?$AAu?$AAi?$AAn?$AAt?$AAp?$AAt?$AAr?$AA_?$AAt?$AA?5?$AA?$CK?$AA?$DO?$AA?$CI?$AA_@
	push	OFFSET ??_C@_17CNPHIMPH@?$AA?$CF?$AAl?$AAs?$AA?$AA@
	push	0
	push	116					; 00000074H
	push	OFFSET ??_C@_1GI@MOGLCDAO@?$AAD?$AA?3?$AA?2?$AAM?$AAi?$AAc?$AAr?$AAo?$AAs?$AAo?$AAf?$AAt?$AA?5?$AAV?$AAi?$AAs?$AAu?$AAa?$AAl?$AA?5?$AAS?$AAt?$AAu?$AAd?$AAi?$AAo?$AA?5?$AA1?$AA4?$AA?4?$AA0?$AA?2@
	push	2
	call	__CrtDbgReportW
	add	esp, 24					; 00000018H
	cmp	eax, 1
	jne	SHORT $LN15@Deallocate
	int	3
$LN15@Deallocate:
	push	0
	push	116					; 00000074H
	push	OFFSET ??_C@_1GI@MOGLCDAO@?$AAD?$AA?3?$AA?2?$AAM?$AAi?$AAc?$AAr?$AAo?$AAs?$AAo?$AAf?$AAt?$AA?5?$AAV?$AAi?$AAs?$AAu?$AAa?$AAl?$AA?5?$AAS?$AAt?$AAu?$AAd?$AAi?$AAo?$AA?5?$AA1?$AA4?$AA?4?$AA0?$AA?2@
	push	OFFSET ??_C@_1CC@LOFJFFDB@?$AAs?$AAt?$AAd?$AA?3?$AA?3?$AA_?$AAD?$AAe?$AAa?$AAl?$AAl?$AAo?$AAc?$AAa?$AAt?$AAe?$AA?$AA@
	push	OFFSET ??_C@_1CG@JNLFBNGN@?$AA?$CC?$AAi?$AAn?$AAv?$AAa?$AAl?$AAi?$AAd?$AA?5?$AAa?$AAr?$AAg?$AAu?$AAm?$AAe?$AAn?$AAt?$AA?$CC?$AA?$AA@
	call	__invalid_parameter
	add	esp, 20					; 00000014H
$LN5@Deallocate:

; 115  : 			reinterpret_cast<uintptr_t *>(_Ptr_ptr)[-1] ==
; 116  : 				_BIG_ALLOCATION_SENTINEL);
; 117  :  #endif /* _DEBUG */
; 118  : 
; 119  : 		// Extra paranoia on aligned allocation/deallocation
; 120  : 		_SCL_SECURE_ALWAYS_VALIDATE(_Ptr_container < _Ptr_user);

	mov	eax, DWORD PTR __Ptr_container$1[ebp]
	cmp	eax, DWORD PTR __Ptr_user$3[ebp]
	jb	SHORT $LN6@Deallocate
	mov	ecx, OFFSET ??_C@_0BL@OCKMEJON@_Ptr_container?5?$DM?5_Ptr_user?$AA@
	test	ecx, ecx
	je	SHORT $LN16@Deallocate
	xor	edx, edx
	jne	SHORT $LN17@Deallocate
$LN16@Deallocate:
	push	OFFSET ??_C@_1EE@PDHAHDDC@?$AA?$CC?$AA_?$AAP?$AAt?$AAr?$AA_?$AAc?$AAo?$AAn?$AAt?$AAa?$AAi?$AAn?$AAe?$AAr?$AA?5?$AA?$DM?$AA?5?$AA_?$AAP?$AAt?$AAr?$AA_?$AAu?$AAs?$AAe?$AAr?$AA?$CC?$AA?5?$AA?$CG?$AA?$CG?$AA?5@
	push	OFFSET ??_C@_17CNPHIMPH@?$AA?$CF?$AAl?$AAs?$AA?$AA@
	push	0
	push	120					; 00000078H
	push	OFFSET ??_C@_1GI@MOGLCDAO@?$AAD?$AA?3?$AA?2?$AAM?$AAi?$AAc?$AAr?$AAo?$AAs?$AAo?$AAf?$AAt?$AA?5?$AAV?$AAi?$AAs?$AAu?$AAa?$AAl?$AA?5?$AAS?$AAt?$AAu?$AAd?$AAi?$AAo?$AA?5?$AA1?$AA4?$AA?4?$AA0?$AA?2@
	push	2
	call	__CrtDbgReportW
	add	esp, 24					; 00000018H
	cmp	eax, 1
	jne	SHORT $LN17@Deallocate
	int	3
$LN17@Deallocate:
	push	0
	push	120					; 00000078H
	push	OFFSET ??_C@_1GI@MOGLCDAO@?$AAD?$AA?3?$AA?2?$AAM?$AAi?$AAc?$AAr?$AAo?$AAs?$AAo?$AAf?$AAt?$AA?5?$AAV?$AAi?$AAs?$AAu?$AAa?$AAl?$AA?5?$AAS?$AAt?$AAu?$AAd?$AAi?$AAo?$AA?5?$AA1?$AA4?$AA?4?$AA0?$AA?2@
	push	OFFSET ??_C@_1CC@LOFJFFDB@?$AAs?$AAt?$AAd?$AA?3?$AA?3?$AA_?$AAD?$AAe?$AAa?$AAl?$AAl?$AAo?$AAc?$AAa?$AAt?$AAe?$AA?$AA@
	push	OFFSET ??_C@_1CG@JNLFBNGN@?$AA?$CC?$AAi?$AAn?$AAv?$AAa?$AAl?$AAi?$AAd?$AA?5?$AAa?$AAr?$AAg?$AAu?$AAm?$AAe?$AAn?$AAt?$AA?$CC?$AA?$AA@
	call	__invalid_parameter
	add	esp, 20					; 00000014H
$LN6@Deallocate:

; 121  : 
; 122  :  #ifdef _DEBUG
; 123  : 		_SCL_SECURE_ALWAYS_VALIDATE(2 * sizeof(void *)

	mov	ecx, DWORD PTR __Ptr_user$3[ebp]
	sub	ecx, DWORD PTR __Ptr_container$1[ebp]
	cmp	ecx, 8
	jae	SHORT $LN7@Deallocate
	mov	edx, OFFSET ??_C@_0DB@GLFJLNCE@2?5?$CK?5sizeof?$CIvoid?5?$CK?$CJ?5?$DM?$DN?5_Ptr_user?5@
	test	edx, edx
	je	SHORT $LN18@Deallocate
	xor	eax, eax
	jne	SHORT $LN19@Deallocate
$LN18@Deallocate:
	push	OFFSET ??_C@_1HA@NAPGMHAO@?$AA?$CC?$AA2?$AA?5?$AA?$CK?$AA?5?$AAs?$AAi?$AAz?$AAe?$AAo?$AAf?$AA?$CI?$AAv?$AAo?$AAi?$AAd?$AA?5?$AA?$CK?$AA?$CJ?$AA?5?$AA?$DM?$AA?$DN?$AA?5?$AA_?$AAP?$AAt?$AAr?$AA_?$AAu?$AAs?$AAe?$AAr@
	push	OFFSET ??_C@_17CNPHIMPH@?$AA?$CF?$AAl?$AAs?$AA?$AA@
	push	0
	push	124					; 0000007cH
	push	OFFSET ??_C@_1GI@MOGLCDAO@?$AAD?$AA?3?$AA?2?$AAM?$AAi?$AAc?$AAr?$AAo?$AAs?$AAo?$AAf?$AAt?$AA?5?$AAV?$AAi?$AAs?$AAu?$AAa?$AAl?$AA?5?$AAS?$AAt?$AAu?$AAd?$AAi?$AAo?$AA?5?$AA1?$AA4?$AA?4?$AA0?$AA?2@
	push	2
	call	__CrtDbgReportW
	add	esp, 24					; 00000018H
	cmp	eax, 1
	jne	SHORT $LN19@Deallocate
	int	3
$LN19@Deallocate:
	push	0
	push	124					; 0000007cH
	push	OFFSET ??_C@_1GI@MOGLCDAO@?$AAD?$AA?3?$AA?2?$AAM?$AAi?$AAc?$AAr?$AAo?$AAs?$AAo?$AAf?$AAt?$AA?5?$AAV?$AAi?$AAs?$AAu?$AAa?$AAl?$AA?5?$AAS?$AAt?$AAu?$AAd?$AAi?$AAo?$AA?5?$AA1?$AA4?$AA?4?$AA0?$AA?2@
	push	OFFSET ??_C@_1CC@LOFJFFDB@?$AAs?$AAt?$AAd?$AA?3?$AA?3?$AA_?$AAD?$AAe?$AAa?$AAl?$AAl?$AAo?$AAc?$AAa?$AAt?$AAe?$AA?$AA@
	push	OFFSET ??_C@_1CG@JNLFBNGN@?$AA?$CC?$AAi?$AAn?$AAv?$AAa?$AAl?$AAi?$AAd?$AA?5?$AAa?$AAr?$AAg?$AAu?$AAm?$AAe?$AAn?$AAt?$AA?$CC?$AA?$AA@
	call	__invalid_parameter
	add	esp, 20					; 00000014H
$LN7@Deallocate:

; 124  : 			<= _Ptr_user - _Ptr_container);
; 125  : 
; 126  :  #else /* _DEBUG */
; 127  : 		_SCL_SECURE_ALWAYS_VALIDATE(sizeof(void *)
; 128  : 			<= _Ptr_user - _Ptr_container);
; 129  :  #endif /* _DEBUG */
; 130  : 
; 131  : 		_SCL_SECURE_ALWAYS_VALIDATE(_Ptr_user - _Ptr_container

	mov	edx, DWORD PTR __Ptr_user$3[ebp]
	sub	edx, DWORD PTR __Ptr_container$1[ebp]
	cmp	edx, 39					; 00000027H
	jbe	SHORT $LN8@Deallocate
	mov	eax, OFFSET ??_C@_0CN@BLHJCAL@_Ptr_user?5?9?5_Ptr_container?5?$DM?$DN?5_N@
	test	eax, eax
	je	SHORT $LN20@Deallocate
	xor	ecx, ecx
	jne	SHORT $LN21@Deallocate
$LN20@Deallocate:
	push	OFFSET ??_C@_1GI@DHJGPFNI@?$AA?$CC?$AA_?$AAP?$AAt?$AAr?$AA_?$AAu?$AAs?$AAe?$AAr?$AA?5?$AA?9?$AA?5?$AA_?$AAP?$AAt?$AAr?$AA_?$AAc?$AAo?$AAn?$AAt?$AAa?$AAi?$AAn?$AAe?$AAr?$AA?5?$AA?$DM?$AA?$DN?$AA?5?$AA_@
	push	OFFSET ??_C@_17CNPHIMPH@?$AA?$CF?$AAl?$AAs?$AA?$AA@
	push	0
	push	132					; 00000084H
	push	OFFSET ??_C@_1GI@MOGLCDAO@?$AAD?$AA?3?$AA?2?$AAM?$AAi?$AAc?$AAr?$AAo?$AAs?$AAo?$AAf?$AAt?$AA?5?$AAV?$AAi?$AAs?$AAu?$AAa?$AAl?$AA?5?$AAS?$AAt?$AAu?$AAd?$AAi?$AAo?$AA?5?$AA1?$AA4?$AA?4?$AA0?$AA?2@
	push	2
	call	__CrtDbgReportW
	add	esp, 24					; 00000018H
	cmp	eax, 1
	jne	SHORT $LN21@Deallocate
	int	3
$LN21@Deallocate:
	push	0
	push	132					; 00000084H
	push	OFFSET ??_C@_1GI@MOGLCDAO@?$AAD?$AA?3?$AA?2?$AAM?$AAi?$AAc?$AAr?$AAo?$AAs?$AAo?$AAf?$AAt?$AA?5?$AAV?$AAi?$AAs?$AAu?$AAa?$AAl?$AA?5?$AAS?$AAt?$AAu?$AAd?$AAi?$AAo?$AA?5?$AA1?$AA4?$AA?4?$AA0?$AA?2@
	push	OFFSET ??_C@_1CC@LOFJFFDB@?$AAs?$AAt?$AAd?$AA?3?$AA?3?$AA_?$AAD?$AAe?$AAa?$AAl?$AAl?$AAo?$AAc?$AAa?$AAt?$AAe?$AA?$AA@
	push	OFFSET ??_C@_1CG@JNLFBNGN@?$AA?$CC?$AAi?$AAn?$AAv?$AAa?$AAl?$AAi?$AAd?$AA?5?$AAa?$AAr?$AAg?$AAu?$AAm?$AAe?$AAn?$AAt?$AA?$CC?$AA?$AA@
	call	__invalid_parameter
	add	esp, 20					; 00000014H
$LN8@Deallocate:

; 132  : 			<= _NON_USER_SIZE);
; 133  : 
; 134  : 		_Ptr = reinterpret_cast<_Ty *>(_Ptr_container);

	mov	eax, DWORD PTR __Ptr_container$1[ebp]
	mov	DWORD PTR __Ptr$[ebp], eax
$LN3@Deallocate:

; 135  : 		}
; 136  :  #endif /* defined(_M_IX86) || defined(_M_X64) */
; 137  : 
; 138  : 	::operator delete(_Ptr);

	mov	ecx, DWORD PTR __Ptr$[ebp]
	push	ecx
	call	??3@YAXPAX@Z				; operator delete
	add	esp, 4

; 139  : 	}

	add	esp, 16					; 00000010H
	cmp	ebp, esp
	call	__RTC_CheckEsp
	mov	esp, ebp
	pop	ebp
	ret	0
??$_Deallocate@D@std@@YAXPADI@Z ENDP			; std::_Deallocate<char>
_TEXT	ENDS
; Function compile flags: /Odtp /RTCsu
; File d:\microsoft visual studio 14.0\vc\include\xutility
;	COMDAT ??$?0ABV?$allocator@PAV?$Goal@VRaven_Bot@@@@@std@@$$V@?$_Compressed_pair@U?$_Wrap_alloc@V?$allocator@U?$_List_node@PAV?$Goal@VRaven_Bot@@@@PAX@std@@@std@@@std@@V?$_List_val@U?$_List_simple_types@PAV?$Goal@VRaven_Bot@@@@@std@@@2@$00@std@@QAE@U_One_then_variadic_args_t@1@ABV?$allocator@PAV?$Goal@VRaven_Bot@@@@@1@@Z
_TEXT	SEGMENT
_this$ = -4						; size = 4
___formal$ = 8						; size = 1
__Val1$ = 12						; size = 4
??$?0ABV?$allocator@PAV?$Goal@VRaven_Bot@@@@@std@@$$V@?$_Compressed_pair@U?$_Wrap_alloc@V?$allocator@U?$_List_node@PAV?$Goal@VRaven_Bot@@@@PAX@std@@@std@@@std@@V?$_List_val@U?$_List_simple_types@PAV?$Goal@VRaven_Bot@@@@@std@@@2@$00@std@@QAE@U_One_then_variadic_args_t@1@ABV?$allocator@PAV?$Goal@VRaven_Bot@@@@@1@@Z PROC ; std::_Compressed_pair<std::_Wrap_alloc<std::allocator<std::_List_node<Goal<Raven_Bot> *,void *> > >,std::_List_val<std::_List_simple_types<Goal<Raven_Bot> *> >,1>::_Compressed_pair<std::_Wrap_alloc<std::allocator<std::_List_node<Goal<Raven_Bot> *,void *> > >,std::_List_val<std::_List_simple_types<Goal<Raven_Bot> *> >,1><std::allocator<Goal<Raven_Bot> *> const &>, COMDAT
; _this$ = ecx

; 288  : 		{	// construct from forwarded values

	push	ebp
	mov	ebp, esp
	push	ecx
	mov	DWORD PTR [ebp-4], -858993460		; ccccccccH
	mov	DWORD PTR _this$[ebp], ecx

; 286  : 		: _Ty1(_STD forward<_Other1>(_Val1)),

	mov	eax, DWORD PTR __Val1$[ebp]
	push	eax
	call	??$forward@ABV?$allocator@PAV?$Goal@VRaven_Bot@@@@@std@@@std@@YAABV?$allocator@PAV?$Goal@VRaven_Bot@@@@@0@ABV10@@Z ; std::forward<std::allocator<Goal<Raven_Bot> *> const &>
	add	esp, 4
	push	eax
	mov	ecx, DWORD PTR _this$[ebp]
	call	??$?0V?$allocator@PAV?$Goal@VRaven_Bot@@@@@std@@@?$_Wrap_alloc@V?$allocator@U?$_List_node@PAV?$Goal@VRaven_Bot@@@@PAX@std@@@std@@@std@@QAE@ABV?$allocator@PAV?$Goal@VRaven_Bot@@@@@1@@Z ; std::_Wrap_alloc<std::allocator<std::_List_node<Goal<Raven_Bot> *,void *> > >::_Wrap_alloc<std::allocator<std::_List_node<Goal<Raven_Bot> *,void *> > ><std::allocator<Goal<Raven_Bot> *> >

; 287  : 			_Myval2(_STD forward<_Other2>(_Val2)...)

	mov	ecx, DWORD PTR _this$[ebp]
	call	??0?$_List_val@U?$_List_simple_types@PAV?$Goal@VRaven_Bot@@@@@std@@@std@@QAE@XZ ; std::_List_val<std::_List_simple_types<Goal<Raven_Bot> *> >::_List_val<std::_List_simple_types<Goal<Raven_Bot> *> >

; 289  : 		}

	mov	eax, DWORD PTR _this$[ebp]
	add	esp, 4
	cmp	ebp, esp
	call	__RTC_CheckEsp
	mov	esp, ebp
	pop	ebp
	ret	8
??$?0ABV?$allocator@PAV?$Goal@VRaven_Bot@@@@@std@@$$V@?$_Compressed_pair@U?$_Wrap_alloc@V?$allocator@U?$_List_node@PAV?$Goal@VRaven_Bot@@@@PAX@std@@@std@@@std@@V?$_List_val@U?$_List_simple_types@PAV?$Goal@VRaven_Bot@@@@@std@@@2@$00@std@@QAE@U_One_then_variadic_args_t@1@ABV?$allocator@PAV?$Goal@VRaven_Bot@@@@@1@@Z ENDP ; std::_Compressed_pair<std::_Wrap_alloc<std::allocator<std::_List_node<Goal<Raven_Bot> *,void *> > >,std::_List_val<std::_List_simple_types<Goal<Raven_Bot> *> >,1>::_Compressed_pair<std::_Wrap_alloc<std::allocator<std::_List_node<Goal<Raven_Bot> *,void *> > >,std::_List_val<std::_List_simple_types<Goal<Raven_Bot> *> >,1><std::allocator<Goal<Raven_Bot> *> const &>
_TEXT	ENDS
; Function compile flags: /Odtp /RTCsu
; File d:\microsoft visual studio 14.0\vc\include\xmemory0
;	COMDAT ??$?0U?$_List_node@PAV?$Goal@VRaven_Bot@@@@PAX@std@@@?$allocator@U_Container_proxy@std@@@std@@QAE@ABV?$allocator@U?$_List_node@PAV?$Goal@VRaven_Bot@@@@PAX@std@@@1@@Z
_TEXT	SEGMENT
_this$ = -4						; size = 4
___formal$ = 8						; size = 4
??$?0U?$_List_node@PAV?$Goal@VRaven_Bot@@@@PAX@std@@@?$allocator@U_Container_proxy@std@@@std@@QAE@ABV?$allocator@U?$_List_node@PAV?$Goal@VRaven_Bot@@@@PAX@std@@@1@@Z PROC ; std::allocator<std::_Container_proxy>::allocator<std::_Container_proxy><std::_List_node<Goal<Raven_Bot> *,void *> >, COMDAT
; _this$ = ecx

; 629  : 		{	// construct from a related allocator (do nothing)

	push	ebp
	mov	ebp, esp
	push	ecx
	mov	DWORD PTR [ebp-4], -858993460		; ccccccccH
	mov	DWORD PTR _this$[ebp], ecx

; 630  : 		}

	mov	eax, DWORD PTR _this$[ebp]
	mov	esp, ebp
	pop	ebp
	ret	4
??$?0U?$_List_node@PAV?$Goal@VRaven_Bot@@@@PAX@std@@@?$allocator@U_Container_proxy@std@@@std@@QAE@ABV?$allocator@U?$_List_node@PAV?$Goal@VRaven_Bot@@@@PAX@std@@@1@@Z ENDP ; std::allocator<std::_Container_proxy>::allocator<std::_Container_proxy><std::_List_node<Goal<Raven_Bot> *,void *> >
_TEXT	ENDS
; Function compile flags: /Odtp /RTCsu
; File d:\microsoft visual studio 14.0\vc\include\xmemory0
;	COMDAT ??$?0U?$_Wrap_alloc@V?$allocator@U?$_List_node@PAV?$Goal@VRaven_Bot@@@@PAX@std@@@std@@@std@@@?$_Wrap_alloc@V?$allocator@U_Container_proxy@std@@@std@@@std@@QAE@AAU?$_Wrap_alloc@V?$allocator@U?$_List_node@PAV?$Goal@VRaven_Bot@@@@PAX@std@@@std@@@1@@Z
_TEXT	SEGMENT
_this$ = -4						; size = 4
__Right$ = 8						; size = 4
??$?0U?$_Wrap_alloc@V?$allocator@U?$_List_node@PAV?$Goal@VRaven_Bot@@@@PAX@std@@@std@@@std@@@?$_Wrap_alloc@V?$allocator@U_Container_proxy@std@@@std@@@std@@QAE@AAU?$_Wrap_alloc@V?$allocator@U?$_List_node@PAV?$Goal@VRaven_Bot@@@@PAX@std@@@std@@@1@@Z PROC ; std::_Wrap_alloc<std::allocator<std::_Container_proxy> >::_Wrap_alloc<std::allocator<std::_Container_proxy> ><std::_Wrap_alloc<std::allocator<std::_List_node<Goal<Raven_Bot> *,void *> > > >, COMDAT
; _this$ = ecx

; 876  : 		{	// construct from a related allocator

	push	ebp
	mov	ebp, esp
	push	ecx
	mov	DWORD PTR [ebp-4], -858993460		; ccccccccH
	mov	DWORD PTR _this$[ebp], ecx

; 875  : 		: _Mybase(_Right)

	mov	eax, DWORD PTR __Right$[ebp]
	push	eax
	mov	ecx, DWORD PTR _this$[ebp]
	call	??$?0U?$_List_node@PAV?$Goal@VRaven_Bot@@@@PAX@std@@@?$allocator@U_Container_proxy@std@@@std@@QAE@ABV?$allocator@U?$_List_node@PAV?$Goal@VRaven_Bot@@@@PAX@std@@@1@@Z ; std::allocator<std::_Container_proxy>::allocator<std::_Container_proxy><std::_List_node<Goal<Raven_Bot> *,void *> >

; 877  : 		}

	mov	eax, DWORD PTR _this$[ebp]
	add	esp, 4
	cmp	ebp, esp
	call	__RTC_CheckEsp
	mov	esp, ebp
	pop	ebp
	ret	4
??$?0U?$_Wrap_alloc@V?$allocator@U?$_List_node@PAV?$Goal@VRaven_Bot@@@@PAX@std@@@std@@@std@@@?$_Wrap_alloc@V?$allocator@U_Container_proxy@std@@@std@@@std@@QAE@AAU?$_Wrap_alloc@V?$allocator@U?$_List_node@PAV?$Goal@VRaven_Bot@@@@PAX@std@@@std@@@1@@Z ENDP ; std::_Wrap_alloc<std::allocator<std::_Container_proxy> >::_Wrap_alloc<std::allocator<std::_Container_proxy> ><std::_Wrap_alloc<std::allocator<std::_List_node<Goal<Raven_Bot> *,void *> > > >
_TEXT	ENDS
; Function compile flags: /Odtp /RTCsu
; File d:\microsoft visual studio 14.0\vc\include\xmemory0
;	COMDAT ??$destroy@PAU?$_List_node@PAV?$Goal@VRaven_Bot@@@@PAX@std@@@?$_Wrap_alloc@V?$allocator@U?$_List_node@PAV?$Goal@VRaven_Bot@@@@PAX@std@@@std@@@std@@QAEXPAPAU?$_List_node@PAV?$Goal@VRaven_Bot@@@@PAX@1@@Z
_TEXT	SEGMENT
_this$ = -4						; size = 4
__Ptr$ = 8						; size = 4
??$destroy@PAU?$_List_node@PAV?$Goal@VRaven_Bot@@@@PAX@std@@@?$_Wrap_alloc@V?$allocator@U?$_List_node@PAV?$Goal@VRaven_Bot@@@@PAX@std@@@std@@@std@@QAEXPAPAU?$_List_node@PAV?$Goal@VRaven_Bot@@@@PAX@1@@Z PROC ; std::_Wrap_alloc<std::allocator<std::_List_node<Goal<Raven_Bot> *,void *> > >::destroy<std::_List_node<Goal<Raven_Bot> *,void *> *>, COMDAT
; _this$ = ecx

; 926  : 		{	// destroy object at _Ptr

	push	ebp
	mov	ebp, esp
	push	ecx
	mov	DWORD PTR [ebp-4], -858993460		; ccccccccH
	mov	DWORD PTR _this$[ebp], ecx

; 927  : 		_Mytraits::destroy(*this, _Ptr);

	mov	eax, DWORD PTR __Ptr$[ebp]
	push	eax
	mov	ecx, DWORD PTR _this$[ebp]
	push	ecx
	call	??$destroy@PAU?$_List_node@PAV?$Goal@VRaven_Bot@@@@PAX@std@@@?$allocator_traits@V?$allocator@U?$_List_node@PAV?$Goal@VRaven_Bot@@@@PAX@std@@@std@@@std@@SAXAAV?$allocator@U?$_List_node@PAV?$Goal@VRaven_Bot@@@@PAX@std@@@1@PAPAU?$_List_node@PAV?$Goal@VRaven_Bot@@@@PAX@1@@Z ; std::allocator_traits<std::allocator<std::_List_node<Goal<Raven_Bot> *,void *> > >::destroy<std::_List_node<Goal<Raven_Bot> *,void *> *>
	add	esp, 8

; 928  : 		}

	add	esp, 4
	cmp	ebp, esp
	call	__RTC_CheckEsp
	mov	esp, ebp
	pop	ebp
	ret	4
??$destroy@PAU?$_List_node@PAV?$Goal@VRaven_Bot@@@@PAX@std@@@?$_Wrap_alloc@V?$allocator@U?$_List_node@PAV?$Goal@VRaven_Bot@@@@PAX@std@@@std@@@std@@QAEXPAPAU?$_List_node@PAV?$Goal@VRaven_Bot@@@@PAX@1@@Z ENDP ; std::_Wrap_alloc<std::allocator<std::_List_node<Goal<Raven_Bot> *,void *> > >::destroy<std::_List_node<Goal<Raven_Bot> *,void *> *>
_TEXT	ENDS
; Function compile flags: /Odtp /RTCsu
; File d:\microsoft visual studio 14.0\vc\include\xstddef
;	COMDAT ??$addressof@PAU?$_List_node@PAV?$Goal@VRaven_Bot@@@@PAX@std@@@std@@YAPAPAU?$_List_node@PAV?$Goal@VRaven_Bot@@@@PAX@0@AAPAU10@@Z
_TEXT	SEGMENT
$T1 = -2						; size = 1
__Val$ = 8						; size = 4
??$addressof@PAU?$_List_node@PAV?$Goal@VRaven_Bot@@@@PAX@std@@@std@@YAPAPAU?$_List_node@PAV?$Goal@VRaven_Bot@@@@PAX@0@AAPAU10@@Z PROC ; std::addressof<std::_List_node<Goal<Raven_Bot> *,void *> *>, COMDAT

; 699  : 	{	// return address of _Val

	push	ebp
	mov	ebp, esp
	push	ecx
	mov	DWORD PTR [ebp-4], -858993460		; ccccccccH

; 700  : 	return (_Addressof(_Val, is_function<_Ty>()));

	movzx	eax, BYTE PTR $T1[ebp]
	push	eax
	mov	ecx, DWORD PTR __Val$[ebp]
	push	ecx
	call	??$_Addressof@PAU?$_List_node@PAV?$Goal@VRaven_Bot@@@@PAX@std@@@std@@YAPAPAU?$_List_node@PAV?$Goal@VRaven_Bot@@@@PAX@0@AAPAU10@U?$integral_constant@_N$0A@@0@@Z ; std::_Addressof<std::_List_node<Goal<Raven_Bot> *,void *> *>
	add	esp, 8

; 701  : 	}

	add	esp, 4
	cmp	ebp, esp
	call	__RTC_CheckEsp
	mov	esp, ebp
	pop	ebp
	ret	0
??$addressof@PAU?$_List_node@PAV?$Goal@VRaven_Bot@@@@PAX@std@@@std@@YAPAPAU?$_List_node@PAV?$Goal@VRaven_Bot@@@@PAX@0@AAPAU10@@Z ENDP ; std::addressof<std::_List_node<Goal<Raven_Bot> *,void *> *>
_TEXT	ENDS
; Function compile flags: /Odtp /RTCsu
; File d:\microsoft visual studio 14.0\vc\include\xmemory0
;	COMDAT ??$?0D@?$allocator@U_Container_proxy@std@@@std@@QAE@ABV?$allocator@D@1@@Z
_TEXT	SEGMENT
_this$ = -4						; size = 4
___formal$ = 8						; size = 4
??$?0D@?$allocator@U_Container_proxy@std@@@std@@QAE@ABV?$allocator@D@1@@Z PROC ; std::allocator<std::_Container_proxy>::allocator<std::_Container_proxy><char>, COMDAT
; _this$ = ecx

; 629  : 		{	// construct from a related allocator (do nothing)

	push	ebp
	mov	ebp, esp
	push	ecx
	mov	DWORD PTR [ebp-4], -858993460		; ccccccccH
	mov	DWORD PTR _this$[ebp], ecx

; 630  : 		}

	mov	eax, DWORD PTR _this$[ebp]
	mov	esp, ebp
	pop	ebp
	ret	4
??$?0D@?$allocator@U_Container_proxy@std@@@std@@QAE@ABV?$allocator@D@1@@Z ENDP ; std::allocator<std::_Container_proxy>::allocator<std::_Container_proxy><char>
_TEXT	ENDS
; Function compile flags: /Odtp /RTCsu
; File d:\microsoft visual studio 14.0\vc\include\xmemory0
;	COMDAT ??$?0U?$_Wrap_alloc@V?$allocator@D@std@@@std@@@?$_Wrap_alloc@V?$allocator@U_Container_proxy@std@@@std@@@std@@QAE@AAU?$_Wrap_alloc@V?$allocator@D@std@@@1@@Z
_TEXT	SEGMENT
_this$ = -4						; size = 4
__Right$ = 8						; size = 4
??$?0U?$_Wrap_alloc@V?$allocator@D@std@@@std@@@?$_Wrap_alloc@V?$allocator@U_Container_proxy@std@@@std@@@std@@QAE@AAU?$_Wrap_alloc@V?$allocator@D@std@@@1@@Z PROC ; std::_Wrap_alloc<std::allocator<std::_Container_proxy> >::_Wrap_alloc<std::allocator<std::_Container_proxy> ><std::_Wrap_alloc<std::allocator<char> > >, COMDAT
; _this$ = ecx

; 876  : 		{	// construct from a related allocator

	push	ebp
	mov	ebp, esp
	push	ecx
	mov	DWORD PTR [ebp-4], -858993460		; ccccccccH
	mov	DWORD PTR _this$[ebp], ecx

; 875  : 		: _Mybase(_Right)

	mov	eax, DWORD PTR __Right$[ebp]
	push	eax
	mov	ecx, DWORD PTR _this$[ebp]
	call	??$?0D@?$allocator@U_Container_proxy@std@@@std@@QAE@ABV?$allocator@D@1@@Z ; std::allocator<std::_Container_proxy>::allocator<std::_Container_proxy><char>

; 877  : 		}

	mov	eax, DWORD PTR _this$[ebp]
	add	esp, 4
	cmp	ebp, esp
	call	__RTC_CheckEsp
	mov	esp, ebp
	pop	ebp
	ret	4
??$?0U?$_Wrap_alloc@V?$allocator@D@std@@@std@@@?$_Wrap_alloc@V?$allocator@U_Container_proxy@std@@@std@@@std@@QAE@AAU?$_Wrap_alloc@V?$allocator@D@std@@@1@@Z ENDP ; std::_Wrap_alloc<std::allocator<std::_Container_proxy> >::_Wrap_alloc<std::allocator<std::_Container_proxy> ><std::_Wrap_alloc<std::allocator<char> > >
_TEXT	ENDS
; Function compile flags: /Odtp /RTCsu
; File d:\microsoft visual studio 14.0\vc\include\xmemory0
;	COMDAT ??$construct@U_Container_proxy@std@@U12@@?$_Wrap_alloc@V?$allocator@U_Container_proxy@std@@@std@@@std@@QAEXPAU_Container_proxy@1@$$QAU21@@Z
_TEXT	SEGMENT
_this$ = -4						; size = 4
__Ptr$ = 8						; size = 4
_<_Args_0>$ = 12					; size = 4
??$construct@U_Container_proxy@std@@U12@@?$_Wrap_alloc@V?$allocator@U_Container_proxy@std@@@std@@@std@@QAEXPAU_Container_proxy@1@$$QAU21@@Z PROC ; std::_Wrap_alloc<std::allocator<std::_Container_proxy> >::construct<std::_Container_proxy,std::_Container_proxy>, COMDAT
; _this$ = ecx

; 918  : 		{	// construct _Ty(_Types...) at _Ptr

	push	ebp
	mov	ebp, esp
	push	ecx
	mov	DWORD PTR [ebp-4], -858993460		; ccccccccH
	mov	DWORD PTR _this$[ebp], ecx

; 919  : 		_Mytraits::construct(*this, _Ptr,

	mov	eax, DWORD PTR _<_Args_0>$[ebp]
	push	eax
	call	??$forward@U_Container_proxy@std@@@std@@YA$$QAU_Container_proxy@0@AAU10@@Z ; std::forward<std::_Container_proxy>
	add	esp, 4
	push	eax
	mov	ecx, DWORD PTR __Ptr$[ebp]
	push	ecx
	mov	edx, DWORD PTR _this$[ebp]
	push	edx
	call	??$construct@U_Container_proxy@std@@U12@@?$allocator_traits@V?$allocator@U_Container_proxy@std@@@std@@@std@@SAXAAV?$allocator@U_Container_proxy@std@@@1@PAU_Container_proxy@1@$$QAU31@@Z ; std::allocator_traits<std::allocator<std::_Container_proxy> >::construct<std::_Container_proxy,std::_Container_proxy>
	add	esp, 12					; 0000000cH

; 920  : 			_STD forward<_Types>(_Args)...);
; 921  : 		}

	add	esp, 4
	cmp	ebp, esp
	call	__RTC_CheckEsp
	mov	esp, ebp
	pop	ebp
	ret	8
??$construct@U_Container_proxy@std@@U12@@?$_Wrap_alloc@V?$allocator@U_Container_proxy@std@@@std@@@std@@QAEXPAU_Container_proxy@1@$$QAU21@@Z ENDP ; std::_Wrap_alloc<std::allocator<std::_Container_proxy> >::construct<std::_Container_proxy,std::_Container_proxy>
_TEXT	ENDS
; Function compile flags: /Odtp /RTCsu
; File d:\microsoft visual studio 14.0\vc\include\xmemory0
;	COMDAT ??$destroy@U_Container_proxy@std@@@?$_Wrap_alloc@V?$allocator@U_Container_proxy@std@@@std@@@std@@QAEXPAU_Container_proxy@1@@Z
_TEXT	SEGMENT
_this$ = -4						; size = 4
__Ptr$ = 8						; size = 4
??$destroy@U_Container_proxy@std@@@?$_Wrap_alloc@V?$allocator@U_Container_proxy@std@@@std@@@std@@QAEXPAU_Container_proxy@1@@Z PROC ; std::_Wrap_alloc<std::allocator<std::_Container_proxy> >::destroy<std::_Container_proxy>, COMDAT
; _this$ = ecx

; 926  : 		{	// destroy object at _Ptr

	push	ebp
	mov	ebp, esp
	push	ecx
	mov	DWORD PTR [ebp-4], -858993460		; ccccccccH
	mov	DWORD PTR _this$[ebp], ecx

; 927  : 		_Mytraits::destroy(*this, _Ptr);

	mov	eax, DWORD PTR __Ptr$[ebp]
	push	eax
	mov	ecx, DWORD PTR _this$[ebp]
	push	ecx
	call	??$destroy@U_Container_proxy@std@@@?$allocator_traits@V?$allocator@U_Container_proxy@std@@@std@@@std@@SAXAAV?$allocator@U_Container_proxy@std@@@1@PAU_Container_proxy@1@@Z ; std::allocator_traits<std::allocator<std::_Container_proxy> >::destroy<std::_Container_proxy>
	add	esp, 8

; 928  : 		}

	add	esp, 4
	cmp	ebp, esp
	call	__RTC_CheckEsp
	mov	esp, ebp
	pop	ebp
	ret	4
??$destroy@U_Container_proxy@std@@@?$_Wrap_alloc@V?$allocator@U_Container_proxy@std@@@std@@@std@@QAEXPAU_Container_proxy@1@@Z ENDP ; std::_Wrap_alloc<std::allocator<std::_Container_proxy> >::destroy<std::_Container_proxy>
_TEXT	ENDS
; Function compile flags: /Odtp /RTCsu
; File d:\microsoft visual studio 14.0\vc\include\xmemory0
;	COMDAT ?deallocate@?$_Wrap_alloc@V?$allocator@U_Container_proxy@std@@@std@@@std@@QAEXPAU_Container_proxy@2@I@Z
_TEXT	SEGMENT
_this$ = -4						; size = 4
__Ptr$ = 8						; size = 4
__Count$ = 12						; size = 4
?deallocate@?$_Wrap_alloc@V?$allocator@U_Container_proxy@std@@@std@@@std@@QAEXPAU_Container_proxy@2@I@Z PROC ; std::_Wrap_alloc<std::allocator<std::_Container_proxy> >::deallocate, COMDAT
; _this$ = ecx

; 910  : 		{	// deallocate object at _Ptr, ignore size

	push	ebp
	mov	ebp, esp
	push	ecx
	mov	DWORD PTR [ebp-4], -858993460		; ccccccccH
	mov	DWORD PTR _this$[ebp], ecx

; 911  : 		_Mybase::deallocate(_Ptr, _Count);

	mov	eax, DWORD PTR __Count$[ebp]
	push	eax
	mov	ecx, DWORD PTR __Ptr$[ebp]
	push	ecx
	mov	ecx, DWORD PTR _this$[ebp]
	call	?deallocate@?$allocator@U_Container_proxy@std@@@std@@QAEXPAU_Container_proxy@2@I@Z ; std::allocator<std::_Container_proxy>::deallocate

; 912  : 		}

	add	esp, 4
	cmp	ebp, esp
	call	__RTC_CheckEsp
	mov	esp, ebp
	pop	ebp
	ret	8
?deallocate@?$_Wrap_alloc@V?$allocator@U_Container_proxy@std@@@std@@@std@@QAEXPAU_Container_proxy@2@I@Z ENDP ; std::_Wrap_alloc<std::allocator<std::_Container_proxy> >::deallocate
_TEXT	ENDS
; Function compile flags: /Odtp /RTCsu
; File d:\microsoft visual studio 14.0\vc\include\xmemory0
;	COMDAT ?allocate@?$_Wrap_alloc@V?$allocator@U_Container_proxy@std@@@std@@@std@@QAEPAU_Container_proxy@2@I@Z
_TEXT	SEGMENT
_this$ = -4						; size = 4
__Count$ = 8						; size = 4
?allocate@?$_Wrap_alloc@V?$allocator@U_Container_proxy@std@@@std@@@std@@QAEPAU_Container_proxy@2@I@Z PROC ; std::_Wrap_alloc<std::allocator<std::_Container_proxy> >::allocate, COMDAT
; _this$ = ecx

; 899  : 		{	// allocate array of _Count elements

	push	ebp
	mov	ebp, esp
	push	ecx
	mov	DWORD PTR [ebp-4], -858993460		; ccccccccH
	mov	DWORD PTR _this$[ebp], ecx

; 900  : 		return (_Mybase::allocate(_Count));

	mov	eax, DWORD PTR __Count$[ebp]
	push	eax
	mov	ecx, DWORD PTR _this$[ebp]
	call	?allocate@?$allocator@U_Container_proxy@std@@@std@@QAEPAU_Container_proxy@2@I@Z ; std::allocator<std::_Container_proxy>::allocate

; 901  : 		}

	add	esp, 4
	cmp	ebp, esp
	call	__RTC_CheckEsp
	mov	esp, ebp
	pop	ebp
	ret	4
?allocate@?$_Wrap_alloc@V?$allocator@U_Container_proxy@std@@@std@@@std@@QAEPAU_Container_proxy@2@I@Z ENDP ; std::_Wrap_alloc<std::allocator<std::_Container_proxy> >::allocate
_TEXT	ENDS
; Function compile flags: /Odtp /RTCsu
; File d:\microsoft visual studio 14.0\vc\include\xmemory0
;	COMDAT ?allocate@?$allocator@U_Container_proxy@std@@@std@@QAEPAU_Container_proxy@2@I@Z
_TEXT	SEGMENT
_this$ = -4						; size = 4
__Count$ = 8						; size = 4
?allocate@?$allocator@U_Container_proxy@std@@@std@@QAEPAU_Container_proxy@2@I@Z PROC ; std::allocator<std::_Container_proxy>::allocate, COMDAT
; _this$ = ecx

; 644  : 		{	// allocate array of _Count elements

	push	ebp
	mov	ebp, esp
	push	ecx
	mov	DWORD PTR [ebp-4], -858993460		; ccccccccH
	mov	DWORD PTR _this$[ebp], ecx

; 645  : 		return (_Allocate(_Count, (pointer)0));

	push	1
	push	0
	mov	eax, DWORD PTR __Count$[ebp]
	push	eax
	call	??$_Allocate@U_Container_proxy@std@@@std@@YAPAU_Container_proxy@0@IPAU10@_N@Z ; std::_Allocate<std::_Container_proxy>
	add	esp, 12					; 0000000cH

; 646  : 		}

	add	esp, 4
	cmp	ebp, esp
	call	__RTC_CheckEsp
	mov	esp, ebp
	pop	ebp
	ret	4
?allocate@?$allocator@U_Container_proxy@std@@@std@@QAEPAU_Container_proxy@2@I@Z ENDP ; std::allocator<std::_Container_proxy>::allocate
_TEXT	ENDS
; Function compile flags: /Odtp /RTCsu
; File d:\microsoft visual studio 14.0\vc\include\xmemory0
;	COMDAT ?deallocate@?$allocator@U_Container_proxy@std@@@std@@QAEXPAU_Container_proxy@2@I@Z
_TEXT	SEGMENT
_this$ = -4						; size = 4
__Ptr$ = 8						; size = 4
__Count$ = 12						; size = 4
?deallocate@?$allocator@U_Container_proxy@std@@@std@@QAEXPAU_Container_proxy@2@I@Z PROC ; std::allocator<std::_Container_proxy>::deallocate, COMDAT
; _this$ = ecx

; 639  : 		{	// deallocate object at _Ptr

	push	ebp
	mov	ebp, esp
	push	ecx
	mov	DWORD PTR [ebp-4], -858993460		; ccccccccH
	mov	DWORD PTR _this$[ebp], ecx

; 640  : 		_Deallocate(_Ptr, _Count);

	mov	eax, DWORD PTR __Count$[ebp]
	push	eax
	mov	ecx, DWORD PTR __Ptr$[ebp]
	push	ecx
	call	??$_Deallocate@U_Container_proxy@std@@@std@@YAXPAU_Container_proxy@0@I@Z ; std::_Deallocate<std::_Container_proxy>
	add	esp, 8

; 641  : 		}

	add	esp, 4
	cmp	ebp, esp
	call	__RTC_CheckEsp
	mov	esp, ebp
	pop	ebp
	ret	8
?deallocate@?$allocator@U_Container_proxy@std@@@std@@QAEXPAU_Container_proxy@2@I@Z ENDP ; std::allocator<std::_Container_proxy>::deallocate
_TEXT	ENDS
; Function compile flags: /Odtp /RTCsu
; File d:\microsoft visual studio 14.0\vc\include\xstddef
;	COMDAT ??$addressof@D@std@@YAPADAAD@Z
_TEXT	SEGMENT
$T1 = -2						; size = 1
__Val$ = 8						; size = 4
??$addressof@D@std@@YAPADAAD@Z PROC			; std::addressof<char>, COMDAT

; 699  : 	{	// return address of _Val

	push	ebp
	mov	ebp, esp
	push	ecx
	mov	DWORD PTR [ebp-4], -858993460		; ccccccccH

; 700  : 	return (_Addressof(_Val, is_function<_Ty>()));

	movzx	eax, BYTE PTR $T1[ebp]
	push	eax
	mov	ecx, DWORD PTR __Val$[ebp]
	push	ecx
	call	??$_Addressof@D@std@@YAPADAADU?$integral_constant@_N$0A@@0@@Z ; std::_Addressof<char>
	add	esp, 8

; 701  : 	}

	add	esp, 4
	cmp	ebp, esp
	call	__RTC_CheckEsp
	mov	esp, ebp
	pop	ebp
	ret	0
??$addressof@D@std@@YAPADAAD@Z ENDP			; std::addressof<char>
_TEXT	ENDS
; Function compile flags: /Odtp /RTCsu
; File d:\microsoft visual studio 14.0\vc\include\xmemory0
;	COMDAT ??$destroy@PAD@?$_Wrap_alloc@V?$allocator@D@std@@@std@@QAEXPAPAD@Z
_TEXT	SEGMENT
_this$ = -4						; size = 4
__Ptr$ = 8						; size = 4
??$destroy@PAD@?$_Wrap_alloc@V?$allocator@D@std@@@std@@QAEXPAPAD@Z PROC ; std::_Wrap_alloc<std::allocator<char> >::destroy<char *>, COMDAT
; _this$ = ecx

; 926  : 		{	// destroy object at _Ptr

	push	ebp
	mov	ebp, esp
	push	ecx
	mov	DWORD PTR [ebp-4], -858993460		; ccccccccH
	mov	DWORD PTR _this$[ebp], ecx

; 927  : 		_Mytraits::destroy(*this, _Ptr);

	mov	eax, DWORD PTR __Ptr$[ebp]
	push	eax
	mov	ecx, DWORD PTR _this$[ebp]
	push	ecx
	call	??$destroy@PAD@?$allocator_traits@V?$allocator@D@std@@@std@@SAXAAV?$allocator@D@1@PAPAD@Z ; std::allocator_traits<std::allocator<char> >::destroy<char *>
	add	esp, 8

; 928  : 		}

	add	esp, 4
	cmp	ebp, esp
	call	__RTC_CheckEsp
	mov	esp, ebp
	pop	ebp
	ret	4
??$destroy@PAD@?$_Wrap_alloc@V?$allocator@D@std@@@std@@QAEXPAPAD@Z ENDP ; std::_Wrap_alloc<std::allocator<char> >::destroy<char *>
_TEXT	ENDS
; Function compile flags: /Odtp /RTCsu
;	COMDAT ??_GGoal_DodgeSideToSide@@UAEPAXI@Z
_TEXT	SEGMENT
_this$ = -4						; size = 4
___flags$ = 8						; size = 4
??_GGoal_DodgeSideToSide@@UAEPAXI@Z PROC		; Goal_DodgeSideToSide::`scalar deleting destructor', COMDAT
; _this$ = ecx
	push	ebp
	mov	ebp, esp
	push	ecx
	mov	DWORD PTR [ebp-4], -858993460		; ccccccccH
	mov	DWORD PTR _this$[ebp], ecx
	mov	ecx, DWORD PTR _this$[ebp]
	call	??1Goal_DodgeSideToSide@@UAE@XZ
	mov	eax, DWORD PTR ___flags$[ebp]
	and	eax, 1
	je	SHORT $LN2@scalar
	push	40					; 00000028H
	mov	ecx, DWORD PTR _this$[ebp]
	push	ecx
	call	??3@YAXPAXI@Z				; operator delete
	add	esp, 8
$LN2@scalar:
	mov	eax, DWORD PTR _this$[ebp]
	add	esp, 4
	cmp	ebp, esp
	call	__RTC_CheckEsp
	mov	esp, ebp
	pop	ebp
	ret	4
??_GGoal_DodgeSideToSide@@UAEPAXI@Z ENDP		; Goal_DodgeSideToSide::`scalar deleting destructor'
_TEXT	ENDS
; Function compile flags: /Odtp /RTCsu
;	COMDAT ??1Goal_DodgeSideToSide@@UAE@XZ
_TEXT	SEGMENT
_this$ = -4						; size = 4
??1Goal_DodgeSideToSide@@UAE@XZ PROC			; Goal_DodgeSideToSide::~Goal_DodgeSideToSide, COMDAT
; _this$ = ecx
	push	ebp
	mov	ebp, esp
	push	ecx
	mov	DWORD PTR [ebp-4], -858993460		; ccccccccH
	mov	DWORD PTR _this$[ebp], ecx
	mov	ecx, DWORD PTR _this$[ebp]
	call	??1?$Goal@VRaven_Bot@@@@UAE@XZ		; Goal<Raven_Bot>::~Goal<Raven_Bot>
	add	esp, 4
	cmp	ebp, esp
	call	__RTC_CheckEsp
	mov	esp, ebp
	pop	ebp
	ret	0
??1Goal_DodgeSideToSide@@UAE@XZ ENDP			; Goal_DodgeSideToSide::~Goal_DodgeSideToSide
_TEXT	ENDS
; Function compile flags: /Odtp /RTCsu
; File d:\cours\uqac\intelligence artificielle - jeux vidéos\buckland_aisource\mini_projet_raven\goals\goal_dodgesidetoside.h
;	COMDAT ??0Goal_DodgeSideToSide@@QAE@PAVRaven_Bot@@@Z
_TEXT	SEGMENT
_this$ = -16						; size = 4
__$EHRec$ = -12						; size = 12
_pBot$ = 8						; size = 4
??0Goal_DodgeSideToSide@@QAE@PAVRaven_Bot@@@Z PROC	; Goal_DodgeSideToSide::Goal_DodgeSideToSide, COMDAT
; _this$ = ecx

; 36   :   {}

	push	ebp
	mov	ebp, esp
	push	-1
	push	__ehhandler$??0Goal_DodgeSideToSide@@QAE@PAVRaven_Bot@@@Z
	mov	eax, DWORD PTR fs:0
	push	eax
	push	ecx
	mov	DWORD PTR [ebp-16], -858993460		; ccccccccH
	mov	eax, DWORD PTR ___security_cookie
	xor	eax, ebp
	push	eax
	lea	eax, DWORD PTR __$EHRec$[ebp]
	mov	DWORD PTR fs:0, eax
	mov	DWORD PTR _this$[ebp], ecx

; 34   :   Goal_DodgeSideToSide(Raven_Bot* pBot):Goal<Raven_Bot>(pBot, goal_strafe),

	push	15					; 0000000fH
	mov	eax, DWORD PTR _pBot$[ebp]
	push	eax
	mov	ecx, DWORD PTR _this$[ebp]
	call	??0?$Goal@VRaven_Bot@@@@QAE@PAVRaven_Bot@@H@Z ; Goal<Raven_Bot>::Goal<Raven_Bot>
	mov	DWORD PTR __$EHRec$[ebp+8], 0

; 36   :   {}

	mov	ecx, DWORD PTR _this$[ebp]
	mov	DWORD PTR [ecx], OFFSET ??_7Goal_DodgeSideToSide@@6B@
	mov	ecx, DWORD PTR _this$[ebp]
	add	ecx, 16					; 00000010H
	call	??0Vector2D@@QAE@XZ			; Vector2D::Vector2D

; 35   :                                         m_bClockwise(RandBool())

	call	?RandBool@@YA_NXZ			; RandBool
	mov	edx, DWORD PTR _this$[ebp]
	mov	BYTE PTR [edx+32], al

; 36   :   {}

	mov	DWORD PTR __$EHRec$[ebp+8], -1
	mov	eax, DWORD PTR _this$[ebp]
	mov	ecx, DWORD PTR __$EHRec$[ebp]
	mov	DWORD PTR fs:0, ecx
	pop	ecx
	add	esp, 16					; 00000010H
	cmp	ebp, esp
	call	__RTC_CheckEsp
	mov	esp, ebp
	pop	ebp
	ret	4
_TEXT	ENDS
;	COMDAT text$x
text$x	SEGMENT
__unwindfunclet$??0Goal_DodgeSideToSide@@QAE@PAVRaven_Bot@@@Z$0:
	mov	ecx, DWORD PTR _this$[ebp]
	jmp	??1?$Goal@VRaven_Bot@@@@UAE@XZ		; Goal<Raven_Bot>::~Goal<Raven_Bot>
__ehhandler$??0Goal_DodgeSideToSide@@QAE@PAVRaven_Bot@@@Z:
	mov	edx, DWORD PTR [esp+8]
	lea	eax, DWORD PTR [edx+12]
	mov	ecx, DWORD PTR [edx-8]
	xor	ecx, eax
	call	@__security_check_cookie@4
	mov	eax, OFFSET __ehfuncinfo$??0Goal_DodgeSideToSide@@QAE@PAVRaven_Bot@@@Z
	jmp	___CxxFrameHandler3
text$x	ENDS
??0Goal_DodgeSideToSide@@QAE@PAVRaven_Bot@@@Z ENDP	; Goal_DodgeSideToSide::Goal_DodgeSideToSide
; Function compile flags: /Odtp /RTCsu
;	COMDAT ??_GGoal_HuntTarget@@UAEPAXI@Z
_TEXT	SEGMENT
_this$ = -4						; size = 4
___flags$ = 8						; size = 4
??_GGoal_HuntTarget@@UAEPAXI@Z PROC			; Goal_HuntTarget::`scalar deleting destructor', COMDAT
; _this$ = ecx
	push	ebp
	mov	ebp, esp
	push	ecx
	mov	DWORD PTR [ebp-4], -858993460		; ccccccccH
	mov	DWORD PTR _this$[ebp], ecx
	mov	ecx, DWORD PTR _this$[ebp]
	call	??1Goal_HuntTarget@@UAE@XZ
	mov	eax, DWORD PTR ___flags$[ebp]
	and	eax, 1
	je	SHORT $LN2@scalar
	push	32					; 00000020H
	mov	ecx, DWORD PTR _this$[ebp]
	push	ecx
	call	??3@YAXPAXI@Z				; operator delete
	add	esp, 8
$LN2@scalar:
	mov	eax, DWORD PTR _this$[ebp]
	add	esp, 4
	cmp	ebp, esp
	call	__RTC_CheckEsp
	mov	esp, ebp
	pop	ebp
	ret	4
??_GGoal_HuntTarget@@UAEPAXI@Z ENDP			; Goal_HuntTarget::`scalar deleting destructor'
_TEXT	ENDS
; Function compile flags: /Odtp /RTCsu
;	COMDAT ??1Goal_HuntTarget@@UAE@XZ
_TEXT	SEGMENT
_this$ = -4						; size = 4
??1Goal_HuntTarget@@UAE@XZ PROC				; Goal_HuntTarget::~Goal_HuntTarget, COMDAT
; _this$ = ecx
	push	ebp
	mov	ebp, esp
	push	ecx
	mov	DWORD PTR [ebp-4], -858993460		; ccccccccH
	mov	DWORD PTR _this$[ebp], ecx
	mov	ecx, DWORD PTR _this$[ebp]
	call	??1?$Goal_Composite@VRaven_Bot@@@@UAE@XZ ; Goal_Composite<Raven_Bot>::~Goal_Composite<Raven_Bot>
	add	esp, 4
	cmp	ebp, esp
	call	__RTC_CheckEsp
	mov	esp, ebp
	pop	ebp
	ret	0
??1Goal_HuntTarget@@UAE@XZ ENDP				; Goal_HuntTarget::~Goal_HuntTarget
_TEXT	ENDS
; Function compile flags: /Odtp /RTCsu
; File d:\cours\uqac\intelligence artificielle - jeux vidéos\buckland_aisource\mini_projet_raven\goals\goal_hunttarget.h
;	COMDAT ?Terminate@Goal_HuntTarget@@UAEXXZ
_TEXT	SEGMENT
_this$ = -4						; size = 4
?Terminate@Goal_HuntTarget@@UAEXXZ PROC			; Goal_HuntTarget::Terminate, COMDAT
; _this$ = ecx

; 35   :   void Terminate(){}

	push	ebp
	mov	ebp, esp
	push	ecx
	mov	DWORD PTR [ebp-4], -858993460		; ccccccccH
	mov	DWORD PTR _this$[ebp], ecx
	mov	esp, ebp
	pop	ebp
	ret	0
?Terminate@Goal_HuntTarget@@UAEXXZ ENDP			; Goal_HuntTarget::Terminate
_TEXT	ENDS
; Function compile flags: /Odtp /RTCsu
; File d:\cours\uqac\intelligence artificielle - jeux vidéos\buckland_aisource\mini_projet_raven\goals\goal_hunttarget.h
;	COMDAT ??0Goal_HuntTarget@@QAE@PAVRaven_Bot@@@Z
_TEXT	SEGMENT
_this$ = -4						; size = 4
_pBot$ = 8						; size = 4
??0Goal_HuntTarget@@QAE@PAVRaven_Bot@@@Z PROC		; Goal_HuntTarget::Goal_HuntTarget, COMDAT
; _this$ = ecx

; 30   :   {}

	push	ebp
	mov	ebp, esp
	push	ecx
	mov	DWORD PTR [ebp-4], -858993460		; ccccccccH
	mov	DWORD PTR _this$[ebp], ecx

; 28   :   Goal_HuntTarget(Raven_Bot* pBot):Goal_Composite<Raven_Bot>(pBot, goal_hunt_target),

	push	14					; 0000000eH
	mov	eax, DWORD PTR _pBot$[ebp]
	push	eax
	mov	ecx, DWORD PTR _this$[ebp]
	call	??0?$Goal_Composite@VRaven_Bot@@@@QAE@PAVRaven_Bot@@H@Z ; Goal_Composite<Raven_Bot>::Goal_Composite<Raven_Bot>

; 30   :   {}

	mov	ecx, DWORD PTR _this$[ebp]
	mov	DWORD PTR [ecx], OFFSET ??_7Goal_HuntTarget@@6B@

; 29   :                                    m_bLVPTried(false)

	mov	edx, DWORD PTR _this$[ebp]
	mov	BYTE PTR [edx+28], 0

; 30   :   {}

	mov	eax, DWORD PTR _this$[ebp]
	add	esp, 4
	cmp	ebp, esp
	call	__RTC_CheckEsp
	mov	esp, ebp
	pop	ebp
	ret	4
??0Goal_HuntTarget@@QAE@PAVRaven_Bot@@@Z ENDP		; Goal_HuntTarget::Goal_HuntTarget
_TEXT	ENDS
; Function compile flags: /Odtp /RTCsu
; File d:\cours\uqac\intelligence artificielle - jeux vidéos\buckland_aisource\mini_projet_raven\goals\goal_attacktarget.cpp
_TEXT	SEGMENT
_this$ = -4						; size = 4
?Process@Goal_AttackTarget@@UAEHXZ PROC			; Goal_AttackTarget::Process
; _this$ = ecx

; 59   : {

	push	ebp
	mov	ebp, esp
	push	ecx
	mov	DWORD PTR [ebp-4], -858993460		; ccccccccH
	mov	DWORD PTR _this$[ebp], ecx

; 60   :   //if status is inactive, call Activate()
; 61   :   ActivateIfInactive();

	mov	ecx, DWORD PTR _this$[ebp]
	call	?ActivateIfInactive@?$Goal@VRaven_Bot@@@@IAEXXZ ; Goal<Raven_Bot>::ActivateIfInactive

; 62   :     
; 63   :   //process the subgoals
; 64   :   m_iStatus = ProcessSubgoals();

	mov	ecx, DWORD PTR _this$[ebp]
	call	?ProcessSubgoals@?$Goal_Composite@VRaven_Bot@@@@IAEHXZ ; Goal_Composite<Raven_Bot>::ProcessSubgoals
	mov	ecx, DWORD PTR _this$[ebp]
	mov	DWORD PTR [ecx+12], eax

; 65   : 
; 66   :   ReactivateIfFailed();

	mov	ecx, DWORD PTR _this$[ebp]
	call	?ReactivateIfFailed@?$Goal@VRaven_Bot@@@@IAEXXZ ; Goal<Raven_Bot>::ReactivateIfFailed

; 67   : 
; 68   :   return m_iStatus;

	mov	edx, DWORD PTR _this$[ebp]
	mov	eax, DWORD PTR [edx+12]

; 69   : }

	add	esp, 4
	cmp	ebp, esp
	call	__RTC_CheckEsp
	mov	esp, ebp
	pop	ebp
	ret	0
?Process@Goal_AttackTarget@@UAEHXZ ENDP			; Goal_AttackTarget::Process
_TEXT	ENDS
; Function compile flags: /Odtp /RTCsu
; File d:\cours\uqac\intelligence artificielle - jeux vidéos\buckland_aisource\mini_projet_raven\goals\goal_attacktarget.cpp
_TEXT	SEGMENT
tv254 = -92						; size = 4
tv225 = -88						; size = 4
tv181 = -84						; size = 4
$T2 = -80						; size = 4
$T3 = -76						; size = 4
$T4 = -72						; size = 16
$T5 = -56						; size = 4
$T6 = -52						; size = 4
$T7 = -48						; size = 4
$T8 = -44						; size = 4
_dummy$9 = -36						; size = 16
_this$ = -16						; size = 4
__$EHRec$ = -12						; size = 12
?Activate@Goal_AttackTarget@@UAEXXZ PROC		; Goal_AttackTarget::Activate
; _this$ = ecx

; 15   : {

	push	ebp
	mov	ebp, esp
	push	-1
	push	__ehhandler$?Activate@Goal_AttackTarget@@UAEXXZ
	mov	eax, DWORD PTR fs:0
	push	eax
	sub	esp, 80					; 00000050H
	push	esi
	push	edi
	push	ecx
	lea	edi, DWORD PTR [ebp-92]
	mov	ecx, 20					; 00000014H
	mov	eax, -858993460				; ccccccccH
	rep stosd
	pop	ecx
	mov	eax, DWORD PTR ___security_cookie
	xor	eax, ebp
	push	eax
	lea	eax, DWORD PTR __$EHRec$[ebp]
	mov	DWORD PTR fs:0, eax
	mov	DWORD PTR _this$[ebp], ecx

; 16   :   m_iStatus = active;

	mov	eax, DWORD PTR _this$[ebp]
	mov	DWORD PTR [eax+12], 0

; 17   : 
; 18   :   //if this goal is reactivated then there may be some existing subgoals that
; 19   :   //must be removed
; 20   :   RemoveAllSubgoals();

	mov	ecx, DWORD PTR _this$[ebp]
	call	?RemoveAllSubgoals@?$Goal_Composite@VRaven_Bot@@@@QAEXXZ ; Goal_Composite<Raven_Bot>::RemoveAllSubgoals

; 21   : 
; 22   :   //it is possible for a bot's target to die whilst this goal is active so we
; 23   :   //must test to make sure the bot always has an active target
; 24   :   if (!m_pOwner->GetTargetSys()->isTargetPresent())

	mov	ecx, DWORD PTR _this$[ebp]
	mov	ecx, DWORD PTR [ecx+8]
	call	?GetTargetSys@Raven_Bot@@QAEQAVRaven_TargetingSystem@@XZ ; Raven_Bot::GetTargetSys
	mov	ecx, eax
	call	?isTargetPresent@Raven_TargetingSystem@@QBE_NXZ ; Raven_TargetingSystem::isTargetPresent
	movzx	edx, al
	test	edx, edx
	jne	SHORT $LN2@Activate

; 25   :   {
; 26   :      m_iStatus = completed;

	mov	eax, DWORD PTR _this$[ebp]
	mov	DWORD PTR [eax+12], 2

; 27   : 
; 28   :      return;

	jmp	$LN1@Activate
$LN2@Activate:

; 29   :   }
; 30   : 
; 31   :   //if the bot is able to shoot the target (there is LOS between bot and
; 32   :   //target), then select a tactic to follow while shooting
; 33   :   if (m_pOwner->GetTargetSys()->isTargetShootable())

	mov	ecx, DWORD PTR _this$[ebp]
	mov	ecx, DWORD PTR [ecx+8]
	call	?GetTargetSys@Raven_Bot@@QAEQAVRaven_TargetingSystem@@XZ ; Raven_Bot::GetTargetSys
	mov	ecx, eax
	call	?isTargetShootable@Raven_TargetingSystem@@QBE_NXZ ; Raven_TargetingSystem::isTargetShootable
	movzx	edx, al
	test	edx, edx
	je	$LN3@Activate

; 34   :   {
; 35   :     //if the bot has space to strafe then do so
; 36   :     Vector2D dummy;

	lea	ecx, DWORD PTR _dummy$9[ebp]
	call	??0Vector2D@@QAE@XZ			; Vector2D::Vector2D

; 37   :     if (m_pOwner->canStepLeft(dummy) || m_pOwner->canStepRight(dummy))

	lea	eax, DWORD PTR _dummy$9[ebp]
	push	eax
	mov	ecx, DWORD PTR _this$[ebp]
	mov	ecx, DWORD PTR [ecx+8]
	call	?canStepLeft@Raven_Bot@@QBE_NAAUVector2D@@@Z ; Raven_Bot::canStepLeft
	movzx	edx, al
	test	edx, edx
	jne	SHORT $LN7@Activate
	lea	eax, DWORD PTR _dummy$9[ebp]
	push	eax
	mov	ecx, DWORD PTR _this$[ebp]
	mov	ecx, DWORD PTR [ecx+8]
	call	?canStepRight@Raven_Bot@@QBE_NAAUVector2D@@@Z ; Raven_Bot::canStepRight
	movzx	edx, al
	test	edx, edx
	je	SHORT $LN5@Activate
$LN7@Activate:

; 38   :     {
; 39   :       AddSubgoal(new Goal_DodgeSideToSide(m_pOwner));

	push	40					; 00000028H
	call	??2@YAPAXI@Z				; operator new
	add	esp, 4
	mov	DWORD PTR $T7[ebp], eax
	mov	DWORD PTR __$EHRec$[ebp+8], 0
	cmp	DWORD PTR $T7[ebp], 0
	je	SHORT $LN9@Activate
	mov	eax, DWORD PTR _this$[ebp]
	mov	ecx, DWORD PTR [eax+8]
	push	ecx
	mov	ecx, DWORD PTR $T7[ebp]
	call	??0Goal_DodgeSideToSide@@QAE@PAVRaven_Bot@@@Z ; Goal_DodgeSideToSide::Goal_DodgeSideToSide
	mov	DWORD PTR tv181[ebp], eax
	jmp	SHORT $LN10@Activate
$LN9@Activate:
	mov	DWORD PTR tv181[ebp], 0
$LN10@Activate:
	mov	edx, DWORD PTR tv181[ebp]
	mov	DWORD PTR $T8[ebp], edx
	mov	DWORD PTR __$EHRec$[ebp+8], -1
	mov	esi, esp
	mov	eax, DWORD PTR $T8[ebp]
	push	eax
	mov	ecx, DWORD PTR _this$[ebp]
	mov	edx, DWORD PTR [ecx]
	mov	ecx, DWORD PTR _this$[ebp]
	mov	eax, DWORD PTR [edx+20]
	call	eax
	cmp	esi, esp
	call	__RTC_CheckEsp

; 40   :     }
; 41   : 
; 42   :     //if not able to strafe, head directly at the target's position 
; 43   :     else

	jmp	$LN6@Activate
$LN5@Activate:

; 44   :     {
; 45   :       AddSubgoal(new Goal_SeekToPosition(m_pOwner, m_pOwner->GetTargetBot()->Pos()));

	push	48					; 00000030H
	call	??2@YAPAXI@Z				; operator new
	add	esp, 4
	mov	DWORD PTR $T5[ebp], eax
	mov	DWORD PTR __$EHRec$[ebp+8], 1
	cmp	DWORD PTR $T5[ebp], 0
	je	SHORT $LN11@Activate
	lea	ecx, DWORD PTR $T4[ebp]
	push	ecx
	mov	edx, DWORD PTR _this$[ebp]
	mov	ecx, DWORD PTR [edx+8]
	call	?GetTargetBot@Raven_Bot@@QBEQAV1@XZ	; Raven_Bot::GetTargetBot
	mov	ecx, eax
	call	?Pos@BaseGameEntity@@QBE?AUVector2D@@XZ	; BaseGameEntity::Pos
	sub	esp, 16					; 00000010H
	mov	ecx, esp
	mov	edx, DWORD PTR [eax]
	mov	DWORD PTR [ecx], edx
	mov	edx, DWORD PTR [eax+4]
	mov	DWORD PTR [ecx+4], edx
	mov	edx, DWORD PTR [eax+8]
	mov	DWORD PTR [ecx+8], edx
	mov	eax, DWORD PTR [eax+12]
	mov	DWORD PTR [ecx+12], eax
	mov	ecx, DWORD PTR _this$[ebp]
	mov	edx, DWORD PTR [ecx+8]
	push	edx
	mov	ecx, DWORD PTR $T5[ebp]
	call	??0Goal_SeekToPosition@@QAE@PAVRaven_Bot@@UVector2D@@@Z ; Goal_SeekToPosition::Goal_SeekToPosition
	mov	DWORD PTR tv225[ebp], eax
	jmp	SHORT $LN12@Activate
$LN11@Activate:
	mov	DWORD PTR tv225[ebp], 0
$LN12@Activate:
	mov	eax, DWORD PTR tv225[ebp]
	mov	DWORD PTR $T6[ebp], eax
	mov	DWORD PTR __$EHRec$[ebp+8], -1
	mov	esi, esp
	mov	ecx, DWORD PTR $T6[ebp]
	push	ecx
	mov	edx, DWORD PTR _this$[ebp]
	mov	eax, DWORD PTR [edx]
	mov	ecx, DWORD PTR _this$[ebp]
	mov	edx, DWORD PTR [eax+20]
	call	edx
	cmp	esi, esp
	call	__RTC_CheckEsp
$LN6@Activate:

; 46   :     }
; 47   :   }
; 48   : 
; 49   :   //if the target is not visible, go hunt it.
; 50   :   else

	jmp	SHORT $LN1@Activate
$LN3@Activate:

; 51   :   {
; 52   :     AddSubgoal(new Goal_HuntTarget(m_pOwner));

	push	32					; 00000020H
	call	??2@YAPAXI@Z				; operator new
	add	esp, 4
	mov	DWORD PTR $T2[ebp], eax
	mov	DWORD PTR __$EHRec$[ebp+8], 2
	cmp	DWORD PTR $T2[ebp], 0
	je	SHORT $LN13@Activate
	mov	eax, DWORD PTR _this$[ebp]
	mov	ecx, DWORD PTR [eax+8]
	push	ecx
	mov	ecx, DWORD PTR $T2[ebp]
	call	??0Goal_HuntTarget@@QAE@PAVRaven_Bot@@@Z ; Goal_HuntTarget::Goal_HuntTarget
	mov	DWORD PTR tv254[ebp], eax
	jmp	SHORT $LN14@Activate
$LN13@Activate:
	mov	DWORD PTR tv254[ebp], 0
$LN14@Activate:
	mov	edx, DWORD PTR tv254[ebp]
	mov	DWORD PTR $T3[ebp], edx
	mov	DWORD PTR __$EHRec$[ebp+8], -1
	mov	esi, esp
	mov	eax, DWORD PTR $T3[ebp]
	push	eax
	mov	ecx, DWORD PTR _this$[ebp]
	mov	edx, DWORD PTR [ecx]
	mov	ecx, DWORD PTR _this$[ebp]
	mov	eax, DWORD PTR [edx+20]
	call	eax
	cmp	esi, esp
	call	__RTC_CheckEsp
$LN1@Activate:

; 53   :   }
; 54   : }

	push	edx
	mov	ecx, ebp
	push	eax
	lea	edx, DWORD PTR $LN21@Activate
	call	@_RTC_CheckStackVars@8
	pop	eax
	pop	edx
	mov	ecx, DWORD PTR __$EHRec$[ebp]
	mov	DWORD PTR fs:0, ecx
	pop	ecx
	pop	edi
	pop	esi
	add	esp, 92					; 0000005cH
	cmp	ebp, esp
	call	__RTC_CheckEsp
	mov	esp, ebp
	pop	ebp
	ret	0
	npad	2
$LN21@Activate:
	DD	1
	DD	$LN20@Activate
$LN20@Activate:
	DD	-36					; ffffffdcH
	DD	16					; 00000010H
	DD	$LN18@Activate
$LN18@Activate:
	DB	100					; 00000064H
	DB	117					; 00000075H
	DB	109					; 0000006dH
	DB	109					; 0000006dH
	DB	121					; 00000079H
	DB	0
_TEXT	ENDS
text$x	SEGMENT
__unwindfunclet$?Activate@Goal_AttackTarget@@UAEXXZ$0:
	push	40					; 00000028H
	mov	eax, DWORD PTR $T7[ebp]
	push	eax
	call	??3@YAXPAXI@Z				; operator delete
	add	esp, 8
	ret	0
__unwindfunclet$?Activate@Goal_AttackTarget@@UAEXXZ$1:
	push	48					; 00000030H
	mov	eax, DWORD PTR $T5[ebp]
	push	eax
	call	??3@YAXPAXI@Z				; operator delete
	add	esp, 8
	ret	0
__unwindfunclet$?Activate@Goal_AttackTarget@@UAEXXZ$2:
	push	32					; 00000020H
	mov	eax, DWORD PTR $T2[ebp]
	push	eax
	call	??3@YAXPAXI@Z				; operator delete
	add	esp, 8
	ret	0
__ehhandler$?Activate@Goal_AttackTarget@@UAEXXZ:
	mov	edx, DWORD PTR [esp+8]
	lea	eax, DWORD PTR [edx+12]
	mov	ecx, DWORD PTR [edx-92]
	xor	ecx, eax
	call	@__security_check_cookie@4
	mov	eax, OFFSET __ehfuncinfo$?Activate@Goal_AttackTarget@@UAEXXZ
	jmp	___CxxFrameHandler3
text$x	ENDS
?Activate@Goal_AttackTarget@@UAEXXZ ENDP		; Goal_AttackTarget::Activate
; Function compile flags: /Odtp /RTCsu
;	COMDAT ??_G?$Goal_Composite@VRaven_Bot@@@@UAEPAXI@Z
_TEXT	SEGMENT
_this$ = -4						; size = 4
___flags$ = 8						; size = 4
??_G?$Goal_Composite@VRaven_Bot@@@@UAEPAXI@Z PROC	; Goal_Composite<Raven_Bot>::`scalar deleting destructor', COMDAT
; _this$ = ecx
	push	ebp
	mov	ebp, esp
	push	ecx
	mov	DWORD PTR [ebp-4], -858993460		; ccccccccH
	mov	DWORD PTR _this$[ebp], ecx
	mov	ecx, DWORD PTR _this$[ebp]
	call	??1?$Goal_Composite@VRaven_Bot@@@@UAE@XZ ; Goal_Composite<Raven_Bot>::~Goal_Composite<Raven_Bot>
	mov	eax, DWORD PTR ___flags$[ebp]
	and	eax, 1
	je	SHORT $LN2@scalar
	push	28					; 0000001cH
	mov	ecx, DWORD PTR _this$[ebp]
	push	ecx
	call	??3@YAXPAXI@Z				; operator delete
	add	esp, 8
$LN2@scalar:
	mov	eax, DWORD PTR _this$[ebp]
	add	esp, 4
	cmp	ebp, esp
	call	__RTC_CheckEsp
	mov	esp, ebp
	pop	ebp
	ret	4
??_G?$Goal_Composite@VRaven_Bot@@@@UAEPAXI@Z ENDP	; Goal_Composite<Raven_Bot>::`scalar deleting destructor'
_TEXT	ENDS
; Function compile flags: /Odtp /RTCsu
; File d:\cours\uqac\intelligence artificielle - jeux vidéos\buckland_aisource\mini_projet_raven\common\goals\goal_composite.h
;	COMDAT ?Render@?$Goal_Composite@VRaven_Bot@@@@UAEXXZ
_TEXT	SEGMENT
tv74 = -8						; size = 4
_this$ = -4						; size = 4
?Render@?$Goal_Composite@VRaven_Bot@@@@UAEXXZ PROC	; Goal_Composite<Raven_Bot>::Render, COMDAT
; _this$ = ecx

; 182  : {

	push	ebp
	mov	ebp, esp
	sub	esp, 8
	push	esi
	mov	DWORD PTR [ebp-8], -858993460		; ccccccccH
	mov	DWORD PTR [ebp-4], -858993460		; ccccccccH
	mov	DWORD PTR _this$[ebp], ecx

; 183  :   if (!m_SubGoals.empty())

	mov	ecx, DWORD PTR _this$[ebp]
	add	ecx, 16					; 00000010H
	call	?empty@?$list@PAV?$Goal@VRaven_Bot@@@@V?$allocator@PAV?$Goal@VRaven_Bot@@@@@std@@@std@@QBE_NXZ ; std::list<Goal<Raven_Bot> *,std::allocator<Goal<Raven_Bot> *> >::empty
	movzx	eax, al
	test	eax, eax
	jne	SHORT $LN1@Render

; 184  :   {
; 185  :     m_SubGoals.front()->Render();

	mov	ecx, DWORD PTR _this$[ebp]
	add	ecx, 16					; 00000010H
	call	?front@?$list@PAV?$Goal@VRaven_Bot@@@@V?$allocator@PAV?$Goal@VRaven_Bot@@@@@std@@@std@@QAEAAPAV?$Goal@VRaven_Bot@@@@XZ ; std::list<Goal<Raven_Bot> *,std::allocator<Goal<Raven_Bot> *> >::front
	mov	ecx, DWORD PTR [eax]
	mov	DWORD PTR tv74[ebp], ecx
	mov	edx, DWORD PTR tv74[ebp]
	mov	eax, DWORD PTR [edx]
	mov	esi, esp
	mov	ecx, DWORD PTR tv74[ebp]
	mov	edx, DWORD PTR [eax+28]
	call	edx
	cmp	esi, esp
	call	__RTC_CheckEsp
$LN1@Render:

; 186  :   }
; 187  : }

	pop	esi
	add	esp, 8
	cmp	ebp, esp
	call	__RTC_CheckEsp
	mov	esp, ebp
	pop	ebp
	ret	0
?Render@?$Goal_Composite@VRaven_Bot@@@@UAEXXZ ENDP	; Goal_Composite<Raven_Bot>::Render
_TEXT	ENDS
; Function compile flags: /Odtp /RTCsu
; File d:\cours\uqac\intelligence artificielle - jeux vidéos\buckland_aisource\mini_projet_raven\common\goals\goal_composite.h
;	COMDAT ?RenderAtPos@?$Goal_Composite@VRaven_Bot@@@@UBEXAAUVector2D@@PAVTypeToString@@@Z
_TEXT	SEGMENT
tv135 = -84						; size = 4
tv147 = -80						; size = 4
tv148 = -76						; size = 4
tv145 = -72						; size = 4
tv77 = -68						; size = 4
$T2 = -64						; size = 12
$T3 = -49						; size = 1
$T4 = -48						; size = 12
_it$ = -32						; size = 12
_this$ = -16						; size = 4
__$EHRec$ = -12						; size = 12
_pos$ = 8						; size = 4
_tts$ = 12						; size = 4
?RenderAtPos@?$Goal_Composite@VRaven_Bot@@@@UBEXAAUVector2D@@PAVTypeToString@@@Z PROC ; Goal_Composite<Raven_Bot>::RenderAtPos, COMDAT
; _this$ = ecx

; 165  : {

	push	ebp
	mov	ebp, esp
	push	-1
	push	__ehhandler$?RenderAtPos@?$Goal_Composite@VRaven_Bot@@@@UBEXAAUVector2D@@PAVTypeToString@@@Z
	mov	eax, DWORD PTR fs:0
	push	eax
	sub	esp, 72					; 00000048H
	push	esi
	push	edi
	push	ecx
	lea	edi, DWORD PTR [ebp-84]
	mov	ecx, 18					; 00000012H
	mov	eax, -858993460				; ccccccccH
	rep stosd
	pop	ecx
	mov	eax, DWORD PTR ___security_cookie
	xor	eax, ebp
	push	eax
	lea	eax, DWORD PTR __$EHRec$[ebp]
	mov	DWORD PTR fs:0, eax
	mov	DWORD PTR _this$[ebp], ecx

; 166  :   Goal<entity_type>::RenderAtPos(pos, tts);

	mov	eax, DWORD PTR _tts$[ebp]
	push	eax
	mov	ecx, DWORD PTR _pos$[ebp]
	push	ecx
	mov	ecx, DWORD PTR _this$[ebp]
	call	?RenderAtPos@?$Goal@VRaven_Bot@@@@UBEXAAUVector2D@@PAVTypeToString@@@Z ; Goal<Raven_Bot>::RenderAtPos

; 167  : 
; 168  :   pos.x += 10;

	mov	edx, DWORD PTR _pos$[ebp]
	movsd	xmm0, QWORD PTR [edx]
	addsd	xmm0, QWORD PTR __real@4024000000000000
	mov	eax, DWORD PTR _pos$[ebp]
	movsd	QWORD PTR [eax], xmm0

; 169  : 
; 170  :   gdi->TransparentText();

	call	?Instance@Cgdi@@SAPAV1@XZ		; Cgdi::Instance
	mov	ecx, eax
	call	?TransparentText@Cgdi@@QAEXXZ		; Cgdi::TransparentText

; 171  :   SubgoalList::const_reverse_iterator it;

	lea	ecx, DWORD PTR _it$[ebp]
	call	??0?$reverse_iterator@V?$_List_const_iterator@V?$_List_val@U?$_List_simple_types@PAV?$Goal@VRaven_Bot@@@@@std@@@std@@@std@@@std@@QAE@XZ ; std::reverse_iterator<std::_List_const_iterator<std::_List_val<std::_List_simple_types<Goal<Raven_Bot> *> > > >::reverse_iterator<std::_List_const_iterator<std::_List_val<std::_List_simple_types<Goal<Raven_Bot> *> > > >
	mov	DWORD PTR __$EHRec$[ebp+8], 0

; 172  :   for (it=m_SubGoals.rbegin(); it != m_SubGoals.rend(); ++it)

	lea	ecx, DWORD PTR $T4[ebp]
	push	ecx
	mov	ecx, DWORD PTR _this$[ebp]
	add	ecx, 16					; 00000010H
	call	?rbegin@?$list@PAV?$Goal@VRaven_Bot@@@@V?$allocator@PAV?$Goal@VRaven_Bot@@@@@std@@@std@@QBE?AV?$reverse_iterator@V?$_List_const_iterator@V?$_List_val@U?$_List_simple_types@PAV?$Goal@VRaven_Bot@@@@@std@@@std@@@std@@@2@XZ ; std::list<Goal<Raven_Bot> *,std::allocator<Goal<Raven_Bot> *> >::rbegin
	mov	DWORD PTR tv77[ebp], eax
	mov	edx, DWORD PTR tv77[ebp]
	mov	DWORD PTR tv145[ebp], edx
	mov	BYTE PTR __$EHRec$[ebp+8], 1
	mov	eax, DWORD PTR tv145[ebp]
	push	eax
	lea	ecx, DWORD PTR _it$[ebp]
	call	??4?$reverse_iterator@V?$_List_const_iterator@V?$_List_val@U?$_List_simple_types@PAV?$Goal@VRaven_Bot@@@@@std@@@std@@@std@@@std@@QAEAAV01@$$QAV01@@Z
	mov	BYTE PTR __$EHRec$[ebp+8], 0
	lea	ecx, DWORD PTR $T4[ebp]
	call	??1?$reverse_iterator@V?$_List_const_iterator@V?$_List_val@U?$_List_simple_types@PAV?$Goal@VRaven_Bot@@@@@std@@@std@@@std@@@std@@QAE@XZ
	jmp	SHORT $LN4@RenderAtPo
$LN2@RenderAtPo:
	lea	ecx, DWORD PTR _it$[ebp]
	call	??E?$reverse_iterator@V?$_List_const_iterator@V?$_List_val@U?$_List_simple_types@PAV?$Goal@VRaven_Bot@@@@@std@@@std@@@std@@@std@@QAEAAV01@XZ ; std::reverse_iterator<std::_List_const_iterator<std::_List_val<std::_List_simple_types<Goal<Raven_Bot> *> > > >::operator++
$LN4@RenderAtPo:
	lea	ecx, DWORD PTR $T2[ebp]
	push	ecx
	mov	ecx, DWORD PTR _this$[ebp]
	add	ecx, 16					; 00000010H
	call	?rend@?$list@PAV?$Goal@VRaven_Bot@@@@V?$allocator@PAV?$Goal@VRaven_Bot@@@@@std@@@std@@QBE?AV?$reverse_iterator@V?$_List_const_iterator@V?$_List_val@U?$_List_simple_types@PAV?$Goal@VRaven_Bot@@@@@std@@@std@@@std@@@2@XZ ; std::list<Goal<Raven_Bot> *,std::allocator<Goal<Raven_Bot> *> >::rend
	mov	DWORD PTR tv148[ebp], eax
	mov	edx, DWORD PTR tv148[ebp]
	mov	DWORD PTR tv147[ebp], edx
	mov	BYTE PTR __$EHRec$[ebp+8], 2
	mov	eax, DWORD PTR tv147[ebp]
	push	eax
	lea	ecx, DWORD PTR _it$[ebp]
	push	ecx
	call	??$?9V?$_List_const_iterator@V?$_List_val@U?$_List_simple_types@PAV?$Goal@VRaven_Bot@@@@@std@@@std@@@std@@V01@@std@@YA_NABV?$reverse_iterator@V?$_List_const_iterator@V?$_List_val@U?$_List_simple_types@PAV?$Goal@VRaven_Bot@@@@@std@@@std@@@std@@@0@0@Z ; std::operator!=<std::_List_const_iterator<std::_List_val<std::_List_simple_types<Goal<Raven_Bot> *> > >,std::_List_const_iterator<std::_List_val<std::_List_simple_types<Goal<Raven_Bot> *> > > >
	add	esp, 8
	mov	BYTE PTR $T3[ebp], al
	mov	BYTE PTR __$EHRec$[ebp+8], 0
	lea	ecx, DWORD PTR $T2[ebp]
	call	??1?$reverse_iterator@V?$_List_const_iterator@V?$_List_val@U?$_List_simple_types@PAV?$Goal@VRaven_Bot@@@@@std@@@std@@@std@@@std@@QAE@XZ
	movzx	edx, BYTE PTR $T3[ebp]
	test	edx, edx
	je	SHORT $LN3@RenderAtPo

; 173  :   {
; 174  :     (*it)->RenderAtPos(pos, tts);

	lea	ecx, DWORD PTR _it$[ebp]
	call	??D?$reverse_iterator@V?$_List_const_iterator@V?$_List_val@U?$_List_simple_types@PAV?$Goal@VRaven_Bot@@@@@std@@@std@@@std@@@std@@QBEABQAV?$Goal@VRaven_Bot@@@@XZ ; std::reverse_iterator<std::_List_const_iterator<std::_List_val<std::_List_simple_types<Goal<Raven_Bot> *> > > >::operator*
	mov	eax, DWORD PTR [eax]
	mov	DWORD PTR tv135[ebp], eax
	mov	esi, esp
	mov	ecx, DWORD PTR _tts$[ebp]
	push	ecx
	mov	edx, DWORD PTR _pos$[ebp]
	push	edx
	mov	eax, DWORD PTR tv135[ebp]
	mov	edx, DWORD PTR [eax]
	mov	ecx, DWORD PTR tv135[ebp]
	mov	eax, DWORD PTR [edx+24]
	call	eax
	cmp	esi, esp
	call	__RTC_CheckEsp

; 175  :   }

	jmp	SHORT $LN2@RenderAtPo
$LN3@RenderAtPo:

; 176  : 
; 177  :   pos.x -= 10;

	mov	ecx, DWORD PTR _pos$[ebp]
	movsd	xmm0, QWORD PTR [ecx]
	subsd	xmm0, QWORD PTR __real@4024000000000000
	mov	edx, DWORD PTR _pos$[ebp]
	movsd	QWORD PTR [edx], xmm0

; 178  : }

	mov	DWORD PTR __$EHRec$[ebp+8], -1
	lea	ecx, DWORD PTR _it$[ebp]
	call	??1?$reverse_iterator@V?$_List_const_iterator@V?$_List_val@U?$_List_simple_types@PAV?$Goal@VRaven_Bot@@@@@std@@@std@@@std@@@std@@QAE@XZ
	push	edx
	mov	ecx, ebp
	push	eax
	lea	edx, DWORD PTR $LN12@RenderAtPo
	call	@_RTC_CheckStackVars@8
	pop	eax
	pop	edx
	mov	ecx, DWORD PTR __$EHRec$[ebp]
	mov	DWORD PTR fs:0, ecx
	pop	ecx
	pop	edi
	pop	esi
	add	esp, 84					; 00000054H
	cmp	ebp, esp
	call	__RTC_CheckEsp
	mov	esp, ebp
	pop	ebp
	ret	8
	npad	3
$LN12@RenderAtPo:
	DD	1
	DD	$LN11@RenderAtPo
$LN11@RenderAtPo:
	DD	-32					; ffffffe0H
	DD	12					; 0000000cH
	DD	$LN9@RenderAtPo
$LN9@RenderAtPo:
	DB	105					; 00000069H
	DB	116					; 00000074H
	DB	0
_TEXT	ENDS
;	COMDAT text$x
text$x	SEGMENT
__unwindfunclet$?RenderAtPos@?$Goal_Composite@VRaven_Bot@@@@UBEXAAUVector2D@@PAVTypeToString@@@Z$0:
	lea	ecx, DWORD PTR _it$[ebp]
	jmp	??1?$reverse_iterator@V?$_List_const_iterator@V?$_List_val@U?$_List_simple_types@PAV?$Goal@VRaven_Bot@@@@@std@@@std@@@std@@@std@@QAE@XZ
__unwindfunclet$?RenderAtPos@?$Goal_Composite@VRaven_Bot@@@@UBEXAAUVector2D@@PAVTypeToString@@@Z$1:
	lea	ecx, DWORD PTR $T4[ebp]
	jmp	??1?$reverse_iterator@V?$_List_const_iterator@V?$_List_val@U?$_List_simple_types@PAV?$Goal@VRaven_Bot@@@@@std@@@std@@@std@@@std@@QAE@XZ
__unwindfunclet$?RenderAtPos@?$Goal_Composite@VRaven_Bot@@@@UBEXAAUVector2D@@PAVTypeToString@@@Z$2:
	lea	ecx, DWORD PTR $T2[ebp]
	jmp	??1?$reverse_iterator@V?$_List_const_iterator@V?$_List_val@U?$_List_simple_types@PAV?$Goal@VRaven_Bot@@@@@std@@@std@@@std@@@std@@QAE@XZ
__ehhandler$?RenderAtPos@?$Goal_Composite@VRaven_Bot@@@@UBEXAAUVector2D@@PAVTypeToString@@@Z:
	mov	edx, DWORD PTR [esp+8]
	lea	eax, DWORD PTR [edx+12]
	mov	ecx, DWORD PTR [edx-84]
	xor	ecx, eax
	call	@__security_check_cookie@4
	mov	eax, OFFSET __ehfuncinfo$?RenderAtPos@?$Goal_Composite@VRaven_Bot@@@@UBEXAAUVector2D@@PAVTypeToString@@@Z
	jmp	___CxxFrameHandler3
text$x	ENDS
?RenderAtPos@?$Goal_Composite@VRaven_Bot@@@@UBEXAAUVector2D@@PAVTypeToString@@@Z ENDP ; Goal_Composite<Raven_Bot>::RenderAtPos
; Function compile flags: /Odtp /RTCsu
; File d:\cours\uqac\intelligence artificielle - jeux vidéos\buckland_aisource\mini_projet_raven\common\goals\goal_composite.h
;	COMDAT ?RemoveAllSubgoals@?$Goal_Composite@VRaven_Bot@@@@QAEXXZ
_TEXT	SEGMENT
tv136 = -76						; size = 4
tv93 = -72						; size = 4
tv141 = -68						; size = 4
tv66 = -64						; size = 4
$T2 = -60						; size = 4
$T3 = -56						; size = 4
$T4 = -52						; size = 12
$T5 = -37						; size = 1
_it$6 = -32						; size = 12
_this$ = -16						; size = 4
__$EHRec$ = -12						; size = 12
?RemoveAllSubgoals@?$Goal_Composite@VRaven_Bot@@@@QAEXXZ PROC ; Goal_Composite<Raven_Bot>::RemoveAllSubgoals, COMDAT
; _this$ = ecx

; 79   : {

	push	ebp
	mov	ebp, esp
	push	-1
	push	__ehhandler$?RemoveAllSubgoals@?$Goal_Composite@VRaven_Bot@@@@QAEXXZ
	mov	eax, DWORD PTR fs:0
	push	eax
	sub	esp, 64					; 00000040H
	push	esi
	push	edi
	push	ecx
	lea	edi, DWORD PTR [ebp-76]
	mov	ecx, 16					; 00000010H
	mov	eax, -858993460				; ccccccccH
	rep stosd
	pop	ecx
	mov	eax, DWORD PTR ___security_cookie
	xor	eax, ebp
	push	eax
	lea	eax, DWORD PTR __$EHRec$[ebp]
	mov	DWORD PTR fs:0, eax
	mov	DWORD PTR _this$[ebp], ecx

; 80   :   for (SubgoalList::iterator it = m_SubGoals.begin();

	lea	eax, DWORD PTR _it$6[ebp]
	push	eax
	mov	ecx, DWORD PTR _this$[ebp]
	add	ecx, 16					; 00000010H
	call	?begin@?$list@PAV?$Goal@VRaven_Bot@@@@V?$allocator@PAV?$Goal@VRaven_Bot@@@@@std@@@std@@QAE?AV?$_List_iterator@V?$_List_val@U?$_List_simple_types@PAV?$Goal@VRaven_Bot@@@@@std@@@std@@@2@XZ ; std::list<Goal<Raven_Bot> *,std::allocator<Goal<Raven_Bot> *> >::begin
	mov	DWORD PTR __$EHRec$[ebp+8], 0
	jmp	SHORT $LN4@RemoveAllS
$LN2@RemoveAllS:

; 82   :        ++it)

	lea	ecx, DWORD PTR _it$6[ebp]
	call	??E?$_List_iterator@V?$_List_val@U?$_List_simple_types@PAV?$Goal@VRaven_Bot@@@@@std@@@std@@@std@@QAEAAV01@XZ ; std::_List_iterator<std::_List_val<std::_List_simple_types<Goal<Raven_Bot> *> > >::operator++
$LN4@RemoveAllS:

; 81   :        it != m_SubGoals.end();

	lea	ecx, DWORD PTR $T4[ebp]
	push	ecx
	mov	ecx, DWORD PTR _this$[ebp]
	add	ecx, 16					; 00000010H
	call	?end@?$list@PAV?$Goal@VRaven_Bot@@@@V?$allocator@PAV?$Goal@VRaven_Bot@@@@@std@@@std@@QAE?AV?$_List_iterator@V?$_List_val@U?$_List_simple_types@PAV?$Goal@VRaven_Bot@@@@@std@@@std@@@2@XZ ; std::list<Goal<Raven_Bot> *,std::allocator<Goal<Raven_Bot> *> >::end
	mov	DWORD PTR tv66[ebp], eax
	mov	edx, DWORD PTR tv66[ebp]
	mov	DWORD PTR tv141[ebp], edx
	mov	BYTE PTR __$EHRec$[ebp+8], 1
	mov	eax, DWORD PTR tv141[ebp]
	push	eax
	lea	ecx, DWORD PTR _it$6[ebp]
	call	??9?$_List_const_iterator@V?$_List_val@U?$_List_simple_types@PAV?$Goal@VRaven_Bot@@@@@std@@@std@@@std@@QBE_NABV01@@Z ; std::_List_const_iterator<std::_List_val<std::_List_simple_types<Goal<Raven_Bot> *> > >::operator!=
	mov	BYTE PTR $T5[ebp], al
	mov	BYTE PTR __$EHRec$[ebp+8], 0
	lea	ecx, DWORD PTR $T4[ebp]
	call	??1?$_List_iterator@V?$_List_val@U?$_List_simple_types@PAV?$Goal@VRaven_Bot@@@@@std@@@std@@@std@@QAE@XZ
	movzx	ecx, BYTE PTR $T5[ebp]
	test	ecx, ecx
	je	SHORT $LN3@RemoveAllS

; 83   :   {  
; 84   :     (*it)->Terminate();

	lea	ecx, DWORD PTR _it$6[ebp]
	call	??D?$_List_iterator@V?$_List_val@U?$_List_simple_types@PAV?$Goal@VRaven_Bot@@@@@std@@@std@@@std@@QBEAAPAV?$Goal@VRaven_Bot@@@@XZ ; std::_List_iterator<std::_List_val<std::_List_simple_types<Goal<Raven_Bot> *> > >::operator*
	mov	edx, DWORD PTR [eax]
	mov	DWORD PTR tv93[ebp], edx
	mov	eax, DWORD PTR tv93[ebp]
	mov	edx, DWORD PTR [eax]
	mov	esi, esp
	mov	ecx, DWORD PTR tv93[ebp]
	mov	eax, DWORD PTR [edx+12]
	call	eax
	cmp	esi, esp
	call	__RTC_CheckEsp

; 85   :     
; 86   :     delete *it;

	lea	ecx, DWORD PTR _it$6[ebp]
	call	??D?$_List_iterator@V?$_List_val@U?$_List_simple_types@PAV?$Goal@VRaven_Bot@@@@@std@@@std@@@std@@QBEAAPAV?$Goal@VRaven_Bot@@@@XZ ; std::_List_iterator<std::_List_val<std::_List_simple_types<Goal<Raven_Bot> *> > >::operator*
	mov	ecx, DWORD PTR [eax]
	mov	DWORD PTR $T2[ebp], ecx
	mov	edx, DWORD PTR $T2[ebp]
	mov	DWORD PTR $T3[ebp], edx
	cmp	DWORD PTR $T3[ebp], 0
	je	SHORT $LN6@RemoveAllS
	mov	esi, esp
	push	1
	mov	eax, DWORD PTR $T3[ebp]
	mov	edx, DWORD PTR [eax]
	mov	ecx, DWORD PTR $T3[ebp]
	mov	eax, DWORD PTR [edx]
	call	eax
	cmp	esi, esp
	call	__RTC_CheckEsp
	mov	DWORD PTR tv136[ebp], eax
	jmp	SHORT $LN7@RemoveAllS
$LN6@RemoveAllS:
	mov	DWORD PTR tv136[ebp], 0
$LN7@RemoveAllS:

; 87   :   }

	jmp	$LN2@RemoveAllS
$LN3@RemoveAllS:
	mov	DWORD PTR __$EHRec$[ebp+8], -1
	lea	ecx, DWORD PTR _it$6[ebp]
	call	??1?$_List_iterator@V?$_List_val@U?$_List_simple_types@PAV?$Goal@VRaven_Bot@@@@@std@@@std@@@std@@QAE@XZ

; 88   : 
; 89   :   m_SubGoals.clear();

	mov	ecx, DWORD PTR _this$[ebp]
	add	ecx, 16					; 00000010H
	call	?clear@?$list@PAV?$Goal@VRaven_Bot@@@@V?$allocator@PAV?$Goal@VRaven_Bot@@@@@std@@@std@@QAEXXZ ; std::list<Goal<Raven_Bot> *,std::allocator<Goal<Raven_Bot> *> >::clear

; 90   : }

	push	edx
	mov	ecx, ebp
	push	eax
	lea	edx, DWORD PTR $LN13@RemoveAllS
	call	@_RTC_CheckStackVars@8
	pop	eax
	pop	edx
	mov	ecx, DWORD PTR __$EHRec$[ebp]
	mov	DWORD PTR fs:0, ecx
	pop	ecx
	pop	edi
	pop	esi
	add	esp, 76					; 0000004cH
	cmp	ebp, esp
	call	__RTC_CheckEsp
	mov	esp, ebp
	pop	ebp
	ret	0
$LN13@RemoveAllS:
	DD	1
	DD	$LN12@RemoveAllS
$LN12@RemoveAllS:
	DD	-32					; ffffffe0H
	DD	12					; 0000000cH
	DD	$LN10@RemoveAllS
$LN10@RemoveAllS:
	DB	105					; 00000069H
	DB	116					; 00000074H
	DB	0
_TEXT	ENDS
;	COMDAT text$x
text$x	SEGMENT
__unwindfunclet$?RemoveAllSubgoals@?$Goal_Composite@VRaven_Bot@@@@QAEXXZ$0:
	lea	ecx, DWORD PTR _it$6[ebp]
	jmp	??1?$_List_iterator@V?$_List_val@U?$_List_simple_types@PAV?$Goal@VRaven_Bot@@@@@std@@@std@@@std@@QAE@XZ
__unwindfunclet$?RemoveAllSubgoals@?$Goal_Composite@VRaven_Bot@@@@QAEXXZ$1:
	lea	ecx, DWORD PTR $T4[ebp]
	jmp	??1?$_List_iterator@V?$_List_val@U?$_List_simple_types@PAV?$Goal@VRaven_Bot@@@@@std@@@std@@@std@@QAE@XZ
__ehhandler$?RemoveAllSubgoals@?$Goal_Composite@VRaven_Bot@@@@QAEXXZ:
	mov	edx, DWORD PTR [esp+8]
	lea	eax, DWORD PTR [edx+12]
	mov	ecx, DWORD PTR [edx-76]
	xor	ecx, eax
	call	@__security_check_cookie@4
	mov	eax, OFFSET __ehfuncinfo$?RemoveAllSubgoals@?$Goal_Composite@VRaven_Bot@@@@QAEXXZ
	jmp	___CxxFrameHandler3
text$x	ENDS
?RemoveAllSubgoals@?$Goal_Composite@VRaven_Bot@@@@QAEXXZ ENDP ; Goal_Composite<Raven_Bot>::RemoveAllSubgoals
; Function compile flags: /Odtp /RTCsu
; File d:\cours\uqac\intelligence artificielle - jeux vidéos\buckland_aisource\mini_projet_raven\common\goals\goal_composite.h
;	COMDAT ?AddSubgoal@?$Goal_Composite@VRaven_Bot@@@@UAEXPAV?$Goal@VRaven_Bot@@@@@Z
_TEXT	SEGMENT
_this$ = -4						; size = 4
_g$ = 8							; size = 4
?AddSubgoal@?$Goal_Composite@VRaven_Bot@@@@UAEXPAV?$Goal@VRaven_Bot@@@@@Z PROC ; Goal_Composite<Raven_Bot>::AddSubgoal, COMDAT
; _this$ = ecx

; 138  : {   

	push	ebp
	mov	ebp, esp
	push	ecx
	mov	DWORD PTR [ebp-4], -858993460		; ccccccccH
	mov	DWORD PTR _this$[ebp], ecx

; 139  :   //add the new goal to the front of the list
; 140  :   m_SubGoals.push_front(g);

	lea	eax, DWORD PTR _g$[ebp]
	push	eax
	mov	ecx, DWORD PTR _this$[ebp]
	add	ecx, 16					; 00000010H
	call	?push_front@?$list@PAV?$Goal@VRaven_Bot@@@@V?$allocator@PAV?$Goal@VRaven_Bot@@@@@std@@@std@@QAEXABQAV?$Goal@VRaven_Bot@@@@@Z ; std::list<Goal<Raven_Bot> *,std::allocator<Goal<Raven_Bot> *> >::push_front

; 141  : }

	add	esp, 4
	cmp	ebp, esp
	call	__RTC_CheckEsp
	mov	esp, ebp
	pop	ebp
	ret	4
?AddSubgoal@?$Goal_Composite@VRaven_Bot@@@@UAEXPAV?$Goal@VRaven_Bot@@@@@Z ENDP ; Goal_Composite<Raven_Bot>::AddSubgoal
_TEXT	ENDS
; Function compile flags: /Odtp /RTCsu
; File d:\cours\uqac\intelligence artificielle - jeux vidéos\buckland_aisource\mini_projet_raven\common\goals\goal_composite.h
;	COMDAT ?HandleMessage@?$Goal_Composite@VRaven_Bot@@@@UAE_NABUTelegram@@@Z
_TEXT	SEGMENT
_this$ = -4						; size = 4
_msg$ = 8						; size = 4
?HandleMessage@?$Goal_Composite@VRaven_Bot@@@@UAE_NABUTelegram@@@Z PROC ; Goal_Composite<Raven_Bot>::HandleMessage, COMDAT
; _this$ = ecx

; 56   :   { return ForwardMessageToFrontMostSubgoal(msg);}

	push	ebp
	mov	ebp, esp
	push	ecx
	mov	DWORD PTR [ebp-4], -858993460		; ccccccccH
	mov	DWORD PTR _this$[ebp], ecx
	mov	eax, DWORD PTR _msg$[ebp]
	push	eax
	mov	ecx, DWORD PTR _this$[ebp]
	call	?ForwardMessageToFrontMostSubgoal@?$Goal_Composite@VRaven_Bot@@@@IAE_NABUTelegram@@@Z ; Goal_Composite<Raven_Bot>::ForwardMessageToFrontMostSubgoal
	add	esp, 4
	cmp	ebp, esp
	call	__RTC_CheckEsp
	mov	esp, ebp
	pop	ebp
	ret	4
?HandleMessage@?$Goal_Composite@VRaven_Bot@@@@UAE_NABUTelegram@@@Z ENDP ; Goal_Composite<Raven_Bot>::HandleMessage
_TEXT	ENDS
; Function compile flags: /Odtp /RTCsu
; File d:\cours\uqac\intelligence artificielle - jeux vidéos\buckland_aisource\mini_projet_raven\common\goals\goal_composite.h
;	COMDAT ??1?$Goal_Composite@VRaven_Bot@@@@UAE@XZ
_TEXT	SEGMENT
_this$ = -16						; size = 4
__$EHRec$ = -12						; size = 12
??1?$Goal_Composite@VRaven_Bot@@@@UAE@XZ PROC		; Goal_Composite<Raven_Bot>::~Goal_Composite<Raven_Bot>, COMDAT
; _this$ = ecx

; 41   :   virtual ~Goal_Composite(){RemoveAllSubgoals();}

	push	ebp
	mov	ebp, esp
	push	-1
	push	__ehhandler$??1?$Goal_Composite@VRaven_Bot@@@@UAE@XZ
	mov	eax, DWORD PTR fs:0
	push	eax
	push	ecx
	mov	DWORD PTR [ebp-16], -858993460		; ccccccccH
	mov	eax, DWORD PTR ___security_cookie
	xor	eax, ebp
	push	eax
	lea	eax, DWORD PTR __$EHRec$[ebp]
	mov	DWORD PTR fs:0, eax
	mov	DWORD PTR _this$[ebp], ecx
	mov	eax, DWORD PTR _this$[ebp]
	mov	DWORD PTR [eax], OFFSET ??_7?$Goal_Composite@VRaven_Bot@@@@6B@
	mov	ecx, DWORD PTR _this$[ebp]
	call	?RemoveAllSubgoals@?$Goal_Composite@VRaven_Bot@@@@QAEXXZ ; Goal_Composite<Raven_Bot>::RemoveAllSubgoals
	mov	ecx, DWORD PTR _this$[ebp]
	add	ecx, 16					; 00000010H
	call	??1?$list@PAV?$Goal@VRaven_Bot@@@@V?$allocator@PAV?$Goal@VRaven_Bot@@@@@std@@@std@@QAE@XZ ; std::list<Goal<Raven_Bot> *,std::allocator<Goal<Raven_Bot> *> >::~list<Goal<Raven_Bot> *,std::allocator<Goal<Raven_Bot> *> >
	mov	ecx, DWORD PTR _this$[ebp]
	call	??1?$Goal@VRaven_Bot@@@@UAE@XZ		; Goal<Raven_Bot>::~Goal<Raven_Bot>
	mov	ecx, DWORD PTR __$EHRec$[ebp]
	mov	DWORD PTR fs:0, ecx
	pop	ecx
	add	esp, 16					; 00000010H
	cmp	ebp, esp
	call	__RTC_CheckEsp
	mov	esp, ebp
	pop	ebp
	ret	0
_TEXT	ENDS
;	COMDAT text$x
text$x	SEGMENT
__ehhandler$??1?$Goal_Composite@VRaven_Bot@@@@UAE@XZ:
	mov	edx, DWORD PTR [esp+8]
	lea	eax, DWORD PTR [edx+12]
	mov	ecx, DWORD PTR [edx-8]
	xor	ecx, eax
	call	@__security_check_cookie@4
	mov	eax, OFFSET __ehfuncinfo$??1?$Goal_Composite@VRaven_Bot@@@@UAE@XZ
	jmp	___CxxFrameHandler3
text$x	ENDS
??1?$Goal_Composite@VRaven_Bot@@@@UAE@XZ ENDP		; Goal_Composite<Raven_Bot>::~Goal_Composite<Raven_Bot>
; Function compile flags: /Odtp /RTCsu
; File d:\cours\uqac\intelligence artificielle - jeux vidéos\buckland_aisource\mini_projet_raven\common\goals\goal_composite.h
;	COMDAT ??0?$Goal_Composite@VRaven_Bot@@@@QAE@PAVRaven_Bot@@H@Z
_TEXT	SEGMENT
_this$ = -16						; size = 4
__$EHRec$ = -12						; size = 12
_pE$ = 8						; size = 4
_type$ = 12						; size = 4
??0?$Goal_Composite@VRaven_Bot@@@@QAE@PAVRaven_Bot@@H@Z PROC ; Goal_Composite<Raven_Bot>::Goal_Composite<Raven_Bot>, COMDAT
; _this$ = ecx

; 37   :   Goal_Composite(entity_type* pE, int type):Goal<entity_type>(pE,type){}

	push	ebp
	mov	ebp, esp
	push	-1
	push	__ehhandler$??0?$Goal_Composite@VRaven_Bot@@@@QAE@PAVRaven_Bot@@H@Z
	mov	eax, DWORD PTR fs:0
	push	eax
	push	ecx
	mov	DWORD PTR [ebp-16], -858993460		; ccccccccH
	mov	eax, DWORD PTR ___security_cookie
	xor	eax, ebp
	push	eax
	lea	eax, DWORD PTR __$EHRec$[ebp]
	mov	DWORD PTR fs:0, eax
	mov	DWORD PTR _this$[ebp], ecx
	mov	eax, DWORD PTR _type$[ebp]
	push	eax
	mov	ecx, DWORD PTR _pE$[ebp]
	push	ecx
	mov	ecx, DWORD PTR _this$[ebp]
	call	??0?$Goal@VRaven_Bot@@@@QAE@PAVRaven_Bot@@H@Z ; Goal<Raven_Bot>::Goal<Raven_Bot>
	mov	DWORD PTR __$EHRec$[ebp+8], 0
	mov	edx, DWORD PTR _this$[ebp]
	mov	DWORD PTR [edx], OFFSET ??_7?$Goal_Composite@VRaven_Bot@@@@6B@
	mov	ecx, DWORD PTR _this$[ebp]
	add	ecx, 16					; 00000010H
	call	??0?$list@PAV?$Goal@VRaven_Bot@@@@V?$allocator@PAV?$Goal@VRaven_Bot@@@@@std@@@std@@QAE@XZ ; std::list<Goal<Raven_Bot> *,std::allocator<Goal<Raven_Bot> *> >::list<Goal<Raven_Bot> *,std::allocator<Goal<Raven_Bot> *> >
	mov	DWORD PTR __$EHRec$[ebp+8], -1
	mov	eax, DWORD PTR _this$[ebp]
	mov	ecx, DWORD PTR __$EHRec$[ebp]
	mov	DWORD PTR fs:0, ecx
	pop	ecx
	add	esp, 16					; 00000010H
	cmp	ebp, esp
	call	__RTC_CheckEsp
	mov	esp, ebp
	pop	ebp
	ret	8
_TEXT	ENDS
;	COMDAT text$x
text$x	SEGMENT
__unwindfunclet$??0?$Goal_Composite@VRaven_Bot@@@@QAE@PAVRaven_Bot@@H@Z$0:
	mov	ecx, DWORD PTR _this$[ebp]
	jmp	??1?$Goal@VRaven_Bot@@@@UAE@XZ		; Goal<Raven_Bot>::~Goal<Raven_Bot>
__ehhandler$??0?$Goal_Composite@VRaven_Bot@@@@QAE@PAVRaven_Bot@@H@Z:
	mov	edx, DWORD PTR [esp+8]
	lea	eax, DWORD PTR [edx+12]
	mov	ecx, DWORD PTR [edx-8]
	xor	ecx, eax
	call	@__security_check_cookie@4
	mov	eax, OFFSET __ehfuncinfo$??0?$Goal_Composite@VRaven_Bot@@@@QAE@PAVRaven_Bot@@H@Z
	jmp	___CxxFrameHandler3
text$x	ENDS
??0?$Goal_Composite@VRaven_Bot@@@@QAE@PAVRaven_Bot@@H@Z ENDP ; Goal_Composite<Raven_Bot>::Goal_Composite<Raven_Bot>
; Function compile flags: /Odtp /RTCsu
; File d:\cours\uqac\intelligence artificielle - jeux vidéos\buckland_aisource\mini_projet_raven\common\goals\goal_composite.h
;	COMDAT ?ForwardMessageToFrontMostSubgoal@?$Goal_Composite@VRaven_Bot@@@@IAE_NABUTelegram@@@Z
_TEXT	SEGMENT
tv74 = -8						; size = 4
_this$ = -4						; size = 4
_msg$ = 8						; size = 4
?ForwardMessageToFrontMostSubgoal@?$Goal_Composite@VRaven_Bot@@@@IAE_NABUTelegram@@@Z PROC ; Goal_Composite<Raven_Bot>::ForwardMessageToFrontMostSubgoal, COMDAT
; _this$ = ecx

; 151  : {

	push	ebp
	mov	ebp, esp
	sub	esp, 8
	push	esi
	mov	DWORD PTR [ebp-8], -858993460		; ccccccccH
	mov	DWORD PTR [ebp-4], -858993460		; ccccccccH
	mov	DWORD PTR _this$[ebp], ecx

; 152  :   if (!m_SubGoals.empty())

	mov	ecx, DWORD PTR _this$[ebp]
	add	ecx, 16					; 00000010H
	call	?empty@?$list@PAV?$Goal@VRaven_Bot@@@@V?$allocator@PAV?$Goal@VRaven_Bot@@@@@std@@@std@@QBE_NXZ ; std::list<Goal<Raven_Bot> *,std::allocator<Goal<Raven_Bot> *> >::empty
	movzx	eax, al
	test	eax, eax
	jne	SHORT $LN2@ForwardMes

; 153  :   {
; 154  :     return m_SubGoals.front()->HandleMessage(msg);

	mov	ecx, DWORD PTR _this$[ebp]
	add	ecx, 16					; 00000010H
	call	?front@?$list@PAV?$Goal@VRaven_Bot@@@@V?$allocator@PAV?$Goal@VRaven_Bot@@@@@std@@@std@@QAEAAPAV?$Goal@VRaven_Bot@@@@XZ ; std::list<Goal<Raven_Bot> *,std::allocator<Goal<Raven_Bot> *> >::front
	mov	ecx, DWORD PTR [eax]
	mov	DWORD PTR tv74[ebp], ecx
	mov	esi, esp
	mov	edx, DWORD PTR _msg$[ebp]
	push	edx
	mov	eax, DWORD PTR tv74[ebp]
	mov	edx, DWORD PTR [eax]
	mov	ecx, DWORD PTR tv74[ebp]
	mov	eax, DWORD PTR [edx+16]
	call	eax
	cmp	esi, esp
	call	__RTC_CheckEsp
	jmp	SHORT $LN1@ForwardMes
$LN2@ForwardMes:

; 155  :   }
; 156  : 
; 157  :   //return false if the message has not been handled
; 158  :   return false;

	xor	al, al
$LN1@ForwardMes:

; 159  : }

	pop	esi
	add	esp, 8
	cmp	ebp, esp
	call	__RTC_CheckEsp
	mov	esp, ebp
	pop	ebp
	ret	4
?ForwardMessageToFrontMostSubgoal@?$Goal_Composite@VRaven_Bot@@@@IAE_NABUTelegram@@@Z ENDP ; Goal_Composite<Raven_Bot>::ForwardMessageToFrontMostSubgoal
_TEXT	ENDS
; Function compile flags: /Odtp /RTCsu
; File d:\cours\uqac\intelligence artificielle - jeux vidéos\buckland_aisource\mini_projet_raven\common\goals\goal_composite.h
;	COMDAT ?ProcessSubgoals@?$Goal_Composite@VRaven_Bot@@@@IAEHXZ
_TEXT	SEGMENT
tv145 = -28						; size = 4
tv132 = -24						; size = 4
tv88 = -20						; size = 4
$T1 = -16						; size = 4
$T2 = -12						; size = 4
_StatusOfSubGoals$3 = -8				; size = 4
_this$ = -4						; size = 4
?ProcessSubgoals@?$Goal_Composite@VRaven_Bot@@@@IAEHXZ PROC ; Goal_Composite<Raven_Bot>::ProcessSubgoals, COMDAT
; _this$ = ecx

; 100  : { 

	push	ebp
	mov	ebp, esp
	sub	esp, 28					; 0000001cH
	push	esi
	mov	eax, -858993460				; ccccccccH
	mov	DWORD PTR [ebp-28], eax
	mov	DWORD PTR [ebp-24], eax
	mov	DWORD PTR [ebp-20], eax
	mov	DWORD PTR [ebp-16], eax
	mov	DWORD PTR [ebp-12], eax
	mov	DWORD PTR [ebp-8], eax
	mov	DWORD PTR [ebp-4], eax
	mov	DWORD PTR _this$[ebp], ecx
$LN2@ProcessSub:

; 101  :   //remove all completed and failed goals from the front of the subgoal list
; 102  :   while (!m_SubGoals.empty() &&

	mov	ecx, DWORD PTR _this$[ebp]
	add	ecx, 16					; 00000010H
	call	?empty@?$list@PAV?$Goal@VRaven_Bot@@@@V?$allocator@PAV?$Goal@VRaven_Bot@@@@@std@@@std@@QBE_NXZ ; std::list<Goal<Raven_Bot> *,std::allocator<Goal<Raven_Bot> *> >::empty
	movzx	eax, al
	test	eax, eax
	jne	$LN3@ProcessSub
	mov	ecx, DWORD PTR _this$[ebp]
	add	ecx, 16					; 00000010H
	call	?front@?$list@PAV?$Goal@VRaven_Bot@@@@V?$allocator@PAV?$Goal@VRaven_Bot@@@@@std@@@std@@QAEAAPAV?$Goal@VRaven_Bot@@@@XZ ; std::list<Goal<Raven_Bot> *,std::allocator<Goal<Raven_Bot> *> >::front
	mov	ecx, DWORD PTR [eax]
	call	?isComplete@?$Goal@VRaven_Bot@@@@QBE_NXZ ; Goal<Raven_Bot>::isComplete
	movzx	ecx, al
	test	ecx, ecx
	jne	SHORT $LN4@ProcessSub
	mov	ecx, DWORD PTR _this$[ebp]
	add	ecx, 16					; 00000010H
	call	?front@?$list@PAV?$Goal@VRaven_Bot@@@@V?$allocator@PAV?$Goal@VRaven_Bot@@@@@std@@@std@@QAEAAPAV?$Goal@VRaven_Bot@@@@XZ ; std::list<Goal<Raven_Bot> *,std::allocator<Goal<Raven_Bot> *> >::front
	mov	ecx, DWORD PTR [eax]
	call	?hasFailed@?$Goal@VRaven_Bot@@@@QBE_NXZ	; Goal<Raven_Bot>::hasFailed
	movzx	edx, al
	test	edx, edx
	je	SHORT $LN3@ProcessSub
$LN4@ProcessSub:

; 103  :          (m_SubGoals.front()->isComplete() || m_SubGoals.front()->hasFailed()))
; 104  :   {    
; 105  :     m_SubGoals.front()->Terminate();

	mov	ecx, DWORD PTR _this$[ebp]
	add	ecx, 16					; 00000010H
	call	?front@?$list@PAV?$Goal@VRaven_Bot@@@@V?$allocator@PAV?$Goal@VRaven_Bot@@@@@std@@@std@@QAEAAPAV?$Goal@VRaven_Bot@@@@XZ ; std::list<Goal<Raven_Bot> *,std::allocator<Goal<Raven_Bot> *> >::front
	mov	eax, DWORD PTR [eax]
	mov	DWORD PTR tv88[ebp], eax
	mov	ecx, DWORD PTR tv88[ebp]
	mov	edx, DWORD PTR [ecx]
	mov	esi, esp
	mov	ecx, DWORD PTR tv88[ebp]
	mov	eax, DWORD PTR [edx+12]
	call	eax
	cmp	esi, esp
	call	__RTC_CheckEsp

; 106  :     delete m_SubGoals.front(); 

	mov	ecx, DWORD PTR _this$[ebp]
	add	ecx, 16					; 00000010H
	call	?front@?$list@PAV?$Goal@VRaven_Bot@@@@V?$allocator@PAV?$Goal@VRaven_Bot@@@@@std@@@std@@QAEAAPAV?$Goal@VRaven_Bot@@@@XZ ; std::list<Goal<Raven_Bot> *,std::allocator<Goal<Raven_Bot> *> >::front
	mov	ecx, DWORD PTR [eax]
	mov	DWORD PTR $T1[ebp], ecx
	mov	edx, DWORD PTR $T1[ebp]
	mov	DWORD PTR $T2[ebp], edx
	cmp	DWORD PTR $T2[ebp], 0
	je	SHORT $LN9@ProcessSub
	mov	esi, esp
	push	1
	mov	eax, DWORD PTR $T2[ebp]
	mov	edx, DWORD PTR [eax]
	mov	ecx, DWORD PTR $T2[ebp]
	mov	eax, DWORD PTR [edx]
	call	eax
	cmp	esi, esp
	call	__RTC_CheckEsp
	mov	DWORD PTR tv132[ebp], eax
	jmp	SHORT $LN10@ProcessSub
$LN9@ProcessSub:
	mov	DWORD PTR tv132[ebp], 0
$LN10@ProcessSub:

; 107  :     m_SubGoals.pop_front();

	mov	ecx, DWORD PTR _this$[ebp]
	add	ecx, 16					; 00000010H
	call	?pop_front@?$list@PAV?$Goal@VRaven_Bot@@@@V?$allocator@PAV?$Goal@VRaven_Bot@@@@@std@@@std@@QAEXXZ ; std::list<Goal<Raven_Bot> *,std::allocator<Goal<Raven_Bot> *> >::pop_front

; 108  :   }

	jmp	$LN2@ProcessSub
$LN3@ProcessSub:

; 109  : 
; 110  :   //if any subgoals remain, process the one at the front of the list
; 111  :   if (!m_SubGoals.empty())

	mov	ecx, DWORD PTR _this$[ebp]
	add	ecx, 16					; 00000010H
	call	?empty@?$list@PAV?$Goal@VRaven_Bot@@@@V?$allocator@PAV?$Goal@VRaven_Bot@@@@@std@@@std@@QBE_NXZ ; std::list<Goal<Raven_Bot> *,std::allocator<Goal<Raven_Bot> *> >::empty
	movzx	ecx, al
	test	ecx, ecx
	jne	SHORT $LN5@ProcessSub

; 112  :   { 
; 113  :     //grab the status of the front-most subgoal
; 114  :     int StatusOfSubGoals = m_SubGoals.front()->Process();

	mov	ecx, DWORD PTR _this$[ebp]
	add	ecx, 16					; 00000010H
	call	?front@?$list@PAV?$Goal@VRaven_Bot@@@@V?$allocator@PAV?$Goal@VRaven_Bot@@@@@std@@@std@@QAEAAPAV?$Goal@VRaven_Bot@@@@XZ ; std::list<Goal<Raven_Bot> *,std::allocator<Goal<Raven_Bot> *> >::front
	mov	edx, DWORD PTR [eax]
	mov	DWORD PTR tv145[ebp], edx
	mov	eax, DWORD PTR tv145[ebp]
	mov	edx, DWORD PTR [eax]
	mov	esi, esp
	mov	ecx, DWORD PTR tv145[ebp]
	mov	eax, DWORD PTR [edx+8]
	call	eax
	cmp	esi, esp
	call	__RTC_CheckEsp
	mov	DWORD PTR _StatusOfSubGoals$3[ebp], eax

; 115  : 
; 116  :     //we have to test for the special case where the front-most subgoal
; 117  :     //reports 'completed' *and* the subgoal list contains additional goals.When
; 118  :     //this is the case, to ensure the parent keeps processing its subgoal list
; 119  :     //we must return the 'active' status.
; 120  :     if (StatusOfSubGoals == completed && m_SubGoals.size() > 1)

	cmp	DWORD PTR _StatusOfSubGoals$3[ebp], 2
	jne	SHORT $LN7@ProcessSub
	mov	ecx, DWORD PTR _this$[ebp]
	add	ecx, 16					; 00000010H
	call	?size@?$list@PAV?$Goal@VRaven_Bot@@@@V?$allocator@PAV?$Goal@VRaven_Bot@@@@@std@@@std@@QBEIXZ ; std::list<Goal<Raven_Bot> *,std::allocator<Goal<Raven_Bot> *> >::size
	cmp	eax, 1
	jbe	SHORT $LN7@ProcessSub

; 121  :     {
; 122  :       return active;

	xor	eax, eax
	jmp	SHORT $LN1@ProcessSub
$LN7@ProcessSub:

; 123  :     }
; 124  : 
; 125  :     return StatusOfSubGoals;

	mov	eax, DWORD PTR _StatusOfSubGoals$3[ebp]
	jmp	SHORT $LN1@ProcessSub

; 126  :   }
; 127  :   
; 128  :   //no more subgoals to process - return 'completed'
; 129  :   else

	jmp	SHORT $LN1@ProcessSub
$LN5@ProcessSub:

; 130  :   {
; 131  :     return completed;

	mov	eax, 2
$LN1@ProcessSub:

; 132  :   }
; 133  : }

	pop	esi
	add	esp, 28					; 0000001cH
	cmp	ebp, esp
	call	__RTC_CheckEsp
	mov	esp, ebp
	pop	ebp
	ret	0
?ProcessSubgoals@?$Goal_Composite@VRaven_Bot@@@@IAEHXZ ENDP ; Goal_Composite<Raven_Bot>::ProcessSubgoals
_TEXT	ENDS
; Function compile flags: /Odtp /RTCsu
; File d:\microsoft visual studio 14.0\vc\include\list
;	COMDAT ?_Orphan_ptr@?$list@PAV?$Goal@VRaven_Bot@@@@V?$allocator@PAV?$Goal@VRaven_Bot@@@@@std@@@std@@QAEXPAU?$_List_node@PAV?$Goal@VRaven_Bot@@@@PAX@2@@Z
_TEXT	SEGMENT
__Pnext$ = -32						; size = 4
__Lock$ = -24						; size = 4
_this$ = -16						; size = 4
__$EHRec$ = -12						; size = 12
__Ptr$ = 8						; size = 4
?_Orphan_ptr@?$list@PAV?$Goal@VRaven_Bot@@@@V?$allocator@PAV?$Goal@VRaven_Bot@@@@@std@@@std@@QAEXPAU?$_List_node@PAV?$Goal@VRaven_Bot@@@@PAX@2@@Z PROC ; std::list<Goal<Raven_Bot> *,std::allocator<Goal<Raven_Bot> *> >::_Orphan_ptr, COMDAT
; _this$ = ecx

; 1915 : 		{	// orphan iterators with specified node pointers

	push	ebp
	mov	ebp, esp
	push	-1
	push	__ehhandler$?_Orphan_ptr@?$list@PAV?$Goal@VRaven_Bot@@@@V?$allocator@PAV?$Goal@VRaven_Bot@@@@@std@@@std@@QAEXPAU?$_List_node@PAV?$Goal@VRaven_Bot@@@@PAX@2@@Z
	mov	eax, DWORD PTR fs:0
	push	eax
	sub	esp, 20					; 00000014H
	push	esi
	mov	eax, -858993460				; ccccccccH
	mov	DWORD PTR [ebp-32], eax
	mov	DWORD PTR [ebp-28], eax
	mov	DWORD PTR [ebp-24], eax
	mov	DWORD PTR [ebp-20], eax
	mov	DWORD PTR [ebp-16], eax
	mov	eax, DWORD PTR ___security_cookie
	xor	eax, ebp
	push	eax
	lea	eax, DWORD PTR __$EHRec$[ebp]
	mov	DWORD PTR fs:0, eax
	mov	DWORD PTR _this$[ebp], ecx

; 1916 : 		_Lockit _Lock(_LOCK_DEBUG);

	push	3
	lea	ecx, DWORD PTR __Lock$[ebp]
	call	??0_Lockit@std@@QAE@H@Z			; std::_Lockit::_Lockit
	mov	DWORD PTR __$EHRec$[ebp+8], 0

; 1917 : 		const_iterator **_Pnext = (const_iterator **)this->_Getpfirst();

	mov	ecx, DWORD PTR _this$[ebp]
	call	?_Getpfirst@?$_List_alloc@U?$_List_base_types@PAV?$Goal@VRaven_Bot@@@@V?$allocator@PAV?$Goal@VRaven_Bot@@@@@std@@@std@@@std@@QBEPAPAU_Iterator_base12@2@XZ ; std::_List_alloc<std::_List_base_types<Goal<Raven_Bot> *,std::allocator<Goal<Raven_Bot> *> > >::_Getpfirst
	mov	DWORD PTR __Pnext$[ebp], eax

; 1918 : 		if (_Pnext != 0)

	cmp	DWORD PTR __Pnext$[ebp], 0
	je	SHORT $LN4@Orphan_ptr
$LN2@Orphan_ptr:

; 1919 : 			while (*_Pnext != 0)

	mov	eax, DWORD PTR __Pnext$[ebp]
	cmp	DWORD PTR [eax], 0
	je	SHORT $LN4@Orphan_ptr

; 1920 : 				{	// test an iterator
; 1921 : 				if ((*_Pnext)->_Ptr == this->_Myhead()
; 1922 : 					|| (_Ptr != 0 && (*_Pnext)->_Ptr != _Ptr))

	mov	ecx, DWORD PTR __Pnext$[ebp]
	mov	esi, DWORD PTR [ecx]
	mov	ecx, DWORD PTR _this$[ebp]
	call	?_Myhead@?$_List_alloc@U?$_List_base_types@PAV?$Goal@VRaven_Bot@@@@V?$allocator@PAV?$Goal@VRaven_Bot@@@@@std@@@std@@@std@@QAEAAPAU?$_List_node@PAV?$Goal@VRaven_Bot@@@@PAX@2@XZ ; std::_List_alloc<std::_List_base_types<Goal<Raven_Bot> *,std::allocator<Goal<Raven_Bot> *> > >::_Myhead
	mov	edx, DWORD PTR [esi+8]
	cmp	edx, DWORD PTR [eax]
	je	SHORT $LN7@Orphan_ptr
	cmp	DWORD PTR __Ptr$[ebp], 0
	je	SHORT $LN5@Orphan_ptr
	mov	eax, DWORD PTR __Pnext$[ebp]
	mov	ecx, DWORD PTR [eax]
	mov	edx, DWORD PTR [ecx+8]
	cmp	edx, DWORD PTR __Ptr$[ebp]
	je	SHORT $LN5@Orphan_ptr
$LN7@Orphan_ptr:

; 1923 : 					_Pnext = (const_iterator **)(*_Pnext)->_Getpnext();

	mov	eax, DWORD PTR __Pnext$[ebp]
	mov	ecx, DWORD PTR [eax]
	call	?_Getpnext@_Iterator_base12@std@@QAEPAPAU12@XZ ; std::_Iterator_base12::_Getpnext
	mov	DWORD PTR __Pnext$[ebp], eax

; 1924 : 				else

	jmp	SHORT $LN6@Orphan_ptr
$LN5@Orphan_ptr:

; 1925 : 					{	// orphan the iterator
; 1926 : 					(*_Pnext)->_Clrcont();

	mov	ecx, DWORD PTR __Pnext$[ebp]
	mov	ecx, DWORD PTR [ecx]
	call	?_Clrcont@_Iterator_base12@std@@QAEXXZ	; std::_Iterator_base12::_Clrcont

; 1927 : 					*_Pnext = *(const_iterator **)(*_Pnext)->_Getpnext();

	mov	edx, DWORD PTR __Pnext$[ebp]
	mov	ecx, DWORD PTR [edx]
	call	?_Getpnext@_Iterator_base12@std@@QAEPAPAU12@XZ ; std::_Iterator_base12::_Getpnext
	mov	ecx, DWORD PTR __Pnext$[ebp]
	mov	edx, DWORD PTR [eax]
	mov	DWORD PTR [ecx], edx
$LN6@Orphan_ptr:

; 1928 : 					}
; 1929 : 				}

	jmp	SHORT $LN2@Orphan_ptr
$LN4@Orphan_ptr:

; 1930 : 		}

	mov	DWORD PTR __$EHRec$[ebp+8], -1
	lea	ecx, DWORD PTR __Lock$[ebp]
	call	??1_Lockit@std@@QAE@XZ			; std::_Lockit::~_Lockit
	push	edx
	mov	ecx, ebp
	push	eax
	lea	edx, DWORD PTR $LN13@Orphan_ptr
	call	@_RTC_CheckStackVars@8
	pop	eax
	pop	edx
	mov	ecx, DWORD PTR __$EHRec$[ebp]
	mov	DWORD PTR fs:0, ecx
	pop	ecx
	pop	esi
	add	esp, 32					; 00000020H
	cmp	ebp, esp
	call	__RTC_CheckEsp
	mov	esp, ebp
	pop	ebp
	ret	4
	npad	2
$LN13@Orphan_ptr:
	DD	1
	DD	$LN12@Orphan_ptr
$LN12@Orphan_ptr:
	DD	-24					; ffffffe8H
	DD	4
	DD	$LN10@Orphan_ptr
$LN10@Orphan_ptr:
	DB	95					; 0000005fH
	DB	76					; 0000004cH
	DB	111					; 0000006fH
	DB	99					; 00000063H
	DB	107					; 0000006bH
	DB	0
_TEXT	ENDS
;	COMDAT text$x
text$x	SEGMENT
__unwindfunclet$?_Orphan_ptr@?$list@PAV?$Goal@VRaven_Bot@@@@V?$allocator@PAV?$Goal@VRaven_Bot@@@@@std@@@std@@QAEXPAU?$_List_node@PAV?$Goal@VRaven_Bot@@@@PAX@2@@Z$0:
	lea	ecx, DWORD PTR __Lock$[ebp]
	jmp	??1_Lockit@std@@QAE@XZ			; std::_Lockit::~_Lockit
__ehhandler$?_Orphan_ptr@?$list@PAV?$Goal@VRaven_Bot@@@@V?$allocator@PAV?$Goal@VRaven_Bot@@@@@std@@@std@@QAEXPAU?$_List_node@PAV?$Goal@VRaven_Bot@@@@PAX@2@@Z:
	mov	edx, DWORD PTR [esp+8]
	lea	eax, DWORD PTR [edx+12]
	mov	ecx, DWORD PTR [edx-28]
	xor	ecx, eax
	call	@__security_check_cookie@4
	mov	eax, OFFSET __ehfuncinfo$?_Orphan_ptr@?$list@PAV?$Goal@VRaven_Bot@@@@V?$allocator@PAV?$Goal@VRaven_Bot@@@@@std@@@std@@QAEXPAU?$_List_node@PAV?$Goal@VRaven_Bot@@@@PAX@2@@Z
	jmp	___CxxFrameHandler3
text$x	ENDS
?_Orphan_ptr@?$list@PAV?$Goal@VRaven_Bot@@@@V?$allocator@PAV?$Goal@VRaven_Bot@@@@@std@@@std@@QAEXPAU?$_List_node@PAV?$Goal@VRaven_Bot@@@@PAX@2@@Z ENDP ; std::list<Goal<Raven_Bot> *,std::allocator<Goal<Raven_Bot> *> >::_Orphan_ptr
; Function compile flags: /Odtp /RTCsu
; File d:\microsoft visual studio 14.0\vc\include\list
;	COMDAT ?_Incsize@?$list@PAV?$Goal@VRaven_Bot@@@@V?$allocator@PAV?$Goal@VRaven_Bot@@@@@std@@@std@@QAEXI@Z
_TEXT	SEGMENT
tv82 = -8						; size = 4
_this$ = -4						; size = 4
__Count$ = 8						; size = 4
?_Incsize@?$list@PAV?$Goal@VRaven_Bot@@@@V?$allocator@PAV?$Goal@VRaven_Bot@@@@@std@@@std@@QAEXI@Z PROC ; std::list<Goal<Raven_Bot> *,std::allocator<Goal<Raven_Bot> *> >::_Incsize, COMDAT
; _this$ = ecx

; 1907 : 		{	// alter element count, with checking

	push	ebp
	mov	ebp, esp
	sub	esp, 8
	push	esi
	mov	DWORD PTR [ebp-8], -858993460		; ccccccccH
	mov	DWORD PTR [ebp-4], -858993460		; ccccccccH
	mov	DWORD PTR _this$[ebp], ecx

; 1908 : 		if (max_size() - this->_Mysize() - 1 < _Count)

	mov	ecx, DWORD PTR _this$[ebp]
	call	?max_size@?$list@PAV?$Goal@VRaven_Bot@@@@V?$allocator@PAV?$Goal@VRaven_Bot@@@@@std@@@std@@QBEIXZ ; std::list<Goal<Raven_Bot> *,std::allocator<Goal<Raven_Bot> *> >::max_size
	mov	esi, eax
	mov	ecx, DWORD PTR _this$[ebp]
	call	?_Mysize@?$_List_alloc@U?$_List_base_types@PAV?$Goal@VRaven_Bot@@@@V?$allocator@PAV?$Goal@VRaven_Bot@@@@@std@@@std@@@std@@QAEAAIXZ ; std::_List_alloc<std::_List_base_types<Goal<Raven_Bot> *,std::allocator<Goal<Raven_Bot> *> > >::_Mysize
	sub	esi, DWORD PTR [eax]
	sub	esi, 1
	cmp	esi, DWORD PTR __Count$[ebp]
	jae	SHORT $LN2@Incsize

; 1909 : 			_Xlength_error("list<T> too long");

	push	OFFSET ??_C@_0BB@MOGOBHAF@list?$DMT?$DO?5too?5long?$AA@
	call	?_Xlength_error@std@@YAXPBD@Z		; std::_Xlength_error
$LN2@Incsize:

; 1910 : 		this->_Mysize() += _Count;

	mov	ecx, DWORD PTR _this$[ebp]
	call	?_Mysize@?$_List_alloc@U?$_List_base_types@PAV?$Goal@VRaven_Bot@@@@V?$allocator@PAV?$Goal@VRaven_Bot@@@@@std@@@std@@@std@@QAEAAIXZ ; std::_List_alloc<std::_List_base_types<Goal<Raven_Bot> *,std::allocator<Goal<Raven_Bot> *> > >::_Mysize
	mov	DWORD PTR tv82[ebp], eax
	mov	eax, DWORD PTR tv82[ebp]
	mov	ecx, DWORD PTR [eax]
	add	ecx, DWORD PTR __Count$[ebp]
	mov	edx, DWORD PTR tv82[ebp]
	mov	DWORD PTR [edx], ecx
$LN3@Incsize:

; 1911 : 		}

	pop	esi
	add	esp, 8
	cmp	ebp, esp
	call	__RTC_CheckEsp
	mov	esp, ebp
	pop	ebp
	ret	4
?_Incsize@?$list@PAV?$Goal@VRaven_Bot@@@@V?$allocator@PAV?$Goal@VRaven_Bot@@@@@std@@@std@@QAEXI@Z ENDP ; std::list<Goal<Raven_Bot> *,std::allocator<Goal<Raven_Bot> *> >::_Incsize
_TEXT	ENDS
; Function compile flags: /Odtp /RTCsu
; File d:\microsoft visual studio 14.0\vc\include\list
;	COMDAT ?_Tidy@?$list@PAV?$Goal@VRaven_Bot@@@@V?$allocator@PAV?$Goal@VRaven_Bot@@@@@std@@@std@@QAEXXZ
_TEXT	SEGMENT
_this$ = -4						; size = 4
?_Tidy@?$list@PAV?$Goal@VRaven_Bot@@@@V?$allocator@PAV?$Goal@VRaven_Bot@@@@@std@@@std@@QAEXXZ PROC ; std::list<Goal<Raven_Bot> *,std::allocator<Goal<Raven_Bot> *> >::_Tidy, COMDAT
; _this$ = ecx

; 1884 : 		{	// free all storage

	push	ebp
	mov	ebp, esp
	push	ecx
	mov	DWORD PTR [ebp-4], -858993460		; ccccccccH
	mov	DWORD PTR _this$[ebp], ecx

; 1885 : 		clear();

	mov	ecx, DWORD PTR _this$[ebp]
	call	?clear@?$list@PAV?$Goal@VRaven_Bot@@@@V?$allocator@PAV?$Goal@VRaven_Bot@@@@@std@@@std@@QAEXXZ ; std::list<Goal<Raven_Bot> *,std::allocator<Goal<Raven_Bot> *> >::clear

; 1886 : 		}

	add	esp, 4
	cmp	ebp, esp
	call	__RTC_CheckEsp
	mov	esp, ebp
	pop	ebp
	ret	0
?_Tidy@?$list@PAV?$Goal@VRaven_Bot@@@@V?$allocator@PAV?$Goal@VRaven_Bot@@@@@std@@@std@@QAEXXZ ENDP ; std::list<Goal<Raven_Bot> *,std::allocator<Goal<Raven_Bot> *> >::_Tidy
_TEXT	ENDS
; Function compile flags: /Odtp /RTCsu
; File d:\microsoft visual studio 14.0\vc\include\list
;	COMDAT ?clear@?$list@PAV?$Goal@VRaven_Bot@@@@V?$allocator@PAV?$Goal@VRaven_Bot@@@@@std@@@std@@QAEXXZ
_TEXT	SEGMENT
__Pnext$2 = -24						; size = 4
__Pnode$ = -20						; size = 4
_this$ = -16						; size = 4
__$EHRec$ = -12						; size = 12
?clear@?$list@PAV?$Goal@VRaven_Bot@@@@V?$allocator@PAV?$Goal@VRaven_Bot@@@@@std@@@std@@QAEXXZ PROC ; std::list<Goal<Raven_Bot> *,std::allocator<Goal<Raven_Bot> *> >::clear, COMDAT
; _this$ = ecx

; 1496 : 		{	// erase all

	push	ebp
	mov	ebp, esp
	push	-1
	push	__ehhandler$?clear@?$list@PAV?$Goal@VRaven_Bot@@@@V?$allocator@PAV?$Goal@VRaven_Bot@@@@@std@@@std@@QAEXXZ
	mov	eax, DWORD PTR fs:0
	push	eax
	sub	esp, 12					; 0000000cH
	push	esi
	mov	DWORD PTR [ebp-24], -858993460		; ccccccccH
	mov	DWORD PTR [ebp-20], -858993460		; ccccccccH
	mov	DWORD PTR [ebp-16], -858993460		; ccccccccH
	mov	eax, DWORD PTR ___security_cookie
	xor	eax, ebp
	push	eax
	lea	eax, DWORD PTR __$EHRec$[ebp]
	mov	DWORD PTR fs:0, eax
	mov	DWORD PTR _this$[ebp], ecx

; 1497 :  #if _ITERATOR_DEBUG_LEVEL == 2
; 1498 : 
; 1499 : 		this->_Orphan_ptr(nullptr);

	push	0
	mov	ecx, DWORD PTR _this$[ebp]
	call	?_Orphan_ptr@?$list@PAV?$Goal@VRaven_Bot@@@@V?$allocator@PAV?$Goal@VRaven_Bot@@@@@std@@@std@@QAEXPAU?$_List_node@PAV?$Goal@VRaven_Bot@@@@PAX@2@@Z ; std::list<Goal<Raven_Bot> *,std::allocator<Goal<Raven_Bot> *> >::_Orphan_ptr

; 1500 :  #endif /* _ITERATOR_DEBUG_LEVEL == 2 */
; 1501 : 		_Nodeptr _Pnode = this->_Nextnode(this->_Myhead());

	mov	ecx, DWORD PTR _this$[ebp]
	call	?_Myhead@?$_List_alloc@U?$_List_base_types@PAV?$Goal@VRaven_Bot@@@@V?$allocator@PAV?$Goal@VRaven_Bot@@@@@std@@@std@@@std@@QAEAAPAU?$_List_node@PAV?$Goal@VRaven_Bot@@@@PAX@2@XZ ; std::_List_alloc<std::_List_base_types<Goal<Raven_Bot> *,std::allocator<Goal<Raven_Bot> *> > >::_Myhead
	mov	eax, DWORD PTR [eax]
	push	eax
	call	?_Nextnode@?$_List_alloc@U?$_List_base_types@PAV?$Goal@VRaven_Bot@@@@V?$allocator@PAV?$Goal@VRaven_Bot@@@@@std@@@std@@@std@@SAAAPAU?$_List_node@PAV?$Goal@VRaven_Bot@@@@PAX@2@PAU32@@Z ; std::_List_alloc<std::_List_base_types<Goal<Raven_Bot> *,std::allocator<Goal<Raven_Bot> *> > >::_Nextnode
	add	esp, 4
	mov	ecx, DWORD PTR [eax]
	mov	DWORD PTR __Pnode$[ebp], ecx

; 1502 : 		this->_Nextnode(this->_Myhead()) = this->_Myhead();

	mov	ecx, DWORD PTR _this$[ebp]
	call	?_Myhead@?$_List_alloc@U?$_List_base_types@PAV?$Goal@VRaven_Bot@@@@V?$allocator@PAV?$Goal@VRaven_Bot@@@@@std@@@std@@@std@@QAEAAPAU?$_List_node@PAV?$Goal@VRaven_Bot@@@@PAX@2@XZ ; std::_List_alloc<std::_List_base_types<Goal<Raven_Bot> *,std::allocator<Goal<Raven_Bot> *> > >::_Myhead
	mov	esi, eax
	mov	ecx, DWORD PTR _this$[ebp]
	call	?_Myhead@?$_List_alloc@U?$_List_base_types@PAV?$Goal@VRaven_Bot@@@@V?$allocator@PAV?$Goal@VRaven_Bot@@@@@std@@@std@@@std@@QAEAAPAU?$_List_node@PAV?$Goal@VRaven_Bot@@@@PAX@2@XZ ; std::_List_alloc<std::_List_base_types<Goal<Raven_Bot> *,std::allocator<Goal<Raven_Bot> *> > >::_Myhead
	mov	edx, DWORD PTR [eax]
	push	edx
	call	?_Nextnode@?$_List_alloc@U?$_List_base_types@PAV?$Goal@VRaven_Bot@@@@V?$allocator@PAV?$Goal@VRaven_Bot@@@@@std@@@std@@@std@@SAAAPAU?$_List_node@PAV?$Goal@VRaven_Bot@@@@PAX@2@PAU32@@Z ; std::_List_alloc<std::_List_base_types<Goal<Raven_Bot> *,std::allocator<Goal<Raven_Bot> *> > >::_Nextnode
	add	esp, 4
	mov	ecx, DWORD PTR [esi]
	mov	DWORD PTR [eax], ecx

; 1503 : 		this->_Prevnode(this->_Myhead()) = this->_Myhead();

	mov	ecx, DWORD PTR _this$[ebp]
	call	?_Myhead@?$_List_alloc@U?$_List_base_types@PAV?$Goal@VRaven_Bot@@@@V?$allocator@PAV?$Goal@VRaven_Bot@@@@@std@@@std@@@std@@QAEAAPAU?$_List_node@PAV?$Goal@VRaven_Bot@@@@PAX@2@XZ ; std::_List_alloc<std::_List_base_types<Goal<Raven_Bot> *,std::allocator<Goal<Raven_Bot> *> > >::_Myhead
	mov	esi, eax
	mov	ecx, DWORD PTR _this$[ebp]
	call	?_Myhead@?$_List_alloc@U?$_List_base_types@PAV?$Goal@VRaven_Bot@@@@V?$allocator@PAV?$Goal@VRaven_Bot@@@@@std@@@std@@@std@@QAEAAPAU?$_List_node@PAV?$Goal@VRaven_Bot@@@@PAX@2@XZ ; std::_List_alloc<std::_List_base_types<Goal<Raven_Bot> *,std::allocator<Goal<Raven_Bot> *> > >::_Myhead
	mov	edx, DWORD PTR [eax]
	push	edx
	call	?_Prevnode@?$_List_alloc@U?$_List_base_types@PAV?$Goal@VRaven_Bot@@@@V?$allocator@PAV?$Goal@VRaven_Bot@@@@@std@@@std@@@std@@SAAAPAU?$_List_node@PAV?$Goal@VRaven_Bot@@@@PAX@2@PAU32@@Z ; std::_List_alloc<std::_List_base_types<Goal<Raven_Bot> *,std::allocator<Goal<Raven_Bot> *> > >::_Prevnode
	add	esp, 4
	mov	ecx, DWORD PTR [esi]
	mov	DWORD PTR [eax], ecx

; 1504 : 		this->_Mysize() = 0;

	mov	ecx, DWORD PTR _this$[ebp]
	call	?_Mysize@?$_List_alloc@U?$_List_base_types@PAV?$Goal@VRaven_Bot@@@@V?$allocator@PAV?$Goal@VRaven_Bot@@@@@std@@@std@@@std@@QAEAAIXZ ; std::_List_alloc<std::_List_base_types<Goal<Raven_Bot> *,std::allocator<Goal<Raven_Bot> *> > >::_Mysize
	mov	DWORD PTR [eax], 0

; 1505 : 
; 1506 : 		for (_Nodeptr _Pnext; _Pnode != this->_Myhead(); _Pnode = _Pnext)

	jmp	SHORT $LN4@clear
$LN2@clear:
	mov	edx, DWORD PTR __Pnext$2[ebp]
	mov	DWORD PTR __Pnode$[ebp], edx
$LN4@clear:
	mov	ecx, DWORD PTR _this$[ebp]
	call	?_Myhead@?$_List_alloc@U?$_List_base_types@PAV?$Goal@VRaven_Bot@@@@V?$allocator@PAV?$Goal@VRaven_Bot@@@@@std@@@std@@@std@@QAEAAPAU?$_List_node@PAV?$Goal@VRaven_Bot@@@@PAX@2@XZ ; std::_List_alloc<std::_List_base_types<Goal<Raven_Bot> *,std::allocator<Goal<Raven_Bot> *> > >::_Myhead
	mov	ecx, DWORD PTR __Pnode$[ebp]
	cmp	ecx, DWORD PTR [eax]
	je	SHORT $LN5@clear

; 1507 : 			{	// delete an element
; 1508 : 			_Pnext = this->_Nextnode(_Pnode);

	mov	edx, DWORD PTR __Pnode$[ebp]
	push	edx
	call	?_Nextnode@?$_List_alloc@U?$_List_base_types@PAV?$Goal@VRaven_Bot@@@@V?$allocator@PAV?$Goal@VRaven_Bot@@@@@std@@@std@@@std@@SAAAPAU?$_List_node@PAV?$Goal@VRaven_Bot@@@@PAX@2@PAU32@@Z ; std::_List_alloc<std::_List_base_types<Goal<Raven_Bot> *,std::allocator<Goal<Raven_Bot> *> > >::_Nextnode
	add	esp, 4
	mov	eax, DWORD PTR [eax]
	mov	DWORD PTR __Pnext$2[ebp], eax

; 1509 : 			this->_Freenode(_Pnode);

	mov	ecx, DWORD PTR __Pnode$[ebp]
	push	ecx
	mov	ecx, DWORD PTR _this$[ebp]
	call	?_Freenode@?$_List_buy@PAV?$Goal@VRaven_Bot@@@@V?$allocator@PAV?$Goal@VRaven_Bot@@@@@std@@@std@@QAEXPAU?$_List_node@PAV?$Goal@VRaven_Bot@@@@PAX@2@@Z ; std::_List_buy<Goal<Raven_Bot> *,std::allocator<Goal<Raven_Bot> *> >::_Freenode

; 1510 : 			}

	jmp	SHORT $LN2@clear
$LN5@clear:

; 1511 : 		}

	mov	ecx, DWORD PTR __$EHRec$[ebp]
	mov	DWORD PTR fs:0, ecx
	pop	ecx
	pop	esi
	add	esp, 24					; 00000018H
	cmp	ebp, esp
	call	__RTC_CheckEsp
	mov	esp, ebp
	pop	ebp
	ret	0
_TEXT	ENDS
;	COMDAT text$x
text$x	SEGMENT
__ehhandler$?clear@?$list@PAV?$Goal@VRaven_Bot@@@@V?$allocator@PAV?$Goal@VRaven_Bot@@@@@std@@@std@@QAEXXZ:
	mov	edx, DWORD PTR [esp+8]
	lea	eax, DWORD PTR [edx+12]
	mov	ecx, DWORD PTR [edx-20]
	xor	ecx, eax
	call	@__security_check_cookie@4
	mov	eax, OFFSET __ehfuncinfo$?clear@?$list@PAV?$Goal@VRaven_Bot@@@@V?$allocator@PAV?$Goal@VRaven_Bot@@@@@std@@@std@@QAEXXZ
	jmp	___CxxFrameHandler3
text$x	ENDS
?clear@?$list@PAV?$Goal@VRaven_Bot@@@@V?$allocator@PAV?$Goal@VRaven_Bot@@@@@std@@@std@@QAEXXZ ENDP ; std::list<Goal<Raven_Bot> *,std::allocator<Goal<Raven_Bot> *> >::clear
; Function compile flags: /Odtp /RTCsu
; File d:\microsoft visual studio 14.0\vc\include\list
;	COMDAT ?erase@?$list@PAV?$Goal@VRaven_Bot@@@@V?$allocator@PAV?$Goal@VRaven_Bot@@@@@std@@@std@@QAE?AV?$_List_iterator@V?$_List_val@U?$_List_simple_types@PAV?$Goal@VRaven_Bot@@@@@std@@@std@@@2@V?$_List_const_iterator@V?$_List_val@U?$_List_simple_types@PAV?$Goal@VRaven_Bot@@@@@std@@@std@@@2@@Z
_TEXT	SEGMENT
tv144 = -48						; size = 4
tv143 = -44						; size = 4
tv141 = -40						; size = 4
tv140 = -36						; size = 4
$T2 = -32						; size = 4
$T3 = -28						; size = 4
$T4 = -24						; size = 4
__Pnode$ = -20						; size = 4
_this$ = -16						; size = 4
__$EHRec$ = -12						; size = 12
___$ReturnUdt$ = 8					; size = 4
__Where$ = 12						; size = 12
?erase@?$list@PAV?$Goal@VRaven_Bot@@@@V?$allocator@PAV?$Goal@VRaven_Bot@@@@@std@@@std@@QAE?AV?$_List_iterator@V?$_List_val@U?$_List_simple_types@PAV?$Goal@VRaven_Bot@@@@@std@@@std@@@2@V?$_List_const_iterator@V?$_List_val@U?$_List_simple_types@PAV?$Goal@VRaven_Bot@@@@@std@@@std@@@2@@Z PROC ; std::list<Goal<Raven_Bot> *,std::allocator<Goal<Raven_Bot> *> >::erase, COMDAT
; _this$ = ecx

; 1462 : 		{	// erase element at _Where

	push	ebp
	mov	ebp, esp
	push	-1
	push	__ehhandler$?erase@?$list@PAV?$Goal@VRaven_Bot@@@@V?$allocator@PAV?$Goal@VRaven_Bot@@@@@std@@@std@@QAE?AV?$_List_iterator@V?$_List_val@U?$_List_simple_types@PAV?$Goal@VRaven_Bot@@@@@std@@@std@@@2@V?$_List_const_iterator@V?$_List_val@U?$_List_simple_types@PAV?$Goal@VRaven_Bot@@@@@std@@@std@@@2@@Z
	mov	eax, DWORD PTR fs:0
	push	eax
	sub	esp, 36					; 00000024H
	mov	eax, -858993460				; ccccccccH
	mov	DWORD PTR [ebp-48], eax
	mov	DWORD PTR [ebp-44], eax
	mov	DWORD PTR [ebp-40], eax
	mov	DWORD PTR [ebp-36], eax
	mov	DWORD PTR [ebp-32], eax
	mov	DWORD PTR [ebp-28], eax
	mov	DWORD PTR [ebp-24], eax
	mov	DWORD PTR [ebp-20], eax
	mov	DWORD PTR [ebp-16], eax
	mov	eax, DWORD PTR ___security_cookie
	xor	eax, ebp
	push	eax
	lea	eax, DWORD PTR __$EHRec$[ebp]
	mov	DWORD PTR fs:0, eax
	mov	DWORD PTR _this$[ebp], ecx
	mov	DWORD PTR $T2[ebp], 0
	mov	DWORD PTR __$EHRec$[ebp+8], 0

; 1463 : 		_Nodeptr _Pnode = _Unlinknode(_Where++);

	sub	esp, 12					; 0000000cH
	mov	eax, esp
	mov	DWORD PTR $T4[ebp], esp
	push	0
	push	eax
	lea	ecx, DWORD PTR __Where$[ebp]
	call	??E?$_List_const_iterator@V?$_List_val@U?$_List_simple_types@PAV?$Goal@VRaven_Bot@@@@@std@@@std@@@std@@QAE?AV01@H@Z ; std::_List_const_iterator<std::_List_val<std::_List_simple_types<Goal<Raven_Bot> *> > >::operator++
	mov	DWORD PTR tv140[ebp], eax
	mov	ecx, DWORD PTR _this$[ebp]
	call	?_Unlinknode@?$list@PAV?$Goal@VRaven_Bot@@@@V?$allocator@PAV?$Goal@VRaven_Bot@@@@@std@@@std@@QAEPAU?$_List_node@PAV?$Goal@VRaven_Bot@@@@PAX@2@V?$_List_const_iterator@V?$_List_val@U?$_List_simple_types@PAV?$Goal@VRaven_Bot@@@@@std@@@std@@@2@@Z ; std::list<Goal<Raven_Bot> *,std::allocator<Goal<Raven_Bot> *> >::_Unlinknode
	mov	DWORD PTR tv141[ebp], eax
	mov	ecx, DWORD PTR tv141[ebp]
	mov	DWORD PTR __Pnode$[ebp], ecx

; 1464 : 		this->_Freenode(_Pnode);

	mov	edx, DWORD PTR __Pnode$[ebp]
	push	edx
	mov	ecx, DWORD PTR _this$[ebp]
	call	?_Freenode@?$_List_buy@PAV?$Goal@VRaven_Bot@@@@V?$allocator@PAV?$Goal@VRaven_Bot@@@@@std@@@std@@QAEXPAU?$_List_node@PAV?$Goal@VRaven_Bot@@@@PAX@2@@Z ; std::_List_buy<Goal<Raven_Bot> *,std::allocator<Goal<Raven_Bot> *> >::_Freenode

; 1465 : 		return (_Make_iter(_Where));

	sub	esp, 12					; 0000000cH
	mov	ecx, esp
	mov	DWORD PTR $T3[ebp], esp
	lea	eax, DWORD PTR __Where$[ebp]
	push	eax
	call	??0?$_List_const_iterator@V?$_List_val@U?$_List_simple_types@PAV?$Goal@VRaven_Bot@@@@@std@@@std@@@std@@QAE@ABV01@@Z
	mov	DWORD PTR tv143[ebp], eax
	mov	ecx, DWORD PTR ___$ReturnUdt$[ebp]
	push	ecx
	mov	ecx, DWORD PTR _this$[ebp]
	call	?_Make_iter@?$list@PAV?$Goal@VRaven_Bot@@@@V?$allocator@PAV?$Goal@VRaven_Bot@@@@@std@@@std@@QBE?AV?$_List_iterator@V?$_List_val@U?$_List_simple_types@PAV?$Goal@VRaven_Bot@@@@@std@@@std@@@2@V?$_List_const_iterator@V?$_List_val@U?$_List_simple_types@PAV?$Goal@VRaven_Bot@@@@@std@@@std@@@2@@Z ; std::list<Goal<Raven_Bot> *,std::allocator<Goal<Raven_Bot> *> >::_Make_iter
	mov	DWORD PTR tv144[ebp], eax
	mov	edx, DWORD PTR $T2[ebp]
	or	edx, 1
	mov	DWORD PTR $T2[ebp], edx
	mov	DWORD PTR __$EHRec$[ebp+8], -1
	lea	ecx, DWORD PTR __Where$[ebp]
	call	??1?$_List_const_iterator@V?$_List_val@U?$_List_simple_types@PAV?$Goal@VRaven_Bot@@@@@std@@@std@@@std@@QAE@XZ
	mov	eax, DWORD PTR ___$ReturnUdt$[ebp]

; 1466 : 		}

	mov	ecx, DWORD PTR __$EHRec$[ebp]
	mov	DWORD PTR fs:0, ecx
	pop	ecx
	add	esp, 48					; 00000030H
	cmp	ebp, esp
	call	__RTC_CheckEsp
	mov	esp, ebp
	pop	ebp
	ret	16					; 00000010H
_TEXT	ENDS
;	COMDAT text$x
text$x	SEGMENT
__unwindfunclet$?erase@?$list@PAV?$Goal@VRaven_Bot@@@@V?$allocator@PAV?$Goal@VRaven_Bot@@@@@std@@@std@@QAE?AV?$_List_iterator@V?$_List_val@U?$_List_simple_types@PAV?$Goal@VRaven_Bot@@@@@std@@@std@@@2@V?$_List_const_iterator@V?$_List_val@U?$_List_simple_types@PAV?$Goal@VRaven_Bot@@@@@std@@@std@@@2@@Z$0:
	lea	ecx, DWORD PTR __Where$[ebp]
	jmp	??1?$_List_const_iterator@V?$_List_val@U?$_List_simple_types@PAV?$Goal@VRaven_Bot@@@@@std@@@std@@@std@@QAE@XZ
__ehhandler$?erase@?$list@PAV?$Goal@VRaven_Bot@@@@V?$allocator@PAV?$Goal@VRaven_Bot@@@@@std@@@std@@QAE?AV?$_List_iterator@V?$_List_val@U?$_List_simple_types@PAV?$Goal@VRaven_Bot@@@@@std@@@std@@@2@V?$_List_const_iterator@V?$_List_val@U?$_List_simple_types@PAV?$Goal@VRaven_Bot@@@@@std@@@std@@@2@@Z:
	mov	edx, DWORD PTR [esp+8]
	lea	eax, DWORD PTR [edx+12]
	mov	ecx, DWORD PTR [edx-40]
	xor	ecx, eax
	call	@__security_check_cookie@4
	mov	eax, OFFSET __ehfuncinfo$?erase@?$list@PAV?$Goal@VRaven_Bot@@@@V?$allocator@PAV?$Goal@VRaven_Bot@@@@@std@@@std@@QAE?AV?$_List_iterator@V?$_List_val@U?$_List_simple_types@PAV?$Goal@VRaven_Bot@@@@@std@@@std@@@2@V?$_List_const_iterator@V?$_List_val@U?$_List_simple_types@PAV?$Goal@VRaven_Bot@@@@@std@@@std@@@2@@Z
	jmp	___CxxFrameHandler3
text$x	ENDS
?erase@?$list@PAV?$Goal@VRaven_Bot@@@@V?$allocator@PAV?$Goal@VRaven_Bot@@@@@std@@@std@@QAE?AV?$_List_iterator@V?$_List_val@U?$_List_simple_types@PAV?$Goal@VRaven_Bot@@@@@std@@@std@@@2@V?$_List_const_iterator@V?$_List_val@U?$_List_simple_types@PAV?$Goal@VRaven_Bot@@@@@std@@@std@@@2@@Z ENDP ; std::list<Goal<Raven_Bot> *,std::allocator<Goal<Raven_Bot> *> >::erase
; Function compile flags: /Odtp /RTCsu
; File d:\microsoft visual studio 14.0\vc\include\list
;	COMDAT ?_Unlinknode@?$list@PAV?$Goal@VRaven_Bot@@@@V?$allocator@PAV?$Goal@VRaven_Bot@@@@@std@@@std@@QAEPAU?$_List_node@PAV?$Goal@VRaven_Bot@@@@PAX@2@V?$_List_const_iterator@V?$_List_val@U?$_List_simple_types@PAV?$Goal@VRaven_Bot@@@@@std@@@std@@@2@@Z
_TEXT	SEGMENT
tv155 = -28						; size = 4
$T2 = -24						; size = 4
__Pnode$ = -20						; size = 4
_this$ = -16						; size = 4
__$EHRec$ = -12						; size = 12
__Where$ = 8						; size = 12
?_Unlinknode@?$list@PAV?$Goal@VRaven_Bot@@@@V?$allocator@PAV?$Goal@VRaven_Bot@@@@@std@@@std@@QAEPAU?$_List_node@PAV?$Goal@VRaven_Bot@@@@PAX@2@V?$_List_const_iterator@V?$_List_val@U?$_List_simple_types@PAV?$Goal@VRaven_Bot@@@@@std@@@std@@@2@@Z PROC ; std::list<Goal<Raven_Bot> *,std::allocator<Goal<Raven_Bot> *> >::_Unlinknode, COMDAT
; _this$ = ecx

; 1440 : 		{	// unlink node at _Where from the list

	push	ebp
	mov	ebp, esp
	push	-1
	push	__ehhandler$?_Unlinknode@?$list@PAV?$Goal@VRaven_Bot@@@@V?$allocator@PAV?$Goal@VRaven_Bot@@@@@std@@@std@@QAEPAU?$_List_node@PAV?$Goal@VRaven_Bot@@@@PAX@2@V?$_List_const_iterator@V?$_List_val@U?$_List_simple_types@PAV?$Goal@VRaven_Bot@@@@@std@@@std@@@2@@Z
	mov	eax, DWORD PTR fs:0
	push	eax
	sub	esp, 16					; 00000010H
	push	esi
	mov	eax, -858993460				; ccccccccH
	mov	DWORD PTR [ebp-28], eax
	mov	DWORD PTR [ebp-24], eax
	mov	DWORD PTR [ebp-20], eax
	mov	DWORD PTR [ebp-16], eax
	mov	eax, DWORD PTR ___security_cookie
	xor	eax, ebp
	push	eax
	lea	eax, DWORD PTR __$EHRec$[ebp]
	mov	DWORD PTR fs:0, eax
	mov	DWORD PTR _this$[ebp], ecx
	mov	DWORD PTR __$EHRec$[ebp+8], 0

; 1441 :  #if _ITERATOR_DEBUG_LEVEL == 2
; 1442 : 		if (_Where._Getcont() != &this->_Get_data()
; 1443 : 			|| _Where._Ptr == this->_Myhead())

	lea	ecx, DWORD PTR __Where$[ebp]
	call	?_Getcont@_Iterator_base12@std@@QBEPBU_Container_base12@2@XZ ; std::_Iterator_base12::_Getcont
	mov	esi, eax
	mov	ecx, DWORD PTR _this$[ebp]
	call	?_Get_data@?$_List_alloc@U?$_List_base_types@PAV?$Goal@VRaven_Bot@@@@V?$allocator@PAV?$Goal@VRaven_Bot@@@@@std@@@std@@@std@@QAEAAV?$_List_val@U?$_List_simple_types@PAV?$Goal@VRaven_Bot@@@@@std@@@2@XZ ; std::_List_alloc<std::_List_base_types<Goal<Raven_Bot> *,std::allocator<Goal<Raven_Bot> *> > >::_Get_data
	cmp	esi, eax
	jne	SHORT $LN3@Unlinknode
	mov	ecx, DWORD PTR _this$[ebp]
	call	?_Myhead@?$_List_alloc@U?$_List_base_types@PAV?$Goal@VRaven_Bot@@@@V?$allocator@PAV?$Goal@VRaven_Bot@@@@@std@@@std@@@std@@QAEAAPAU?$_List_node@PAV?$Goal@VRaven_Bot@@@@PAX@2@XZ ; std::_List_alloc<std::_List_base_types<Goal<Raven_Bot> *,std::allocator<Goal<Raven_Bot> *> > >::_Myhead
	mov	ecx, DWORD PTR __Where$[ebp+8]
	cmp	ecx, DWORD PTR [eax]
	jne	SHORT $LN2@Unlinknode
$LN3@Unlinknode:

; 1444 : 			_DEBUG_ERROR("list erase iterator outside range");

	push	1444					; 000005a4H
	push	OFFSET ??_C@_1GA@IINJPBGE@?$AAD?$AA?3?$AA?2?$AAM?$AAi?$AAc?$AAr?$AAo?$AAs?$AAo?$AAf?$AAt?$AA?5?$AAV?$AAi?$AAs?$AAu?$AAa?$AAl?$AA?5?$AAS?$AAt?$AAu?$AAd?$AAi?$AAo?$AA?5?$AA1?$AA4?$AA?4?$AA0?$AA?2@
	push	OFFSET ??_C@_1EE@BBMFLDOC@?$AAl?$AAi?$AAs?$AAt?$AA?5?$AAe?$AAr?$AAa?$AAs?$AAe?$AA?5?$AAi?$AAt?$AAe?$AAr?$AAa?$AAt?$AAo?$AAr?$AA?5?$AAo?$AAu?$AAt?$AAs?$AAi?$AAd?$AAe?$AA?5?$AAr?$AAa?$AAn?$AAg@
	call	?_Debug_message@std@@YAXPB_W0I@Z	; std::_Debug_message
	add	esp, 12					; 0000000cH
$LN2@Unlinknode:

; 1445 : 		_Nodeptr _Pnode = (_Where)._Mynode();

	lea	ecx, DWORD PTR __Where$[ebp]
	call	?_Mynode@?$_List_unchecked_const_iterator@V?$_List_val@U?$_List_simple_types@PAV?$Goal@VRaven_Bot@@@@@std@@@std@@U_Iterator_base12@2@@std@@QBEPAU?$_List_node@PAV?$Goal@VRaven_Bot@@@@PAX@2@XZ ; std::_List_unchecked_const_iterator<std::_List_val<std::_List_simple_types<Goal<Raven_Bot> *> >,std::_Iterator_base12>::_Mynode
	mov	DWORD PTR __Pnode$[ebp], eax

; 1446 : 		_Orphan_ptr(_Pnode);

	mov	edx, DWORD PTR __Pnode$[ebp]
	push	edx
	mov	ecx, DWORD PTR _this$[ebp]
	call	?_Orphan_ptr@?$list@PAV?$Goal@VRaven_Bot@@@@V?$allocator@PAV?$Goal@VRaven_Bot@@@@@std@@@std@@QAEXPAU?$_List_node@PAV?$Goal@VRaven_Bot@@@@PAX@2@@Z ; std::list<Goal<Raven_Bot> *,std::allocator<Goal<Raven_Bot> *> >::_Orphan_ptr

; 1447 : 
; 1448 :  #else /* _ITERATOR_DEBUG_LEVEL == 2 */
; 1449 : 		_Nodeptr _Pnode = (_Where)._Mynode();
; 1450 :  #endif /* _ITERATOR_DEBUG_LEVEL == 2 */
; 1451 : 
; 1452 : 		this->_Nextnode(this->_Prevnode(_Pnode)) =

	mov	eax, DWORD PTR __Pnode$[ebp]
	push	eax
	call	?_Nextnode@?$_List_alloc@U?$_List_base_types@PAV?$Goal@VRaven_Bot@@@@V?$allocator@PAV?$Goal@VRaven_Bot@@@@@std@@@std@@@std@@SAAAPAU?$_List_node@PAV?$Goal@VRaven_Bot@@@@PAX@2@PAU32@@Z ; std::_List_alloc<std::_List_base_types<Goal<Raven_Bot> *,std::allocator<Goal<Raven_Bot> *> > >::_Nextnode
	add	esp, 4
	mov	esi, eax
	mov	ecx, DWORD PTR __Pnode$[ebp]
	push	ecx
	call	?_Prevnode@?$_List_alloc@U?$_List_base_types@PAV?$Goal@VRaven_Bot@@@@V?$allocator@PAV?$Goal@VRaven_Bot@@@@@std@@@std@@@std@@SAAAPAU?$_List_node@PAV?$Goal@VRaven_Bot@@@@PAX@2@PAU32@@Z ; std::_List_alloc<std::_List_base_types<Goal<Raven_Bot> *,std::allocator<Goal<Raven_Bot> *> > >::_Prevnode
	add	esp, 4
	mov	edx, DWORD PTR [eax]
	push	edx
	call	?_Nextnode@?$_List_alloc@U?$_List_base_types@PAV?$Goal@VRaven_Bot@@@@V?$allocator@PAV?$Goal@VRaven_Bot@@@@@std@@@std@@@std@@SAAAPAU?$_List_node@PAV?$Goal@VRaven_Bot@@@@PAX@2@PAU32@@Z ; std::_List_alloc<std::_List_base_types<Goal<Raven_Bot> *,std::allocator<Goal<Raven_Bot> *> > >::_Nextnode
	add	esp, 4
	mov	ecx, DWORD PTR [esi]
	mov	DWORD PTR [eax], ecx

; 1453 : 			this->_Nextnode(_Pnode);
; 1454 : 		this->_Prevnode(this->_Nextnode(_Pnode)) =

	mov	edx, DWORD PTR __Pnode$[ebp]
	push	edx
	call	?_Prevnode@?$_List_alloc@U?$_List_base_types@PAV?$Goal@VRaven_Bot@@@@V?$allocator@PAV?$Goal@VRaven_Bot@@@@@std@@@std@@@std@@SAAAPAU?$_List_node@PAV?$Goal@VRaven_Bot@@@@PAX@2@PAU32@@Z ; std::_List_alloc<std::_List_base_types<Goal<Raven_Bot> *,std::allocator<Goal<Raven_Bot> *> > >::_Prevnode
	add	esp, 4
	mov	esi, eax
	mov	eax, DWORD PTR __Pnode$[ebp]
	push	eax
	call	?_Nextnode@?$_List_alloc@U?$_List_base_types@PAV?$Goal@VRaven_Bot@@@@V?$allocator@PAV?$Goal@VRaven_Bot@@@@@std@@@std@@@std@@SAAAPAU?$_List_node@PAV?$Goal@VRaven_Bot@@@@PAX@2@PAU32@@Z ; std::_List_alloc<std::_List_base_types<Goal<Raven_Bot> *,std::allocator<Goal<Raven_Bot> *> > >::_Nextnode
	add	esp, 4
	mov	ecx, DWORD PTR [eax]
	push	ecx
	call	?_Prevnode@?$_List_alloc@U?$_List_base_types@PAV?$Goal@VRaven_Bot@@@@V?$allocator@PAV?$Goal@VRaven_Bot@@@@@std@@@std@@@std@@SAAAPAU?$_List_node@PAV?$Goal@VRaven_Bot@@@@PAX@2@PAU32@@Z ; std::_List_alloc<std::_List_base_types<Goal<Raven_Bot> *,std::allocator<Goal<Raven_Bot> *> > >::_Prevnode
	add	esp, 4
	mov	edx, DWORD PTR [esi]
	mov	DWORD PTR [eax], edx

; 1455 : 			this->_Prevnode(_Pnode);
; 1456 : 
; 1457 : 		--this->_Mysize();

	mov	ecx, DWORD PTR _this$[ebp]
	call	?_Mysize@?$_List_alloc@U?$_List_base_types@PAV?$Goal@VRaven_Bot@@@@V?$allocator@PAV?$Goal@VRaven_Bot@@@@@std@@@std@@@std@@QAEAAIXZ ; std::_List_alloc<std::_List_base_types<Goal<Raven_Bot> *,std::allocator<Goal<Raven_Bot> *> > >::_Mysize
	mov	DWORD PTR tv155[ebp], eax
	mov	eax, DWORD PTR tv155[ebp]
	mov	ecx, DWORD PTR [eax]
	sub	ecx, 1
	mov	edx, DWORD PTR tv155[ebp]
	mov	DWORD PTR [edx], ecx

; 1458 : 		return (_Pnode);

	mov	eax, DWORD PTR __Pnode$[ebp]
	mov	DWORD PTR $T2[ebp], eax
	mov	DWORD PTR __$EHRec$[ebp+8], -1
	lea	ecx, DWORD PTR __Where$[ebp]
	call	??1?$_List_const_iterator@V?$_List_val@U?$_List_simple_types@PAV?$Goal@VRaven_Bot@@@@@std@@@std@@@std@@QAE@XZ
	mov	eax, DWORD PTR $T2[ebp]

; 1459 : 		}

	mov	ecx, DWORD PTR __$EHRec$[ebp]
	mov	DWORD PTR fs:0, ecx
	pop	ecx
	pop	esi
	add	esp, 28					; 0000001cH
	cmp	ebp, esp
	call	__RTC_CheckEsp
	mov	esp, ebp
	pop	ebp
	ret	12					; 0000000cH
_TEXT	ENDS
;	COMDAT text$x
text$x	SEGMENT
__unwindfunclet$?_Unlinknode@?$list@PAV?$Goal@VRaven_Bot@@@@V?$allocator@PAV?$Goal@VRaven_Bot@@@@@std@@@std@@QAEPAU?$_List_node@PAV?$Goal@VRaven_Bot@@@@PAX@2@V?$_List_const_iterator@V?$_List_val@U?$_List_simple_types@PAV?$Goal@VRaven_Bot@@@@@std@@@std@@@2@@Z$0:
	lea	ecx, DWORD PTR __Where$[ebp]
	jmp	??1?$_List_const_iterator@V?$_List_val@U?$_List_simple_types@PAV?$Goal@VRaven_Bot@@@@@std@@@std@@@std@@QAE@XZ
__ehhandler$?_Unlinknode@?$list@PAV?$Goal@VRaven_Bot@@@@V?$allocator@PAV?$Goal@VRaven_Bot@@@@@std@@@std@@QAEPAU?$_List_node@PAV?$Goal@VRaven_Bot@@@@PAX@2@V?$_List_const_iterator@V?$_List_val@U?$_List_simple_types@PAV?$Goal@VRaven_Bot@@@@@std@@@std@@@2@@Z:
	mov	edx, DWORD PTR [esp+8]
	lea	eax, DWORD PTR [edx+12]
	mov	ecx, DWORD PTR [edx-24]
	xor	ecx, eax
	call	@__security_check_cookie@4
	mov	eax, OFFSET __ehfuncinfo$?_Unlinknode@?$list@PAV?$Goal@VRaven_Bot@@@@V?$allocator@PAV?$Goal@VRaven_Bot@@@@@std@@@std@@QAEPAU?$_List_node@PAV?$Goal@VRaven_Bot@@@@PAX@2@V?$_List_const_iterator@V?$_List_val@U?$_List_simple_types@PAV?$Goal@VRaven_Bot@@@@@std@@@std@@@2@@Z
	jmp	___CxxFrameHandler3
text$x	ENDS
?_Unlinknode@?$list@PAV?$Goal@VRaven_Bot@@@@V?$allocator@PAV?$Goal@VRaven_Bot@@@@@std@@@std@@QAEPAU?$_List_node@PAV?$Goal@VRaven_Bot@@@@PAX@2@V?$_List_const_iterator@V?$_List_val@U?$_List_simple_types@PAV?$Goal@VRaven_Bot@@@@@std@@@std@@@2@@Z ENDP ; std::list<Goal<Raven_Bot> *,std::allocator<Goal<Raven_Bot> *> >::_Unlinknode
; Function compile flags: /Odtp /RTCsu
; File d:\microsoft visual studio 14.0\vc\include\list
;	COMDAT ?pop_front@?$list@PAV?$Goal@VRaven_Bot@@@@V?$allocator@PAV?$Goal@VRaven_Bot@@@@@std@@@std@@QAEXXZ
_TEXT	SEGMENT
tv95 = -60						; size = 4
tv94 = -56						; size = 4
tv92 = -52						; size = 4
tv129 = -48						; size = 4
$T2 = -44						; size = 12
$T3 = -32						; size = 12
$T4 = -20						; size = 4
_this$ = -16						; size = 4
__$EHRec$ = -12						; size = 12
?pop_front@?$list@PAV?$Goal@VRaven_Bot@@@@V?$allocator@PAV?$Goal@VRaven_Bot@@@@@std@@@std@@QAEXXZ PROC ; std::list<Goal<Raven_Bot> *,std::allocator<Goal<Raven_Bot> *> >::pop_front, COMDAT
; _this$ = ecx

; 1283 : 		{	// erase element at beginning

	push	ebp
	mov	ebp, esp
	push	-1
	push	__ehhandler$?pop_front@?$list@PAV?$Goal@VRaven_Bot@@@@V?$allocator@PAV?$Goal@VRaven_Bot@@@@@std@@@std@@QAEXXZ
	mov	eax, DWORD PTR fs:0
	push	eax
	sub	esp, 48					; 00000030H
	push	edi
	push	ecx
	lea	edi, DWORD PTR [ebp-60]
	mov	ecx, 12					; 0000000cH
	mov	eax, -858993460				; ccccccccH
	rep stosd
	pop	ecx
	mov	eax, DWORD PTR ___security_cookie
	xor	eax, ebp
	push	eax
	lea	eax, DWORD PTR __$EHRec$[ebp]
	mov	DWORD PTR fs:0, eax
	mov	DWORD PTR _this$[ebp], ecx

; 1284 : 		erase(begin());

	lea	eax, DWORD PTR $T3[ebp]
	push	eax
	mov	ecx, DWORD PTR _this$[ebp]
	call	?begin@?$list@PAV?$Goal@VRaven_Bot@@@@V?$allocator@PAV?$Goal@VRaven_Bot@@@@@std@@@std@@QAE?AV?$_List_iterator@V?$_List_val@U?$_List_simple_types@PAV?$Goal@VRaven_Bot@@@@@std@@@std@@@2@XZ ; std::list<Goal<Raven_Bot> *,std::allocator<Goal<Raven_Bot> *> >::begin
	mov	DWORD PTR tv129[ebp], eax
	mov	ecx, DWORD PTR tv129[ebp]
	mov	DWORD PTR tv92[ebp], ecx
	mov	DWORD PTR __$EHRec$[ebp+8], 0
	sub	esp, 12					; 0000000cH
	mov	ecx, esp
	mov	DWORD PTR $T4[ebp], esp
	mov	edx, DWORD PTR tv92[ebp]
	push	edx
	call	??0?$_List_const_iterator@V?$_List_val@U?$_List_simple_types@PAV?$Goal@VRaven_Bot@@@@@std@@@std@@@std@@QAE@$$QAV01@@Z
	mov	DWORD PTR tv94[ebp], eax
	lea	eax, DWORD PTR $T2[ebp]
	push	eax
	mov	ecx, DWORD PTR _this$[ebp]
	call	?erase@?$list@PAV?$Goal@VRaven_Bot@@@@V?$allocator@PAV?$Goal@VRaven_Bot@@@@@std@@@std@@QAE?AV?$_List_iterator@V?$_List_val@U?$_List_simple_types@PAV?$Goal@VRaven_Bot@@@@@std@@@std@@@2@V?$_List_const_iterator@V?$_List_val@U?$_List_simple_types@PAV?$Goal@VRaven_Bot@@@@@std@@@std@@@2@@Z ; std::list<Goal<Raven_Bot> *,std::allocator<Goal<Raven_Bot> *> >::erase
	mov	DWORD PTR tv95[ebp], eax
	lea	ecx, DWORD PTR $T2[ebp]
	call	??1?$_List_iterator@V?$_List_val@U?$_List_simple_types@PAV?$Goal@VRaven_Bot@@@@@std@@@std@@@std@@QAE@XZ
	mov	DWORD PTR __$EHRec$[ebp+8], -1
	lea	ecx, DWORD PTR $T3[ebp]
	call	??1?$_List_iterator@V?$_List_val@U?$_List_simple_types@PAV?$Goal@VRaven_Bot@@@@@std@@@std@@@std@@QAE@XZ

; 1285 : 		}

	mov	ecx, DWORD PTR __$EHRec$[ebp]
	mov	DWORD PTR fs:0, ecx
	pop	ecx
	pop	edi
	add	esp, 60					; 0000003cH
	cmp	ebp, esp
	call	__RTC_CheckEsp
	mov	esp, ebp
	pop	ebp
	ret	0
_TEXT	ENDS
;	COMDAT text$x
text$x	SEGMENT
__unwindfunclet$?pop_front@?$list@PAV?$Goal@VRaven_Bot@@@@V?$allocator@PAV?$Goal@VRaven_Bot@@@@@std@@@std@@QAEXXZ$0:
	lea	ecx, DWORD PTR $T3[ebp]
	jmp	??1?$_List_iterator@V?$_List_val@U?$_List_simple_types@PAV?$Goal@VRaven_Bot@@@@@std@@@std@@@std@@QAE@XZ
__ehhandler$?pop_front@?$list@PAV?$Goal@VRaven_Bot@@@@V?$allocator@PAV?$Goal@VRaven_Bot@@@@@std@@@std@@QAEXXZ:
	mov	edx, DWORD PTR [esp+8]
	lea	eax, DWORD PTR [edx+12]
	mov	ecx, DWORD PTR [edx-56]
	xor	ecx, eax
	call	@__security_check_cookie@4
	mov	eax, OFFSET __ehfuncinfo$?pop_front@?$list@PAV?$Goal@VRaven_Bot@@@@V?$allocator@PAV?$Goal@VRaven_Bot@@@@@std@@@std@@QAEXXZ
	jmp	___CxxFrameHandler3
text$x	ENDS
?pop_front@?$list@PAV?$Goal@VRaven_Bot@@@@V?$allocator@PAV?$Goal@VRaven_Bot@@@@@std@@@std@@QAEXXZ ENDP ; std::list<Goal<Raven_Bot> *,std::allocator<Goal<Raven_Bot> *> >::pop_front
; Function compile flags: /Odtp /RTCsu
; File d:\microsoft visual studio 14.0\vc\include\list
;	COMDAT ?push_front@?$list@PAV?$Goal@VRaven_Bot@@@@V?$allocator@PAV?$Goal@VRaven_Bot@@@@@std@@@std@@QAEXABQAV?$Goal@VRaven_Bot@@@@@Z
_TEXT	SEGMENT
$T1 = -12						; size = 4
$T2 = -8						; size = 4
_this$ = -4						; size = 4
__Val$ = 8						; size = 4
?push_front@?$list@PAV?$Goal@VRaven_Bot@@@@V?$allocator@PAV?$Goal@VRaven_Bot@@@@@std@@@std@@QAEXABQAV?$Goal@VRaven_Bot@@@@@Z PROC ; std::list<Goal<Raven_Bot> *,std::allocator<Goal<Raven_Bot> *> >::push_front, COMDAT
; _this$ = ecx

; 1278 : 		{	// insert element at beginning

	push	ebp
	mov	ebp, esp
	sub	esp, 12					; 0000000cH
	mov	DWORD PTR [ebp-12], -858993460		; ccccccccH
	mov	DWORD PTR [ebp-8], -858993460		; ccccccccH
	mov	DWORD PTR [ebp-4], -858993460		; ccccccccH
	mov	DWORD PTR _this$[ebp], ecx

; 1279 : 		_Insert(_Unchecked_begin(), _Val);

	lea	eax, DWORD PTR $T1[ebp]
	push	eax
	mov	ecx, DWORD PTR _this$[ebp]
	call	?_Unchecked_begin@?$list@PAV?$Goal@VRaven_Bot@@@@V?$allocator@PAV?$Goal@VRaven_Bot@@@@@std@@@std@@QAE?AV?$_List_unchecked_iterator@V?$_List_val@U?$_List_simple_types@PAV?$Goal@VRaven_Bot@@@@@std@@@std@@@2@XZ ; std::list<Goal<Raven_Bot> *,std::allocator<Goal<Raven_Bot> *> >::_Unchecked_begin
	mov	ecx, DWORD PTR [eax]
	mov	DWORD PTR $T2[ebp], ecx
	mov	edx, DWORD PTR __Val$[ebp]
	push	edx
	mov	eax, DWORD PTR $T2[ebp]
	push	eax
	mov	ecx, DWORD PTR _this$[ebp]
	call	??$_Insert@ABQAV?$Goal@VRaven_Bot@@@@@?$list@PAV?$Goal@VRaven_Bot@@@@V?$allocator@PAV?$Goal@VRaven_Bot@@@@@std@@@std@@QAEXV?$_List_unchecked_const_iterator@V?$_List_val@U?$_List_simple_types@PAV?$Goal@VRaven_Bot@@@@@std@@@std@@U_Iterator_base0@2@@1@ABQAV?$Goal@VRaven_Bot@@@@@Z ; std::list<Goal<Raven_Bot> *,std::allocator<Goal<Raven_Bot> *> >::_Insert<Goal<Raven_Bot> * const &>

; 1280 : 		}

	add	esp, 12					; 0000000cH
	cmp	ebp, esp
	call	__RTC_CheckEsp
	mov	esp, ebp
	pop	ebp
	ret	4
?push_front@?$list@PAV?$Goal@VRaven_Bot@@@@V?$allocator@PAV?$Goal@VRaven_Bot@@@@@std@@@std@@QAEXABQAV?$Goal@VRaven_Bot@@@@@Z ENDP ; std::list<Goal<Raven_Bot> *,std::allocator<Goal<Raven_Bot> *> >::push_front
_TEXT	ENDS
; Function compile flags: /Odtp /RTCsu
; File d:\microsoft visual studio 14.0\vc\include\list
;	COMDAT ?front@?$list@PAV?$Goal@VRaven_Bot@@@@V?$allocator@PAV?$Goal@VRaven_Bot@@@@@std@@@std@@QAEAAPAV?$Goal@VRaven_Bot@@@@XZ
_TEXT	SEGMENT
tv72 = -40						; size = 4
tv73 = -36						; size = 4
$T2 = -32						; size = 12
$T3 = -20						; size = 4
_this$ = -16						; size = 4
__$EHRec$ = -12						; size = 12
?front@?$list@PAV?$Goal@VRaven_Bot@@@@V?$allocator@PAV?$Goal@VRaven_Bot@@@@@std@@@std@@QAEAAPAV?$Goal@VRaven_Bot@@@@XZ PROC ; std::list<Goal<Raven_Bot> *,std::allocator<Goal<Raven_Bot> *> >::front, COMDAT
; _this$ = ecx

; 1258 : 		{	// return first element of mutable sequence

	push	ebp
	mov	ebp, esp
	push	-1
	push	__ehhandler$?front@?$list@PAV?$Goal@VRaven_Bot@@@@V?$allocator@PAV?$Goal@VRaven_Bot@@@@@std@@@std@@QAEAAPAV?$Goal@VRaven_Bot@@@@XZ
	mov	eax, DWORD PTR fs:0
	push	eax
	sub	esp, 28					; 0000001cH
	mov	eax, -858993460				; ccccccccH
	mov	DWORD PTR [ebp-40], eax
	mov	DWORD PTR [ebp-36], eax
	mov	DWORD PTR [ebp-32], eax
	mov	DWORD PTR [ebp-28], eax
	mov	DWORD PTR [ebp-24], eax
	mov	DWORD PTR [ebp-20], eax
	mov	DWORD PTR [ebp-16], eax
	mov	eax, DWORD PTR ___security_cookie
	xor	eax, ebp
	push	eax
	lea	eax, DWORD PTR __$EHRec$[ebp]
	mov	DWORD PTR fs:0, eax
	mov	DWORD PTR _this$[ebp], ecx

; 1259 : 		return (*begin());

	lea	eax, DWORD PTR $T2[ebp]
	push	eax
	mov	ecx, DWORD PTR _this$[ebp]
	call	?begin@?$list@PAV?$Goal@VRaven_Bot@@@@V?$allocator@PAV?$Goal@VRaven_Bot@@@@@std@@@std@@QAE?AV?$_List_iterator@V?$_List_val@U?$_List_simple_types@PAV?$Goal@VRaven_Bot@@@@@std@@@std@@@2@XZ ; std::list<Goal<Raven_Bot> *,std::allocator<Goal<Raven_Bot> *> >::begin
	mov	DWORD PTR tv73[ebp], eax
	mov	ecx, DWORD PTR tv73[ebp]
	mov	DWORD PTR tv72[ebp], ecx
	mov	DWORD PTR __$EHRec$[ebp+8], 0
	mov	ecx, DWORD PTR tv72[ebp]
	call	??D?$_List_iterator@V?$_List_val@U?$_List_simple_types@PAV?$Goal@VRaven_Bot@@@@@std@@@std@@@std@@QBEAAPAV?$Goal@VRaven_Bot@@@@XZ ; std::_List_iterator<std::_List_val<std::_List_simple_types<Goal<Raven_Bot> *> > >::operator*
	mov	DWORD PTR $T3[ebp], eax
	mov	DWORD PTR __$EHRec$[ebp+8], -1
	lea	ecx, DWORD PTR $T2[ebp]
	call	??1?$_List_iterator@V?$_List_val@U?$_List_simple_types@PAV?$Goal@VRaven_Bot@@@@@std@@@std@@@std@@QAE@XZ
	mov	eax, DWORD PTR $T3[ebp]

; 1260 : 		}

	mov	ecx, DWORD PTR __$EHRec$[ebp]
	mov	DWORD PTR fs:0, ecx
	pop	ecx
	add	esp, 40					; 00000028H
	cmp	ebp, esp
	call	__RTC_CheckEsp
	mov	esp, ebp
	pop	ebp
	ret	0
_TEXT	ENDS
;	COMDAT text$x
text$x	SEGMENT
__unwindfunclet$?front@?$list@PAV?$Goal@VRaven_Bot@@@@V?$allocator@PAV?$Goal@VRaven_Bot@@@@@std@@@std@@QAEAAPAV?$Goal@VRaven_Bot@@@@XZ$0:
	lea	ecx, DWORD PTR $T2[ebp]
	jmp	??1?$_List_iterator@V?$_List_val@U?$_List_simple_types@PAV?$Goal@VRaven_Bot@@@@@std@@@std@@@std@@QAE@XZ
__ehhandler$?front@?$list@PAV?$Goal@VRaven_Bot@@@@V?$allocator@PAV?$Goal@VRaven_Bot@@@@@std@@@std@@QAEAAPAV?$Goal@VRaven_Bot@@@@XZ:
	mov	edx, DWORD PTR [esp+8]
	lea	eax, DWORD PTR [edx+12]
	mov	ecx, DWORD PTR [edx-32]
	xor	ecx, eax
	call	@__security_check_cookie@4
	mov	eax, OFFSET __ehfuncinfo$?front@?$list@PAV?$Goal@VRaven_Bot@@@@V?$allocator@PAV?$Goal@VRaven_Bot@@@@@std@@@std@@QAEAAPAV?$Goal@VRaven_Bot@@@@XZ
	jmp	___CxxFrameHandler3
text$x	ENDS
?front@?$list@PAV?$Goal@VRaven_Bot@@@@V?$allocator@PAV?$Goal@VRaven_Bot@@@@@std@@@std@@QAEAAPAV?$Goal@VRaven_Bot@@@@XZ ENDP ; std::list<Goal<Raven_Bot> *,std::allocator<Goal<Raven_Bot> *> >::front
; Function compile flags: /Odtp /RTCsu
; File d:\microsoft visual studio 14.0\vc\include\list
;	COMDAT ?empty@?$list@PAV?$Goal@VRaven_Bot@@@@V?$allocator@PAV?$Goal@VRaven_Bot@@@@@std@@@std@@QBE_NXZ
_TEXT	SEGMENT
tv71 = -8						; size = 4
_this$ = -4						; size = 4
?empty@?$list@PAV?$Goal@VRaven_Bot@@@@V?$allocator@PAV?$Goal@VRaven_Bot@@@@@std@@@std@@QBE_NXZ PROC ; std::list<Goal<Raven_Bot> *,std::allocator<Goal<Raven_Bot> *> >::empty, COMDAT
; _this$ = ecx

; 1248 : 		{	// test if sequence is empty

	push	ebp
	mov	ebp, esp
	sub	esp, 8
	mov	DWORD PTR [ebp-8], -858993460		; ccccccccH
	mov	DWORD PTR [ebp-4], -858993460		; ccccccccH
	mov	DWORD PTR _this$[ebp], ecx

; 1249 : 		return (this->_Mysize() == 0);

	mov	ecx, DWORD PTR _this$[ebp]
	call	?_Mysize@?$_List_alloc@U?$_List_base_types@PAV?$Goal@VRaven_Bot@@@@V?$allocator@PAV?$Goal@VRaven_Bot@@@@@std@@@std@@@std@@QBEABIXZ ; std::_List_alloc<std::_List_base_types<Goal<Raven_Bot> *,std::allocator<Goal<Raven_Bot> *> > >::_Mysize
	cmp	DWORD PTR [eax], 0
	jne	SHORT $LN3@empty
	mov	DWORD PTR tv71[ebp], 1
	jmp	SHORT $LN4@empty
$LN3@empty:
	mov	DWORD PTR tv71[ebp], 0
$LN4@empty:
	mov	al, BYTE PTR tv71[ebp]

; 1250 : 		}

	add	esp, 8
	cmp	ebp, esp
	call	__RTC_CheckEsp
	mov	esp, ebp
	pop	ebp
	ret	0
?empty@?$list@PAV?$Goal@VRaven_Bot@@@@V?$allocator@PAV?$Goal@VRaven_Bot@@@@@std@@@std@@QBE_NXZ ENDP ; std::list<Goal<Raven_Bot> *,std::allocator<Goal<Raven_Bot> *> >::empty
_TEXT	ENDS
; Function compile flags: /Odtp /RTCsu
; File d:\microsoft visual studio 14.0\vc\include\list
;	COMDAT ?max_size@?$list@PAV?$Goal@VRaven_Bot@@@@V?$allocator@PAV?$Goal@VRaven_Bot@@@@@std@@@std@@QBEIXZ
_TEXT	SEGMENT
$T1 = -5						; size = 1
_this$ = -4						; size = 4
?max_size@?$list@PAV?$Goal@VRaven_Bot@@@@V?$allocator@PAV?$Goal@VRaven_Bot@@@@@std@@@std@@QBEIXZ PROC ; std::list<Goal<Raven_Bot> *,std::allocator<Goal<Raven_Bot> *> >::max_size, COMDAT
; _this$ = ecx

; 1243 : 		{	// return maximum possible length of sequence

	push	ebp
	mov	ebp, esp
	sub	esp, 8
	mov	DWORD PTR [ebp-8], -858993460		; ccccccccH
	mov	DWORD PTR [ebp-4], -858993460		; ccccccccH
	mov	DWORD PTR _this$[ebp], ecx

; 1244 : 		return (this->_Getal().max_size());

	movzx	eax, BYTE PTR $T1[ebp]
	push	eax
	mov	ecx, DWORD PTR _this$[ebp]
	call	?_Getal@?$_List_alloc@U?$_List_base_types@PAV?$Goal@VRaven_Bot@@@@V?$allocator@PAV?$Goal@VRaven_Bot@@@@@std@@@std@@@std@@QBEABU?$_Wrap_alloc@V?$allocator@U?$_List_node@PAV?$Goal@VRaven_Bot@@@@PAX@std@@@std@@@2@XZ ; std::_List_alloc<std::_List_base_types<Goal<Raven_Bot> *,std::allocator<Goal<Raven_Bot> *> > >::_Getal
	mov	ecx, eax
	call	?max_size@?$_Wrap_alloc@V?$allocator@U?$_List_node@PAV?$Goal@VRaven_Bot@@@@PAX@std@@@std@@@std@@QBEIU_Nil@2@@Z ; std::_Wrap_alloc<std::allocator<std::_List_node<Goal<Raven_Bot> *,void *> > >::max_size

; 1245 : 		}

	add	esp, 8
	cmp	ebp, esp
	call	__RTC_CheckEsp
	mov	esp, ebp
	pop	ebp
	ret	0
?max_size@?$list@PAV?$Goal@VRaven_Bot@@@@V?$allocator@PAV?$Goal@VRaven_Bot@@@@@std@@@std@@QBEIXZ ENDP ; std::list<Goal<Raven_Bot> *,std::allocator<Goal<Raven_Bot> *> >::max_size
_TEXT	ENDS
; Function compile flags: /Odtp /RTCsu
; File d:\microsoft visual studio 14.0\vc\include\list
;	COMDAT ?size@?$list@PAV?$Goal@VRaven_Bot@@@@V?$allocator@PAV?$Goal@VRaven_Bot@@@@@std@@@std@@QBEIXZ
_TEXT	SEGMENT
_this$ = -4						; size = 4
?size@?$list@PAV?$Goal@VRaven_Bot@@@@V?$allocator@PAV?$Goal@VRaven_Bot@@@@@std@@@std@@QBEIXZ PROC ; std::list<Goal<Raven_Bot> *,std::allocator<Goal<Raven_Bot> *> >::size, COMDAT
; _this$ = ecx

; 1238 : 		{	// return length of sequence

	push	ebp
	mov	ebp, esp
	push	ecx
	mov	DWORD PTR [ebp-4], -858993460		; ccccccccH
	mov	DWORD PTR _this$[ebp], ecx

; 1239 : 		return (this->_Mysize());

	mov	ecx, DWORD PTR _this$[ebp]
	call	?_Mysize@?$_List_alloc@U?$_List_base_types@PAV?$Goal@VRaven_Bot@@@@V?$allocator@PAV?$Goal@VRaven_Bot@@@@@std@@@std@@@std@@QBEABIXZ ; std::_List_alloc<std::_List_base_types<Goal<Raven_Bot> *,std::allocator<Goal<Raven_Bot> *> > >::_Mysize
	mov	eax, DWORD PTR [eax]

; 1240 : 		}

	add	esp, 4
	cmp	ebp, esp
	call	__RTC_CheckEsp
	mov	esp, ebp
	pop	ebp
	ret	0
?size@?$list@PAV?$Goal@VRaven_Bot@@@@V?$allocator@PAV?$Goal@VRaven_Bot@@@@@std@@@std@@QBEIXZ ENDP ; std::list<Goal<Raven_Bot> *,std::allocator<Goal<Raven_Bot> *> >::size
_TEXT	ENDS
; Function compile flags: /Odtp /RTCsu
; File d:\microsoft visual studio 14.0\vc\include\list
;	COMDAT ?rend@?$list@PAV?$Goal@VRaven_Bot@@@@V?$allocator@PAV?$Goal@VRaven_Bot@@@@@std@@@std@@QBE?AV?$reverse_iterator@V?$_List_const_iterator@V?$_List_val@U?$_List_simple_types@PAV?$Goal@VRaven_Bot@@@@@std@@@std@@@std@@@2@XZ
_TEXT	SEGMENT
$T2 = -20						; size = 4
_this$ = -16						; size = 4
__$EHRec$ = -12						; size = 12
___$ReturnUdt$ = 8					; size = 4
?rend@?$list@PAV?$Goal@VRaven_Bot@@@@V?$allocator@PAV?$Goal@VRaven_Bot@@@@@std@@@std@@QBE?AV?$reverse_iterator@V?$_List_const_iterator@V?$_List_val@U?$_List_simple_types@PAV?$Goal@VRaven_Bot@@@@@std@@@std@@@std@@@2@XZ PROC ; std::list<Goal<Raven_Bot> *,std::allocator<Goal<Raven_Bot> *> >::rend, COMDAT
; _this$ = ecx

; 1185 : 		{	// return iterator for end of reversed nonmutable sequence

	push	ebp
	mov	ebp, esp
	push	-1
	push	__ehhandler$?rend@?$list@PAV?$Goal@VRaven_Bot@@@@V?$allocator@PAV?$Goal@VRaven_Bot@@@@@std@@@std@@QBE?AV?$reverse_iterator@V?$_List_const_iterator@V?$_List_val@U?$_List_simple_types@PAV?$Goal@VRaven_Bot@@@@@std@@@std@@@std@@@2@XZ
	mov	eax, DWORD PTR fs:0
	push	eax
	sub	esp, 8
	mov	DWORD PTR [ebp-20], -858993460		; ccccccccH
	mov	DWORD PTR [ebp-16], -858993460		; ccccccccH
	mov	eax, DWORD PTR ___security_cookie
	xor	eax, ebp
	push	eax
	lea	eax, DWORD PTR __$EHRec$[ebp]
	mov	DWORD PTR fs:0, eax
	mov	DWORD PTR _this$[ebp], ecx

; 1186 : 		return (const_reverse_iterator(begin()));

	sub	esp, 12					; 0000000cH
	mov	eax, esp
	mov	DWORD PTR $T2[ebp], esp
	push	eax
	mov	ecx, DWORD PTR _this$[ebp]
	call	?begin@?$list@PAV?$Goal@VRaven_Bot@@@@V?$allocator@PAV?$Goal@VRaven_Bot@@@@@std@@@std@@QBE?AV?$_List_const_iterator@V?$_List_val@U?$_List_simple_types@PAV?$Goal@VRaven_Bot@@@@@std@@@std@@@2@XZ ; std::list<Goal<Raven_Bot> *,std::allocator<Goal<Raven_Bot> *> >::begin
	mov	ecx, DWORD PTR ___$ReturnUdt$[ebp]
	call	??0?$reverse_iterator@V?$_List_const_iterator@V?$_List_val@U?$_List_simple_types@PAV?$Goal@VRaven_Bot@@@@@std@@@std@@@std@@@std@@QAE@V?$_List_const_iterator@V?$_List_val@U?$_List_simple_types@PAV?$Goal@VRaven_Bot@@@@@std@@@std@@@1@@Z ; std::reverse_iterator<std::_List_const_iterator<std::_List_val<std::_List_simple_types<Goal<Raven_Bot> *> > > >::reverse_iterator<std::_List_const_iterator<std::_List_val<std::_List_simple_types<Goal<Raven_Bot> *> > > >
	mov	eax, DWORD PTR ___$ReturnUdt$[ebp]

; 1187 : 		}

	mov	ecx, DWORD PTR __$EHRec$[ebp]
	mov	DWORD PTR fs:0, ecx
	pop	ecx
	add	esp, 20					; 00000014H
	cmp	ebp, esp
	call	__RTC_CheckEsp
	mov	esp, ebp
	pop	ebp
	ret	4
_TEXT	ENDS
;	COMDAT text$x
text$x	SEGMENT
__ehhandler$?rend@?$list@PAV?$Goal@VRaven_Bot@@@@V?$allocator@PAV?$Goal@VRaven_Bot@@@@@std@@@std@@QBE?AV?$reverse_iterator@V?$_List_const_iterator@V?$_List_val@U?$_List_simple_types@PAV?$Goal@VRaven_Bot@@@@@std@@@std@@@std@@@2@XZ:
	mov	edx, DWORD PTR [esp+8]
	lea	eax, DWORD PTR [edx+12]
	mov	ecx, DWORD PTR [edx-12]
	xor	ecx, eax
	call	@__security_check_cookie@4
	mov	eax, OFFSET __ehfuncinfo$?rend@?$list@PAV?$Goal@VRaven_Bot@@@@V?$allocator@PAV?$Goal@VRaven_Bot@@@@@std@@@std@@QBE?AV?$reverse_iterator@V?$_List_const_iterator@V?$_List_val@U?$_List_simple_types@PAV?$Goal@VRaven_Bot@@@@@std@@@std@@@std@@@2@XZ
	jmp	___CxxFrameHandler3
text$x	ENDS
?rend@?$list@PAV?$Goal@VRaven_Bot@@@@V?$allocator@PAV?$Goal@VRaven_Bot@@@@@std@@@std@@QBE?AV?$reverse_iterator@V?$_List_const_iterator@V?$_List_val@U?$_List_simple_types@PAV?$Goal@VRaven_Bot@@@@@std@@@std@@@std@@@2@XZ ENDP ; std::list<Goal<Raven_Bot> *,std::allocator<Goal<Raven_Bot> *> >::rend
; Function compile flags: /Odtp /RTCsu
; File d:\microsoft visual studio 14.0\vc\include\list
;	COMDAT ?rbegin@?$list@PAV?$Goal@VRaven_Bot@@@@V?$allocator@PAV?$Goal@VRaven_Bot@@@@@std@@@std@@QBE?AV?$reverse_iterator@V?$_List_const_iterator@V?$_List_val@U?$_List_simple_types@PAV?$Goal@VRaven_Bot@@@@@std@@@std@@@std@@@2@XZ
_TEXT	SEGMENT
$T2 = -20						; size = 4
_this$ = -16						; size = 4
__$EHRec$ = -12						; size = 12
___$ReturnUdt$ = 8					; size = 4
?rbegin@?$list@PAV?$Goal@VRaven_Bot@@@@V?$allocator@PAV?$Goal@VRaven_Bot@@@@@std@@@std@@QBE?AV?$reverse_iterator@V?$_List_const_iterator@V?$_List_val@U?$_List_simple_types@PAV?$Goal@VRaven_Bot@@@@@std@@@std@@@std@@@2@XZ PROC ; std::list<Goal<Raven_Bot> *,std::allocator<Goal<Raven_Bot> *> >::rbegin, COMDAT
; _this$ = ecx

; 1175 : 		{	// return iterator for beginning of reversed nonmutable sequence

	push	ebp
	mov	ebp, esp
	push	-1
	push	__ehhandler$?rbegin@?$list@PAV?$Goal@VRaven_Bot@@@@V?$allocator@PAV?$Goal@VRaven_Bot@@@@@std@@@std@@QBE?AV?$reverse_iterator@V?$_List_const_iterator@V?$_List_val@U?$_List_simple_types@PAV?$Goal@VRaven_Bot@@@@@std@@@std@@@std@@@2@XZ
	mov	eax, DWORD PTR fs:0
	push	eax
	sub	esp, 8
	mov	DWORD PTR [ebp-20], -858993460		; ccccccccH
	mov	DWORD PTR [ebp-16], -858993460		; ccccccccH
	mov	eax, DWORD PTR ___security_cookie
	xor	eax, ebp
	push	eax
	lea	eax, DWORD PTR __$EHRec$[ebp]
	mov	DWORD PTR fs:0, eax
	mov	DWORD PTR _this$[ebp], ecx

; 1176 : 		return (const_reverse_iterator(end()));

	sub	esp, 12					; 0000000cH
	mov	eax, esp
	mov	DWORD PTR $T2[ebp], esp
	push	eax
	mov	ecx, DWORD PTR _this$[ebp]
	call	?end@?$list@PAV?$Goal@VRaven_Bot@@@@V?$allocator@PAV?$Goal@VRaven_Bot@@@@@std@@@std@@QBE?AV?$_List_const_iterator@V?$_List_val@U?$_List_simple_types@PAV?$Goal@VRaven_Bot@@@@@std@@@std@@@2@XZ ; std::list<Goal<Raven_Bot> *,std::allocator<Goal<Raven_Bot> *> >::end
	mov	ecx, DWORD PTR ___$ReturnUdt$[ebp]
	call	??0?$reverse_iterator@V?$_List_const_iterator@V?$_List_val@U?$_List_simple_types@PAV?$Goal@VRaven_Bot@@@@@std@@@std@@@std@@@std@@QAE@V?$_List_const_iterator@V?$_List_val@U?$_List_simple_types@PAV?$Goal@VRaven_Bot@@@@@std@@@std@@@1@@Z ; std::reverse_iterator<std::_List_const_iterator<std::_List_val<std::_List_simple_types<Goal<Raven_Bot> *> > > >::reverse_iterator<std::_List_const_iterator<std::_List_val<std::_List_simple_types<Goal<Raven_Bot> *> > > >
	mov	eax, DWORD PTR ___$ReturnUdt$[ebp]

; 1177 : 		}

	mov	ecx, DWORD PTR __$EHRec$[ebp]
	mov	DWORD PTR fs:0, ecx
	pop	ecx
	add	esp, 20					; 00000014H
	cmp	ebp, esp
	call	__RTC_CheckEsp
	mov	esp, ebp
	pop	ebp
	ret	4
_TEXT	ENDS
;	COMDAT text$x
text$x	SEGMENT
__ehhandler$?rbegin@?$list@PAV?$Goal@VRaven_Bot@@@@V?$allocator@PAV?$Goal@VRaven_Bot@@@@@std@@@std@@QBE?AV?$reverse_iterator@V?$_List_const_iterator@V?$_List_val@U?$_List_simple_types@PAV?$Goal@VRaven_Bot@@@@@std@@@std@@@std@@@2@XZ:
	mov	edx, DWORD PTR [esp+8]
	lea	eax, DWORD PTR [edx+12]
	mov	ecx, DWORD PTR [edx-12]
	xor	ecx, eax
	call	@__security_check_cookie@4
	mov	eax, OFFSET __ehfuncinfo$?rbegin@?$list@PAV?$Goal@VRaven_Bot@@@@V?$allocator@PAV?$Goal@VRaven_Bot@@@@@std@@@std@@QBE?AV?$reverse_iterator@V?$_List_const_iterator@V?$_List_val@U?$_List_simple_types@PAV?$Goal@VRaven_Bot@@@@@std@@@std@@@std@@@2@XZ
	jmp	___CxxFrameHandler3
text$x	ENDS
?rbegin@?$list@PAV?$Goal@VRaven_Bot@@@@V?$allocator@PAV?$Goal@VRaven_Bot@@@@@std@@@std@@QBE?AV?$reverse_iterator@V?$_List_const_iterator@V?$_List_val@U?$_List_simple_types@PAV?$Goal@VRaven_Bot@@@@@std@@@std@@@std@@@2@XZ ENDP ; std::list<Goal<Raven_Bot> *,std::allocator<Goal<Raven_Bot> *> >::rbegin
; Function compile flags: /Odtp /RTCsu
; File d:\microsoft visual studio 14.0\vc\include\list
;	COMDAT ?_Make_iter@?$list@PAV?$Goal@VRaven_Bot@@@@V?$allocator@PAV?$Goal@VRaven_Bot@@@@@std@@@std@@QBE?AV?$_List_iterator@V?$_List_val@U?$_List_simple_types@PAV?$Goal@VRaven_Bot@@@@@std@@@std@@@2@V?$_List_const_iterator@V?$_List_val@U?$_List_simple_types@PAV?$Goal@VRaven_Bot@@@@@std@@@std@@@2@@Z
_TEXT	SEGMENT
_this$ = -16						; size = 4
__$EHRec$ = -12						; size = 12
___$ReturnUdt$ = 8					; size = 4
__Where$ = 12						; size = 12
?_Make_iter@?$list@PAV?$Goal@VRaven_Bot@@@@V?$allocator@PAV?$Goal@VRaven_Bot@@@@@std@@@std@@QBE?AV?$_List_iterator@V?$_List_val@U?$_List_simple_types@PAV?$Goal@VRaven_Bot@@@@@std@@@std@@@2@V?$_List_const_iterator@V?$_List_val@U?$_List_simple_types@PAV?$Goal@VRaven_Bot@@@@@std@@@std@@@2@@Z PROC ; std::list<Goal<Raven_Bot> *,std::allocator<Goal<Raven_Bot> *> >::_Make_iter, COMDAT
; _this$ = ecx

; 1160 : 		{	// make iterator from const_iterator

	push	ebp
	mov	ebp, esp
	push	-1
	push	__ehhandler$?_Make_iter@?$list@PAV?$Goal@VRaven_Bot@@@@V?$allocator@PAV?$Goal@VRaven_Bot@@@@@std@@@std@@QBE?AV?$_List_iterator@V?$_List_val@U?$_List_simple_types@PAV?$Goal@VRaven_Bot@@@@@std@@@std@@@2@V?$_List_const_iterator@V?$_List_val@U?$_List_simple_types@PAV?$Goal@VRaven_Bot@@@@@std@@@std@@@2@@Z
	mov	eax, DWORD PTR fs:0
	push	eax
	push	ecx
	mov	DWORD PTR [ebp-16], -858993460		; ccccccccH
	mov	eax, DWORD PTR ___security_cookie
	xor	eax, ebp
	push	eax
	lea	eax, DWORD PTR __$EHRec$[ebp]
	mov	DWORD PTR fs:0, eax
	mov	DWORD PTR _this$[ebp], ecx

; 1161 : 		return (iterator(_Where._Ptr, &this->_Get_data()));

	mov	ecx, DWORD PTR _this$[ebp]
	call	?_Get_data@?$_List_alloc@U?$_List_base_types@PAV?$Goal@VRaven_Bot@@@@V?$allocator@PAV?$Goal@VRaven_Bot@@@@@std@@@std@@@std@@QBEABV?$_List_val@U?$_List_simple_types@PAV?$Goal@VRaven_Bot@@@@@std@@@2@XZ ; std::_List_alloc<std::_List_base_types<Goal<Raven_Bot> *,std::allocator<Goal<Raven_Bot> *> > >::_Get_data
	push	eax
	mov	eax, DWORD PTR __Where$[ebp+8]
	push	eax
	mov	ecx, DWORD PTR ___$ReturnUdt$[ebp]
	call	??0?$_List_iterator@V?$_List_val@U?$_List_simple_types@PAV?$Goal@VRaven_Bot@@@@@std@@@std@@@std@@QAE@PAU?$_List_node@PAV?$Goal@VRaven_Bot@@@@PAX@1@PBV?$_List_val@U?$_List_simple_types@PAV?$Goal@VRaven_Bot@@@@@std@@@1@@Z ; std::_List_iterator<std::_List_val<std::_List_simple_types<Goal<Raven_Bot> *> > >::_List_iterator<std::_List_val<std::_List_simple_types<Goal<Raven_Bot> *> > >
	lea	ecx, DWORD PTR __Where$[ebp]
	call	??1?$_List_const_iterator@V?$_List_val@U?$_List_simple_types@PAV?$Goal@VRaven_Bot@@@@@std@@@std@@@std@@QAE@XZ
	mov	eax, DWORD PTR ___$ReturnUdt$[ebp]

; 1162 : 		}

	mov	ecx, DWORD PTR __$EHRec$[ebp]
	mov	DWORD PTR fs:0, ecx
	pop	ecx
	add	esp, 16					; 00000010H
	cmp	ebp, esp
	call	__RTC_CheckEsp
	mov	esp, ebp
	pop	ebp
	ret	16					; 00000010H
_TEXT	ENDS
;	COMDAT text$x
text$x	SEGMENT
__ehhandler$?_Make_iter@?$list@PAV?$Goal@VRaven_Bot@@@@V?$allocator@PAV?$Goal@VRaven_Bot@@@@@std@@@std@@QBE?AV?$_List_iterator@V?$_List_val@U?$_List_simple_types@PAV?$Goal@VRaven_Bot@@@@@std@@@std@@@2@V?$_List_const_iterator@V?$_List_val@U?$_List_simple_types@PAV?$Goal@VRaven_Bot@@@@@std@@@std@@@2@@Z:
	mov	edx, DWORD PTR [esp+8]
	lea	eax, DWORD PTR [edx+12]
	mov	ecx, DWORD PTR [edx-8]
	xor	ecx, eax
	call	@__security_check_cookie@4
	mov	eax, OFFSET __ehfuncinfo$?_Make_iter@?$list@PAV?$Goal@VRaven_Bot@@@@V?$allocator@PAV?$Goal@VRaven_Bot@@@@@std@@@std@@QBE?AV?$_List_iterator@V?$_List_val@U?$_List_simple_types@PAV?$Goal@VRaven_Bot@@@@@std@@@std@@@2@V?$_List_const_iterator@V?$_List_val@U?$_List_simple_types@PAV?$Goal@VRaven_Bot@@@@@std@@@std@@@2@@Z
	jmp	___CxxFrameHandler3
text$x	ENDS
?_Make_iter@?$list@PAV?$Goal@VRaven_Bot@@@@V?$allocator@PAV?$Goal@VRaven_Bot@@@@@std@@@std@@QBE?AV?$_List_iterator@V?$_List_val@U?$_List_simple_types@PAV?$Goal@VRaven_Bot@@@@@std@@@std@@@2@V?$_List_const_iterator@V?$_List_val@U?$_List_simple_types@PAV?$Goal@VRaven_Bot@@@@@std@@@std@@@2@@Z ENDP ; std::list<Goal<Raven_Bot> *,std::allocator<Goal<Raven_Bot> *> >::_Make_iter
; Function compile flags: /Odtp /RTCsu
; File d:\microsoft visual studio 14.0\vc\include\list
;	COMDAT ?_Unchecked_begin@?$list@PAV?$Goal@VRaven_Bot@@@@V?$allocator@PAV?$Goal@VRaven_Bot@@@@@std@@@std@@QAE?AV?$_List_unchecked_iterator@V?$_List_val@U?$_List_simple_types@PAV?$Goal@VRaven_Bot@@@@@std@@@std@@@2@XZ
_TEXT	SEGMENT
_this$ = -4						; size = 4
___$ReturnUdt$ = 8					; size = 4
?_Unchecked_begin@?$list@PAV?$Goal@VRaven_Bot@@@@V?$allocator@PAV?$Goal@VRaven_Bot@@@@@std@@@std@@QAE?AV?$_List_unchecked_iterator@V?$_List_val@U?$_List_simple_types@PAV?$Goal@VRaven_Bot@@@@@std@@@std@@@2@XZ PROC ; std::list<Goal<Raven_Bot> *,std::allocator<Goal<Raven_Bot> *> >::_Unchecked_begin, COMDAT
; _this$ = ecx

; 1137 : 		{	// return iterator for beginning of mutable sequence

	push	ebp
	mov	ebp, esp
	push	ecx
	mov	DWORD PTR [ebp-4], -858993460		; ccccccccH
	mov	DWORD PTR _this$[ebp], ecx

; 1138 : 		return (_Unchecked_iterator(this->_Nextnode(this->_Myhead()),

	mov	ecx, DWORD PTR _this$[ebp]
	call	?_Get_data@?$_List_alloc@U?$_List_base_types@PAV?$Goal@VRaven_Bot@@@@V?$allocator@PAV?$Goal@VRaven_Bot@@@@@std@@@std@@@std@@QAEAAV?$_List_val@U?$_List_simple_types@PAV?$Goal@VRaven_Bot@@@@@std@@@2@XZ ; std::_List_alloc<std::_List_base_types<Goal<Raven_Bot> *,std::allocator<Goal<Raven_Bot> *> > >::_Get_data
	push	eax
	mov	ecx, DWORD PTR _this$[ebp]
	call	?_Myhead@?$_List_alloc@U?$_List_base_types@PAV?$Goal@VRaven_Bot@@@@V?$allocator@PAV?$Goal@VRaven_Bot@@@@@std@@@std@@@std@@QAEAAPAU?$_List_node@PAV?$Goal@VRaven_Bot@@@@PAX@2@XZ ; std::_List_alloc<std::_List_base_types<Goal<Raven_Bot> *,std::allocator<Goal<Raven_Bot> *> > >::_Myhead
	mov	eax, DWORD PTR [eax]
	push	eax
	call	?_Nextnode@?$_List_alloc@U?$_List_base_types@PAV?$Goal@VRaven_Bot@@@@V?$allocator@PAV?$Goal@VRaven_Bot@@@@@std@@@std@@@std@@SAAAPAU?$_List_node@PAV?$Goal@VRaven_Bot@@@@PAX@2@PAU32@@Z ; std::_List_alloc<std::_List_base_types<Goal<Raven_Bot> *,std::allocator<Goal<Raven_Bot> *> > >::_Nextnode
	add	esp, 4
	mov	ecx, DWORD PTR [eax]
	push	ecx
	mov	ecx, DWORD PTR ___$ReturnUdt$[ebp]
	call	??0?$_List_unchecked_iterator@V?$_List_val@U?$_List_simple_types@PAV?$Goal@VRaven_Bot@@@@@std@@@std@@@std@@QAE@PAU?$_List_node@PAV?$Goal@VRaven_Bot@@@@PAX@1@PBV?$_List_val@U?$_List_simple_types@PAV?$Goal@VRaven_Bot@@@@@std@@@1@@Z ; std::_List_unchecked_iterator<std::_List_val<std::_List_simple_types<Goal<Raven_Bot> *> > >::_List_unchecked_iterator<std::_List_val<std::_List_simple_types<Goal<Raven_Bot> *> > >
	mov	eax, DWORD PTR ___$ReturnUdt$[ebp]

; 1139 : 			&this->_Get_data()));
; 1140 : 		}

	add	esp, 4
	cmp	ebp, esp
	call	__RTC_CheckEsp
	mov	esp, ebp
	pop	ebp
	ret	4
?_Unchecked_begin@?$list@PAV?$Goal@VRaven_Bot@@@@V?$allocator@PAV?$Goal@VRaven_Bot@@@@@std@@@std@@QAE?AV?$_List_unchecked_iterator@V?$_List_val@U?$_List_simple_types@PAV?$Goal@VRaven_Bot@@@@@std@@@std@@@2@XZ ENDP ; std::list<Goal<Raven_Bot> *,std::allocator<Goal<Raven_Bot> *> >::_Unchecked_begin
_TEXT	ENDS
; Function compile flags: /Odtp /RTCsu
; File d:\microsoft visual studio 14.0\vc\include\list
;	COMDAT ?end@?$list@PAV?$Goal@VRaven_Bot@@@@V?$allocator@PAV?$Goal@VRaven_Bot@@@@@std@@@std@@QBE?AV?$_List_const_iterator@V?$_List_val@U?$_List_simple_types@PAV?$Goal@VRaven_Bot@@@@@std@@@std@@@2@XZ
_TEXT	SEGMENT
_this$ = -16						; size = 4
__$EHRec$ = -12						; size = 12
___$ReturnUdt$ = 8					; size = 4
?end@?$list@PAV?$Goal@VRaven_Bot@@@@V?$allocator@PAV?$Goal@VRaven_Bot@@@@@std@@@std@@QBE?AV?$_List_const_iterator@V?$_List_val@U?$_List_simple_types@PAV?$Goal@VRaven_Bot@@@@@std@@@std@@@2@XZ PROC ; std::list<Goal<Raven_Bot> *,std::allocator<Goal<Raven_Bot> *> >::end, COMDAT
; _this$ = ecx

; 1132 : 		{	// return iterator for end of nonmutable sequence

	push	ebp
	mov	ebp, esp
	push	-1
	push	__ehhandler$?end@?$list@PAV?$Goal@VRaven_Bot@@@@V?$allocator@PAV?$Goal@VRaven_Bot@@@@@std@@@std@@QBE?AV?$_List_const_iterator@V?$_List_val@U?$_List_simple_types@PAV?$Goal@VRaven_Bot@@@@@std@@@std@@@2@XZ
	mov	eax, DWORD PTR fs:0
	push	eax
	push	ecx
	mov	DWORD PTR [ebp-16], -858993460		; ccccccccH
	mov	eax, DWORD PTR ___security_cookie
	xor	eax, ebp
	push	eax
	lea	eax, DWORD PTR __$EHRec$[ebp]
	mov	DWORD PTR fs:0, eax
	mov	DWORD PTR _this$[ebp], ecx

; 1133 : 		return (const_iterator(this->_Myhead(), &this->_Get_data()));

	mov	ecx, DWORD PTR _this$[ebp]
	call	?_Get_data@?$_List_alloc@U?$_List_base_types@PAV?$Goal@VRaven_Bot@@@@V?$allocator@PAV?$Goal@VRaven_Bot@@@@@std@@@std@@@std@@QBEABV?$_List_val@U?$_List_simple_types@PAV?$Goal@VRaven_Bot@@@@@std@@@2@XZ ; std::_List_alloc<std::_List_base_types<Goal<Raven_Bot> *,std::allocator<Goal<Raven_Bot> *> > >::_Get_data
	push	eax
	mov	ecx, DWORD PTR _this$[ebp]
	call	?_Myhead@?$_List_alloc@U?$_List_base_types@PAV?$Goal@VRaven_Bot@@@@V?$allocator@PAV?$Goal@VRaven_Bot@@@@@std@@@std@@@std@@QBEABQAU?$_List_node@PAV?$Goal@VRaven_Bot@@@@PAX@2@XZ ; std::_List_alloc<std::_List_base_types<Goal<Raven_Bot> *,std::allocator<Goal<Raven_Bot> *> > >::_Myhead
	mov	eax, DWORD PTR [eax]
	push	eax
	mov	ecx, DWORD PTR ___$ReturnUdt$[ebp]
	call	??0?$_List_const_iterator@V?$_List_val@U?$_List_simple_types@PAV?$Goal@VRaven_Bot@@@@@std@@@std@@@std@@QAE@PAU?$_List_node@PAV?$Goal@VRaven_Bot@@@@PAX@1@PBV?$_List_val@U?$_List_simple_types@PAV?$Goal@VRaven_Bot@@@@@std@@@1@@Z ; std::_List_const_iterator<std::_List_val<std::_List_simple_types<Goal<Raven_Bot> *> > >::_List_const_iterator<std::_List_val<std::_List_simple_types<Goal<Raven_Bot> *> > >
	mov	eax, DWORD PTR ___$ReturnUdt$[ebp]

; 1134 : 		}

	mov	ecx, DWORD PTR __$EHRec$[ebp]
	mov	DWORD PTR fs:0, ecx
	pop	ecx
	add	esp, 16					; 00000010H
	cmp	ebp, esp
	call	__RTC_CheckEsp
	mov	esp, ebp
	pop	ebp
	ret	4
_TEXT	ENDS
;	COMDAT text$x
text$x	SEGMENT
__ehhandler$?end@?$list@PAV?$Goal@VRaven_Bot@@@@V?$allocator@PAV?$Goal@VRaven_Bot@@@@@std@@@std@@QBE?AV?$_List_const_iterator@V?$_List_val@U?$_List_simple_types@PAV?$Goal@VRaven_Bot@@@@@std@@@std@@@2@XZ:
	mov	edx, DWORD PTR [esp+8]
	lea	eax, DWORD PTR [edx+12]
	mov	ecx, DWORD PTR [edx-8]
	xor	ecx, eax
	call	@__security_check_cookie@4
	mov	eax, OFFSET __ehfuncinfo$?end@?$list@PAV?$Goal@VRaven_Bot@@@@V?$allocator@PAV?$Goal@VRaven_Bot@@@@@std@@@std@@QBE?AV?$_List_const_iterator@V?$_List_val@U?$_List_simple_types@PAV?$Goal@VRaven_Bot@@@@@std@@@std@@@2@XZ
	jmp	___CxxFrameHandler3
text$x	ENDS
?end@?$list@PAV?$Goal@VRaven_Bot@@@@V?$allocator@PAV?$Goal@VRaven_Bot@@@@@std@@@std@@QBE?AV?$_List_const_iterator@V?$_List_val@U?$_List_simple_types@PAV?$Goal@VRaven_Bot@@@@@std@@@std@@@2@XZ ENDP ; std::list<Goal<Raven_Bot> *,std::allocator<Goal<Raven_Bot> *> >::end
; Function compile flags: /Odtp /RTCsu
; File d:\microsoft visual studio 14.0\vc\include\list
;	COMDAT ?end@?$list@PAV?$Goal@VRaven_Bot@@@@V?$allocator@PAV?$Goal@VRaven_Bot@@@@@std@@@std@@QAE?AV?$_List_iterator@V?$_List_val@U?$_List_simple_types@PAV?$Goal@VRaven_Bot@@@@@std@@@std@@@2@XZ
_TEXT	SEGMENT
_this$ = -16						; size = 4
__$EHRec$ = -12						; size = 12
___$ReturnUdt$ = 8					; size = 4
?end@?$list@PAV?$Goal@VRaven_Bot@@@@V?$allocator@PAV?$Goal@VRaven_Bot@@@@@std@@@std@@QAE?AV?$_List_iterator@V?$_List_val@U?$_List_simple_types@PAV?$Goal@VRaven_Bot@@@@@std@@@std@@@2@XZ PROC ; std::list<Goal<Raven_Bot> *,std::allocator<Goal<Raven_Bot> *> >::end, COMDAT
; _this$ = ecx

; 1127 : 		{	// return iterator for end of mutable sequence

	push	ebp
	mov	ebp, esp
	push	-1
	push	__ehhandler$?end@?$list@PAV?$Goal@VRaven_Bot@@@@V?$allocator@PAV?$Goal@VRaven_Bot@@@@@std@@@std@@QAE?AV?$_List_iterator@V?$_List_val@U?$_List_simple_types@PAV?$Goal@VRaven_Bot@@@@@std@@@std@@@2@XZ
	mov	eax, DWORD PTR fs:0
	push	eax
	push	ecx
	mov	DWORD PTR [ebp-16], -858993460		; ccccccccH
	mov	eax, DWORD PTR ___security_cookie
	xor	eax, ebp
	push	eax
	lea	eax, DWORD PTR __$EHRec$[ebp]
	mov	DWORD PTR fs:0, eax
	mov	DWORD PTR _this$[ebp], ecx

; 1128 : 		return (iterator(this->_Myhead(), &this->_Get_data()));

	mov	ecx, DWORD PTR _this$[ebp]
	call	?_Get_data@?$_List_alloc@U?$_List_base_types@PAV?$Goal@VRaven_Bot@@@@V?$allocator@PAV?$Goal@VRaven_Bot@@@@@std@@@std@@@std@@QAEAAV?$_List_val@U?$_List_simple_types@PAV?$Goal@VRaven_Bot@@@@@std@@@2@XZ ; std::_List_alloc<std::_List_base_types<Goal<Raven_Bot> *,std::allocator<Goal<Raven_Bot> *> > >::_Get_data
	push	eax
	mov	ecx, DWORD PTR _this$[ebp]
	call	?_Myhead@?$_List_alloc@U?$_List_base_types@PAV?$Goal@VRaven_Bot@@@@V?$allocator@PAV?$Goal@VRaven_Bot@@@@@std@@@std@@@std@@QAEAAPAU?$_List_node@PAV?$Goal@VRaven_Bot@@@@PAX@2@XZ ; std::_List_alloc<std::_List_base_types<Goal<Raven_Bot> *,std::allocator<Goal<Raven_Bot> *> > >::_Myhead
	mov	eax, DWORD PTR [eax]
	push	eax
	mov	ecx, DWORD PTR ___$ReturnUdt$[ebp]
	call	??0?$_List_iterator@V?$_List_val@U?$_List_simple_types@PAV?$Goal@VRaven_Bot@@@@@std@@@std@@@std@@QAE@PAU?$_List_node@PAV?$Goal@VRaven_Bot@@@@PAX@1@PBV?$_List_val@U?$_List_simple_types@PAV?$Goal@VRaven_Bot@@@@@std@@@1@@Z ; std::_List_iterator<std::_List_val<std::_List_simple_types<Goal<Raven_Bot> *> > >::_List_iterator<std::_List_val<std::_List_simple_types<Goal<Raven_Bot> *> > >
	mov	eax, DWORD PTR ___$ReturnUdt$[ebp]

; 1129 : 		}

	mov	ecx, DWORD PTR __$EHRec$[ebp]
	mov	DWORD PTR fs:0, ecx
	pop	ecx
	add	esp, 16					; 00000010H
	cmp	ebp, esp
	call	__RTC_CheckEsp
	mov	esp, ebp
	pop	ebp
	ret	4
_TEXT	ENDS
;	COMDAT text$x
text$x	SEGMENT
__ehhandler$?end@?$list@PAV?$Goal@VRaven_Bot@@@@V?$allocator@PAV?$Goal@VRaven_Bot@@@@@std@@@std@@QAE?AV?$_List_iterator@V?$_List_val@U?$_List_simple_types@PAV?$Goal@VRaven_Bot@@@@@std@@@std@@@2@XZ:
	mov	edx, DWORD PTR [esp+8]
	lea	eax, DWORD PTR [edx+12]
	mov	ecx, DWORD PTR [edx-8]
	xor	ecx, eax
	call	@__security_check_cookie@4
	mov	eax, OFFSET __ehfuncinfo$?end@?$list@PAV?$Goal@VRaven_Bot@@@@V?$allocator@PAV?$Goal@VRaven_Bot@@@@@std@@@std@@QAE?AV?$_List_iterator@V?$_List_val@U?$_List_simple_types@PAV?$Goal@VRaven_Bot@@@@@std@@@std@@@2@XZ
	jmp	___CxxFrameHandler3
text$x	ENDS
?end@?$list@PAV?$Goal@VRaven_Bot@@@@V?$allocator@PAV?$Goal@VRaven_Bot@@@@@std@@@std@@QAE?AV?$_List_iterator@V?$_List_val@U?$_List_simple_types@PAV?$Goal@VRaven_Bot@@@@@std@@@std@@@2@XZ ENDP ; std::list<Goal<Raven_Bot> *,std::allocator<Goal<Raven_Bot> *> >::end
; Function compile flags: /Odtp /RTCsu
; File d:\microsoft visual studio 14.0\vc\include\list
;	COMDAT ?begin@?$list@PAV?$Goal@VRaven_Bot@@@@V?$allocator@PAV?$Goal@VRaven_Bot@@@@@std@@@std@@QBE?AV?$_List_const_iterator@V?$_List_val@U?$_List_simple_types@PAV?$Goal@VRaven_Bot@@@@@std@@@std@@@2@XZ
_TEXT	SEGMENT
_this$ = -16						; size = 4
__$EHRec$ = -12						; size = 12
___$ReturnUdt$ = 8					; size = 4
?begin@?$list@PAV?$Goal@VRaven_Bot@@@@V?$allocator@PAV?$Goal@VRaven_Bot@@@@@std@@@std@@QBE?AV?$_List_const_iterator@V?$_List_val@U?$_List_simple_types@PAV?$Goal@VRaven_Bot@@@@@std@@@std@@@2@XZ PROC ; std::list<Goal<Raven_Bot> *,std::allocator<Goal<Raven_Bot> *> >::begin, COMDAT
; _this$ = ecx

; 1121 : 		{	// return iterator for beginning of nonmutable sequence

	push	ebp
	mov	ebp, esp
	push	-1
	push	__ehhandler$?begin@?$list@PAV?$Goal@VRaven_Bot@@@@V?$allocator@PAV?$Goal@VRaven_Bot@@@@@std@@@std@@QBE?AV?$_List_const_iterator@V?$_List_val@U?$_List_simple_types@PAV?$Goal@VRaven_Bot@@@@@std@@@std@@@2@XZ
	mov	eax, DWORD PTR fs:0
	push	eax
	push	ecx
	mov	DWORD PTR [ebp-16], -858993460		; ccccccccH
	mov	eax, DWORD PTR ___security_cookie
	xor	eax, ebp
	push	eax
	lea	eax, DWORD PTR __$EHRec$[ebp]
	mov	DWORD PTR fs:0, eax
	mov	DWORD PTR _this$[ebp], ecx

; 1122 : 		return (const_iterator(this->_Nextnode(this->_Myhead()),

	mov	ecx, DWORD PTR _this$[ebp]
	call	?_Get_data@?$_List_alloc@U?$_List_base_types@PAV?$Goal@VRaven_Bot@@@@V?$allocator@PAV?$Goal@VRaven_Bot@@@@@std@@@std@@@std@@QBEABV?$_List_val@U?$_List_simple_types@PAV?$Goal@VRaven_Bot@@@@@std@@@2@XZ ; std::_List_alloc<std::_List_base_types<Goal<Raven_Bot> *,std::allocator<Goal<Raven_Bot> *> > >::_Get_data
	push	eax
	mov	ecx, DWORD PTR _this$[ebp]
	call	?_Myhead@?$_List_alloc@U?$_List_base_types@PAV?$Goal@VRaven_Bot@@@@V?$allocator@PAV?$Goal@VRaven_Bot@@@@@std@@@std@@@std@@QBEABQAU?$_List_node@PAV?$Goal@VRaven_Bot@@@@PAX@2@XZ ; std::_List_alloc<std::_List_base_types<Goal<Raven_Bot> *,std::allocator<Goal<Raven_Bot> *> > >::_Myhead
	mov	eax, DWORD PTR [eax]
	push	eax
	call	?_Nextnode@?$_List_alloc@U?$_List_base_types@PAV?$Goal@VRaven_Bot@@@@V?$allocator@PAV?$Goal@VRaven_Bot@@@@@std@@@std@@@std@@SAAAPAU?$_List_node@PAV?$Goal@VRaven_Bot@@@@PAX@2@PAU32@@Z ; std::_List_alloc<std::_List_base_types<Goal<Raven_Bot> *,std::allocator<Goal<Raven_Bot> *> > >::_Nextnode
	add	esp, 4
	mov	ecx, DWORD PTR [eax]
	push	ecx
	mov	ecx, DWORD PTR ___$ReturnUdt$[ebp]
	call	??0?$_List_const_iterator@V?$_List_val@U?$_List_simple_types@PAV?$Goal@VRaven_Bot@@@@@std@@@std@@@std@@QAE@PAU?$_List_node@PAV?$Goal@VRaven_Bot@@@@PAX@1@PBV?$_List_val@U?$_List_simple_types@PAV?$Goal@VRaven_Bot@@@@@std@@@1@@Z ; std::_List_const_iterator<std::_List_val<std::_List_simple_types<Goal<Raven_Bot> *> > >::_List_const_iterator<std::_List_val<std::_List_simple_types<Goal<Raven_Bot> *> > >
	mov	eax, DWORD PTR ___$ReturnUdt$[ebp]

; 1123 : 			&this->_Get_data()));
; 1124 : 		}

	mov	ecx, DWORD PTR __$EHRec$[ebp]
	mov	DWORD PTR fs:0, ecx
	pop	ecx
	add	esp, 16					; 00000010H
	cmp	ebp, esp
	call	__RTC_CheckEsp
	mov	esp, ebp
	pop	ebp
	ret	4
_TEXT	ENDS
;	COMDAT text$x
text$x	SEGMENT
__ehhandler$?begin@?$list@PAV?$Goal@VRaven_Bot@@@@V?$allocator@PAV?$Goal@VRaven_Bot@@@@@std@@@std@@QBE?AV?$_List_const_iterator@V?$_List_val@U?$_List_simple_types@PAV?$Goal@VRaven_Bot@@@@@std@@@std@@@2@XZ:
	mov	edx, DWORD PTR [esp+8]
	lea	eax, DWORD PTR [edx+12]
	mov	ecx, DWORD PTR [edx-8]
	xor	ecx, eax
	call	@__security_check_cookie@4
	mov	eax, OFFSET __ehfuncinfo$?begin@?$list@PAV?$Goal@VRaven_Bot@@@@V?$allocator@PAV?$Goal@VRaven_Bot@@@@@std@@@std@@QBE?AV?$_List_const_iterator@V?$_List_val@U?$_List_simple_types@PAV?$Goal@VRaven_Bot@@@@@std@@@std@@@2@XZ
	jmp	___CxxFrameHandler3
text$x	ENDS
?begin@?$list@PAV?$Goal@VRaven_Bot@@@@V?$allocator@PAV?$Goal@VRaven_Bot@@@@@std@@@std@@QBE?AV?$_List_const_iterator@V?$_List_val@U?$_List_simple_types@PAV?$Goal@VRaven_Bot@@@@@std@@@std@@@2@XZ ENDP ; std::list<Goal<Raven_Bot> *,std::allocator<Goal<Raven_Bot> *> >::begin
; Function compile flags: /Odtp /RTCsu
; File d:\microsoft visual studio 14.0\vc\include\list
;	COMDAT ?begin@?$list@PAV?$Goal@VRaven_Bot@@@@V?$allocator@PAV?$Goal@VRaven_Bot@@@@@std@@@std@@QAE?AV?$_List_iterator@V?$_List_val@U?$_List_simple_types@PAV?$Goal@VRaven_Bot@@@@@std@@@std@@@2@XZ
_TEXT	SEGMENT
_this$ = -16						; size = 4
__$EHRec$ = -12						; size = 12
___$ReturnUdt$ = 8					; size = 4
?begin@?$list@PAV?$Goal@VRaven_Bot@@@@V?$allocator@PAV?$Goal@VRaven_Bot@@@@@std@@@std@@QAE?AV?$_List_iterator@V?$_List_val@U?$_List_simple_types@PAV?$Goal@VRaven_Bot@@@@@std@@@std@@@2@XZ PROC ; std::list<Goal<Raven_Bot> *,std::allocator<Goal<Raven_Bot> *> >::begin, COMDAT
; _this$ = ecx

; 1115 : 		{	// return iterator for beginning of mutable sequence

	push	ebp
	mov	ebp, esp
	push	-1
	push	__ehhandler$?begin@?$list@PAV?$Goal@VRaven_Bot@@@@V?$allocator@PAV?$Goal@VRaven_Bot@@@@@std@@@std@@QAE?AV?$_List_iterator@V?$_List_val@U?$_List_simple_types@PAV?$Goal@VRaven_Bot@@@@@std@@@std@@@2@XZ
	mov	eax, DWORD PTR fs:0
	push	eax
	push	ecx
	mov	DWORD PTR [ebp-16], -858993460		; ccccccccH
	mov	eax, DWORD PTR ___security_cookie
	xor	eax, ebp
	push	eax
	lea	eax, DWORD PTR __$EHRec$[ebp]
	mov	DWORD PTR fs:0, eax
	mov	DWORD PTR _this$[ebp], ecx

; 1116 : 		return (iterator(this->_Nextnode(this->_Myhead()),

	mov	ecx, DWORD PTR _this$[ebp]
	call	?_Get_data@?$_List_alloc@U?$_List_base_types@PAV?$Goal@VRaven_Bot@@@@V?$allocator@PAV?$Goal@VRaven_Bot@@@@@std@@@std@@@std@@QAEAAV?$_List_val@U?$_List_simple_types@PAV?$Goal@VRaven_Bot@@@@@std@@@2@XZ ; std::_List_alloc<std::_List_base_types<Goal<Raven_Bot> *,std::allocator<Goal<Raven_Bot> *> > >::_Get_data
	push	eax
	mov	ecx, DWORD PTR _this$[ebp]
	call	?_Myhead@?$_List_alloc@U?$_List_base_types@PAV?$Goal@VRaven_Bot@@@@V?$allocator@PAV?$Goal@VRaven_Bot@@@@@std@@@std@@@std@@QAEAAPAU?$_List_node@PAV?$Goal@VRaven_Bot@@@@PAX@2@XZ ; std::_List_alloc<std::_List_base_types<Goal<Raven_Bot> *,std::allocator<Goal<Raven_Bot> *> > >::_Myhead
	mov	eax, DWORD PTR [eax]
	push	eax
	call	?_Nextnode@?$_List_alloc@U?$_List_base_types@PAV?$Goal@VRaven_Bot@@@@V?$allocator@PAV?$Goal@VRaven_Bot@@@@@std@@@std@@@std@@SAAAPAU?$_List_node@PAV?$Goal@VRaven_Bot@@@@PAX@2@PAU32@@Z ; std::_List_alloc<std::_List_base_types<Goal<Raven_Bot> *,std::allocator<Goal<Raven_Bot> *> > >::_Nextnode
	add	esp, 4
	mov	ecx, DWORD PTR [eax]
	push	ecx
	mov	ecx, DWORD PTR ___$ReturnUdt$[ebp]
	call	??0?$_List_iterator@V?$_List_val@U?$_List_simple_types@PAV?$Goal@VRaven_Bot@@@@@std@@@std@@@std@@QAE@PAU?$_List_node@PAV?$Goal@VRaven_Bot@@@@PAX@1@PBV?$_List_val@U?$_List_simple_types@PAV?$Goal@VRaven_Bot@@@@@std@@@1@@Z ; std::_List_iterator<std::_List_val<std::_List_simple_types<Goal<Raven_Bot> *> > >::_List_iterator<std::_List_val<std::_List_simple_types<Goal<Raven_Bot> *> > >
	mov	eax, DWORD PTR ___$ReturnUdt$[ebp]

; 1117 : 			&this->_Get_data()));
; 1118 : 		}

	mov	ecx, DWORD PTR __$EHRec$[ebp]
	mov	DWORD PTR fs:0, ecx
	pop	ecx
	add	esp, 16					; 00000010H
	cmp	ebp, esp
	call	__RTC_CheckEsp
	mov	esp, ebp
	pop	ebp
	ret	4
_TEXT	ENDS
;	COMDAT text$x
text$x	SEGMENT
__ehhandler$?begin@?$list@PAV?$Goal@VRaven_Bot@@@@V?$allocator@PAV?$Goal@VRaven_Bot@@@@@std@@@std@@QAE?AV?$_List_iterator@V?$_List_val@U?$_List_simple_types@PAV?$Goal@VRaven_Bot@@@@@std@@@std@@@2@XZ:
	mov	edx, DWORD PTR [esp+8]
	lea	eax, DWORD PTR [edx+12]
	mov	ecx, DWORD PTR [edx-8]
	xor	ecx, eax
	call	@__security_check_cookie@4
	mov	eax, OFFSET __ehfuncinfo$?begin@?$list@PAV?$Goal@VRaven_Bot@@@@V?$allocator@PAV?$Goal@VRaven_Bot@@@@@std@@@std@@QAE?AV?$_List_iterator@V?$_List_val@U?$_List_simple_types@PAV?$Goal@VRaven_Bot@@@@@std@@@std@@@2@XZ
	jmp	___CxxFrameHandler3
text$x	ENDS
?begin@?$list@PAV?$Goal@VRaven_Bot@@@@V?$allocator@PAV?$Goal@VRaven_Bot@@@@@std@@@std@@QAE?AV?$_List_iterator@V?$_List_val@U?$_List_simple_types@PAV?$Goal@VRaven_Bot@@@@@std@@@std@@@2@XZ ENDP ; std::list<Goal<Raven_Bot> *,std::allocator<Goal<Raven_Bot> *> >::begin
; Function compile flags: /Odtp /RTCsu
; File d:\microsoft visual studio 14.0\vc\include\list
;	COMDAT ??1?$list@PAV?$Goal@VRaven_Bot@@@@V?$allocator@PAV?$Goal@VRaven_Bot@@@@@std@@@std@@QAE@XZ
_TEXT	SEGMENT
_this$ = -16						; size = 4
__$EHRec$ = -12						; size = 12
??1?$list@PAV?$Goal@VRaven_Bot@@@@V?$allocator@PAV?$Goal@VRaven_Bot@@@@@std@@@std@@QAE@XZ PROC ; std::list<Goal<Raven_Bot> *,std::allocator<Goal<Raven_Bot> *> >::~list<Goal<Raven_Bot> *,std::allocator<Goal<Raven_Bot> *> >, COMDAT
; _this$ = ecx

; 1094 : 		{	// destroy the object

	push	ebp
	mov	ebp, esp
	push	-1
	push	__ehhandler$??1?$list@PAV?$Goal@VRaven_Bot@@@@V?$allocator@PAV?$Goal@VRaven_Bot@@@@@std@@@std@@QAE@XZ
	mov	eax, DWORD PTR fs:0
	push	eax
	push	ecx
	mov	DWORD PTR [ebp-16], -858993460		; ccccccccH
	mov	eax, DWORD PTR ___security_cookie
	xor	eax, ebp
	push	eax
	lea	eax, DWORD PTR __$EHRec$[ebp]
	mov	DWORD PTR fs:0, eax
	mov	DWORD PTR _this$[ebp], ecx

; 1095 : 		_Tidy();

	mov	ecx, DWORD PTR _this$[ebp]
	call	?_Tidy@?$list@PAV?$Goal@VRaven_Bot@@@@V?$allocator@PAV?$Goal@VRaven_Bot@@@@@std@@@std@@QAEXXZ ; std::list<Goal<Raven_Bot> *,std::allocator<Goal<Raven_Bot> *> >::_Tidy

; 1096 : 		}

	mov	ecx, DWORD PTR _this$[ebp]
	call	??1?$_List_buy@PAV?$Goal@VRaven_Bot@@@@V?$allocator@PAV?$Goal@VRaven_Bot@@@@@std@@@std@@QAE@XZ
	mov	ecx, DWORD PTR __$EHRec$[ebp]
	mov	DWORD PTR fs:0, ecx
	pop	ecx
	add	esp, 16					; 00000010H
	cmp	ebp, esp
	call	__RTC_CheckEsp
	mov	esp, ebp
	pop	ebp
	ret	0
_TEXT	ENDS
;	COMDAT text$x
text$x	SEGMENT
__ehhandler$??1?$list@PAV?$Goal@VRaven_Bot@@@@V?$allocator@PAV?$Goal@VRaven_Bot@@@@@std@@@std@@QAE@XZ:
	mov	edx, DWORD PTR [esp+8]
	lea	eax, DWORD PTR [edx+12]
	mov	ecx, DWORD PTR [edx-8]
	xor	ecx, eax
	call	@__security_check_cookie@4
	mov	eax, OFFSET __ehfuncinfo$??1?$list@PAV?$Goal@VRaven_Bot@@@@V?$allocator@PAV?$Goal@VRaven_Bot@@@@@std@@@std@@QAE@XZ
	jmp	___CxxFrameHandler3
text$x	ENDS
??1?$list@PAV?$Goal@VRaven_Bot@@@@V?$allocator@PAV?$Goal@VRaven_Bot@@@@@std@@@std@@QAE@XZ ENDP ; std::list<Goal<Raven_Bot> *,std::allocator<Goal<Raven_Bot> *> >::~list<Goal<Raven_Bot> *,std::allocator<Goal<Raven_Bot> *> >
; Function compile flags: /Odtp /RTCsu
; File d:\microsoft visual studio 14.0\vc\include\list
;	COMDAT ??0?$list@PAV?$Goal@VRaven_Bot@@@@V?$allocator@PAV?$Goal@VRaven_Bot@@@@@std@@@std@@QAE@XZ
_TEXT	SEGMENT
$T1 = -5						; size = 1
_this$ = -4						; size = 4
??0?$list@PAV?$Goal@VRaven_Bot@@@@V?$allocator@PAV?$Goal@VRaven_Bot@@@@@std@@@std@@QAE@XZ PROC ; std::list<Goal<Raven_Bot> *,std::allocator<Goal<Raven_Bot> *> >::list<Goal<Raven_Bot> *,std::allocator<Goal<Raven_Bot> *> >, COMDAT
; _this$ = ecx

; 890  : 		{	// construct empty list

	push	ebp
	mov	ebp, esp
	sub	esp, 8
	mov	DWORD PTR [ebp-8], -858993460		; ccccccccH
	mov	DWORD PTR [ebp-4], -858993460		; ccccccccH
	mov	DWORD PTR _this$[ebp], ecx

; 889  : 		: _Mybase()

	lea	ecx, DWORD PTR $T1[ebp]
	call	??0?$allocator@PAV?$Goal@VRaven_Bot@@@@@std@@QAE@XZ ; std::allocator<Goal<Raven_Bot> *>::allocator<Goal<Raven_Bot> *>
	push	eax
	mov	ecx, DWORD PTR _this$[ebp]
	call	??0?$_List_buy@PAV?$Goal@VRaven_Bot@@@@V?$allocator@PAV?$Goal@VRaven_Bot@@@@@std@@@std@@QAE@ABV?$allocator@PAV?$Goal@VRaven_Bot@@@@@1@@Z ; std::_List_buy<Goal<Raven_Bot> *,std::allocator<Goal<Raven_Bot> *> >::_List_buy<Goal<Raven_Bot> *,std::allocator<Goal<Raven_Bot> *> >

; 891  : 		}

	mov	eax, DWORD PTR _this$[ebp]
	add	esp, 8
	cmp	ebp, esp
	call	__RTC_CheckEsp
	mov	esp, ebp
	pop	ebp
	ret	0
??0?$list@PAV?$Goal@VRaven_Bot@@@@V?$allocator@PAV?$Goal@VRaven_Bot@@@@@std@@@std@@QAE@XZ ENDP ; std::list<Goal<Raven_Bot> *,std::allocator<Goal<Raven_Bot> *> >::list<Goal<Raven_Bot> *,std::allocator<Goal<Raven_Bot> *> >
_TEXT	ENDS
; Function compile flags: /Odtp /RTCsu
;	COMDAT ??1?$_List_buy@PAV?$Goal@VRaven_Bot@@@@V?$allocator@PAV?$Goal@VRaven_Bot@@@@@std@@@std@@QAE@XZ
_TEXT	SEGMENT
_this$ = -4						; size = 4
??1?$_List_buy@PAV?$Goal@VRaven_Bot@@@@V?$allocator@PAV?$Goal@VRaven_Bot@@@@@std@@@std@@QAE@XZ PROC ; std::_List_buy<Goal<Raven_Bot> *,std::allocator<Goal<Raven_Bot> *> >::~_List_buy<Goal<Raven_Bot> *,std::allocator<Goal<Raven_Bot> *> >, COMDAT
; _this$ = ecx
	push	ebp
	mov	ebp, esp
	push	ecx
	mov	DWORD PTR [ebp-4], -858993460		; ccccccccH
	mov	DWORD PTR _this$[ebp], ecx
	mov	ecx, DWORD PTR _this$[ebp]
	call	??1?$_List_alloc@U?$_List_base_types@PAV?$Goal@VRaven_Bot@@@@V?$allocator@PAV?$Goal@VRaven_Bot@@@@@std@@@std@@@std@@QAE@XZ ; std::_List_alloc<std::_List_base_types<Goal<Raven_Bot> *,std::allocator<Goal<Raven_Bot> *> > >::~_List_alloc<std::_List_base_types<Goal<Raven_Bot> *,std::allocator<Goal<Raven_Bot> *> > >
	add	esp, 4
	cmp	ebp, esp
	call	__RTC_CheckEsp
	mov	esp, ebp
	pop	ebp
	ret	0
??1?$_List_buy@PAV?$Goal@VRaven_Bot@@@@V?$allocator@PAV?$Goal@VRaven_Bot@@@@@std@@@std@@QAE@XZ ENDP ; std::_List_buy<Goal<Raven_Bot> *,std::allocator<Goal<Raven_Bot> *> >::~_List_buy<Goal<Raven_Bot> *,std::allocator<Goal<Raven_Bot> *> >
_TEXT	ENDS
; Function compile flags: /Odtp /RTCsu
; File d:\microsoft visual studio 14.0\vc\include\list
;	COMDAT ?_Freenode@?$_List_buy@PAV?$Goal@VRaven_Bot@@@@V?$allocator@PAV?$Goal@VRaven_Bot@@@@@std@@@std@@QAEXPAU?$_List_node@PAV?$Goal@VRaven_Bot@@@@PAX@2@@Z
_TEXT	SEGMENT
_this$ = -4						; size = 4
__Pnode$ = 8						; size = 4
?_Freenode@?$_List_buy@PAV?$Goal@VRaven_Bot@@@@V?$allocator@PAV?$Goal@VRaven_Bot@@@@@std@@@std@@QAEXPAU?$_List_node@PAV?$Goal@VRaven_Bot@@@@PAX@2@@Z PROC ; std::_List_buy<Goal<Raven_Bot> *,std::allocator<Goal<Raven_Bot> *> >::_Freenode, COMDAT
; _this$ = ecx

; 845  : 		{	// give node back

	push	ebp
	mov	ebp, esp
	push	ecx
	mov	DWORD PTR [ebp-4], -858993460		; ccccccccH
	mov	DWORD PTR _this$[ebp], ecx

; 846  : 		this->_Getal().destroy(

	mov	eax, DWORD PTR __Pnode$[ebp]
	push	eax
	call	?_Nextnode@?$_List_alloc@U?$_List_base_types@PAV?$Goal@VRaven_Bot@@@@V?$allocator@PAV?$Goal@VRaven_Bot@@@@@std@@@std@@@std@@SAAAPAU?$_List_node@PAV?$Goal@VRaven_Bot@@@@PAX@2@PAU32@@Z ; std::_List_alloc<std::_List_base_types<Goal<Raven_Bot> *,std::allocator<Goal<Raven_Bot> *> > >::_Nextnode
	add	esp, 4
	push	eax
	call	??$addressof@PAU?$_List_node@PAV?$Goal@VRaven_Bot@@@@PAX@std@@@std@@YAPAPAU?$_List_node@PAV?$Goal@VRaven_Bot@@@@PAX@0@AAPAU10@@Z ; std::addressof<std::_List_node<Goal<Raven_Bot> *,void *> *>
	add	esp, 4
	push	eax
	mov	ecx, DWORD PTR _this$[ebp]
	call	?_Getal@?$_List_alloc@U?$_List_base_types@PAV?$Goal@VRaven_Bot@@@@V?$allocator@PAV?$Goal@VRaven_Bot@@@@@std@@@std@@@std@@QAEAAU?$_Wrap_alloc@V?$allocator@U?$_List_node@PAV?$Goal@VRaven_Bot@@@@PAX@std@@@std@@@2@XZ ; std::_List_alloc<std::_List_base_types<Goal<Raven_Bot> *,std::allocator<Goal<Raven_Bot> *> > >::_Getal
	mov	ecx, eax
	call	??$destroy@PAU?$_List_node@PAV?$Goal@VRaven_Bot@@@@PAX@std@@@?$_Wrap_alloc@V?$allocator@U?$_List_node@PAV?$Goal@VRaven_Bot@@@@PAX@std@@@std@@@std@@QAEXPAPAU?$_List_node@PAV?$Goal@VRaven_Bot@@@@PAX@1@@Z ; std::_Wrap_alloc<std::allocator<std::_List_node<Goal<Raven_Bot> *,void *> > >::destroy<std::_List_node<Goal<Raven_Bot> *,void *> *>

; 847  : 			_STD addressof(this->_Nextnode(_Pnode)));
; 848  : 		this->_Getal().destroy(

	mov	ecx, DWORD PTR __Pnode$[ebp]
	push	ecx
	call	?_Prevnode@?$_List_alloc@U?$_List_base_types@PAV?$Goal@VRaven_Bot@@@@V?$allocator@PAV?$Goal@VRaven_Bot@@@@@std@@@std@@@std@@SAAAPAU?$_List_node@PAV?$Goal@VRaven_Bot@@@@PAX@2@PAU32@@Z ; std::_List_alloc<std::_List_base_types<Goal<Raven_Bot> *,std::allocator<Goal<Raven_Bot> *> > >::_Prevnode
	add	esp, 4
	push	eax
	call	??$addressof@PAU?$_List_node@PAV?$Goal@VRaven_Bot@@@@PAX@std@@@std@@YAPAPAU?$_List_node@PAV?$Goal@VRaven_Bot@@@@PAX@0@AAPAU10@@Z ; std::addressof<std::_List_node<Goal<Raven_Bot> *,void *> *>
	add	esp, 4
	push	eax
	mov	ecx, DWORD PTR _this$[ebp]
	call	?_Getal@?$_List_alloc@U?$_List_base_types@PAV?$Goal@VRaven_Bot@@@@V?$allocator@PAV?$Goal@VRaven_Bot@@@@@std@@@std@@@std@@QAEAAU?$_Wrap_alloc@V?$allocator@U?$_List_node@PAV?$Goal@VRaven_Bot@@@@PAX@std@@@std@@@2@XZ ; std::_List_alloc<std::_List_base_types<Goal<Raven_Bot> *,std::allocator<Goal<Raven_Bot> *> > >::_Getal
	mov	ecx, eax
	call	??$destroy@PAU?$_List_node@PAV?$Goal@VRaven_Bot@@@@PAX@std@@@?$_Wrap_alloc@V?$allocator@U?$_List_node@PAV?$Goal@VRaven_Bot@@@@PAX@std@@@std@@@std@@QAEXPAPAU?$_List_node@PAV?$Goal@VRaven_Bot@@@@PAX@1@@Z ; std::_Wrap_alloc<std::allocator<std::_List_node<Goal<Raven_Bot> *,void *> > >::destroy<std::_List_node<Goal<Raven_Bot> *,void *> *>

; 849  : 			_STD addressof(this->_Prevnode(_Pnode)));
; 850  : 		this->_Getal().destroy(

	mov	edx, DWORD PTR __Pnode$[ebp]
	push	edx
	call	?_Myval@?$_List_alloc@U?$_List_base_types@PAV?$Goal@VRaven_Bot@@@@V?$allocator@PAV?$Goal@VRaven_Bot@@@@@std@@@std@@@std@@SAAAPAV?$Goal@VRaven_Bot@@@@PAU?$_List_node@PAV?$Goal@VRaven_Bot@@@@PAX@2@@Z ; std::_List_alloc<std::_List_base_types<Goal<Raven_Bot> *,std::allocator<Goal<Raven_Bot> *> > >::_Myval
	add	esp, 4
	push	eax
	call	??$addressof@PAV?$Goal@VRaven_Bot@@@@@std@@YAPAPAV?$Goal@VRaven_Bot@@@@AAPAV1@@Z ; std::addressof<Goal<Raven_Bot> *>
	add	esp, 4
	push	eax
	mov	ecx, DWORD PTR _this$[ebp]
	call	?_Getal@?$_List_alloc@U?$_List_base_types@PAV?$Goal@VRaven_Bot@@@@V?$allocator@PAV?$Goal@VRaven_Bot@@@@@std@@@std@@@std@@QAEAAU?$_Wrap_alloc@V?$allocator@U?$_List_node@PAV?$Goal@VRaven_Bot@@@@PAX@std@@@std@@@2@XZ ; std::_List_alloc<std::_List_base_types<Goal<Raven_Bot> *,std::allocator<Goal<Raven_Bot> *> > >::_Getal
	mov	ecx, eax
	call	??$destroy@PAV?$Goal@VRaven_Bot@@@@@?$_Wrap_alloc@V?$allocator@U?$_List_node@PAV?$Goal@VRaven_Bot@@@@PAX@std@@@std@@@std@@QAEXPAPAV?$Goal@VRaven_Bot@@@@@Z ; std::_Wrap_alloc<std::allocator<std::_List_node<Goal<Raven_Bot> *,void *> > >::destroy<Goal<Raven_Bot> *>

; 851  : 			_STD addressof(this->_Myval(_Pnode)));
; 852  : 		this->_Getal().deallocate(_Pnode, 1);

	push	1
	mov	eax, DWORD PTR __Pnode$[ebp]
	push	eax
	mov	ecx, DWORD PTR _this$[ebp]
	call	?_Getal@?$_List_alloc@U?$_List_base_types@PAV?$Goal@VRaven_Bot@@@@V?$allocator@PAV?$Goal@VRaven_Bot@@@@@std@@@std@@@std@@QAEAAU?$_Wrap_alloc@V?$allocator@U?$_List_node@PAV?$Goal@VRaven_Bot@@@@PAX@std@@@std@@@2@XZ ; std::_List_alloc<std::_List_base_types<Goal<Raven_Bot> *,std::allocator<Goal<Raven_Bot> *> > >::_Getal
	mov	ecx, eax
	call	?deallocate@?$_Wrap_alloc@V?$allocator@U?$_List_node@PAV?$Goal@VRaven_Bot@@@@PAX@std@@@std@@@std@@QAEXPAU?$_List_node@PAV?$Goal@VRaven_Bot@@@@PAX@2@I@Z ; std::_Wrap_alloc<std::allocator<std::_List_node<Goal<Raven_Bot> *,void *> > >::deallocate

; 853  : 		}

	add	esp, 4
	cmp	ebp, esp
	call	__RTC_CheckEsp
	mov	esp, ebp
	pop	ebp
	ret	4
?_Freenode@?$_List_buy@PAV?$Goal@VRaven_Bot@@@@V?$allocator@PAV?$Goal@VRaven_Bot@@@@@std@@@std@@QAEXPAU?$_List_node@PAV?$Goal@VRaven_Bot@@@@PAX@2@@Z ENDP ; std::_List_buy<Goal<Raven_Bot> *,std::allocator<Goal<Raven_Bot> *> >::_Freenode
_TEXT	ENDS
; Function compile flags: /Odtp /RTCsu
; File d:\microsoft visual studio 14.0\vc\include\list
;	COMDAT ??0?$_List_buy@PAV?$Goal@VRaven_Bot@@@@V?$allocator@PAV?$Goal@VRaven_Bot@@@@@std@@@std@@QAE@ABV?$allocator@PAV?$Goal@VRaven_Bot@@@@@1@@Z
_TEXT	SEGMENT
_this$ = -4						; size = 4
__Al$ = 8						; size = 4
??0?$_List_buy@PAV?$Goal@VRaven_Bot@@@@V?$allocator@PAV?$Goal@VRaven_Bot@@@@@std@@@std@@QAE@ABV?$allocator@PAV?$Goal@VRaven_Bot@@@@@1@@Z PROC ; std::_List_buy<Goal<Raven_Bot> *,std::allocator<Goal<Raven_Bot> *> >::_List_buy<Goal<Raven_Bot> *,std::allocator<Goal<Raven_Bot> *> >, COMDAT
; _this$ = ecx

; 817  : 		{	// construct from allocator

	push	ebp
	mov	ebp, esp
	push	ecx
	mov	DWORD PTR [ebp-4], -858993460		; ccccccccH
	mov	DWORD PTR _this$[ebp], ecx

; 816  : 		: _Mybase(_Al)

	mov	eax, DWORD PTR __Al$[ebp]
	push	eax
	mov	ecx, DWORD PTR _this$[ebp]
	call	??0?$_List_alloc@U?$_List_base_types@PAV?$Goal@VRaven_Bot@@@@V?$allocator@PAV?$Goal@VRaven_Bot@@@@@std@@@std@@@std@@QAE@ABV?$allocator@PAV?$Goal@VRaven_Bot@@@@@1@@Z ; std::_List_alloc<std::_List_base_types<Goal<Raven_Bot> *,std::allocator<Goal<Raven_Bot> *> > >::_List_alloc<std::_List_base_types<Goal<Raven_Bot> *,std::allocator<Goal<Raven_Bot> *> > >

; 818  : 		}

	mov	eax, DWORD PTR _this$[ebp]
	add	esp, 4
	cmp	ebp, esp
	call	__RTC_CheckEsp
	mov	esp, ebp
	pop	ebp
	ret	4
??0?$_List_buy@PAV?$Goal@VRaven_Bot@@@@V?$allocator@PAV?$Goal@VRaven_Bot@@@@@std@@@std@@QAE@ABV?$allocator@PAV?$Goal@VRaven_Bot@@@@@1@@Z ENDP ; std::_List_buy<Goal<Raven_Bot> *,std::allocator<Goal<Raven_Bot> *> >::_List_buy<Goal<Raven_Bot> *,std::allocator<Goal<Raven_Bot> *> >
_TEXT	ENDS
; Function compile flags: /Odtp /RTCsu
;	COMDAT ??1?$_Compressed_pair@U?$_Wrap_alloc@V?$allocator@U?$_List_node@PAV?$Goal@VRaven_Bot@@@@PAX@std@@@std@@@std@@V?$_List_val@U?$_List_simple_types@PAV?$Goal@VRaven_Bot@@@@@std@@@2@$00@std@@QAE@XZ
_TEXT	SEGMENT
_this$ = -4						; size = 4
??1?$_Compressed_pair@U?$_Wrap_alloc@V?$allocator@U?$_List_node@PAV?$Goal@VRaven_Bot@@@@PAX@std@@@std@@@std@@V?$_List_val@U?$_List_simple_types@PAV?$Goal@VRaven_Bot@@@@@std@@@2@$00@std@@QAE@XZ PROC ; std::_Compressed_pair<std::_Wrap_alloc<std::allocator<std::_List_node<Goal<Raven_Bot> *,void *> > >,std::_List_val<std::_List_simple_types<Goal<Raven_Bot> *> >,1>::~_Compressed_pair<std::_Wrap_alloc<std::allocator<std::_List_node<Goal<Raven_Bot> *,void *> > >,std::_List_val<std::_List_simple_types<Goal<Raven_Bot> *> >,1>, COMDAT
; _this$ = ecx
	push	ebp
	mov	ebp, esp
	push	ecx
	mov	DWORD PTR [ebp-4], -858993460		; ccccccccH
	mov	DWORD PTR _this$[ebp], ecx
	mov	ecx, DWORD PTR _this$[ebp]
	call	??1?$_List_val@U?$_List_simple_types@PAV?$Goal@VRaven_Bot@@@@@std@@@std@@QAE@XZ
	add	esp, 4
	cmp	ebp, esp
	call	__RTC_CheckEsp
	mov	esp, ebp
	pop	ebp
	ret	0
??1?$_Compressed_pair@U?$_Wrap_alloc@V?$allocator@U?$_List_node@PAV?$Goal@VRaven_Bot@@@@PAX@std@@@std@@@std@@V?$_List_val@U?$_List_simple_types@PAV?$Goal@VRaven_Bot@@@@@std@@@2@$00@std@@QAE@XZ ENDP ; std::_Compressed_pair<std::_Wrap_alloc<std::allocator<std::_List_node<Goal<Raven_Bot> *,void *> > >,std::_List_val<std::_List_simple_types<Goal<Raven_Bot> *> >,1>::~_Compressed_pair<std::_Wrap_alloc<std::allocator<std::_List_node<Goal<Raven_Bot> *,void *> > >,std::_List_val<std::_List_simple_types<Goal<Raven_Bot> *> >,1>
_TEXT	ENDS
; Function compile flags: /Odtp /RTCsu
; File d:\microsoft visual studio 14.0\vc\include\xutility
;	COMDAT ?_Get_second@?$_Compressed_pair@U?$_Wrap_alloc@V?$allocator@U?$_List_node@PAV?$Goal@VRaven_Bot@@@@PAX@std@@@std@@@std@@V?$_List_val@U?$_List_simple_types@PAV?$Goal@VRaven_Bot@@@@@std@@@2@$00@std@@QBEABV?$_List_val@U?$_List_simple_types@PAV?$Goal@VRaven_Bot@@@@@std@@@2@XZ
_TEXT	SEGMENT
_this$ = -4						; size = 4
?_Get_second@?$_Compressed_pair@U?$_Wrap_alloc@V?$allocator@U?$_List_node@PAV?$Goal@VRaven_Bot@@@@PAX@std@@@std@@@std@@V?$_List_val@U?$_List_simple_types@PAV?$Goal@VRaven_Bot@@@@@std@@@2@$00@std@@QBEABV?$_List_val@U?$_List_simple_types@PAV?$Goal@VRaven_Bot@@@@@std@@@2@XZ PROC ; std::_Compressed_pair<std::_Wrap_alloc<std::allocator<std::_List_node<Goal<Raven_Bot> *,void *> > >,std::_List_val<std::_List_simple_types<Goal<Raven_Bot> *> >,1>::_Get_second, COMDAT
; _this$ = ecx

; 318  : 		{	// return const reference to second

	push	ebp
	mov	ebp, esp
	push	ecx
	mov	DWORD PTR [ebp-4], -858993460		; ccccccccH
	mov	DWORD PTR _this$[ebp], ecx

; 319  : 		return (_Myval2);

	mov	eax, DWORD PTR _this$[ebp]

; 320  : 		}

	mov	esp, ebp
	pop	ebp
	ret	0
?_Get_second@?$_Compressed_pair@U?$_Wrap_alloc@V?$allocator@U?$_List_node@PAV?$Goal@VRaven_Bot@@@@PAX@std@@@std@@@std@@V?$_List_val@U?$_List_simple_types@PAV?$Goal@VRaven_Bot@@@@@std@@@2@$00@std@@QBEABV?$_List_val@U?$_List_simple_types@PAV?$Goal@VRaven_Bot@@@@@std@@@2@XZ ENDP ; std::_Compressed_pair<std::_Wrap_alloc<std::allocator<std::_List_node<Goal<Raven_Bot> *,void *> > >,std::_List_val<std::_List_simple_types<Goal<Raven_Bot> *> >,1>::_Get_second
_TEXT	ENDS
; Function compile flags: /Odtp /RTCsu
; File d:\microsoft visual studio 14.0\vc\include\xutility
;	COMDAT ?_Get_second@?$_Compressed_pair@U?$_Wrap_alloc@V?$allocator@U?$_List_node@PAV?$Goal@VRaven_Bot@@@@PAX@std@@@std@@@std@@V?$_List_val@U?$_List_simple_types@PAV?$Goal@VRaven_Bot@@@@@std@@@2@$00@std@@QAEAAV?$_List_val@U?$_List_simple_types@PAV?$Goal@VRaven_Bot@@@@@std@@@2@XZ
_TEXT	SEGMENT
_this$ = -4						; size = 4
?_Get_second@?$_Compressed_pair@U?$_Wrap_alloc@V?$allocator@U?$_List_node@PAV?$Goal@VRaven_Bot@@@@PAX@std@@@std@@@std@@V?$_List_val@U?$_List_simple_types@PAV?$Goal@VRaven_Bot@@@@@std@@@2@$00@std@@QAEAAV?$_List_val@U?$_List_simple_types@PAV?$Goal@VRaven_Bot@@@@@std@@@2@XZ PROC ; std::_Compressed_pair<std::_Wrap_alloc<std::allocator<std::_List_node<Goal<Raven_Bot> *,void *> > >,std::_List_val<std::_List_simple_types<Goal<Raven_Bot> *> >,1>::_Get_second, COMDAT
; _this$ = ecx

; 313  : 		{	// return reference to second

	push	ebp
	mov	ebp, esp
	push	ecx
	mov	DWORD PTR [ebp-4], -858993460		; ccccccccH
	mov	DWORD PTR _this$[ebp], ecx

; 314  : 		return (_Myval2);

	mov	eax, DWORD PTR _this$[ebp]

; 315  : 		}

	mov	esp, ebp
	pop	ebp
	ret	0
?_Get_second@?$_Compressed_pair@U?$_Wrap_alloc@V?$allocator@U?$_List_node@PAV?$Goal@VRaven_Bot@@@@PAX@std@@@std@@@std@@V?$_List_val@U?$_List_simple_types@PAV?$Goal@VRaven_Bot@@@@@std@@@2@$00@std@@QAEAAV?$_List_val@U?$_List_simple_types@PAV?$Goal@VRaven_Bot@@@@@std@@@2@XZ ENDP ; std::_Compressed_pair<std::_Wrap_alloc<std::allocator<std::_List_node<Goal<Raven_Bot> *,void *> > >,std::_List_val<std::_List_simple_types<Goal<Raven_Bot> *> >,1>::_Get_second
_TEXT	ENDS
; Function compile flags: /Odtp /RTCsu
; File d:\microsoft visual studio 14.0\vc\include\xutility
;	COMDAT ?_Get_first@?$_Compressed_pair@U?$_Wrap_alloc@V?$allocator@U?$_List_node@PAV?$Goal@VRaven_Bot@@@@PAX@std@@@std@@@std@@V?$_List_val@U?$_List_simple_types@PAV?$Goal@VRaven_Bot@@@@@std@@@2@$00@std@@QBEABU?$_Wrap_alloc@V?$allocator@U?$_List_node@PAV?$Goal@VRaven_Bot@@@@PAX@std@@@std@@@2@XZ
_TEXT	SEGMENT
_this$ = -4						; size = 4
?_Get_first@?$_Compressed_pair@U?$_Wrap_alloc@V?$allocator@U?$_List_node@PAV?$Goal@VRaven_Bot@@@@PAX@std@@@std@@@std@@V?$_List_val@U?$_List_simple_types@PAV?$Goal@VRaven_Bot@@@@@std@@@2@$00@std@@QBEABU?$_Wrap_alloc@V?$allocator@U?$_List_node@PAV?$Goal@VRaven_Bot@@@@PAX@std@@@std@@@2@XZ PROC ; std::_Compressed_pair<std::_Wrap_alloc<std::allocator<std::_List_node<Goal<Raven_Bot> *,void *> > >,std::_List_val<std::_List_simple_types<Goal<Raven_Bot> *> >,1>::_Get_first, COMDAT
; _this$ = ecx

; 298  : 		{	// return const reference to first

	push	ebp
	mov	ebp, esp
	push	ecx
	mov	DWORD PTR [ebp-4], -858993460		; ccccccccH
	mov	DWORD PTR _this$[ebp], ecx

; 299  : 		return (*this);

	mov	eax, DWORD PTR _this$[ebp]

; 300  : 		}

	mov	esp, ebp
	pop	ebp
	ret	0
?_Get_first@?$_Compressed_pair@U?$_Wrap_alloc@V?$allocator@U?$_List_node@PAV?$Goal@VRaven_Bot@@@@PAX@std@@@std@@@std@@V?$_List_val@U?$_List_simple_types@PAV?$Goal@VRaven_Bot@@@@@std@@@2@$00@std@@QBEABU?$_Wrap_alloc@V?$allocator@U?$_List_node@PAV?$Goal@VRaven_Bot@@@@PAX@std@@@std@@@2@XZ ENDP ; std::_Compressed_pair<std::_Wrap_alloc<std::allocator<std::_List_node<Goal<Raven_Bot> *,void *> > >,std::_List_val<std::_List_simple_types<Goal<Raven_Bot> *> >,1>::_Get_first
_TEXT	ENDS
; Function compile flags: /Odtp /RTCsu
; File d:\microsoft visual studio 14.0\vc\include\xutility
;	COMDAT ?_Get_first@?$_Compressed_pair@U?$_Wrap_alloc@V?$allocator@U?$_List_node@PAV?$Goal@VRaven_Bot@@@@PAX@std@@@std@@@std@@V?$_List_val@U?$_List_simple_types@PAV?$Goal@VRaven_Bot@@@@@std@@@2@$00@std@@QAEAAU?$_Wrap_alloc@V?$allocator@U?$_List_node@PAV?$Goal@VRaven_Bot@@@@PAX@std@@@std@@@2@XZ
_TEXT	SEGMENT
_this$ = -4						; size = 4
?_Get_first@?$_Compressed_pair@U?$_Wrap_alloc@V?$allocator@U?$_List_node@PAV?$Goal@VRaven_Bot@@@@PAX@std@@@std@@@std@@V?$_List_val@U?$_List_simple_types@PAV?$Goal@VRaven_Bot@@@@@std@@@2@$00@std@@QAEAAU?$_Wrap_alloc@V?$allocator@U?$_List_node@PAV?$Goal@VRaven_Bot@@@@PAX@std@@@std@@@2@XZ PROC ; std::_Compressed_pair<std::_Wrap_alloc<std::allocator<std::_List_node<Goal<Raven_Bot> *,void *> > >,std::_List_val<std::_List_simple_types<Goal<Raven_Bot> *> >,1>::_Get_first, COMDAT
; _this$ = ecx

; 293  : 		{	// return reference to first

	push	ebp
	mov	ebp, esp
	push	ecx
	mov	DWORD PTR [ebp-4], -858993460		; ccccccccH
	mov	DWORD PTR _this$[ebp], ecx

; 294  : 		return (*this);

	mov	eax, DWORD PTR _this$[ebp]

; 295  : 		}

	mov	esp, ebp
	pop	ebp
	ret	0
?_Get_first@?$_Compressed_pair@U?$_Wrap_alloc@V?$allocator@U?$_List_node@PAV?$Goal@VRaven_Bot@@@@PAX@std@@@std@@@std@@V?$_List_val@U?$_List_simple_types@PAV?$Goal@VRaven_Bot@@@@@std@@@2@$00@std@@QAEAAU?$_Wrap_alloc@V?$allocator@U?$_List_node@PAV?$Goal@VRaven_Bot@@@@PAX@std@@@std@@@2@XZ ENDP ; std::_Compressed_pair<std::_Wrap_alloc<std::allocator<std::_List_node<Goal<Raven_Bot> *,void *> > >,std::_List_val<std::_List_simple_types<Goal<Raven_Bot> *> >,1>::_Get_first
_TEXT	ENDS
; Function compile flags: /Odtp /RTCsu
;	COMDAT ??1?$_List_val@U?$_List_simple_types@PAV?$Goal@VRaven_Bot@@@@@std@@@std@@QAE@XZ
_TEXT	SEGMENT
_this$ = -4						; size = 4
??1?$_List_val@U?$_List_simple_types@PAV?$Goal@VRaven_Bot@@@@@std@@@std@@QAE@XZ PROC ; std::_List_val<std::_List_simple_types<Goal<Raven_Bot> *> >::~_List_val<std::_List_simple_types<Goal<Raven_Bot> *> >, COMDAT
; _this$ = ecx
	push	ebp
	mov	ebp, esp
	push	ecx
	mov	DWORD PTR [ebp-4], -858993460		; ccccccccH
	mov	DWORD PTR _this$[ebp], ecx
	mov	ecx, DWORD PTR _this$[ebp]
	call	??1_Container_base12@std@@QAE@XZ	; std::_Container_base12::~_Container_base12
	add	esp, 4
	cmp	ebp, esp
	call	__RTC_CheckEsp
	mov	esp, ebp
	pop	ebp
	ret	0
??1?$_List_val@U?$_List_simple_types@PAV?$Goal@VRaven_Bot@@@@@std@@@std@@QAE@XZ ENDP ; std::_List_val<std::_List_simple_types<Goal<Raven_Bot> *> >::~_List_val<std::_List_simple_types<Goal<Raven_Bot> *> >
_TEXT	ENDS
; Function compile flags: /Odtp /RTCsu
; File d:\microsoft visual studio 14.0\vc\include\list
;	COMDAT ?_Myval@?$_List_val@U?$_List_simple_types@PAV?$Goal@VRaven_Bot@@@@@std@@@std@@SAAAPAV?$Goal@VRaven_Bot@@@@PAU?$_List_node@PAV?$Goal@VRaven_Bot@@@@PAX@2@@Z
_TEXT	SEGMENT
__Pnode$ = 8						; size = 4
?_Myval@?$_List_val@U?$_List_simple_types@PAV?$Goal@VRaven_Bot@@@@@std@@@std@@SAAAPAV?$Goal@VRaven_Bot@@@@PAU?$_List_node@PAV?$Goal@VRaven_Bot@@@@PAX@2@@Z PROC ; std::_List_val<std::_List_simple_types<Goal<Raven_Bot> *> >::_Myval, COMDAT

; 540  : 		{	// return reference to value in node

	push	ebp
	mov	ebp, esp

; 541  : 		return ((reference)_Pnode->_Myval);

	mov	eax, DWORD PTR __Pnode$[ebp]
	add	eax, 8

; 542  : 		}

	pop	ebp
	ret	0
?_Myval@?$_List_val@U?$_List_simple_types@PAV?$Goal@VRaven_Bot@@@@@std@@@std@@SAAAPAV?$Goal@VRaven_Bot@@@@PAU?$_List_node@PAV?$Goal@VRaven_Bot@@@@PAX@2@@Z ENDP ; std::_List_val<std::_List_simple_types<Goal<Raven_Bot> *> >::_Myval
_TEXT	ENDS
; Function compile flags: /Odtp /RTCsu
; File d:\microsoft visual studio 14.0\vc\include\list
;	COMDAT ?_Prevnode@?$_List_val@U?$_List_simple_types@PAV?$Goal@VRaven_Bot@@@@@std@@@std@@SAAAPAU?$_List_node@PAV?$Goal@VRaven_Bot@@@@PAX@2@PAU32@@Z
_TEXT	SEGMENT
__Pnode$ = 8						; size = 4
?_Prevnode@?$_List_val@U?$_List_simple_types@PAV?$Goal@VRaven_Bot@@@@@std@@@std@@SAAAPAU?$_List_node@PAV?$Goal@VRaven_Bot@@@@PAX@2@PAU32@@Z PROC ; std::_List_val<std::_List_simple_types<Goal<Raven_Bot> *> >::_Prevnode, COMDAT

; 535  : 		{	// return reference to predecessor pointer in node

	push	ebp
	mov	ebp, esp

; 536  : 		return ((_Nodepref)_Pnode->_Prev);

	mov	eax, DWORD PTR __Pnode$[ebp]
	add	eax, 4

; 537  : 		}

	pop	ebp
	ret	0
?_Prevnode@?$_List_val@U?$_List_simple_types@PAV?$Goal@VRaven_Bot@@@@@std@@@std@@SAAAPAU?$_List_node@PAV?$Goal@VRaven_Bot@@@@PAX@2@PAU32@@Z ENDP ; std::_List_val<std::_List_simple_types<Goal<Raven_Bot> *> >::_Prevnode
_TEXT	ENDS
; Function compile flags: /Odtp /RTCsu
; File d:\microsoft visual studio 14.0\vc\include\list
;	COMDAT ?_Nextnode@?$_List_val@U?$_List_simple_types@PAV?$Goal@VRaven_Bot@@@@@std@@@std@@SAAAPAU?$_List_node@PAV?$Goal@VRaven_Bot@@@@PAX@2@PAU32@@Z
_TEXT	SEGMENT
__Pnode$ = 8						; size = 4
?_Nextnode@?$_List_val@U?$_List_simple_types@PAV?$Goal@VRaven_Bot@@@@@std@@@std@@SAAAPAU?$_List_node@PAV?$Goal@VRaven_Bot@@@@PAX@2@PAU32@@Z PROC ; std::_List_val<std::_List_simple_types<Goal<Raven_Bot> *> >::_Nextnode, COMDAT

; 530  : 		{	// return reference to successor pointer in node

	push	ebp
	mov	ebp, esp

; 531  : 		return ((_Nodepref)_Pnode->_Next);

	mov	eax, DWORD PTR __Pnode$[ebp]

; 532  : 		}

	pop	ebp
	ret	0
?_Nextnode@?$_List_val@U?$_List_simple_types@PAV?$Goal@VRaven_Bot@@@@@std@@@std@@SAAAPAU?$_List_node@PAV?$Goal@VRaven_Bot@@@@PAX@2@PAU32@@Z ENDP ; std::_List_val<std::_List_simple_types<Goal<Raven_Bot> *> >::_Nextnode
_TEXT	ENDS
; Function compile flags: /Odtp /RTCsu
; File d:\microsoft visual studio 14.0\vc\include\list
;	COMDAT ??0?$_List_val@U?$_List_simple_types@PAV?$Goal@VRaven_Bot@@@@@std@@@std@@QAE@XZ
_TEXT	SEGMENT
_this$ = -4						; size = 4
??0?$_List_val@U?$_List_simple_types@PAV?$Goal@VRaven_Bot@@@@@std@@@std@@QAE@XZ PROC ; std::_List_val<std::_List_simple_types<Goal<Raven_Bot> *> >::_List_val<std::_List_simple_types<Goal<Raven_Bot> *> >, COMDAT
; _this$ = ecx

; 523  : 	_List_val()

	push	ebp
	mov	ebp, esp
	push	ecx
	mov	DWORD PTR [ebp-4], -858993460		; ccccccccH
	mov	DWORD PTR _this$[ebp], ecx

; 524  : 		{	// initialize data

	mov	ecx, DWORD PTR _this$[ebp]
	call	??0_Container_base12@std@@QAE@XZ	; std::_Container_base12::_Container_base12

; 525  : 		this->_Myhead = 0;

	mov	eax, DWORD PTR _this$[ebp]
	mov	DWORD PTR [eax+4], 0

; 526  : 		this->_Mysize = 0;

	mov	ecx, DWORD PTR _this$[ebp]
	mov	DWORD PTR [ecx+8], 0

; 527  : 		}

	mov	eax, DWORD PTR _this$[ebp]
	add	esp, 4
	cmp	ebp, esp
	call	__RTC_CheckEsp
	mov	esp, ebp
	pop	ebp
	ret	0
??0?$_List_val@U?$_List_simple_types@PAV?$Goal@VRaven_Bot@@@@@std@@@std@@QAE@XZ ENDP ; std::_List_val<std::_List_simple_types<Goal<Raven_Bot> *> >::_List_val<std::_List_simple_types<Goal<Raven_Bot> *> >
_TEXT	ENDS
; Function compile flags: /Odtp /RTCsu
; File d:\microsoft visual studio 14.0\vc\include\list
;	COMDAT ?_Mysize@?$_List_alloc@U?$_List_base_types@PAV?$Goal@VRaven_Bot@@@@V?$allocator@PAV?$Goal@VRaven_Bot@@@@@std@@@std@@@std@@QBEABIXZ
_TEXT	SEGMENT
_this$ = -4						; size = 4
?_Mysize@?$_List_alloc@U?$_List_base_types@PAV?$Goal@VRaven_Bot@@@@V?$allocator@PAV?$Goal@VRaven_Bot@@@@@std@@@std@@@std@@QBEABIXZ PROC ; std::_List_alloc<std::_List_base_types<Goal<Raven_Bot> *,std::allocator<Goal<Raven_Bot> *> > >::_Mysize, COMDAT
; _this$ = ecx

; 796  : 		{	// return const reference to _Mysize

	push	ebp
	mov	ebp, esp
	push	ecx
	mov	DWORD PTR [ebp-4], -858993460		; ccccccccH
	mov	DWORD PTR _this$[ebp], ecx

; 797  : 		return (_Get_data()._Mysize);

	mov	ecx, DWORD PTR _this$[ebp]
	call	?_Get_data@?$_List_alloc@U?$_List_base_types@PAV?$Goal@VRaven_Bot@@@@V?$allocator@PAV?$Goal@VRaven_Bot@@@@@std@@@std@@@std@@QBEABV?$_List_val@U?$_List_simple_types@PAV?$Goal@VRaven_Bot@@@@@std@@@2@XZ ; std::_List_alloc<std::_List_base_types<Goal<Raven_Bot> *,std::allocator<Goal<Raven_Bot> *> > >::_Get_data
	add	eax, 8

; 798  : 		}

	add	esp, 4
	cmp	ebp, esp
	call	__RTC_CheckEsp
	mov	esp, ebp
	pop	ebp
	ret	0
?_Mysize@?$_List_alloc@U?$_List_base_types@PAV?$Goal@VRaven_Bot@@@@V?$allocator@PAV?$Goal@VRaven_Bot@@@@@std@@@std@@@std@@QBEABIXZ ENDP ; std::_List_alloc<std::_List_base_types<Goal<Raven_Bot> *,std::allocator<Goal<Raven_Bot> *> > >::_Mysize
_TEXT	ENDS
; Function compile flags: /Odtp /RTCsu
; File d:\microsoft visual studio 14.0\vc\include\list
;	COMDAT ?_Mysize@?$_List_alloc@U?$_List_base_types@PAV?$Goal@VRaven_Bot@@@@V?$allocator@PAV?$Goal@VRaven_Bot@@@@@std@@@std@@@std@@QAEAAIXZ
_TEXT	SEGMENT
_this$ = -4						; size = 4
?_Mysize@?$_List_alloc@U?$_List_base_types@PAV?$Goal@VRaven_Bot@@@@V?$allocator@PAV?$Goal@VRaven_Bot@@@@@std@@@std@@@std@@QAEAAIXZ PROC ; std::_List_alloc<std::_List_base_types<Goal<Raven_Bot> *,std::allocator<Goal<Raven_Bot> *> > >::_Mysize, COMDAT
; _this$ = ecx

; 791  : 		{	// return reference to _Mysize

	push	ebp
	mov	ebp, esp
	push	ecx
	mov	DWORD PTR [ebp-4], -858993460		; ccccccccH
	mov	DWORD PTR _this$[ebp], ecx

; 792  : 		return (_Get_data()._Mysize);

	mov	ecx, DWORD PTR _this$[ebp]
	call	?_Get_data@?$_List_alloc@U?$_List_base_types@PAV?$Goal@VRaven_Bot@@@@V?$allocator@PAV?$Goal@VRaven_Bot@@@@@std@@@std@@@std@@QAEAAV?$_List_val@U?$_List_simple_types@PAV?$Goal@VRaven_Bot@@@@@std@@@2@XZ ; std::_List_alloc<std::_List_base_types<Goal<Raven_Bot> *,std::allocator<Goal<Raven_Bot> *> > >::_Get_data
	add	eax, 8

; 793  : 		}

	add	esp, 4
	cmp	ebp, esp
	call	__RTC_CheckEsp
	mov	esp, ebp
	pop	ebp
	ret	0
?_Mysize@?$_List_alloc@U?$_List_base_types@PAV?$Goal@VRaven_Bot@@@@V?$allocator@PAV?$Goal@VRaven_Bot@@@@@std@@@std@@@std@@QAEAAIXZ ENDP ; std::_List_alloc<std::_List_base_types<Goal<Raven_Bot> *,std::allocator<Goal<Raven_Bot> *> > >::_Mysize
_TEXT	ENDS
; Function compile flags: /Odtp /RTCsu
; File d:\microsoft visual studio 14.0\vc\include\list
;	COMDAT ?_Myhead@?$_List_alloc@U?$_List_base_types@PAV?$Goal@VRaven_Bot@@@@V?$allocator@PAV?$Goal@VRaven_Bot@@@@@std@@@std@@@std@@QBEABQAU?$_List_node@PAV?$Goal@VRaven_Bot@@@@PAX@2@XZ
_TEXT	SEGMENT
_this$ = -4						; size = 4
?_Myhead@?$_List_alloc@U?$_List_base_types@PAV?$Goal@VRaven_Bot@@@@V?$allocator@PAV?$Goal@VRaven_Bot@@@@@std@@@std@@@std@@QBEABQAU?$_List_node@PAV?$Goal@VRaven_Bot@@@@PAX@2@XZ PROC ; std::_List_alloc<std::_List_base_types<Goal<Raven_Bot> *,std::allocator<Goal<Raven_Bot> *> > >::_Myhead, COMDAT
; _this$ = ecx

; 786  : 		{	// return const reference to _Myhead

	push	ebp
	mov	ebp, esp
	push	ecx
	mov	DWORD PTR [ebp-4], -858993460		; ccccccccH
	mov	DWORD PTR _this$[ebp], ecx

; 787  : 		return (_Get_data()._Myhead);

	mov	ecx, DWORD PTR _this$[ebp]
	call	?_Get_data@?$_List_alloc@U?$_List_base_types@PAV?$Goal@VRaven_Bot@@@@V?$allocator@PAV?$Goal@VRaven_Bot@@@@@std@@@std@@@std@@QBEABV?$_List_val@U?$_List_simple_types@PAV?$Goal@VRaven_Bot@@@@@std@@@2@XZ ; std::_List_alloc<std::_List_base_types<Goal<Raven_Bot> *,std::allocator<Goal<Raven_Bot> *> > >::_Get_data
	add	eax, 4

; 788  : 		}

	add	esp, 4
	cmp	ebp, esp
	call	__RTC_CheckEsp
	mov	esp, ebp
	pop	ebp
	ret	0
?_Myhead@?$_List_alloc@U?$_List_base_types@PAV?$Goal@VRaven_Bot@@@@V?$allocator@PAV?$Goal@VRaven_Bot@@@@@std@@@std@@@std@@QBEABQAU?$_List_node@PAV?$Goal@VRaven_Bot@@@@PAX@2@XZ ENDP ; std::_List_alloc<std::_List_base_types<Goal<Raven_Bot> *,std::allocator<Goal<Raven_Bot> *> > >::_Myhead
_TEXT	ENDS
; Function compile flags: /Odtp /RTCsu
; File d:\microsoft visual studio 14.0\vc\include\list
;	COMDAT ?_Myhead@?$_List_alloc@U?$_List_base_types@PAV?$Goal@VRaven_Bot@@@@V?$allocator@PAV?$Goal@VRaven_Bot@@@@@std@@@std@@@std@@QAEAAPAU?$_List_node@PAV?$Goal@VRaven_Bot@@@@PAX@2@XZ
_TEXT	SEGMENT
_this$ = -4						; size = 4
?_Myhead@?$_List_alloc@U?$_List_base_types@PAV?$Goal@VRaven_Bot@@@@V?$allocator@PAV?$Goal@VRaven_Bot@@@@@std@@@std@@@std@@QAEAAPAU?$_List_node@PAV?$Goal@VRaven_Bot@@@@PAX@2@XZ PROC ; std::_List_alloc<std::_List_base_types<Goal<Raven_Bot> *,std::allocator<Goal<Raven_Bot> *> > >::_Myhead, COMDAT
; _this$ = ecx

; 781  : 		{	// return reference to _Myhead

	push	ebp
	mov	ebp, esp
	push	ecx
	mov	DWORD PTR [ebp-4], -858993460		; ccccccccH
	mov	DWORD PTR _this$[ebp], ecx

; 782  : 		return (_Get_data()._Myhead);

	mov	ecx, DWORD PTR _this$[ebp]
	call	?_Get_data@?$_List_alloc@U?$_List_base_types@PAV?$Goal@VRaven_Bot@@@@V?$allocator@PAV?$Goal@VRaven_Bot@@@@@std@@@std@@@std@@QAEAAV?$_List_val@U?$_List_simple_types@PAV?$Goal@VRaven_Bot@@@@@std@@@2@XZ ; std::_List_alloc<std::_List_base_types<Goal<Raven_Bot> *,std::allocator<Goal<Raven_Bot> *> > >::_Get_data
	add	eax, 4

; 783  : 		}

	add	esp, 4
	cmp	ebp, esp
	call	__RTC_CheckEsp
	mov	esp, ebp
	pop	ebp
	ret	0
?_Myhead@?$_List_alloc@U?$_List_base_types@PAV?$Goal@VRaven_Bot@@@@V?$allocator@PAV?$Goal@VRaven_Bot@@@@@std@@@std@@@std@@QAEAAPAU?$_List_node@PAV?$Goal@VRaven_Bot@@@@PAX@2@XZ ENDP ; std::_List_alloc<std::_List_base_types<Goal<Raven_Bot> *,std::allocator<Goal<Raven_Bot> *> > >::_Myhead
_TEXT	ENDS
; Function compile flags: /Odtp /RTCsu
; File d:\microsoft visual studio 14.0\vc\include\list
;	COMDAT ?_Get_data@?$_List_alloc@U?$_List_base_types@PAV?$Goal@VRaven_Bot@@@@V?$allocator@PAV?$Goal@VRaven_Bot@@@@@std@@@std@@@std@@QBEABV?$_List_val@U?$_List_simple_types@PAV?$Goal@VRaven_Bot@@@@@std@@@2@XZ
_TEXT	SEGMENT
_this$ = -4						; size = 4
?_Get_data@?$_List_alloc@U?$_List_base_types@PAV?$Goal@VRaven_Bot@@@@V?$allocator@PAV?$Goal@VRaven_Bot@@@@@std@@@std@@@std@@QBEABV?$_List_val@U?$_List_simple_types@PAV?$Goal@VRaven_Bot@@@@@std@@@2@XZ PROC ; std::_List_alloc<std::_List_base_types<Goal<Raven_Bot> *,std::allocator<Goal<Raven_Bot> *> > >::_Get_data, COMDAT
; _this$ = ecx

; 776  : 		{	// return const reference to _List_val

	push	ebp
	mov	ebp, esp
	push	ecx
	mov	DWORD PTR [ebp-4], -858993460		; ccccccccH
	mov	DWORD PTR _this$[ebp], ecx

; 777  : 		return (_Mypair._Get_second());

	mov	ecx, DWORD PTR _this$[ebp]
	call	?_Get_second@?$_Compressed_pair@U?$_Wrap_alloc@V?$allocator@U?$_List_node@PAV?$Goal@VRaven_Bot@@@@PAX@std@@@std@@@std@@V?$_List_val@U?$_List_simple_types@PAV?$Goal@VRaven_Bot@@@@@std@@@2@$00@std@@QBEABV?$_List_val@U?$_List_simple_types@PAV?$Goal@VRaven_Bot@@@@@std@@@2@XZ ; std::_Compressed_pair<std::_Wrap_alloc<std::allocator<std::_List_node<Goal<Raven_Bot> *,void *> > >,std::_List_val<std::_List_simple_types<Goal<Raven_Bot> *> >,1>::_Get_second

; 778  : 		}

	add	esp, 4
	cmp	ebp, esp
	call	__RTC_CheckEsp
	mov	esp, ebp
	pop	ebp
	ret	0
?_Get_data@?$_List_alloc@U?$_List_base_types@PAV?$Goal@VRaven_Bot@@@@V?$allocator@PAV?$Goal@VRaven_Bot@@@@@std@@@std@@@std@@QBEABV?$_List_val@U?$_List_simple_types@PAV?$Goal@VRaven_Bot@@@@@std@@@2@XZ ENDP ; std::_List_alloc<std::_List_base_types<Goal<Raven_Bot> *,std::allocator<Goal<Raven_Bot> *> > >::_Get_data
_TEXT	ENDS
; Function compile flags: /Odtp /RTCsu
; File d:\microsoft visual studio 14.0\vc\include\list
;	COMDAT ?_Get_data@?$_List_alloc@U?$_List_base_types@PAV?$Goal@VRaven_Bot@@@@V?$allocator@PAV?$Goal@VRaven_Bot@@@@@std@@@std@@@std@@QAEAAV?$_List_val@U?$_List_simple_types@PAV?$Goal@VRaven_Bot@@@@@std@@@2@XZ
_TEXT	SEGMENT
_this$ = -4						; size = 4
?_Get_data@?$_List_alloc@U?$_List_base_types@PAV?$Goal@VRaven_Bot@@@@V?$allocator@PAV?$Goal@VRaven_Bot@@@@@std@@@std@@@std@@QAEAAV?$_List_val@U?$_List_simple_types@PAV?$Goal@VRaven_Bot@@@@@std@@@2@XZ PROC ; std::_List_alloc<std::_List_base_types<Goal<Raven_Bot> *,std::allocator<Goal<Raven_Bot> *> > >::_Get_data, COMDAT
; _this$ = ecx

; 771  : 		{	// return reference to _List_val

	push	ebp
	mov	ebp, esp
	push	ecx
	mov	DWORD PTR [ebp-4], -858993460		; ccccccccH
	mov	DWORD PTR _this$[ebp], ecx

; 772  : 		return (_Mypair._Get_second());

	mov	ecx, DWORD PTR _this$[ebp]
	call	?_Get_second@?$_Compressed_pair@U?$_Wrap_alloc@V?$allocator@U?$_List_node@PAV?$Goal@VRaven_Bot@@@@PAX@std@@@std@@@std@@V?$_List_val@U?$_List_simple_types@PAV?$Goal@VRaven_Bot@@@@@std@@@2@$00@std@@QAEAAV?$_List_val@U?$_List_simple_types@PAV?$Goal@VRaven_Bot@@@@@std@@@2@XZ ; std::_Compressed_pair<std::_Wrap_alloc<std::allocator<std::_List_node<Goal<Raven_Bot> *,void *> > >,std::_List_val<std::_List_simple_types<Goal<Raven_Bot> *> >,1>::_Get_second

; 773  : 		}

	add	esp, 4
	cmp	ebp, esp
	call	__RTC_CheckEsp
	mov	esp, ebp
	pop	ebp
	ret	0
?_Get_data@?$_List_alloc@U?$_List_base_types@PAV?$Goal@VRaven_Bot@@@@V?$allocator@PAV?$Goal@VRaven_Bot@@@@@std@@@std@@@std@@QAEAAV?$_List_val@U?$_List_simple_types@PAV?$Goal@VRaven_Bot@@@@@std@@@2@XZ ENDP ; std::_List_alloc<std::_List_base_types<Goal<Raven_Bot> *,std::allocator<Goal<Raven_Bot> *> > >::_Get_data
_TEXT	ENDS
; Function compile flags: /Odtp /RTCsu
; File d:\microsoft visual studio 14.0\vc\include\list
;	COMDAT ?_Getal@?$_List_alloc@U?$_List_base_types@PAV?$Goal@VRaven_Bot@@@@V?$allocator@PAV?$Goal@VRaven_Bot@@@@@std@@@std@@@std@@QBEABU?$_Wrap_alloc@V?$allocator@U?$_List_node@PAV?$Goal@VRaven_Bot@@@@PAX@std@@@std@@@2@XZ
_TEXT	SEGMENT
_this$ = -4						; size = 4
?_Getal@?$_List_alloc@U?$_List_base_types@PAV?$Goal@VRaven_Bot@@@@V?$allocator@PAV?$Goal@VRaven_Bot@@@@@std@@@std@@@std@@QBEABU?$_Wrap_alloc@V?$allocator@U?$_List_node@PAV?$Goal@VRaven_Bot@@@@PAX@std@@@std@@@2@XZ PROC ; std::_List_alloc<std::_List_base_types<Goal<Raven_Bot> *,std::allocator<Goal<Raven_Bot> *> > >::_Getal, COMDAT
; _this$ = ecx

; 766  : 		{	// return const reference to allocator

	push	ebp
	mov	ebp, esp
	push	ecx
	mov	DWORD PTR [ebp-4], -858993460		; ccccccccH
	mov	DWORD PTR _this$[ebp], ecx

; 767  : 		return (_Mypair._Get_first());

	mov	ecx, DWORD PTR _this$[ebp]
	call	?_Get_first@?$_Compressed_pair@U?$_Wrap_alloc@V?$allocator@U?$_List_node@PAV?$Goal@VRaven_Bot@@@@PAX@std@@@std@@@std@@V?$_List_val@U?$_List_simple_types@PAV?$Goal@VRaven_Bot@@@@@std@@@2@$00@std@@QBEABU?$_Wrap_alloc@V?$allocator@U?$_List_node@PAV?$Goal@VRaven_Bot@@@@PAX@std@@@std@@@2@XZ ; std::_Compressed_pair<std::_Wrap_alloc<std::allocator<std::_List_node<Goal<Raven_Bot> *,void *> > >,std::_List_val<std::_List_simple_types<Goal<Raven_Bot> *> >,1>::_Get_first

; 768  : 		}

	add	esp, 4
	cmp	ebp, esp
	call	__RTC_CheckEsp
	mov	esp, ebp
	pop	ebp
	ret	0
?_Getal@?$_List_alloc@U?$_List_base_types@PAV?$Goal@VRaven_Bot@@@@V?$allocator@PAV?$Goal@VRaven_Bot@@@@@std@@@std@@@std@@QBEABU?$_Wrap_alloc@V?$allocator@U?$_List_node@PAV?$Goal@VRaven_Bot@@@@PAX@std@@@std@@@2@XZ ENDP ; std::_List_alloc<std::_List_base_types<Goal<Raven_Bot> *,std::allocator<Goal<Raven_Bot> *> > >::_Getal
_TEXT	ENDS
; Function compile flags: /Odtp /RTCsu
; File d:\microsoft visual studio 14.0\vc\include\list
;	COMDAT ?_Getal@?$_List_alloc@U?$_List_base_types@PAV?$Goal@VRaven_Bot@@@@V?$allocator@PAV?$Goal@VRaven_Bot@@@@@std@@@std@@@std@@QAEAAU?$_Wrap_alloc@V?$allocator@U?$_List_node@PAV?$Goal@VRaven_Bot@@@@PAX@std@@@std@@@2@XZ
_TEXT	SEGMENT
_this$ = -4						; size = 4
?_Getal@?$_List_alloc@U?$_List_base_types@PAV?$Goal@VRaven_Bot@@@@V?$allocator@PAV?$Goal@VRaven_Bot@@@@@std@@@std@@@std@@QAEAAU?$_Wrap_alloc@V?$allocator@U?$_List_node@PAV?$Goal@VRaven_Bot@@@@PAX@std@@@std@@@2@XZ PROC ; std::_List_alloc<std::_List_base_types<Goal<Raven_Bot> *,std::allocator<Goal<Raven_Bot> *> > >::_Getal, COMDAT
; _this$ = ecx

; 761  : 		{	// return reference to allocator

	push	ebp
	mov	ebp, esp
	push	ecx
	mov	DWORD PTR [ebp-4], -858993460		; ccccccccH
	mov	DWORD PTR _this$[ebp], ecx

; 762  : 		return (_Mypair._Get_first());

	mov	ecx, DWORD PTR _this$[ebp]
	call	?_Get_first@?$_Compressed_pair@U?$_Wrap_alloc@V?$allocator@U?$_List_node@PAV?$Goal@VRaven_Bot@@@@PAX@std@@@std@@@std@@V?$_List_val@U?$_List_simple_types@PAV?$Goal@VRaven_Bot@@@@@std@@@2@$00@std@@QAEAAU?$_Wrap_alloc@V?$allocator@U?$_List_node@PAV?$Goal@VRaven_Bot@@@@PAX@std@@@std@@@2@XZ ; std::_Compressed_pair<std::_Wrap_alloc<std::allocator<std::_List_node<Goal<Raven_Bot> *,void *> > >,std::_List_val<std::_List_simple_types<Goal<Raven_Bot> *> >,1>::_Get_first

; 763  : 		}

	add	esp, 4
	cmp	ebp, esp
	call	__RTC_CheckEsp
	mov	esp, ebp
	pop	ebp
	ret	0
?_Getal@?$_List_alloc@U?$_List_base_types@PAV?$Goal@VRaven_Bot@@@@V?$allocator@PAV?$Goal@VRaven_Bot@@@@@std@@@std@@@std@@QAEAAU?$_Wrap_alloc@V?$allocator@U?$_List_node@PAV?$Goal@VRaven_Bot@@@@PAX@std@@@std@@@2@XZ ENDP ; std::_List_alloc<std::_List_base_types<Goal<Raven_Bot> *,std::allocator<Goal<Raven_Bot> *> > >::_Getal
_TEXT	ENDS
; Function compile flags: /Odtp /RTCsu
; File d:\microsoft visual studio 14.0\vc\include\list
;	COMDAT ?_Orphan_all@?$_List_alloc@U?$_List_base_types@PAV?$Goal@VRaven_Bot@@@@V?$allocator@PAV?$Goal@VRaven_Bot@@@@@std@@@std@@@std@@QAEXXZ
_TEXT	SEGMENT
_this$ = -4						; size = 4
?_Orphan_all@?$_List_alloc@U?$_List_base_types@PAV?$Goal@VRaven_Bot@@@@V?$allocator@PAV?$Goal@VRaven_Bot@@@@@std@@@std@@@std@@QAEXXZ PROC ; std::_List_alloc<std::_List_base_types<Goal<Raven_Bot> *,std::allocator<Goal<Raven_Bot> *> > >::_Orphan_all, COMDAT
; _this$ = ecx

; 751  : 		{	// orphan all iterators

	push	ebp
	mov	ebp, esp
	push	ecx
	mov	DWORD PTR [ebp-4], -858993460		; ccccccccH
	mov	DWORD PTR _this$[ebp], ecx

; 752  : 		_Get_data()._Orphan_all();

	mov	ecx, DWORD PTR _this$[ebp]
	call	?_Get_data@?$_List_alloc@U?$_List_base_types@PAV?$Goal@VRaven_Bot@@@@V?$allocator@PAV?$Goal@VRaven_Bot@@@@@std@@@std@@@std@@QAEAAV?$_List_val@U?$_List_simple_types@PAV?$Goal@VRaven_Bot@@@@@std@@@2@XZ ; std::_List_alloc<std::_List_base_types<Goal<Raven_Bot> *,std::allocator<Goal<Raven_Bot> *> > >::_Get_data
	mov	ecx, eax
	call	?_Orphan_all@_Container_base12@std@@QAEXXZ ; std::_Container_base12::_Orphan_all

; 753  : 		}

	add	esp, 4
	cmp	ebp, esp
	call	__RTC_CheckEsp
	mov	esp, ebp
	pop	ebp
	ret	0
?_Orphan_all@?$_List_alloc@U?$_List_base_types@PAV?$Goal@VRaven_Bot@@@@V?$allocator@PAV?$Goal@VRaven_Bot@@@@@std@@@std@@@std@@QAEXXZ ENDP ; std::_List_alloc<std::_List_base_types<Goal<Raven_Bot> *,std::allocator<Goal<Raven_Bot> *> > >::_Orphan_all
_TEXT	ENDS
; Function compile flags: /Odtp /RTCsu
; File d:\microsoft visual studio 14.0\vc\include\list
;	COMDAT ?_Buynode0@?$_List_alloc@U?$_List_base_types@PAV?$Goal@VRaven_Bot@@@@V?$allocator@PAV?$Goal@VRaven_Bot@@@@@std@@@std@@@std@@QAEPAU?$_List_node@PAV?$Goal@VRaven_Bot@@@@PAX@2@PAU32@0@Z
_TEXT	SEGMENT
tv132 = -32						; size = 4
tv131 = -28						; size = 4
__Pnode$ = -24						; size = 4
_this$ = -20						; size = 4
__$EHRec$ = -16						; size = 16
__Next$ = 8						; size = 4
__Prev$ = 12						; size = 4
?_Buynode0@?$_List_alloc@U?$_List_base_types@PAV?$Goal@VRaven_Bot@@@@V?$allocator@PAV?$Goal@VRaven_Bot@@@@@std@@@std@@@std@@QAEPAU?$_List_node@PAV?$Goal@VRaven_Bot@@@@PAX@2@PAU32@0@Z PROC ; std::_List_alloc<std::_List_base_types<Goal<Raven_Bot> *,std::allocator<Goal<Raven_Bot> *> > >::_Buynode0, COMDAT
; _this$ = ecx

; 729  : 		{	// allocate a node and set links

	push	ebp
	mov	ebp, esp
	push	-1
	push	__ehhandler$?_Buynode0@?$_List_alloc@U?$_List_base_types@PAV?$Goal@VRaven_Bot@@@@V?$allocator@PAV?$Goal@VRaven_Bot@@@@@std@@@std@@@std@@QAEPAU?$_List_node@PAV?$Goal@VRaven_Bot@@@@PAX@2@PAU32@0@Z
	mov	eax, DWORD PTR fs:0
	push	eax
	push	ecx
	sub	esp, 16					; 00000010H
	push	ebx
	push	esi
	push	edi
	mov	eax, -858993460				; ccccccccH
	mov	DWORD PTR [ebp-32], eax
	mov	DWORD PTR [ebp-28], eax
	mov	DWORD PTR [ebp-24], eax
	mov	DWORD PTR [ebp-20], eax
	mov	eax, DWORD PTR ___security_cookie
	xor	eax, ebp
	push	eax
	lea	eax, DWORD PTR __$EHRec$[ebp+4]
	mov	DWORD PTR fs:0, eax
	mov	DWORD PTR __$EHRec$[ebp], esp
	mov	DWORD PTR _this$[ebp], ecx

; 730  : 		_Nodeptr _Pnode = _Getal().allocate(1);

	push	1
	mov	ecx, DWORD PTR _this$[ebp]
	call	?_Getal@?$_List_alloc@U?$_List_base_types@PAV?$Goal@VRaven_Bot@@@@V?$allocator@PAV?$Goal@VRaven_Bot@@@@@std@@@std@@@std@@QAEAAU?$_Wrap_alloc@V?$allocator@U?$_List_node@PAV?$Goal@VRaven_Bot@@@@PAX@std@@@std@@@2@XZ ; std::_List_alloc<std::_List_base_types<Goal<Raven_Bot> *,std::allocator<Goal<Raven_Bot> *> > >::_Getal
	mov	ecx, eax
	call	?allocate@?$_Wrap_alloc@V?$allocator@U?$_List_node@PAV?$Goal@VRaven_Bot@@@@PAX@std@@@std@@@std@@QAEPAU?$_List_node@PAV?$Goal@VRaven_Bot@@@@PAX@2@I@Z ; std::_Wrap_alloc<std::allocator<std::_List_node<Goal<Raven_Bot> *,void *> > >::allocate
	mov	DWORD PTR __Pnode$[ebp], eax

; 731  : 
; 732  : 		if (_Next == _Nodeptr())

	cmp	DWORD PTR __Next$[ebp], 0
	jne	SHORT $LN2@Buynode0

; 733  : 			{	// point at self
; 734  : 			_Next = _Pnode;

	mov	eax, DWORD PTR __Pnode$[ebp]
	mov	DWORD PTR __Next$[ebp], eax

; 735  : 			_Prev = _Pnode;

	mov	ecx, DWORD PTR __Pnode$[ebp]
	mov	DWORD PTR __Prev$[ebp], ecx
$LN2@Buynode0:

; 736  : 			}
; 737  : 		_TRY_BEGIN

	mov	DWORD PTR __$EHRec$[ebp+12], 0

; 738  : 		_Getal().construct(

	mov	edx, DWORD PTR __Pnode$[ebp]
	push	edx
	call	?_Nextnode@?$_List_alloc@U?$_List_base_types@PAV?$Goal@VRaven_Bot@@@@V?$allocator@PAV?$Goal@VRaven_Bot@@@@@std@@@std@@@std@@SAAAPAU?$_List_node@PAV?$Goal@VRaven_Bot@@@@PAX@2@PAU32@@Z ; std::_List_alloc<std::_List_base_types<Goal<Raven_Bot> *,std::allocator<Goal<Raven_Bot> *> > >::_Nextnode
	add	esp, 4
	mov	DWORD PTR tv131[ebp], eax
	lea	eax, DWORD PTR __Next$[ebp]
	push	eax
	mov	ecx, DWORD PTR tv131[ebp]
	push	ecx
	call	??$addressof@PAU?$_List_node@PAV?$Goal@VRaven_Bot@@@@PAX@std@@@std@@YAPAPAU?$_List_node@PAV?$Goal@VRaven_Bot@@@@PAX@0@AAPAU10@@Z ; std::addressof<std::_List_node<Goal<Raven_Bot> *,void *> *>
	add	esp, 4
	push	eax
	mov	ecx, DWORD PTR _this$[ebp]
	call	?_Getal@?$_List_alloc@U?$_List_base_types@PAV?$Goal@VRaven_Bot@@@@V?$allocator@PAV?$Goal@VRaven_Bot@@@@@std@@@std@@@std@@QAEAAU?$_Wrap_alloc@V?$allocator@U?$_List_node@PAV?$Goal@VRaven_Bot@@@@PAX@std@@@std@@@2@XZ ; std::_List_alloc<std::_List_base_types<Goal<Raven_Bot> *,std::allocator<Goal<Raven_Bot> *> > >::_Getal
	mov	ecx, eax
	call	??$construct@PAU?$_List_node@PAV?$Goal@VRaven_Bot@@@@PAX@std@@AAPAU12@@?$_Wrap_alloc@V?$allocator@U?$_List_node@PAV?$Goal@VRaven_Bot@@@@PAX@std@@@std@@@std@@QAEXPAPAU?$_List_node@PAV?$Goal@VRaven_Bot@@@@PAX@1@AAPAU21@@Z ; std::_Wrap_alloc<std::allocator<std::_List_node<Goal<Raven_Bot> *,void *> > >::construct<std::_List_node<Goal<Raven_Bot> *,void *> *,std::_List_node<Goal<Raven_Bot> *,void *> * &>

; 739  : 			_STD addressof(_Nextnode(_Pnode)), _Next);
; 740  : 		_Getal().construct(

	mov	edx, DWORD PTR __Pnode$[ebp]
	push	edx
	call	?_Prevnode@?$_List_alloc@U?$_List_base_types@PAV?$Goal@VRaven_Bot@@@@V?$allocator@PAV?$Goal@VRaven_Bot@@@@@std@@@std@@@std@@SAAAPAU?$_List_node@PAV?$Goal@VRaven_Bot@@@@PAX@2@PAU32@@Z ; std::_List_alloc<std::_List_base_types<Goal<Raven_Bot> *,std::allocator<Goal<Raven_Bot> *> > >::_Prevnode
	add	esp, 4
	mov	DWORD PTR tv132[ebp], eax
	lea	eax, DWORD PTR __Prev$[ebp]
	push	eax
	mov	ecx, DWORD PTR tv132[ebp]
	push	ecx
	call	??$addressof@PAU?$_List_node@PAV?$Goal@VRaven_Bot@@@@PAX@std@@@std@@YAPAPAU?$_List_node@PAV?$Goal@VRaven_Bot@@@@PAX@0@AAPAU10@@Z ; std::addressof<std::_List_node<Goal<Raven_Bot> *,void *> *>
	add	esp, 4
	push	eax
	mov	ecx, DWORD PTR _this$[ebp]
	call	?_Getal@?$_List_alloc@U?$_List_base_types@PAV?$Goal@VRaven_Bot@@@@V?$allocator@PAV?$Goal@VRaven_Bot@@@@@std@@@std@@@std@@QAEAAU?$_Wrap_alloc@V?$allocator@U?$_List_node@PAV?$Goal@VRaven_Bot@@@@PAX@std@@@std@@@2@XZ ; std::_List_alloc<std::_List_base_types<Goal<Raven_Bot> *,std::allocator<Goal<Raven_Bot> *> > >::_Getal
	mov	ecx, eax
	call	??$construct@PAU?$_List_node@PAV?$Goal@VRaven_Bot@@@@PAX@std@@AAPAU12@@?$_Wrap_alloc@V?$allocator@U?$_List_node@PAV?$Goal@VRaven_Bot@@@@PAX@std@@@std@@@std@@QAEXPAPAU?$_List_node@PAV?$Goal@VRaven_Bot@@@@PAX@1@AAPAU21@@Z ; std::_Wrap_alloc<std::allocator<std::_List_node<Goal<Raven_Bot> *,void *> > >::construct<std::_List_node<Goal<Raven_Bot> *,void *> *,std::_List_node<Goal<Raven_Bot> *,void *> * &>
	jmp	SHORT $LN5@Buynode0
__catch$?_Buynode0@?$_List_alloc@U?$_List_base_types@PAV?$Goal@VRaven_Bot@@@@V?$allocator@PAV?$Goal@VRaven_Bot@@@@@std@@@std@@@std@@QAEPAU?$_List_node@PAV?$Goal@VRaven_Bot@@@@PAX@2@PAU32@0@Z$0:

; 741  : 			_STD addressof(_Prevnode(_Pnode)), _Prev);
; 742  : 		_CATCH_ALL
; 743  : 		_Getal().deallocate(_Pnode, 1);

	push	1
	mov	edx, DWORD PTR __Pnode$[ebp]
	push	edx
	mov	ecx, DWORD PTR _this$[ebp]
	call	?_Getal@?$_List_alloc@U?$_List_base_types@PAV?$Goal@VRaven_Bot@@@@V?$allocator@PAV?$Goal@VRaven_Bot@@@@@std@@@std@@@std@@QAEAAU?$_Wrap_alloc@V?$allocator@U?$_List_node@PAV?$Goal@VRaven_Bot@@@@PAX@std@@@std@@@2@XZ ; std::_List_alloc<std::_List_base_types<Goal<Raven_Bot> *,std::allocator<Goal<Raven_Bot> *> > >::_Getal
	mov	ecx, eax
	call	?deallocate@?$_Wrap_alloc@V?$allocator@U?$_List_node@PAV?$Goal@VRaven_Bot@@@@PAX@std@@@std@@@std@@QAEXPAU?$_List_node@PAV?$Goal@VRaven_Bot@@@@PAX@2@I@Z ; std::_Wrap_alloc<std::allocator<std::_List_node<Goal<Raven_Bot> *,void *> > >::deallocate

; 744  : 		_RERAISE;

	push	0
	push	0
	call	__CxxThrowException@8

; 745  : 		_CATCH_END

	mov	eax, $LN8@Buynode0
	ret	0
$LN5@Buynode0:
	mov	DWORD PTR __$EHRec$[ebp+12], -1
	jmp	SHORT __tryend$?_Buynode0@?$_List_alloc@U?$_List_base_types@PAV?$Goal@VRaven_Bot@@@@V?$allocator@PAV?$Goal@VRaven_Bot@@@@@std@@@std@@@std@@QAEPAU?$_List_node@PAV?$Goal@VRaven_Bot@@@@PAX@2@PAU32@0@Z$1
$LN8@Buynode0:
	mov	DWORD PTR __$EHRec$[ebp+12], -1
__tryend$?_Buynode0@?$_List_alloc@U?$_List_base_types@PAV?$Goal@VRaven_Bot@@@@V?$allocator@PAV?$Goal@VRaven_Bot@@@@@std@@@std@@@std@@QAEPAU?$_List_node@PAV?$Goal@VRaven_Bot@@@@PAX@2@PAU32@0@Z$1:

; 746  : 
; 747  : 		return (_Pnode);

	mov	eax, DWORD PTR __Pnode$[ebp]
$LN4@Buynode0:

; 748  : 		}

	mov	ecx, DWORD PTR __$EHRec$[ebp+4]
	mov	DWORD PTR fs:0, ecx
	pop	ecx
	pop	edi
	pop	esi
	pop	ebx
	add	esp, 32					; 00000020H
	cmp	ebp, esp
	call	__RTC_CheckEsp
	mov	esp, ebp
	pop	ebp
	ret	8
_TEXT	ENDS
;	COMDAT text$x
text$x	SEGMENT
__ehhandler$?_Buynode0@?$_List_alloc@U?$_List_base_types@PAV?$Goal@VRaven_Bot@@@@V?$allocator@PAV?$Goal@VRaven_Bot@@@@@std@@@std@@@std@@QAEPAU?$_List_node@PAV?$Goal@VRaven_Bot@@@@PAX@2@PAU32@0@Z:
	mov	edx, DWORD PTR [esp+8]
	lea	eax, DWORD PTR [edx+12]
	mov	ecx, DWORD PTR [edx-36]
	xor	ecx, eax
	call	@__security_check_cookie@4
	mov	eax, OFFSET __ehfuncinfo$?_Buynode0@?$_List_alloc@U?$_List_base_types@PAV?$Goal@VRaven_Bot@@@@V?$allocator@PAV?$Goal@VRaven_Bot@@@@@std@@@std@@@std@@QAEPAU?$_List_node@PAV?$Goal@VRaven_Bot@@@@PAX@2@PAU32@0@Z
	jmp	___CxxFrameHandler3
text$x	ENDS
?_Buynode0@?$_List_alloc@U?$_List_base_types@PAV?$Goal@VRaven_Bot@@@@V?$allocator@PAV?$Goal@VRaven_Bot@@@@@std@@@std@@@std@@QAEPAU?$_List_node@PAV?$Goal@VRaven_Bot@@@@PAX@2@PAU32@0@Z ENDP ; std::_List_alloc<std::_List_base_types<Goal<Raven_Bot> *,std::allocator<Goal<Raven_Bot> *> > >::_Buynode0
; Function compile flags: /Odtp /RTCsu
; File d:\microsoft visual studio 14.0\vc\include\list
;	COMDAT ?_Freeheadnode@?$_List_alloc@U?$_List_base_types@PAV?$Goal@VRaven_Bot@@@@V?$allocator@PAV?$Goal@VRaven_Bot@@@@@std@@@std@@@std@@QAEXPAU?$_List_node@PAV?$Goal@VRaven_Bot@@@@PAX@2@@Z
_TEXT	SEGMENT
_this$ = -4						; size = 4
__Pnode$ = 8						; size = 4
?_Freeheadnode@?$_List_alloc@U?$_List_base_types@PAV?$Goal@VRaven_Bot@@@@V?$allocator@PAV?$Goal@VRaven_Bot@@@@@std@@@std@@@std@@QAEXPAU?$_List_node@PAV?$Goal@VRaven_Bot@@@@PAX@2@@Z PROC ; std::_List_alloc<std::_List_base_types<Goal<Raven_Bot> *,std::allocator<Goal<Raven_Bot> *> > >::_Freeheadnode, COMDAT
; _this$ = ecx

; 719  : 		{	// free head node using current allocator

	push	ebp
	mov	ebp, esp
	push	ecx
	mov	DWORD PTR [ebp-4], -858993460		; ccccccccH
	mov	DWORD PTR _this$[ebp], ecx

; 720  : 		_Getal().destroy(

	mov	eax, DWORD PTR __Pnode$[ebp]
	push	eax
	call	?_Nextnode@?$_List_alloc@U?$_List_base_types@PAV?$Goal@VRaven_Bot@@@@V?$allocator@PAV?$Goal@VRaven_Bot@@@@@std@@@std@@@std@@SAAAPAU?$_List_node@PAV?$Goal@VRaven_Bot@@@@PAX@2@PAU32@@Z ; std::_List_alloc<std::_List_base_types<Goal<Raven_Bot> *,std::allocator<Goal<Raven_Bot> *> > >::_Nextnode
	add	esp, 4
	push	eax
	call	??$addressof@PAU?$_List_node@PAV?$Goal@VRaven_Bot@@@@PAX@std@@@std@@YAPAPAU?$_List_node@PAV?$Goal@VRaven_Bot@@@@PAX@0@AAPAU10@@Z ; std::addressof<std::_List_node<Goal<Raven_Bot> *,void *> *>
	add	esp, 4
	push	eax
	mov	ecx, DWORD PTR _this$[ebp]
	call	?_Getal@?$_List_alloc@U?$_List_base_types@PAV?$Goal@VRaven_Bot@@@@V?$allocator@PAV?$Goal@VRaven_Bot@@@@@std@@@std@@@std@@QAEAAU?$_Wrap_alloc@V?$allocator@U?$_List_node@PAV?$Goal@VRaven_Bot@@@@PAX@std@@@std@@@2@XZ ; std::_List_alloc<std::_List_base_types<Goal<Raven_Bot> *,std::allocator<Goal<Raven_Bot> *> > >::_Getal
	mov	ecx, eax
	call	??$destroy@PAU?$_List_node@PAV?$Goal@VRaven_Bot@@@@PAX@std@@@?$_Wrap_alloc@V?$allocator@U?$_List_node@PAV?$Goal@VRaven_Bot@@@@PAX@std@@@std@@@std@@QAEXPAPAU?$_List_node@PAV?$Goal@VRaven_Bot@@@@PAX@1@@Z ; std::_Wrap_alloc<std::allocator<std::_List_node<Goal<Raven_Bot> *,void *> > >::destroy<std::_List_node<Goal<Raven_Bot> *,void *> *>

; 721  : 			_STD addressof(_Nextnode(_Pnode)));
; 722  : 		_Getal().destroy(

	mov	ecx, DWORD PTR __Pnode$[ebp]
	push	ecx
	call	?_Prevnode@?$_List_alloc@U?$_List_base_types@PAV?$Goal@VRaven_Bot@@@@V?$allocator@PAV?$Goal@VRaven_Bot@@@@@std@@@std@@@std@@SAAAPAU?$_List_node@PAV?$Goal@VRaven_Bot@@@@PAX@2@PAU32@@Z ; std::_List_alloc<std::_List_base_types<Goal<Raven_Bot> *,std::allocator<Goal<Raven_Bot> *> > >::_Prevnode
	add	esp, 4
	push	eax
	call	??$addressof@PAU?$_List_node@PAV?$Goal@VRaven_Bot@@@@PAX@std@@@std@@YAPAPAU?$_List_node@PAV?$Goal@VRaven_Bot@@@@PAX@0@AAPAU10@@Z ; std::addressof<std::_List_node<Goal<Raven_Bot> *,void *> *>
	add	esp, 4
	push	eax
	mov	ecx, DWORD PTR _this$[ebp]
	call	?_Getal@?$_List_alloc@U?$_List_base_types@PAV?$Goal@VRaven_Bot@@@@V?$allocator@PAV?$Goal@VRaven_Bot@@@@@std@@@std@@@std@@QAEAAU?$_Wrap_alloc@V?$allocator@U?$_List_node@PAV?$Goal@VRaven_Bot@@@@PAX@std@@@std@@@2@XZ ; std::_List_alloc<std::_List_base_types<Goal<Raven_Bot> *,std::allocator<Goal<Raven_Bot> *> > >::_Getal
	mov	ecx, eax
	call	??$destroy@PAU?$_List_node@PAV?$Goal@VRaven_Bot@@@@PAX@std@@@?$_Wrap_alloc@V?$allocator@U?$_List_node@PAV?$Goal@VRaven_Bot@@@@PAX@std@@@std@@@std@@QAEXPAPAU?$_List_node@PAV?$Goal@VRaven_Bot@@@@PAX@1@@Z ; std::_Wrap_alloc<std::allocator<std::_List_node<Goal<Raven_Bot> *,void *> > >::destroy<std::_List_node<Goal<Raven_Bot> *,void *> *>

; 723  : 			_STD addressof(_Prevnode(_Pnode)));
; 724  : 		_Getal().deallocate(_Pnode, 1);

	push	1
	mov	edx, DWORD PTR __Pnode$[ebp]
	push	edx
	mov	ecx, DWORD PTR _this$[ebp]
	call	?_Getal@?$_List_alloc@U?$_List_base_types@PAV?$Goal@VRaven_Bot@@@@V?$allocator@PAV?$Goal@VRaven_Bot@@@@@std@@@std@@@std@@QAEAAU?$_Wrap_alloc@V?$allocator@U?$_List_node@PAV?$Goal@VRaven_Bot@@@@PAX@std@@@std@@@2@XZ ; std::_List_alloc<std::_List_base_types<Goal<Raven_Bot> *,std::allocator<Goal<Raven_Bot> *> > >::_Getal
	mov	ecx, eax
	call	?deallocate@?$_Wrap_alloc@V?$allocator@U?$_List_node@PAV?$Goal@VRaven_Bot@@@@PAX@std@@@std@@@std@@QAEXPAU?$_List_node@PAV?$Goal@VRaven_Bot@@@@PAX@2@I@Z ; std::_Wrap_alloc<std::allocator<std::_List_node<Goal<Raven_Bot> *,void *> > >::deallocate

; 725  : 		}

	add	esp, 4
	cmp	ebp, esp
	call	__RTC_CheckEsp
	mov	esp, ebp
	pop	ebp
	ret	4
?_Freeheadnode@?$_List_alloc@U?$_List_base_types@PAV?$Goal@VRaven_Bot@@@@V?$allocator@PAV?$Goal@VRaven_Bot@@@@@std@@@std@@@std@@QAEXPAU?$_List_node@PAV?$Goal@VRaven_Bot@@@@PAX@2@@Z ENDP ; std::_List_alloc<std::_List_base_types<Goal<Raven_Bot> *,std::allocator<Goal<Raven_Bot> *> > >::_Freeheadnode
_TEXT	ENDS
; Function compile flags: /Odtp /RTCsu
; File d:\microsoft visual studio 14.0\vc\include\list
;	COMDAT ?_Buyheadnode@?$_List_alloc@U?$_List_base_types@PAV?$Goal@VRaven_Bot@@@@V?$allocator@PAV?$Goal@VRaven_Bot@@@@@std@@@std@@@std@@QAEPAU?$_List_node@PAV?$Goal@VRaven_Bot@@@@PAX@2@XZ
_TEXT	SEGMENT
_this$ = -4						; size = 4
?_Buyheadnode@?$_List_alloc@U?$_List_base_types@PAV?$Goal@VRaven_Bot@@@@V?$allocator@PAV?$Goal@VRaven_Bot@@@@@std@@@std@@@std@@QAEPAU?$_List_node@PAV?$Goal@VRaven_Bot@@@@PAX@2@XZ PROC ; std::_List_alloc<std::_List_base_types<Goal<Raven_Bot> *,std::allocator<Goal<Raven_Bot> *> > >::_Buyheadnode, COMDAT
; _this$ = ecx

; 714  : 		{	// get head node using current allocator

	push	ebp
	mov	ebp, esp
	push	ecx
	mov	DWORD PTR [ebp-4], -858993460		; ccccccccH
	mov	DWORD PTR _this$[ebp], ecx

; 715  : 		return (_Buynode0(_Nodeptr(), _Nodeptr()));

	push	0
	push	0
	mov	ecx, DWORD PTR _this$[ebp]
	call	?_Buynode0@?$_List_alloc@U?$_List_base_types@PAV?$Goal@VRaven_Bot@@@@V?$allocator@PAV?$Goal@VRaven_Bot@@@@@std@@@std@@@std@@QAEPAU?$_List_node@PAV?$Goal@VRaven_Bot@@@@PAX@2@PAU32@0@Z ; std::_List_alloc<std::_List_base_types<Goal<Raven_Bot> *,std::allocator<Goal<Raven_Bot> *> > >::_Buynode0

; 716  : 		}

	add	esp, 4
	cmp	ebp, esp
	call	__RTC_CheckEsp
	mov	esp, ebp
	pop	ebp
	ret	0
?_Buyheadnode@?$_List_alloc@U?$_List_base_types@PAV?$Goal@VRaven_Bot@@@@V?$allocator@PAV?$Goal@VRaven_Bot@@@@@std@@@std@@@std@@QAEPAU?$_List_node@PAV?$Goal@VRaven_Bot@@@@PAX@2@XZ ENDP ; std::_List_alloc<std::_List_base_types<Goal<Raven_Bot> *,std::allocator<Goal<Raven_Bot> *> > >::_Buyheadnode
_TEXT	ENDS
; Function compile flags: /Odtp /RTCsu
; File d:\microsoft visual studio 14.0\vc\include\list
;	COMDAT ?_Myproxy@?$_List_alloc@U?$_List_base_types@PAV?$Goal@VRaven_Bot@@@@V?$allocator@PAV?$Goal@VRaven_Bot@@@@@std@@@std@@@std@@QAEAAPAU_Container_proxy@2@XZ
_TEXT	SEGMENT
_this$ = -4						; size = 4
?_Myproxy@?$_List_alloc@U?$_List_base_types@PAV?$Goal@VRaven_Bot@@@@V?$allocator@PAV?$Goal@VRaven_Bot@@@@@std@@@std@@@std@@QAEAAPAU_Container_proxy@2@XZ PROC ; std::_List_alloc<std::_List_base_types<Goal<Raven_Bot> *,std::allocator<Goal<Raven_Bot> *> > >::_Myproxy, COMDAT
; _this$ = ecx

; 703  : 		{	// return reference to _Myproxy

	push	ebp
	mov	ebp, esp
	push	ecx
	mov	DWORD PTR [ebp-4], -858993460		; ccccccccH
	mov	DWORD PTR _this$[ebp], ecx

; 704  : 		return (_Get_data()._Myproxy);

	mov	ecx, DWORD PTR _this$[ebp]
	call	?_Get_data@?$_List_alloc@U?$_List_base_types@PAV?$Goal@VRaven_Bot@@@@V?$allocator@PAV?$Goal@VRaven_Bot@@@@@std@@@std@@@std@@QAEAAV?$_List_val@U?$_List_simple_types@PAV?$Goal@VRaven_Bot@@@@@std@@@2@XZ ; std::_List_alloc<std::_List_base_types<Goal<Raven_Bot> *,std::allocator<Goal<Raven_Bot> *> > >::_Get_data

; 705  : 		}

	add	esp, 4
	cmp	ebp, esp
	call	__RTC_CheckEsp
	mov	esp, ebp
	pop	ebp
	ret	0
?_Myproxy@?$_List_alloc@U?$_List_base_types@PAV?$Goal@VRaven_Bot@@@@V?$allocator@PAV?$Goal@VRaven_Bot@@@@@std@@@std@@@std@@QAEAAPAU_Container_proxy@2@XZ ENDP ; std::_List_alloc<std::_List_base_types<Goal<Raven_Bot> *,std::allocator<Goal<Raven_Bot> *> > >::_Myproxy
_TEXT	ENDS
; Function compile flags: /Odtp /RTCsu
; File d:\microsoft visual studio 14.0\vc\include\list
;	COMDAT ?_Getpfirst@?$_List_alloc@U?$_List_base_types@PAV?$Goal@VRaven_Bot@@@@V?$allocator@PAV?$Goal@VRaven_Bot@@@@@std@@@std@@@std@@QBEPAPAU_Iterator_base12@2@XZ
_TEXT	SEGMENT
_this$ = -4						; size = 4
?_Getpfirst@?$_List_alloc@U?$_List_base_types@PAV?$Goal@VRaven_Bot@@@@V?$allocator@PAV?$Goal@VRaven_Bot@@@@@std@@@std@@@std@@QBEPAPAU_Iterator_base12@2@XZ PROC ; std::_List_alloc<std::_List_base_types<Goal<Raven_Bot> *,std::allocator<Goal<Raven_Bot> *> > >::_Getpfirst, COMDAT
; _this$ = ecx

; 698  : 		{	// get address of iterator chain

	push	ebp
	mov	ebp, esp
	push	ecx
	mov	DWORD PTR [ebp-4], -858993460		; ccccccccH
	mov	DWORD PTR _this$[ebp], ecx

; 699  : 		return (_Get_data()._Getpfirst());

	mov	ecx, DWORD PTR _this$[ebp]
	call	?_Get_data@?$_List_alloc@U?$_List_base_types@PAV?$Goal@VRaven_Bot@@@@V?$allocator@PAV?$Goal@VRaven_Bot@@@@@std@@@std@@@std@@QBEABV?$_List_val@U?$_List_simple_types@PAV?$Goal@VRaven_Bot@@@@@std@@@2@XZ ; std::_List_alloc<std::_List_base_types<Goal<Raven_Bot> *,std::allocator<Goal<Raven_Bot> *> > >::_Get_data
	mov	ecx, eax
	call	?_Getpfirst@_Container_base12@std@@QBEPAPAU_Iterator_base12@2@XZ ; std::_Container_base12::_Getpfirst

; 700  : 		}

	add	esp, 4
	cmp	ebp, esp
	call	__RTC_CheckEsp
	mov	esp, ebp
	pop	ebp
	ret	0
?_Getpfirst@?$_List_alloc@U?$_List_base_types@PAV?$Goal@VRaven_Bot@@@@V?$allocator@PAV?$Goal@VRaven_Bot@@@@@std@@@std@@@std@@QBEPAPAU_Iterator_base12@2@XZ ENDP ; std::_List_alloc<std::_List_base_types<Goal<Raven_Bot> *,std::allocator<Goal<Raven_Bot> *> > >::_Getpfirst
_TEXT	ENDS
; Function compile flags: /Odtp /RTCsu
; File d:\microsoft visual studio 14.0\vc\include\list
;	COMDAT ?_Free_proxy@?$_List_alloc@U?$_List_base_types@PAV?$Goal@VRaven_Bot@@@@V?$allocator@PAV?$Goal@VRaven_Bot@@@@@std@@@std@@@std@@QAEXXZ
_TEXT	SEGMENT
__Alproxy$ = -9						; size = 1
_this$ = -4						; size = 4
?_Free_proxy@?$_List_alloc@U?$_List_base_types@PAV?$Goal@VRaven_Bot@@@@V?$allocator@PAV?$Goal@VRaven_Bot@@@@@std@@@std@@@std@@QAEXXZ PROC ; std::_List_alloc<std::_List_base_types<Goal<Raven_Bot> *,std::allocator<Goal<Raven_Bot> *> > >::_Free_proxy, COMDAT
; _this$ = ecx

; 688  : 		{	// destroy proxy

	push	ebp
	mov	ebp, esp
	sub	esp, 16					; 00000010H
	mov	eax, -858993460				; ccccccccH
	mov	DWORD PTR [ebp-16], eax
	mov	DWORD PTR [ebp-12], eax
	mov	DWORD PTR [ebp-8], eax
	mov	DWORD PTR [ebp-4], eax
	mov	DWORD PTR _this$[ebp], ecx

; 689  : 		typename _Alty::template rebind<_Container_proxy>::other
; 690  : 			_Alproxy(_Getal());

	mov	ecx, DWORD PTR _this$[ebp]
	call	?_Getal@?$_List_alloc@U?$_List_base_types@PAV?$Goal@VRaven_Bot@@@@V?$allocator@PAV?$Goal@VRaven_Bot@@@@@std@@@std@@@std@@QAEAAU?$_Wrap_alloc@V?$allocator@U?$_List_node@PAV?$Goal@VRaven_Bot@@@@PAX@std@@@std@@@2@XZ ; std::_List_alloc<std::_List_base_types<Goal<Raven_Bot> *,std::allocator<Goal<Raven_Bot> *> > >::_Getal
	push	eax
	lea	ecx, DWORD PTR __Alproxy$[ebp]
	call	??$?0U?$_Wrap_alloc@V?$allocator@U?$_List_node@PAV?$Goal@VRaven_Bot@@@@PAX@std@@@std@@@std@@@?$_Wrap_alloc@V?$allocator@U_Container_proxy@std@@@std@@@std@@QAE@AAU?$_Wrap_alloc@V?$allocator@U?$_List_node@PAV?$Goal@VRaven_Bot@@@@PAX@std@@@std@@@1@@Z ; std::_Wrap_alloc<std::allocator<std::_Container_proxy> >::_Wrap_alloc<std::allocator<std::_Container_proxy> ><std::_Wrap_alloc<std::allocator<std::_List_node<Goal<Raven_Bot> *,void *> > > >

; 691  : 		_Orphan_all();

	mov	ecx, DWORD PTR _this$[ebp]
	call	?_Orphan_all@?$_List_alloc@U?$_List_base_types@PAV?$Goal@VRaven_Bot@@@@V?$allocator@PAV?$Goal@VRaven_Bot@@@@@std@@@std@@@std@@QAEXXZ ; std::_List_alloc<std::_List_base_types<Goal<Raven_Bot> *,std::allocator<Goal<Raven_Bot> *> > >::_Orphan_all

; 692  : 		_Alproxy.destroy(_Myproxy());

	mov	ecx, DWORD PTR _this$[ebp]
	call	?_Myproxy@?$_List_alloc@U?$_List_base_types@PAV?$Goal@VRaven_Bot@@@@V?$allocator@PAV?$Goal@VRaven_Bot@@@@@std@@@std@@@std@@QAEAAPAU_Container_proxy@2@XZ ; std::_List_alloc<std::_List_base_types<Goal<Raven_Bot> *,std::allocator<Goal<Raven_Bot> *> > >::_Myproxy
	mov	eax, DWORD PTR [eax]
	push	eax
	lea	ecx, DWORD PTR __Alproxy$[ebp]
	call	??$destroy@U_Container_proxy@std@@@?$_Wrap_alloc@V?$allocator@U_Container_proxy@std@@@std@@@std@@QAEXPAU_Container_proxy@1@@Z ; std::_Wrap_alloc<std::allocator<std::_Container_proxy> >::destroy<std::_Container_proxy>

; 693  : 		_Alproxy.deallocate(_Myproxy(), 1);

	push	1
	mov	ecx, DWORD PTR _this$[ebp]
	call	?_Myproxy@?$_List_alloc@U?$_List_base_types@PAV?$Goal@VRaven_Bot@@@@V?$allocator@PAV?$Goal@VRaven_Bot@@@@@std@@@std@@@std@@QAEAAPAU_Container_proxy@2@XZ ; std::_List_alloc<std::_List_base_types<Goal<Raven_Bot> *,std::allocator<Goal<Raven_Bot> *> > >::_Myproxy
	mov	ecx, DWORD PTR [eax]
	push	ecx
	lea	ecx, DWORD PTR __Alproxy$[ebp]
	call	?deallocate@?$_Wrap_alloc@V?$allocator@U_Container_proxy@std@@@std@@@std@@QAEXPAU_Container_proxy@2@I@Z ; std::_Wrap_alloc<std::allocator<std::_Container_proxy> >::deallocate

; 694  : 		_Myproxy() = 0;

	mov	ecx, DWORD PTR _this$[ebp]
	call	?_Myproxy@?$_List_alloc@U?$_List_base_types@PAV?$Goal@VRaven_Bot@@@@V?$allocator@PAV?$Goal@VRaven_Bot@@@@@std@@@std@@@std@@QAEAAPAU_Container_proxy@2@XZ ; std::_List_alloc<std::_List_base_types<Goal<Raven_Bot> *,std::allocator<Goal<Raven_Bot> *> > >::_Myproxy
	mov	DWORD PTR [eax], 0

; 695  : 		}

	push	edx
	mov	ecx, ebp
	push	eax
	lea	edx, DWORD PTR $LN5@Free_proxy
	call	@_RTC_CheckStackVars@8
	pop	eax
	pop	edx
	add	esp, 16					; 00000010H
	cmp	ebp, esp
	call	__RTC_CheckEsp
	mov	esp, ebp
	pop	ebp
	ret	0
$LN5@Free_proxy:
	DD	1
	DD	$LN4@Free_proxy
$LN4@Free_proxy:
	DD	-9					; fffffff7H
	DD	1
	DD	$LN3@Free_proxy
$LN3@Free_proxy:
	DB	95					; 0000005fH
	DB	65					; 00000041H
	DB	108					; 0000006cH
	DB	112					; 00000070H
	DB	114					; 00000072H
	DB	111					; 0000006fH
	DB	120					; 00000078H
	DB	121					; 00000079H
	DB	0
?_Free_proxy@?$_List_alloc@U?$_List_base_types@PAV?$Goal@VRaven_Bot@@@@V?$allocator@PAV?$Goal@VRaven_Bot@@@@@std@@@std@@@std@@QAEXXZ ENDP ; std::_List_alloc<std::_List_base_types<Goal<Raven_Bot> *,std::allocator<Goal<Raven_Bot> *> > >::_Free_proxy
_TEXT	ENDS
; Function compile flags: /Odtp /RTCsu
; File d:\microsoft visual studio 14.0\vc\include\list
;	COMDAT ?_Alloc_proxy@?$_List_alloc@U?$_List_base_types@PAV?$Goal@VRaven_Bot@@@@V?$allocator@PAV?$Goal@VRaven_Bot@@@@@std@@@std@@@std@@QAEXXZ
_TEXT	SEGMENT
$T1 = -24						; size = 8
__Alproxy$ = -9						; size = 1
_this$ = -4						; size = 4
?_Alloc_proxy@?$_List_alloc@U?$_List_base_types@PAV?$Goal@VRaven_Bot@@@@V?$allocator@PAV?$Goal@VRaven_Bot@@@@@std@@@std@@@std@@QAEXXZ PROC ; std::_List_alloc<std::_List_base_types<Goal<Raven_Bot> *,std::allocator<Goal<Raven_Bot> *> > >::_Alloc_proxy, COMDAT
; _this$ = ecx

; 679  : 		{	// construct proxy

	push	ebp
	mov	ebp, esp
	sub	esp, 24					; 00000018H
	push	esi
	mov	eax, -858993460				; ccccccccH
	mov	DWORD PTR [ebp-24], eax
	mov	DWORD PTR [ebp-20], eax
	mov	DWORD PTR [ebp-16], eax
	mov	DWORD PTR [ebp-12], eax
	mov	DWORD PTR [ebp-8], eax
	mov	DWORD PTR [ebp-4], eax
	mov	DWORD PTR _this$[ebp], ecx

; 680  : 		typename _Alty::template rebind<_Container_proxy>::other
; 681  : 			_Alproxy(_Getal());

	mov	ecx, DWORD PTR _this$[ebp]
	call	?_Getal@?$_List_alloc@U?$_List_base_types@PAV?$Goal@VRaven_Bot@@@@V?$allocator@PAV?$Goal@VRaven_Bot@@@@@std@@@std@@@std@@QAEAAU?$_Wrap_alloc@V?$allocator@U?$_List_node@PAV?$Goal@VRaven_Bot@@@@PAX@std@@@std@@@2@XZ ; std::_List_alloc<std::_List_base_types<Goal<Raven_Bot> *,std::allocator<Goal<Raven_Bot> *> > >::_Getal
	push	eax
	lea	ecx, DWORD PTR __Alproxy$[ebp]
	call	??$?0U?$_Wrap_alloc@V?$allocator@U?$_List_node@PAV?$Goal@VRaven_Bot@@@@PAX@std@@@std@@@std@@@?$_Wrap_alloc@V?$allocator@U_Container_proxy@std@@@std@@@std@@QAE@AAU?$_Wrap_alloc@V?$allocator@U?$_List_node@PAV?$Goal@VRaven_Bot@@@@PAX@std@@@std@@@1@@Z ; std::_Wrap_alloc<std::allocator<std::_Container_proxy> >::_Wrap_alloc<std::allocator<std::_Container_proxy> ><std::_Wrap_alloc<std::allocator<std::_List_node<Goal<Raven_Bot> *,void *> > > >

; 682  : 		_Myproxy() = _Alproxy.allocate(1);

	push	1
	lea	ecx, DWORD PTR __Alproxy$[ebp]
	call	?allocate@?$_Wrap_alloc@V?$allocator@U_Container_proxy@std@@@std@@@std@@QAEPAU_Container_proxy@2@I@Z ; std::_Wrap_alloc<std::allocator<std::_Container_proxy> >::allocate
	mov	esi, eax
	mov	ecx, DWORD PTR _this$[ebp]
	call	?_Myproxy@?$_List_alloc@U?$_List_base_types@PAV?$Goal@VRaven_Bot@@@@V?$allocator@PAV?$Goal@VRaven_Bot@@@@@std@@@std@@@std@@QAEAAPAU_Container_proxy@2@XZ ; std::_List_alloc<std::_List_base_types<Goal<Raven_Bot> *,std::allocator<Goal<Raven_Bot> *> > >::_Myproxy
	mov	DWORD PTR [eax], esi

; 683  : 		_Alproxy.construct(_Myproxy(), _Container_proxy());

	lea	ecx, DWORD PTR $T1[ebp]
	call	??0_Container_proxy@std@@QAE@XZ		; std::_Container_proxy::_Container_proxy
	push	eax
	mov	ecx, DWORD PTR _this$[ebp]
	call	?_Myproxy@?$_List_alloc@U?$_List_base_types@PAV?$Goal@VRaven_Bot@@@@V?$allocator@PAV?$Goal@VRaven_Bot@@@@@std@@@std@@@std@@QAEAAPAU_Container_proxy@2@XZ ; std::_List_alloc<std::_List_base_types<Goal<Raven_Bot> *,std::allocator<Goal<Raven_Bot> *> > >::_Myproxy
	mov	eax, DWORD PTR [eax]
	push	eax
	lea	ecx, DWORD PTR __Alproxy$[ebp]
	call	??$construct@U_Container_proxy@std@@U12@@?$_Wrap_alloc@V?$allocator@U_Container_proxy@std@@@std@@@std@@QAEXPAU_Container_proxy@1@$$QAU21@@Z ; std::_Wrap_alloc<std::allocator<std::_Container_proxy> >::construct<std::_Container_proxy,std::_Container_proxy>

; 684  : 		_Myproxy()->_Mycont = &_Get_data();

	mov	ecx, DWORD PTR _this$[ebp]
	call	?_Get_data@?$_List_alloc@U?$_List_base_types@PAV?$Goal@VRaven_Bot@@@@V?$allocator@PAV?$Goal@VRaven_Bot@@@@@std@@@std@@@std@@QAEAAV?$_List_val@U?$_List_simple_types@PAV?$Goal@VRaven_Bot@@@@@std@@@2@XZ ; std::_List_alloc<std::_List_base_types<Goal<Raven_Bot> *,std::allocator<Goal<Raven_Bot> *> > >::_Get_data
	mov	esi, eax
	mov	ecx, DWORD PTR _this$[ebp]
	call	?_Myproxy@?$_List_alloc@U?$_List_base_types@PAV?$Goal@VRaven_Bot@@@@V?$allocator@PAV?$Goal@VRaven_Bot@@@@@std@@@std@@@std@@QAEAAPAU_Container_proxy@2@XZ ; std::_List_alloc<std::_List_base_types<Goal<Raven_Bot> *,std::allocator<Goal<Raven_Bot> *> > >::_Myproxy
	mov	ecx, DWORD PTR [eax]
	mov	DWORD PTR [ecx], esi

; 685  : 		}

	push	edx
	mov	ecx, ebp
	push	eax
	lea	edx, DWORD PTR $LN5@Alloc_prox
	call	@_RTC_CheckStackVars@8
	pop	eax
	pop	edx
	pop	esi
	add	esp, 24					; 00000018H
	cmp	ebp, esp
	call	__RTC_CheckEsp
	mov	esp, ebp
	pop	ebp
	ret	0
	npad	2
$LN5@Alloc_prox:
	DD	1
	DD	$LN4@Alloc_prox
$LN4@Alloc_prox:
	DD	-9					; fffffff7H
	DD	1
	DD	$LN3@Alloc_prox
$LN3@Alloc_prox:
	DB	95					; 0000005fH
	DB	65					; 00000041H
	DB	108					; 0000006cH
	DB	112					; 00000070H
	DB	114					; 00000072H
	DB	111					; 0000006fH
	DB	120					; 00000078H
	DB	121					; 00000079H
	DB	0
?_Alloc_proxy@?$_List_alloc@U?$_List_base_types@PAV?$Goal@VRaven_Bot@@@@V?$allocator@PAV?$Goal@VRaven_Bot@@@@@std@@@std@@@std@@QAEXXZ ENDP ; std::_List_alloc<std::_List_base_types<Goal<Raven_Bot> *,std::allocator<Goal<Raven_Bot> *> > >::_Alloc_proxy
_TEXT	ENDS
; Function compile flags: /Odtp /RTCsu
; File d:\microsoft visual studio 14.0\vc\include\list
;	COMDAT ??1?$_List_alloc@U?$_List_base_types@PAV?$Goal@VRaven_Bot@@@@V?$allocator@PAV?$Goal@VRaven_Bot@@@@@std@@@std@@@std@@QAE@XZ
_TEXT	SEGMENT
_this$ = -16						; size = 4
__$EHRec$ = -12						; size = 12
??1?$_List_alloc@U?$_List_base_types@PAV?$Goal@VRaven_Bot@@@@V?$allocator@PAV?$Goal@VRaven_Bot@@@@@std@@@std@@@std@@QAE@XZ PROC ; std::_List_alloc<std::_List_base_types<Goal<Raven_Bot> *,std::allocator<Goal<Raven_Bot> *> > >::~_List_alloc<std::_List_base_types<Goal<Raven_Bot> *,std::allocator<Goal<Raven_Bot> *> > >, COMDAT
; _this$ = ecx

; 653  : 		{	// destroy proxy

	push	ebp
	mov	ebp, esp
	push	-1
	push	__ehhandler$??1?$_List_alloc@U?$_List_base_types@PAV?$Goal@VRaven_Bot@@@@V?$allocator@PAV?$Goal@VRaven_Bot@@@@@std@@@std@@@std@@QAE@XZ
	mov	eax, DWORD PTR fs:0
	push	eax
	push	ecx
	mov	DWORD PTR [ebp-16], -858993460		; ccccccccH
	mov	eax, DWORD PTR ___security_cookie
	xor	eax, ebp
	push	eax
	lea	eax, DWORD PTR __$EHRec$[ebp]
	mov	DWORD PTR fs:0, eax
	mov	DWORD PTR _this$[ebp], ecx

; 654  : 		_Freeheadnode(_Myhead());

	mov	ecx, DWORD PTR _this$[ebp]
	call	?_Myhead@?$_List_alloc@U?$_List_base_types@PAV?$Goal@VRaven_Bot@@@@V?$allocator@PAV?$Goal@VRaven_Bot@@@@@std@@@std@@@std@@QAEAAPAU?$_List_node@PAV?$Goal@VRaven_Bot@@@@PAX@2@XZ ; std::_List_alloc<std::_List_base_types<Goal<Raven_Bot> *,std::allocator<Goal<Raven_Bot> *> > >::_Myhead
	mov	eax, DWORD PTR [eax]
	push	eax
	mov	ecx, DWORD PTR _this$[ebp]
	call	?_Freeheadnode@?$_List_alloc@U?$_List_base_types@PAV?$Goal@VRaven_Bot@@@@V?$allocator@PAV?$Goal@VRaven_Bot@@@@@std@@@std@@@std@@QAEXPAU?$_List_node@PAV?$Goal@VRaven_Bot@@@@PAX@2@@Z ; std::_List_alloc<std::_List_base_types<Goal<Raven_Bot> *,std::allocator<Goal<Raven_Bot> *> > >::_Freeheadnode

; 655  : 		_Free_proxy();

	mov	ecx, DWORD PTR _this$[ebp]
	call	?_Free_proxy@?$_List_alloc@U?$_List_base_types@PAV?$Goal@VRaven_Bot@@@@V?$allocator@PAV?$Goal@VRaven_Bot@@@@@std@@@std@@@std@@QAEXXZ ; std::_List_alloc<std::_List_base_types<Goal<Raven_Bot> *,std::allocator<Goal<Raven_Bot> *> > >::_Free_proxy

; 656  : 		}

	mov	ecx, DWORD PTR _this$[ebp]
	call	??1?$_Compressed_pair@U?$_Wrap_alloc@V?$allocator@U?$_List_node@PAV?$Goal@VRaven_Bot@@@@PAX@std@@@std@@@std@@V?$_List_val@U?$_List_simple_types@PAV?$Goal@VRaven_Bot@@@@@std@@@2@$00@std@@QAE@XZ
	mov	ecx, DWORD PTR __$EHRec$[ebp]
	mov	DWORD PTR fs:0, ecx
	pop	ecx
	add	esp, 16					; 00000010H
	cmp	ebp, esp
	call	__RTC_CheckEsp
	mov	esp, ebp
	pop	ebp
	ret	0
_TEXT	ENDS
;	COMDAT text$x
text$x	SEGMENT
__ehhandler$??1?$_List_alloc@U?$_List_base_types@PAV?$Goal@VRaven_Bot@@@@V?$allocator@PAV?$Goal@VRaven_Bot@@@@@std@@@std@@@std@@QAE@XZ:
	mov	edx, DWORD PTR [esp+8]
	lea	eax, DWORD PTR [edx+12]
	mov	ecx, DWORD PTR [edx-8]
	xor	ecx, eax
	call	@__security_check_cookie@4
	mov	eax, OFFSET __ehfuncinfo$??1?$_List_alloc@U?$_List_base_types@PAV?$Goal@VRaven_Bot@@@@V?$allocator@PAV?$Goal@VRaven_Bot@@@@@std@@@std@@@std@@QAE@XZ
	jmp	___CxxFrameHandler3
text$x	ENDS
??1?$_List_alloc@U?$_List_base_types@PAV?$Goal@VRaven_Bot@@@@V?$allocator@PAV?$Goal@VRaven_Bot@@@@@std@@@std@@@std@@QAE@XZ ENDP ; std::_List_alloc<std::_List_base_types<Goal<Raven_Bot> *,std::allocator<Goal<Raven_Bot> *> > >::~_List_alloc<std::_List_base_types<Goal<Raven_Bot> *,std::allocator<Goal<Raven_Bot> *> > >
; Function compile flags: /Odtp /RTCsu
; File d:\microsoft visual studio 14.0\vc\include\list
;	COMDAT ??0?$_List_alloc@U?$_List_base_types@PAV?$Goal@VRaven_Bot@@@@V?$allocator@PAV?$Goal@VRaven_Bot@@@@@std@@@std@@@std@@QAE@ABV?$allocator@PAV?$Goal@VRaven_Bot@@@@@1@@Z
_TEXT	SEGMENT
$T2 = -21						; size = 1
_this$ = -20						; size = 4
__$EHRec$ = -16						; size = 16
__Al$ = 8						; size = 4
??0?$_List_alloc@U?$_List_base_types@PAV?$Goal@VRaven_Bot@@@@V?$allocator@PAV?$Goal@VRaven_Bot@@@@@std@@@std@@@std@@QAE@ABV?$allocator@PAV?$Goal@VRaven_Bot@@@@@1@@Z PROC ; std::_List_alloc<std::_List_base_types<Goal<Raven_Bot> *,std::allocator<Goal<Raven_Bot> *> > >::_List_alloc<std::_List_base_types<Goal<Raven_Bot> *,std::allocator<Goal<Raven_Bot> *> > >, COMDAT
; _this$ = ecx

; 630  : 		{	// construct head node, allocator from _Al

	push	ebp
	mov	ebp, esp
	push	-1
	push	__ehhandler$??0?$_List_alloc@U?$_List_base_types@PAV?$Goal@VRaven_Bot@@@@V?$allocator@PAV?$Goal@VRaven_Bot@@@@@std@@@std@@@std@@QAE@ABV?$allocator@PAV?$Goal@VRaven_Bot@@@@@1@@Z
	mov	eax, DWORD PTR fs:0
	push	eax
	push	ecx
	sub	esp, 8
	push	ebx
	push	esi
	push	edi
	mov	DWORD PTR [ebp-24], -858993460		; ccccccccH
	mov	DWORD PTR [ebp-20], -858993460		; ccccccccH
	mov	eax, DWORD PTR ___security_cookie
	xor	eax, ebp
	push	eax
	lea	eax, DWORD PTR __$EHRec$[ebp+4]
	mov	DWORD PTR fs:0, eax
	mov	DWORD PTR __$EHRec$[ebp], esp
	mov	DWORD PTR _this$[ebp], ecx

; 629  : 		: _Mypair(_One_then_variadic_args_t(), _Al)

	mov	eax, DWORD PTR __Al$[ebp]
	push	eax
	movzx	ecx, BYTE PTR $T2[ebp]
	push	ecx
	mov	ecx, DWORD PTR _this$[ebp]
	call	??$?0ABV?$allocator@PAV?$Goal@VRaven_Bot@@@@@std@@$$V@?$_Compressed_pair@U?$_Wrap_alloc@V?$allocator@U?$_List_node@PAV?$Goal@VRaven_Bot@@@@PAX@std@@@std@@@std@@V?$_List_val@U?$_List_simple_types@PAV?$Goal@VRaven_Bot@@@@@std@@@2@$00@std@@QAE@U_One_then_variadic_args_t@1@ABV?$allocator@PAV?$Goal@VRaven_Bot@@@@@1@@Z ; std::_Compressed_pair<std::_Wrap_alloc<std::allocator<std::_List_node<Goal<Raven_Bot> *,void *> > >,std::_List_val<std::_List_simple_types<Goal<Raven_Bot> *> >,1>::_Compressed_pair<std::_Wrap_alloc<std::allocator<std::_List_node<Goal<Raven_Bot> *,void *> > >,std::_List_val<std::_List_simple_types<Goal<Raven_Bot> *> >,1><std::allocator<Goal<Raven_Bot> *> const &>
	mov	DWORD PTR __$EHRec$[ebp+12], 0

; 631  : 		_Myhead() = _Buyheadnode();

	mov	ecx, DWORD PTR _this$[ebp]
	call	?_Buyheadnode@?$_List_alloc@U?$_List_base_types@PAV?$Goal@VRaven_Bot@@@@V?$allocator@PAV?$Goal@VRaven_Bot@@@@@std@@@std@@@std@@QAEPAU?$_List_node@PAV?$Goal@VRaven_Bot@@@@PAX@2@XZ ; std::_List_alloc<std::_List_base_types<Goal<Raven_Bot> *,std::allocator<Goal<Raven_Bot> *> > >::_Buyheadnode
	mov	esi, eax
	mov	ecx, DWORD PTR _this$[ebp]
	call	?_Myhead@?$_List_alloc@U?$_List_base_types@PAV?$Goal@VRaven_Bot@@@@V?$allocator@PAV?$Goal@VRaven_Bot@@@@@std@@@std@@@std@@QAEAAPAU?$_List_node@PAV?$Goal@VRaven_Bot@@@@PAX@2@XZ ; std::_List_alloc<std::_List_base_types<Goal<Raven_Bot> *,std::allocator<Goal<Raven_Bot> *> > >::_Myhead
	mov	DWORD PTR [eax], esi

; 632  : 		_TRY_BEGIN

	mov	BYTE PTR __$EHRec$[ebp+12], 1

; 633  : 		_Alloc_proxy();

	mov	ecx, DWORD PTR _this$[ebp]
	call	?_Alloc_proxy@?$_List_alloc@U?$_List_base_types@PAV?$Goal@VRaven_Bot@@@@V?$allocator@PAV?$Goal@VRaven_Bot@@@@@std@@@std@@@std@@QAEXXZ ; std::_List_alloc<std::_List_base_types<Goal<Raven_Bot> *,std::allocator<Goal<Raven_Bot> *> > >::_Alloc_proxy
	jmp	SHORT $LN4@List_alloc
__catch$??0?$_List_alloc@U?$_List_base_types@PAV?$Goal@VRaven_Bot@@@@V?$allocator@PAV?$Goal@VRaven_Bot@@@@@std@@@std@@@std@@QAE@ABV?$allocator@PAV?$Goal@VRaven_Bot@@@@@1@@Z$0:

; 634  : 		_CATCH_ALL
; 635  : 		_Freeheadnode(_Myhead());

	mov	ecx, DWORD PTR _this$[ebp]
	call	?_Myhead@?$_List_alloc@U?$_List_base_types@PAV?$Goal@VRaven_Bot@@@@V?$allocator@PAV?$Goal@VRaven_Bot@@@@@std@@@std@@@std@@QAEAAPAU?$_List_node@PAV?$Goal@VRaven_Bot@@@@PAX@2@XZ ; std::_List_alloc<std::_List_base_types<Goal<Raven_Bot> *,std::allocator<Goal<Raven_Bot> *> > >::_Myhead
	mov	edx, DWORD PTR [eax]
	push	edx
	mov	ecx, DWORD PTR _this$[ebp]
	call	?_Freeheadnode@?$_List_alloc@U?$_List_base_types@PAV?$Goal@VRaven_Bot@@@@V?$allocator@PAV?$Goal@VRaven_Bot@@@@@std@@@std@@@std@@QAEXPAU?$_List_node@PAV?$Goal@VRaven_Bot@@@@PAX@2@@Z ; std::_List_alloc<std::_List_base_types<Goal<Raven_Bot> *,std::allocator<Goal<Raven_Bot> *> > >::_Freeheadnode

; 636  : 		_RERAISE;

	push	0
	push	0
	call	__CxxThrowException@8

; 637  : 		_CATCH_END

	mov	eax, $LN8@List_alloc
	ret	0
$LN4@List_alloc:
	mov	DWORD PTR __$EHRec$[ebp+12], 0
	jmp	SHORT $LN1@List_alloc
$LN8@List_alloc:
	mov	DWORD PTR __$EHRec$[ebp+12], 0
$LN1@List_alloc:

; 638  : 		}

	mov	DWORD PTR __$EHRec$[ebp+12], -1
	mov	eax, DWORD PTR _this$[ebp]
$LN3@List_alloc:
	mov	ecx, DWORD PTR __$EHRec$[ebp+4]
	mov	DWORD PTR fs:0, ecx
	pop	ecx
	pop	edi
	pop	esi
	pop	ebx
	add	esp, 24					; 00000018H
	cmp	ebp, esp
	call	__RTC_CheckEsp
	mov	esp, ebp
	pop	ebp
	ret	4
_TEXT	ENDS
;	COMDAT text$x
text$x	SEGMENT
__unwindfunclet$??0?$_List_alloc@U?$_List_base_types@PAV?$Goal@VRaven_Bot@@@@V?$allocator@PAV?$Goal@VRaven_Bot@@@@@std@@@std@@@std@@QAE@ABV?$allocator@PAV?$Goal@VRaven_Bot@@@@@1@@Z$2:
	mov	ecx, DWORD PTR _this$[ebp]
	jmp	??1?$_Compressed_pair@U?$_Wrap_alloc@V?$allocator@U?$_List_node@PAV?$Goal@VRaven_Bot@@@@PAX@std@@@std@@@std@@V?$_List_val@U?$_List_simple_types@PAV?$Goal@VRaven_Bot@@@@@std@@@2@$00@std@@QAE@XZ
__ehhandler$??0?$_List_alloc@U?$_List_base_types@PAV?$Goal@VRaven_Bot@@@@V?$allocator@PAV?$Goal@VRaven_Bot@@@@@std@@@std@@@std@@QAE@ABV?$allocator@PAV?$Goal@VRaven_Bot@@@@@1@@Z:
	mov	edx, DWORD PTR [esp+8]
	lea	eax, DWORD PTR [edx+12]
	mov	ecx, DWORD PTR [edx-28]
	xor	ecx, eax
	call	@__security_check_cookie@4
	mov	eax, OFFSET __ehfuncinfo$??0?$_List_alloc@U?$_List_base_types@PAV?$Goal@VRaven_Bot@@@@V?$allocator@PAV?$Goal@VRaven_Bot@@@@@std@@@std@@@std@@QAE@ABV?$allocator@PAV?$Goal@VRaven_Bot@@@@@1@@Z
	jmp	___CxxFrameHandler3
text$x	ENDS
??0?$_List_alloc@U?$_List_base_types@PAV?$Goal@VRaven_Bot@@@@V?$allocator@PAV?$Goal@VRaven_Bot@@@@@std@@@std@@@std@@QAE@ABV?$allocator@PAV?$Goal@VRaven_Bot@@@@@1@@Z ENDP ; std::_List_alloc<std::_List_base_types<Goal<Raven_Bot> *,std::allocator<Goal<Raven_Bot> *> > >::_List_alloc<std::_List_base_types<Goal<Raven_Bot> *,std::allocator<Goal<Raven_Bot> *> > >
; Function compile flags: /Odtp /RTCsu
; File d:\microsoft visual studio 14.0\vc\include\list
;	COMDAT ?_Myval@?$_List_alloc@U?$_List_base_types@PAV?$Goal@VRaven_Bot@@@@V?$allocator@PAV?$Goal@VRaven_Bot@@@@@std@@@std@@@std@@SAAAPAV?$Goal@VRaven_Bot@@@@PAU?$_List_node@PAV?$Goal@VRaven_Bot@@@@PAX@2@@Z
_TEXT	SEGMENT
__Pnode$ = 8						; size = 4
?_Myval@?$_List_alloc@U?$_List_base_types@PAV?$Goal@VRaven_Bot@@@@V?$allocator@PAV?$Goal@VRaven_Bot@@@@@std@@@std@@@std@@SAAAPAV?$Goal@VRaven_Bot@@@@PAU?$_List_node@PAV?$Goal@VRaven_Bot@@@@PAX@2@@Z PROC ; std::_List_alloc<std::_List_base_types<Goal<Raven_Bot> *,std::allocator<Goal<Raven_Bot> *> > >::_Myval, COMDAT

; 590  : 		{	// return reference to value in node

	push	ebp
	mov	ebp, esp

; 591  : 		return (_List_val<_Val_types>::_Myval(_Pnode));

	mov	eax, DWORD PTR __Pnode$[ebp]
	push	eax
	call	?_Myval@?$_List_val@U?$_List_simple_types@PAV?$Goal@VRaven_Bot@@@@@std@@@std@@SAAAPAV?$Goal@VRaven_Bot@@@@PAU?$_List_node@PAV?$Goal@VRaven_Bot@@@@PAX@2@@Z ; std::_List_val<std::_List_simple_types<Goal<Raven_Bot> *> >::_Myval
	add	esp, 4

; 592  : 		}

	cmp	ebp, esp
	call	__RTC_CheckEsp
	pop	ebp
	ret	0
?_Myval@?$_List_alloc@U?$_List_base_types@PAV?$Goal@VRaven_Bot@@@@V?$allocator@PAV?$Goal@VRaven_Bot@@@@@std@@@std@@@std@@SAAAPAV?$Goal@VRaven_Bot@@@@PAU?$_List_node@PAV?$Goal@VRaven_Bot@@@@PAX@2@@Z ENDP ; std::_List_alloc<std::_List_base_types<Goal<Raven_Bot> *,std::allocator<Goal<Raven_Bot> *> > >::_Myval
_TEXT	ENDS
; Function compile flags: /Odtp /RTCsu
; File d:\microsoft visual studio 14.0\vc\include\list
;	COMDAT ?_Prevnode@?$_List_alloc@U?$_List_base_types@PAV?$Goal@VRaven_Bot@@@@V?$allocator@PAV?$Goal@VRaven_Bot@@@@@std@@@std@@@std@@SAAAPAU?$_List_node@PAV?$Goal@VRaven_Bot@@@@PAX@2@PAU32@@Z
_TEXT	SEGMENT
__Pnode$ = 8						; size = 4
?_Prevnode@?$_List_alloc@U?$_List_base_types@PAV?$Goal@VRaven_Bot@@@@V?$allocator@PAV?$Goal@VRaven_Bot@@@@@std@@@std@@@std@@SAAAPAU?$_List_node@PAV?$Goal@VRaven_Bot@@@@PAX@2@PAU32@@Z PROC ; std::_List_alloc<std::_List_base_types<Goal<Raven_Bot> *,std::allocator<Goal<Raven_Bot> *> > >::_Prevnode, COMDAT

; 585  : 		{	// return reference to predecessor pointer in node

	push	ebp
	mov	ebp, esp

; 586  : 		return (_List_val<_Val_types>::_Prevnode(_Pnode));

	mov	eax, DWORD PTR __Pnode$[ebp]
	push	eax
	call	?_Prevnode@?$_List_val@U?$_List_simple_types@PAV?$Goal@VRaven_Bot@@@@@std@@@std@@SAAAPAU?$_List_node@PAV?$Goal@VRaven_Bot@@@@PAX@2@PAU32@@Z ; std::_List_val<std::_List_simple_types<Goal<Raven_Bot> *> >::_Prevnode
	add	esp, 4

; 587  : 		}

	cmp	ebp, esp
	call	__RTC_CheckEsp
	pop	ebp
	ret	0
?_Prevnode@?$_List_alloc@U?$_List_base_types@PAV?$Goal@VRaven_Bot@@@@V?$allocator@PAV?$Goal@VRaven_Bot@@@@@std@@@std@@@std@@SAAAPAU?$_List_node@PAV?$Goal@VRaven_Bot@@@@PAX@2@PAU32@@Z ENDP ; std::_List_alloc<std::_List_base_types<Goal<Raven_Bot> *,std::allocator<Goal<Raven_Bot> *> > >::_Prevnode
_TEXT	ENDS
; Function compile flags: /Odtp /RTCsu
; File d:\microsoft visual studio 14.0\vc\include\list
;	COMDAT ?_Nextnode@?$_List_alloc@U?$_List_base_types@PAV?$Goal@VRaven_Bot@@@@V?$allocator@PAV?$Goal@VRaven_Bot@@@@@std@@@std@@@std@@SAAAPAU?$_List_node@PAV?$Goal@VRaven_Bot@@@@PAX@2@PAU32@@Z
_TEXT	SEGMENT
__Pnode$ = 8						; size = 4
?_Nextnode@?$_List_alloc@U?$_List_base_types@PAV?$Goal@VRaven_Bot@@@@V?$allocator@PAV?$Goal@VRaven_Bot@@@@@std@@@std@@@std@@SAAAPAU?$_List_node@PAV?$Goal@VRaven_Bot@@@@PAX@2@PAU32@@Z PROC ; std::_List_alloc<std::_List_base_types<Goal<Raven_Bot> *,std::allocator<Goal<Raven_Bot> *> > >::_Nextnode, COMDAT

; 580  : 		{	// return reference to successor pointer in node

	push	ebp
	mov	ebp, esp

; 581  : 		return (_List_val<_Val_types>::_Nextnode(_Pnode));

	mov	eax, DWORD PTR __Pnode$[ebp]
	push	eax
	call	?_Nextnode@?$_List_val@U?$_List_simple_types@PAV?$Goal@VRaven_Bot@@@@@std@@@std@@SAAAPAU?$_List_node@PAV?$Goal@VRaven_Bot@@@@PAX@2@PAU32@@Z ; std::_List_val<std::_List_simple_types<Goal<Raven_Bot> *> >::_Nextnode
	add	esp, 4

; 582  : 		}

	cmp	ebp, esp
	call	__RTC_CheckEsp
	pop	ebp
	ret	0
?_Nextnode@?$_List_alloc@U?$_List_base_types@PAV?$Goal@VRaven_Bot@@@@V?$allocator@PAV?$Goal@VRaven_Bot@@@@@std@@@std@@@std@@SAAAPAU?$_List_node@PAV?$Goal@VRaven_Bot@@@@PAX@2@PAU32@@Z ENDP ; std::_List_alloc<std::_List_base_types<Goal<Raven_Bot> *,std::allocator<Goal<Raven_Bot> *> > >::_Nextnode
_TEXT	ENDS
; Function compile flags: /Odtp /RTCsu
; File d:\microsoft visual studio 14.0\vc\include\xmemory0
;	COMDAT ?max_size@?$_Wrap_alloc@V?$allocator@U?$_List_node@PAV?$Goal@VRaven_Bot@@@@PAX@std@@@std@@@std@@QBEIU_Nil@2@@Z
_TEXT	SEGMENT
_this$ = -4						; size = 4
___formal$ = 8						; size = 1
?max_size@?$_Wrap_alloc@V?$allocator@U?$_List_node@PAV?$Goal@VRaven_Bot@@@@PAX@std@@@std@@@std@@QBEIU_Nil@2@@Z PROC ; std::_Wrap_alloc<std::allocator<std::_List_node<Goal<Raven_Bot> *,void *> > >::max_size, COMDAT
; _this$ = ecx

; 931  : 		{	// get maximum size

	push	ebp
	mov	ebp, esp
	push	ecx
	mov	DWORD PTR [ebp-4], -858993460		; ccccccccH
	mov	DWORD PTR _this$[ebp], ecx

; 932  : 		return (_Mytraits::max_size(*this));

	mov	eax, DWORD PTR _this$[ebp]
	push	eax
	call	?max_size@?$allocator_traits@V?$allocator@U?$_List_node@PAV?$Goal@VRaven_Bot@@@@PAX@std@@@std@@@std@@SAIABV?$allocator@U?$_List_node@PAV?$Goal@VRaven_Bot@@@@PAX@std@@@2@@Z ; std::allocator_traits<std::allocator<std::_List_node<Goal<Raven_Bot> *,void *> > >::max_size
	add	esp, 4

; 933  : 		}

	add	esp, 4
	cmp	ebp, esp
	call	__RTC_CheckEsp
	mov	esp, ebp
	pop	ebp
	ret	4
?max_size@?$_Wrap_alloc@V?$allocator@U?$_List_node@PAV?$Goal@VRaven_Bot@@@@PAX@std@@@std@@@std@@QBEIU_Nil@2@@Z ENDP ; std::_Wrap_alloc<std::allocator<std::_List_node<Goal<Raven_Bot> *,void *> > >::max_size
_TEXT	ENDS
; Function compile flags: /Odtp /RTCsu
; File d:\microsoft visual studio 14.0\vc\include\xmemory0
;	COMDAT ?deallocate@?$_Wrap_alloc@V?$allocator@U?$_List_node@PAV?$Goal@VRaven_Bot@@@@PAX@std@@@std@@@std@@QAEXPAU?$_List_node@PAV?$Goal@VRaven_Bot@@@@PAX@2@I@Z
_TEXT	SEGMENT
_this$ = -4						; size = 4
__Ptr$ = 8						; size = 4
__Count$ = 12						; size = 4
?deallocate@?$_Wrap_alloc@V?$allocator@U?$_List_node@PAV?$Goal@VRaven_Bot@@@@PAX@std@@@std@@@std@@QAEXPAU?$_List_node@PAV?$Goal@VRaven_Bot@@@@PAX@2@I@Z PROC ; std::_Wrap_alloc<std::allocator<std::_List_node<Goal<Raven_Bot> *,void *> > >::deallocate, COMDAT
; _this$ = ecx

; 910  : 		{	// deallocate object at _Ptr, ignore size

	push	ebp
	mov	ebp, esp
	push	ecx
	mov	DWORD PTR [ebp-4], -858993460		; ccccccccH
	mov	DWORD PTR _this$[ebp], ecx

; 911  : 		_Mybase::deallocate(_Ptr, _Count);

	mov	eax, DWORD PTR __Count$[ebp]
	push	eax
	mov	ecx, DWORD PTR __Ptr$[ebp]
	push	ecx
	mov	ecx, DWORD PTR _this$[ebp]
	call	?deallocate@?$allocator@U?$_List_node@PAV?$Goal@VRaven_Bot@@@@PAX@std@@@std@@QAEXPAU?$_List_node@PAV?$Goal@VRaven_Bot@@@@PAX@2@I@Z ; std::allocator<std::_List_node<Goal<Raven_Bot> *,void *> >::deallocate

; 912  : 		}

	add	esp, 4
	cmp	ebp, esp
	call	__RTC_CheckEsp
	mov	esp, ebp
	pop	ebp
	ret	8
?deallocate@?$_Wrap_alloc@V?$allocator@U?$_List_node@PAV?$Goal@VRaven_Bot@@@@PAX@std@@@std@@@std@@QAEXPAU?$_List_node@PAV?$Goal@VRaven_Bot@@@@PAX@2@I@Z ENDP ; std::_Wrap_alloc<std::allocator<std::_List_node<Goal<Raven_Bot> *,void *> > >::deallocate
_TEXT	ENDS
; Function compile flags: /Odtp /RTCsu
; File d:\microsoft visual studio 14.0\vc\include\xmemory0
;	COMDAT ?allocate@?$_Wrap_alloc@V?$allocator@U?$_List_node@PAV?$Goal@VRaven_Bot@@@@PAX@std@@@std@@@std@@QAEPAU?$_List_node@PAV?$Goal@VRaven_Bot@@@@PAX@2@I@Z
_TEXT	SEGMENT
_this$ = -4						; size = 4
__Count$ = 8						; size = 4
?allocate@?$_Wrap_alloc@V?$allocator@U?$_List_node@PAV?$Goal@VRaven_Bot@@@@PAX@std@@@std@@@std@@QAEPAU?$_List_node@PAV?$Goal@VRaven_Bot@@@@PAX@2@I@Z PROC ; std::_Wrap_alloc<std::allocator<std::_List_node<Goal<Raven_Bot> *,void *> > >::allocate, COMDAT
; _this$ = ecx

; 899  : 		{	// allocate array of _Count elements

	push	ebp
	mov	ebp, esp
	push	ecx
	mov	DWORD PTR [ebp-4], -858993460		; ccccccccH
	mov	DWORD PTR _this$[ebp], ecx

; 900  : 		return (_Mybase::allocate(_Count));

	mov	eax, DWORD PTR __Count$[ebp]
	push	eax
	mov	ecx, DWORD PTR _this$[ebp]
	call	?allocate@?$allocator@U?$_List_node@PAV?$Goal@VRaven_Bot@@@@PAX@std@@@std@@QAEPAU?$_List_node@PAV?$Goal@VRaven_Bot@@@@PAX@2@I@Z ; std::allocator<std::_List_node<Goal<Raven_Bot> *,void *> >::allocate

; 901  : 		}

	add	esp, 4
	cmp	ebp, esp
	call	__RTC_CheckEsp
	mov	esp, ebp
	pop	ebp
	ret	4
?allocate@?$_Wrap_alloc@V?$allocator@U?$_List_node@PAV?$Goal@VRaven_Bot@@@@PAX@std@@@std@@@std@@QAEPAU?$_List_node@PAV?$Goal@VRaven_Bot@@@@PAX@2@I@Z ENDP ; std::_Wrap_alloc<std::allocator<std::_List_node<Goal<Raven_Bot> *,void *> > >::allocate
_TEXT	ENDS
; Function compile flags: /Odtp /RTCsu
; File d:\microsoft visual studio 14.0\vc\include\xmemory0
;	COMDAT ?max_size@?$allocator_traits@V?$allocator@U?$_List_node@PAV?$Goal@VRaven_Bot@@@@PAX@std@@@std@@@std@@SAIABV?$allocator@U?$_List_node@PAV?$Goal@VRaven_Bot@@@@PAX@std@@@2@@Z
_TEXT	SEGMENT
__Al$ = 8						; size = 4
?max_size@?$allocator_traits@V?$allocator@U?$_List_node@PAV?$Goal@VRaven_Bot@@@@PAX@std@@@std@@@std@@SAIABV?$allocator@U?$_List_node@PAV?$Goal@VRaven_Bot@@@@PAX@std@@@2@@Z PROC ; std::allocator_traits<std::allocator<std::_List_node<Goal<Raven_Bot> *,void *> > >::max_size, COMDAT

; 786  : 		{	// get maximum size

	push	ebp
	mov	ebp, esp

; 787  : 		return (_Al.max_size());

	mov	ecx, DWORD PTR __Al$[ebp]
	call	?max_size@?$allocator@U?$_List_node@PAV?$Goal@VRaven_Bot@@@@PAX@std@@@std@@QBEIXZ ; std::allocator<std::_List_node<Goal<Raven_Bot> *,void *> >::max_size

; 788  : 		}

	cmp	ebp, esp
	call	__RTC_CheckEsp
	pop	ebp
	ret	0
?max_size@?$allocator_traits@V?$allocator@U?$_List_node@PAV?$Goal@VRaven_Bot@@@@PAX@std@@@std@@@std@@SAIABV?$allocator@U?$_List_node@PAV?$Goal@VRaven_Bot@@@@PAX@std@@@2@@Z ENDP ; std::allocator_traits<std::allocator<std::_List_node<Goal<Raven_Bot> *,void *> > >::max_size
_TEXT	ENDS
; Function compile flags: /Odtp /RTCsu
; File d:\microsoft visual studio 14.0\vc\include\xmemory0
;	COMDAT ?max_size@?$allocator@U?$_List_node@PAV?$Goal@VRaven_Bot@@@@PAX@std@@@std@@QBEIXZ
_TEXT	SEGMENT
_this$ = -4						; size = 4
?max_size@?$allocator@U?$_List_node@PAV?$Goal@VRaven_Bot@@@@PAX@std@@@std@@QBEIXZ PROC ; std::allocator<std::_List_node<Goal<Raven_Bot> *,void *> >::max_size, COMDAT
; _this$ = ecx

; 668  : 		{	// estimate maximum array size

	push	ebp
	mov	ebp, esp
	push	ecx
	mov	DWORD PTR [ebp-4], -858993460		; ccccccccH
	mov	DWORD PTR _this$[ebp], ecx

; 669  : 		return ((size_t)(-1) / sizeof (_Ty));

	mov	eax, 357913941				; 15555555H

; 670  : 		}

	mov	esp, ebp
	pop	ebp
	ret	0
?max_size@?$allocator@U?$_List_node@PAV?$Goal@VRaven_Bot@@@@PAX@std@@@std@@QBEIXZ ENDP ; std::allocator<std::_List_node<Goal<Raven_Bot> *,void *> >::max_size
_TEXT	ENDS
; Function compile flags: /Odtp /RTCsu
; File d:\microsoft visual studio 14.0\vc\include\xmemory0
;	COMDAT ?allocate@?$allocator@U?$_List_node@PAV?$Goal@VRaven_Bot@@@@PAX@std@@@std@@QAEPAU?$_List_node@PAV?$Goal@VRaven_Bot@@@@PAX@2@I@Z
_TEXT	SEGMENT
_this$ = -4						; size = 4
__Count$ = 8						; size = 4
?allocate@?$allocator@U?$_List_node@PAV?$Goal@VRaven_Bot@@@@PAX@std@@@std@@QAEPAU?$_List_node@PAV?$Goal@VRaven_Bot@@@@PAX@2@I@Z PROC ; std::allocator<std::_List_node<Goal<Raven_Bot> *,void *> >::allocate, COMDAT
; _this$ = ecx

; 644  : 		{	// allocate array of _Count elements

	push	ebp
	mov	ebp, esp
	push	ecx
	mov	DWORD PTR [ebp-4], -858993460		; ccccccccH
	mov	DWORD PTR _this$[ebp], ecx

; 645  : 		return (_Allocate(_Count, (pointer)0));

	push	1
	push	0
	mov	eax, DWORD PTR __Count$[ebp]
	push	eax
	call	??$_Allocate@U?$_List_node@PAV?$Goal@VRaven_Bot@@@@PAX@std@@@std@@YAPAU?$_List_node@PAV?$Goal@VRaven_Bot@@@@PAX@0@IPAU10@_N@Z ; std::_Allocate<std::_List_node<Goal<Raven_Bot> *,void *> >
	add	esp, 12					; 0000000cH

; 646  : 		}

	add	esp, 4
	cmp	ebp, esp
	call	__RTC_CheckEsp
	mov	esp, ebp
	pop	ebp
	ret	4
?allocate@?$allocator@U?$_List_node@PAV?$Goal@VRaven_Bot@@@@PAX@std@@@std@@QAEPAU?$_List_node@PAV?$Goal@VRaven_Bot@@@@PAX@2@I@Z ENDP ; std::allocator<std::_List_node<Goal<Raven_Bot> *,void *> >::allocate
_TEXT	ENDS
; Function compile flags: /Odtp /RTCsu
; File d:\microsoft visual studio 14.0\vc\include\xmemory0
;	COMDAT ?deallocate@?$allocator@U?$_List_node@PAV?$Goal@VRaven_Bot@@@@PAX@std@@@std@@QAEXPAU?$_List_node@PAV?$Goal@VRaven_Bot@@@@PAX@2@I@Z
_TEXT	SEGMENT
_this$ = -4						; size = 4
__Ptr$ = 8						; size = 4
__Count$ = 12						; size = 4
?deallocate@?$allocator@U?$_List_node@PAV?$Goal@VRaven_Bot@@@@PAX@std@@@std@@QAEXPAU?$_List_node@PAV?$Goal@VRaven_Bot@@@@PAX@2@I@Z PROC ; std::allocator<std::_List_node<Goal<Raven_Bot> *,void *> >::deallocate, COMDAT
; _this$ = ecx

; 639  : 		{	// deallocate object at _Ptr

	push	ebp
	mov	ebp, esp
	push	ecx
	mov	DWORD PTR [ebp-4], -858993460		; ccccccccH
	mov	DWORD PTR _this$[ebp], ecx

; 640  : 		_Deallocate(_Ptr, _Count);

	mov	eax, DWORD PTR __Count$[ebp]
	push	eax
	mov	ecx, DWORD PTR __Ptr$[ebp]
	push	ecx
	call	??$_Deallocate@U?$_List_node@PAV?$Goal@VRaven_Bot@@@@PAX@std@@@std@@YAXPAU?$_List_node@PAV?$Goal@VRaven_Bot@@@@PAX@0@I@Z ; std::_Deallocate<std::_List_node<Goal<Raven_Bot> *,void *> >
	add	esp, 8

; 641  : 		}

	add	esp, 4
	cmp	ebp, esp
	call	__RTC_CheckEsp
	mov	esp, ebp
	pop	ebp
	ret	8
?deallocate@?$allocator@U?$_List_node@PAV?$Goal@VRaven_Bot@@@@PAX@std@@@std@@QAEXPAU?$_List_node@PAV?$Goal@VRaven_Bot@@@@PAX@2@I@Z ENDP ; std::allocator<std::_List_node<Goal<Raven_Bot> *,void *> >::deallocate
_TEXT	ENDS
; Function compile flags: /Odtp /RTCsu
; File d:\microsoft visual studio 14.0\vc\include\xmemory0
;	COMDAT ??0?$allocator@PAV?$Goal@VRaven_Bot@@@@@std@@QAE@XZ
_TEXT	SEGMENT
_this$ = -4						; size = 4
??0?$allocator@PAV?$Goal@VRaven_Bot@@@@@std@@QAE@XZ PROC ; std::allocator<Goal<Raven_Bot> *>::allocator<Goal<Raven_Bot> *>, COMDAT
; _this$ = ecx

; 619  : 	allocator() _THROW0()

	push	ebp
	mov	ebp, esp
	push	ecx
	mov	DWORD PTR [ebp-4], -858993460		; ccccccccH
	mov	DWORD PTR _this$[ebp], ecx

; 620  : 		{	// construct default allocator (do nothing)
; 621  : 		}

	mov	eax, DWORD PTR _this$[ebp]
	mov	esp, ebp
	pop	ebp
	ret	0
??0?$allocator@PAV?$Goal@VRaven_Bot@@@@@std@@QAE@XZ ENDP ; std::allocator<Goal<Raven_Bot> *>::allocator<Goal<Raven_Bot> *>
_TEXT	ENDS
; Function compile flags: /Odtp /RTCsu
;	COMDAT ??_G?$Goal@VRaven_Bot@@@@UAEPAXI@Z
_TEXT	SEGMENT
_this$ = -4						; size = 4
___flags$ = 8						; size = 4
??_G?$Goal@VRaven_Bot@@@@UAEPAXI@Z PROC			; Goal<Raven_Bot>::`scalar deleting destructor', COMDAT
; _this$ = ecx
	push	ebp
	mov	ebp, esp
	push	ecx
	mov	DWORD PTR [ebp-4], -858993460		; ccccccccH
	mov	DWORD PTR _this$[ebp], ecx
	mov	ecx, DWORD PTR _this$[ebp]
	call	??1?$Goal@VRaven_Bot@@@@UAE@XZ		; Goal<Raven_Bot>::~Goal<Raven_Bot>
	mov	eax, DWORD PTR ___flags$[ebp]
	and	eax, 1
	je	SHORT $LN2@scalar
	push	16					; 00000010H
	mov	ecx, DWORD PTR _this$[ebp]
	push	ecx
	call	??3@YAXPAXI@Z				; operator delete
	add	esp, 8
$LN2@scalar:
	mov	eax, DWORD PTR _this$[ebp]
	add	esp, 4
	cmp	ebp, esp
	call	__RTC_CheckEsp
	mov	esp, ebp
	pop	ebp
	ret	4
??_G?$Goal@VRaven_Bot@@@@UAEPAXI@Z ENDP			; Goal<Raven_Bot>::`scalar deleting destructor'
_TEXT	ENDS
; Function compile flags: /Odtp /RTCsu
; File d:\cours\uqac\intelligence artificielle - jeux vidéos\buckland_aisource\mini_projet_raven\common\goals\goal.h
;	COMDAT ?Render@?$Goal@VRaven_Bot@@@@UAEXXZ
_TEXT	SEGMENT
_this$ = -4						; size = 4
?Render@?$Goal@VRaven_Bot@@@@UAEXXZ PROC		; Goal<Raven_Bot>::Render, COMDAT
; _this$ = ecx

; 93   :   virtual void Render(){}

	push	ebp
	mov	ebp, esp
	push	ecx
	mov	DWORD PTR [ebp-4], -858993460		; ccccccccH
	mov	DWORD PTR _this$[ebp], ecx
	mov	esp, ebp
	pop	ebp
	ret	0
?Render@?$Goal@VRaven_Bot@@@@UAEXXZ ENDP		; Goal<Raven_Bot>::Render
_TEXT	ENDS
; Function compile flags: /Odtp /RTCsu
; File d:\cours\uqac\intelligence artificielle - jeux vidéos\buckland_aisource\mini_projet_raven\common\goals\goal.h
;	COMDAT ?RenderAtPos@?$Goal@VRaven_Bot@@@@UBEXAAUVector2D@@PAVTypeToString@@@Z
_TEXT	SEGMENT
tv155 = -56						; size = 4
tv156 = -52						; size = 4
$T2 = -48						; size = 28
_this$ = -20						; size = 4
__$ArrayPad$ = -16					; size = 4
__$EHRec$ = -12						; size = 12
_pos$ = 8						; size = 4
_tts$ = 12						; size = 4
?RenderAtPos@?$Goal@VRaven_Bot@@@@UBEXAAUVector2D@@PAVTypeToString@@@Z PROC ; Goal<Raven_Bot>::RenderAtPos, COMDAT
; _this$ = ecx

; 123  : {

	push	ebp
	mov	ebp, esp
	push	-1
	push	__ehhandler$?RenderAtPos@?$Goal@VRaven_Bot@@@@UBEXAAUVector2D@@PAVTypeToString@@@Z
	mov	eax, DWORD PTR fs:0
	push	eax
	sub	esp, 44					; 0000002cH
	push	esi
	push	edi
	push	ecx
	lea	edi, DWORD PTR [ebp-56]
	mov	ecx, 11					; 0000000bH
	mov	eax, -858993460				; ccccccccH
	rep stosd
	pop	ecx
	mov	eax, DWORD PTR ___security_cookie
	xor	eax, ebp
	mov	DWORD PTR __$ArrayPad$[ebp], eax
	push	eax
	lea	eax, DWORD PTR __$EHRec$[ebp]
	mov	DWORD PTR fs:0, eax
	mov	DWORD PTR _this$[ebp], ecx

; 124  :   pos.y += 15;

	mov	eax, DWORD PTR _pos$[ebp]
	movsd	xmm0, QWORD PTR [eax+8]
	addsd	xmm0, QWORD PTR __real@402e000000000000
	mov	ecx, DWORD PTR _pos$[ebp]
	movsd	QWORD PTR [ecx+8], xmm0

; 125  :   gdi->TransparentText();

	call	?Instance@Cgdi@@SAPAV1@XZ		; Cgdi::Instance
	mov	ecx, eax
	call	?TransparentText@Cgdi@@QAEXXZ		; Cgdi::TransparentText

; 126  :   if (isComplete()) gdi->TextColor(0,255,0);

	mov	ecx, DWORD PTR _this$[ebp]
	call	?isComplete@?$Goal@VRaven_Bot@@@@QBE_NXZ ; Goal<Raven_Bot>::isComplete
	movzx	edx, al
	test	edx, edx
	je	SHORT $LN2@RenderAtPo
	push	0
	push	255					; 000000ffH
	push	0
	call	?Instance@Cgdi@@SAPAV1@XZ		; Cgdi::Instance
	mov	ecx, eax
	call	?TextColor@Cgdi@@QAEXHHH@Z		; Cgdi::TextColor
$LN2@RenderAtPo:

; 127  :   if (isInactive()) gdi->TextColor(0,0,0);

	mov	ecx, DWORD PTR _this$[ebp]
	call	?isInactive@?$Goal@VRaven_Bot@@@@QBE_NXZ ; Goal<Raven_Bot>::isInactive
	movzx	eax, al
	test	eax, eax
	je	SHORT $LN3@RenderAtPo
	push	0
	push	0
	push	0
	call	?Instance@Cgdi@@SAPAV1@XZ		; Cgdi::Instance
	mov	ecx, eax
	call	?TextColor@Cgdi@@QAEXHHH@Z		; Cgdi::TextColor
$LN3@RenderAtPo:

; 128  :   if (hasFailed()) gdi->TextColor(255,0,0);

	mov	ecx, DWORD PTR _this$[ebp]
	call	?hasFailed@?$Goal@VRaven_Bot@@@@QBE_NXZ	; Goal<Raven_Bot>::hasFailed
	movzx	ecx, al
	test	ecx, ecx
	je	SHORT $LN4@RenderAtPo
	push	0
	push	0
	push	255					; 000000ffH
	call	?Instance@Cgdi@@SAPAV1@XZ		; Cgdi::Instance
	mov	ecx, eax
	call	?TextColor@Cgdi@@QAEXHHH@Z		; Cgdi::TextColor
$LN4@RenderAtPo:

; 129  :   if (isActive()) gdi->TextColor(0,0,255);

	mov	ecx, DWORD PTR _this$[ebp]
	call	?isActive@?$Goal@VRaven_Bot@@@@QBE_NXZ	; Goal<Raven_Bot>::isActive
	movzx	edx, al
	test	edx, edx
	je	SHORT $LN5@RenderAtPo
	push	255					; 000000ffH
	push	0
	push	0
	call	?Instance@Cgdi@@SAPAV1@XZ		; Cgdi::Instance
	mov	ecx, eax
	call	?TextColor@Cgdi@@QAEXHHH@Z		; Cgdi::TextColor
$LN5@RenderAtPo:

; 130  : 
; 131  :   gdi->TextAtPos(pos.x, pos.y, tts->Convert(GetType())); 

	mov	ecx, DWORD PTR _this$[ebp]
	call	?GetType@?$Goal@VRaven_Bot@@@@QBEHXZ	; Goal<Raven_Bot>::GetType
	mov	esi, esp
	push	eax
	lea	eax, DWORD PTR $T2[ebp]
	push	eax
	mov	ecx, DWORD PTR _tts$[ebp]
	mov	edx, DWORD PTR [ecx]
	mov	ecx, DWORD PTR _tts$[ebp]
	mov	eax, DWORD PTR [edx]
	call	eax
	cmp	esi, esp
	call	__RTC_CheckEsp
	mov	DWORD PTR tv156[ebp], eax
	mov	ecx, DWORD PTR tv156[ebp]
	mov	DWORD PTR tv155[ebp], ecx
	mov	DWORD PTR __$EHRec$[ebp+8], 0
	mov	edx, DWORD PTR tv155[ebp]
	push	edx
	mov	eax, DWORD PTR _pos$[ebp]
	sub	esp, 8
	movsd	xmm0, QWORD PTR [eax+8]
	movsd	QWORD PTR [esp], xmm0
	mov	ecx, DWORD PTR _pos$[ebp]
	sub	esp, 8
	movsd	xmm0, QWORD PTR [ecx]
	movsd	QWORD PTR [esp], xmm0
	call	?Instance@Cgdi@@SAPAV1@XZ		; Cgdi::Instance
	mov	ecx, eax
	call	?TextAtPos@Cgdi@@QAEXNNABV?$basic_string@DU?$char_traits@D@std@@V?$allocator@D@2@@std@@@Z ; Cgdi::TextAtPos
	mov	DWORD PTR __$EHRec$[ebp+8], -1
	lea	ecx, DWORD PTR $T2[ebp]
	call	??1?$basic_string@DU?$char_traits@D@std@@V?$allocator@D@2@@std@@QAE@XZ ; std::basic_string<char,std::char_traits<char>,std::allocator<char> >::~basic_string<char,std::char_traits<char>,std::allocator<char> >

; 132  : }

	mov	ecx, DWORD PTR __$EHRec$[ebp]
	mov	DWORD PTR fs:0, ecx
	pop	ecx
	pop	edi
	pop	esi
	mov	ecx, DWORD PTR __$ArrayPad$[ebp]
	xor	ecx, ebp
	call	@__security_check_cookie@4
	add	esp, 56					; 00000038H
	cmp	ebp, esp
	call	__RTC_CheckEsp
	mov	esp, ebp
	pop	ebp
	ret	8
_TEXT	ENDS
;	COMDAT text$x
text$x	SEGMENT
__unwindfunclet$?RenderAtPos@?$Goal@VRaven_Bot@@@@UBEXAAUVector2D@@PAVTypeToString@@@Z$0:
	lea	ecx, DWORD PTR $T2[ebp]
	jmp	??1?$basic_string@DU?$char_traits@D@std@@V?$allocator@D@2@@std@@QAE@XZ ; std::basic_string<char,std::char_traits<char>,std::allocator<char> >::~basic_string<char,std::char_traits<char>,std::allocator<char> >
__ehhandler$?RenderAtPos@?$Goal@VRaven_Bot@@@@UBEXAAUVector2D@@PAVTypeToString@@@Z:
	mov	edx, DWORD PTR [esp+8]
	lea	eax, DWORD PTR [edx+12]
	mov	ecx, DWORD PTR [edx-56]
	xor	ecx, eax
	call	@__security_check_cookie@4
	mov	ecx, DWORD PTR [edx-4]
	xor	ecx, eax
	call	@__security_check_cookie@4
	mov	eax, OFFSET __ehfuncinfo$?RenderAtPos@?$Goal@VRaven_Bot@@@@UBEXAAUVector2D@@PAVTypeToString@@@Z
	jmp	___CxxFrameHandler3
text$x	ENDS
?RenderAtPos@?$Goal@VRaven_Bot@@@@UBEXAAUVector2D@@PAVTypeToString@@@Z ENDP ; Goal<Raven_Bot>::RenderAtPos
; Function compile flags: /Odtp /RTCsu
; File d:\cours\uqac\intelligence artificielle - jeux vidéos\buckland_aisource\mini_projet_raven\common\goals\goal.h
;	COMDAT ?GetType@?$Goal@VRaven_Bot@@@@QBEHXZ
_TEXT	SEGMENT
_this$ = -4						; size = 4
?GetType@?$Goal@VRaven_Bot@@@@QBEHXZ PROC		; Goal<Raven_Bot>::GetType, COMDAT
; _this$ = ecx

; 84   :   int          GetType()const{return m_iType;}

	push	ebp
	mov	ebp, esp
	push	ecx
	mov	DWORD PTR [ebp-4], -858993460		; ccccccccH
	mov	DWORD PTR _this$[ebp], ecx
	mov	eax, DWORD PTR _this$[ebp]
	mov	eax, DWORD PTR [eax+4]
	mov	esp, ebp
	pop	ebp
	ret	0
?GetType@?$Goal@VRaven_Bot@@@@QBEHXZ ENDP		; Goal<Raven_Bot>::GetType
_TEXT	ENDS
; Function compile flags: /Odtp /RTCsu
; File d:\cours\uqac\intelligence artificielle - jeux vidéos\buckland_aisource\mini_projet_raven\common\goals\goal.h
;	COMDAT ?hasFailed@?$Goal@VRaven_Bot@@@@QBE_NXZ
_TEXT	SEGMENT
tv66 = -8						; size = 4
_this$ = -4						; size = 4
?hasFailed@?$Goal@VRaven_Bot@@@@QBE_NXZ PROC		; Goal<Raven_Bot>::hasFailed, COMDAT
; _this$ = ecx

; 83   :   bool         hasFailed()const{return m_iStatus == failed;}

	push	ebp
	mov	ebp, esp
	sub	esp, 8
	mov	DWORD PTR [ebp-8], -858993460		; ccccccccH
	mov	DWORD PTR [ebp-4], -858993460		; ccccccccH
	mov	DWORD PTR _this$[ebp], ecx
	mov	eax, DWORD PTR _this$[ebp]
	cmp	DWORD PTR [eax+12], 3
	jne	SHORT $LN3@hasFailed
	mov	DWORD PTR tv66[ebp], 1
	jmp	SHORT $LN4@hasFailed
$LN3@hasFailed:
	mov	DWORD PTR tv66[ebp], 0
$LN4@hasFailed:
	mov	al, BYTE PTR tv66[ebp]
	mov	esp, ebp
	pop	ebp
	ret	0
?hasFailed@?$Goal@VRaven_Bot@@@@QBE_NXZ ENDP		; Goal<Raven_Bot>::hasFailed
_TEXT	ENDS
; Function compile flags: /Odtp /RTCsu
; File d:\cours\uqac\intelligence artificielle - jeux vidéos\buckland_aisource\mini_projet_raven\common\goals\goal.h
;	COMDAT ?isInactive@?$Goal@VRaven_Bot@@@@QBE_NXZ
_TEXT	SEGMENT
tv66 = -8						; size = 4
_this$ = -4						; size = 4
?isInactive@?$Goal@VRaven_Bot@@@@QBE_NXZ PROC		; Goal<Raven_Bot>::isInactive, COMDAT
; _this$ = ecx

; 82   :   bool         isInactive()const{return m_iStatus == inactive;}

	push	ebp
	mov	ebp, esp
	sub	esp, 8
	mov	DWORD PTR [ebp-8], -858993460		; ccccccccH
	mov	DWORD PTR [ebp-4], -858993460		; ccccccccH
	mov	DWORD PTR _this$[ebp], ecx
	mov	eax, DWORD PTR _this$[ebp]
	cmp	DWORD PTR [eax+12], 1
	jne	SHORT $LN3@isInactive
	mov	DWORD PTR tv66[ebp], 1
	jmp	SHORT $LN4@isInactive
$LN3@isInactive:
	mov	DWORD PTR tv66[ebp], 0
$LN4@isInactive:
	mov	al, BYTE PTR tv66[ebp]
	mov	esp, ebp
	pop	ebp
	ret	0
?isInactive@?$Goal@VRaven_Bot@@@@QBE_NXZ ENDP		; Goal<Raven_Bot>::isInactive
_TEXT	ENDS
; Function compile flags: /Odtp /RTCsu
; File d:\cours\uqac\intelligence artificielle - jeux vidéos\buckland_aisource\mini_projet_raven\common\goals\goal.h
;	COMDAT ?isActive@?$Goal@VRaven_Bot@@@@QBE_NXZ
_TEXT	SEGMENT
tv66 = -8						; size = 4
_this$ = -4						; size = 4
?isActive@?$Goal@VRaven_Bot@@@@QBE_NXZ PROC		; Goal<Raven_Bot>::isActive, COMDAT
; _this$ = ecx

; 81   :   bool         isActive()const{return m_iStatus == active;}

	push	ebp
	mov	ebp, esp
	sub	esp, 8
	mov	DWORD PTR [ebp-8], -858993460		; ccccccccH
	mov	DWORD PTR [ebp-4], -858993460		; ccccccccH
	mov	DWORD PTR _this$[ebp], ecx
	mov	eax, DWORD PTR _this$[ebp]
	cmp	DWORD PTR [eax+12], 0
	jne	SHORT $LN3@isActive
	mov	DWORD PTR tv66[ebp], 1
	jmp	SHORT $LN4@isActive
$LN3@isActive:
	mov	DWORD PTR tv66[ebp], 0
$LN4@isActive:
	mov	al, BYTE PTR tv66[ebp]
	mov	esp, ebp
	pop	ebp
	ret	0
?isActive@?$Goal@VRaven_Bot@@@@QBE_NXZ ENDP		; Goal<Raven_Bot>::isActive
_TEXT	ENDS
; Function compile flags: /Odtp /RTCsu
; File d:\cours\uqac\intelligence artificielle - jeux vidéos\buckland_aisource\mini_projet_raven\common\goals\goal.h
;	COMDAT ?isComplete@?$Goal@VRaven_Bot@@@@QBE_NXZ
_TEXT	SEGMENT
tv66 = -8						; size = 4
_this$ = -4						; size = 4
?isComplete@?$Goal@VRaven_Bot@@@@QBE_NXZ PROC		; Goal<Raven_Bot>::isComplete, COMDAT
; _this$ = ecx

; 80   :   bool         isComplete()const{return m_iStatus == completed;} 

	push	ebp
	mov	ebp, esp
	sub	esp, 8
	mov	DWORD PTR [ebp-8], -858993460		; ccccccccH
	mov	DWORD PTR [ebp-4], -858993460		; ccccccccH
	mov	DWORD PTR _this$[ebp], ecx
	mov	eax, DWORD PTR _this$[ebp]
	cmp	DWORD PTR [eax+12], 2
	jne	SHORT $LN3@isComplete
	mov	DWORD PTR tv66[ebp], 1
	jmp	SHORT $LN4@isComplete
$LN3@isComplete:
	mov	DWORD PTR tv66[ebp], 0
$LN4@isComplete:
	mov	al, BYTE PTR tv66[ebp]
	mov	esp, ebp
	pop	ebp
	ret	0
?isComplete@?$Goal@VRaven_Bot@@@@QBE_NXZ ENDP		; Goal<Raven_Bot>::isComplete
_TEXT	ENDS
; Function compile flags: /Odtp /RTCsu
; File d:\cours\uqac\intelligence artificielle - jeux vidéos\buckland_aisource\mini_projet_raven\common\goals\goal.h
;	COMDAT ?AddSubgoal@?$Goal@VRaven_Bot@@@@UAEXPAV1@@Z
_TEXT	SEGMENT
$T1 = -16						; size = 12
_this$ = -4						; size = 4
_g$ = 8							; size = 4
?AddSubgoal@?$Goal@VRaven_Bot@@@@UAEXPAV1@@Z PROC	; Goal<Raven_Bot>::AddSubgoal, COMDAT
; _this$ = ecx

; 77   :   {throw std::runtime_error("Cannot add goals to atomic goals");}

	push	ebp
	mov	ebp, esp
	sub	esp, 16					; 00000010H
	mov	eax, -858993460				; ccccccccH
	mov	DWORD PTR [ebp-16], eax
	mov	DWORD PTR [ebp-12], eax
	mov	DWORD PTR [ebp-8], eax
	mov	DWORD PTR [ebp-4], eax
	mov	DWORD PTR _this$[ebp], ecx
	push	OFFSET ??_C@_0CB@OHIHCHGJ@Cannot?5add?5goals?5to?5atomic?5goals@
	lea	ecx, DWORD PTR $T1[ebp]
	call	??0runtime_error@std@@QAE@PBD@Z		; std::runtime_error::runtime_error
	push	OFFSET __TI2?AVruntime_error@std@@
	lea	eax, DWORD PTR $T1[ebp]
	push	eax
	call	__CxxThrowException@8
$LN2@AddSubgoal:
	add	esp, 16					; 00000010H
	cmp	ebp, esp
	call	__RTC_CheckEsp
	mov	esp, ebp
	pop	ebp
	ret	4
?AddSubgoal@?$Goal@VRaven_Bot@@@@UAEXPAV1@@Z ENDP	; Goal<Raven_Bot>::AddSubgoal
_TEXT	ENDS
; Function compile flags: /Odtp /RTCsu
; File d:\cours\uqac\intelligence artificielle - jeux vidéos\buckland_aisource\mini_projet_raven\common\goals\goal.h
;	COMDAT ?HandleMessage@?$Goal@VRaven_Bot@@@@UAE_NABUTelegram@@@Z
_TEXT	SEGMENT
_this$ = -4						; size = 4
_msg$ = 8						; size = 4
?HandleMessage@?$Goal@VRaven_Bot@@@@UAE_NABUTelegram@@@Z PROC ; Goal<Raven_Bot>::HandleMessage, COMDAT
; _this$ = ecx

; 70   :   virtual bool HandleMessage(const Telegram& msg){return false;}

	push	ebp
	mov	ebp, esp
	push	ecx
	mov	DWORD PTR [ebp-4], -858993460		; ccccccccH
	mov	DWORD PTR _this$[ebp], ecx
	xor	al, al
	mov	esp, ebp
	pop	ebp
	ret	4
?HandleMessage@?$Goal@VRaven_Bot@@@@UAE_NABUTelegram@@@Z ENDP ; Goal<Raven_Bot>::HandleMessage
_TEXT	ENDS
; Function compile flags: /Odtp /RTCsu
; File d:\cours\uqac\intelligence artificielle - jeux vidéos\buckland_aisource\mini_projet_raven\common\goals\goal.h
;	COMDAT ??1?$Goal@VRaven_Bot@@@@UAE@XZ
_TEXT	SEGMENT
_this$ = -4						; size = 4
??1?$Goal@VRaven_Bot@@@@UAE@XZ PROC			; Goal<Raven_Bot>::~Goal<Raven_Bot>, COMDAT
; _this$ = ecx

; 56   :   virtual ~Goal(){}

	push	ebp
	mov	ebp, esp
	push	ecx
	mov	DWORD PTR [ebp-4], -858993460		; ccccccccH
	mov	DWORD PTR _this$[ebp], ecx
	mov	eax, DWORD PTR _this$[ebp]
	mov	DWORD PTR [eax], OFFSET ??_7?$Goal@VRaven_Bot@@@@6B@
	mov	esp, ebp
	pop	ebp
	ret	0
??1?$Goal@VRaven_Bot@@@@UAE@XZ ENDP			; Goal<Raven_Bot>::~Goal<Raven_Bot>
_TEXT	ENDS
; Function compile flags: /Odtp /RTCsu
; File d:\cours\uqac\intelligence artificielle - jeux vidéos\buckland_aisource\mini_projet_raven\common\goals\goal.h
;	COMDAT ??0?$Goal@VRaven_Bot@@@@QAE@PAVRaven_Bot@@H@Z
_TEXT	SEGMENT
_this$ = -4						; size = 4
_pE$ = 8						; size = 4
_type$ = 12						; size = 4
??0?$Goal@VRaven_Bot@@@@QAE@PAVRaven_Bot@@H@Z PROC	; Goal<Raven_Bot>::Goal<Raven_Bot>, COMDAT
; _this$ = ecx

; 54   :   {}

	push	ebp
	mov	ebp, esp
	push	ecx
	mov	DWORD PTR [ebp-4], -858993460		; ccccccccH
	mov	DWORD PTR _this$[ebp], ecx
	mov	eax, DWORD PTR _this$[ebp]
	mov	DWORD PTR [eax], OFFSET ??_7?$Goal@VRaven_Bot@@@@6B@

; 51   :   Goal(entity_type*  pE, int type):m_iType(type),

	mov	ecx, DWORD PTR _this$[ebp]
	mov	edx, DWORD PTR _type$[ebp]
	mov	DWORD PTR [ecx+4], edx

; 52   :                                    m_pOwner(pE),

	mov	eax, DWORD PTR _this$[ebp]
	mov	ecx, DWORD PTR _pE$[ebp]
	mov	DWORD PTR [eax+8], ecx

; 53   :                                    m_iStatus(inactive)

	mov	edx, DWORD PTR _this$[ebp]
	mov	DWORD PTR [edx+12], 1

; 54   :   {}

	mov	eax, DWORD PTR _this$[ebp]
	mov	esp, ebp
	pop	ebp
	ret	8
??0?$Goal@VRaven_Bot@@@@QAE@PAVRaven_Bot@@H@Z ENDP	; Goal<Raven_Bot>::Goal<Raven_Bot>
_TEXT	ENDS
; Function compile flags: /Odtp /RTCsu
; File d:\cours\uqac\intelligence artificielle - jeux vidéos\buckland_aisource\mini_projet_raven\common\goals\goal.h
;	COMDAT ?ReactivateIfFailed@?$Goal@VRaven_Bot@@@@IAEXXZ
_TEXT	SEGMENT
_this$ = -4						; size = 4
?ReactivateIfFailed@?$Goal@VRaven_Bot@@@@IAEXXZ PROC	; Goal<Raven_Bot>::ReactivateIfFailed, COMDAT
; _this$ = ecx

; 104  : {

	push	ebp
	mov	ebp, esp
	push	ecx
	mov	DWORD PTR [ebp-4], -858993460		; ccccccccH
	mov	DWORD PTR _this$[ebp], ecx

; 105  :   if (hasFailed())

	mov	ecx, DWORD PTR _this$[ebp]
	call	?hasFailed@?$Goal@VRaven_Bot@@@@QBE_NXZ	; Goal<Raven_Bot>::hasFailed
	movzx	eax, al
	test	eax, eax
	je	SHORT $LN1@Reactivate

; 106  :   {
; 107  :      m_iStatus = inactive;

	mov	ecx, DWORD PTR _this$[ebp]
	mov	DWORD PTR [ecx+12], 1
$LN1@Reactivate:

; 108  :   }
; 109  : }

	add	esp, 4
	cmp	ebp, esp
	call	__RTC_CheckEsp
	mov	esp, ebp
	pop	ebp
	ret	0
?ReactivateIfFailed@?$Goal@VRaven_Bot@@@@IAEXXZ ENDP	; Goal<Raven_Bot>::ReactivateIfFailed
_TEXT	ENDS
; Function compile flags: /Odtp /RTCsu
; File d:\cours\uqac\intelligence artificielle - jeux vidéos\buckland_aisource\mini_projet_raven\common\goals\goal.h
;	COMDAT ?ActivateIfInactive@?$Goal@VRaven_Bot@@@@IAEXXZ
_TEXT	SEGMENT
_this$ = -4						; size = 4
?ActivateIfInactive@?$Goal@VRaven_Bot@@@@IAEXXZ PROC	; Goal<Raven_Bot>::ActivateIfInactive, COMDAT
; _this$ = ecx

; 114  : {

	push	ebp
	mov	ebp, esp
	push	ecx
	push	esi
	mov	DWORD PTR [ebp-4], -858993460		; ccccccccH
	mov	DWORD PTR _this$[ebp], ecx

; 115  :   if (isInactive())

	mov	ecx, DWORD PTR _this$[ebp]
	call	?isInactive@?$Goal@VRaven_Bot@@@@QBE_NXZ ; Goal<Raven_Bot>::isInactive
	movzx	eax, al
	test	eax, eax
	je	SHORT $LN1@ActivateIf

; 116  :   {
; 117  :     Activate();   

	mov	ecx, DWORD PTR _this$[ebp]
	mov	edx, DWORD PTR [ecx]
	mov	esi, esp
	mov	ecx, DWORD PTR _this$[ebp]
	mov	eax, DWORD PTR [edx+4]
	call	eax
	cmp	esi, esp
	call	__RTC_CheckEsp
$LN1@ActivateIf:

; 118  :   }
; 119  : }

	pop	esi
	add	esp, 4
	cmp	ebp, esp
	call	__RTC_CheckEsp
	mov	esp, ebp
	pop	ebp
	ret	0
?ActivateIfInactive@?$Goal@VRaven_Bot@@@@IAEXXZ ENDP	; Goal<Raven_Bot>::ActivateIfInactive
_TEXT	ENDS
; Function compile flags: /Odtp /RTCsu
; File d:\cours\uqac\intelligence artificielle - jeux vidéos\buckland_aisource\mini_projet_raven\raven_bot.h
;	COMDAT ?GetTargetBot@Raven_Bot@@QBEQAV1@XZ
_TEXT	SEGMENT
_this$ = -4						; size = 4
?GetTargetBot@Raven_Bot@@QBEQAV1@XZ PROC		; Raven_Bot::GetTargetBot, COMDAT
; _this$ = ecx

; 209  :   Raven_Bot* const                   GetTargetBot()const{return m_pTargSys->GetTarget();}

	push	ebp
	mov	ebp, esp
	push	ecx
	mov	DWORD PTR [ebp-4], -858993460		; ccccccccH
	mov	DWORD PTR _this$[ebp], ecx
	mov	eax, DWORD PTR _this$[ebp]
	mov	ecx, DWORD PTR [eax+168]
	call	?GetTarget@Raven_TargetingSystem@@QBEPAVRaven_Bot@@XZ ; Raven_TargetingSystem::GetTarget
	add	esp, 4
	cmp	ebp, esp
	call	__RTC_CheckEsp
	mov	esp, ebp
	pop	ebp
	ret	0
?GetTargetBot@Raven_Bot@@QBEQAV1@XZ ENDP		; Raven_Bot::GetTargetBot
_TEXT	ENDS
; Function compile flags: /Odtp /RTCsu
; File d:\cours\uqac\intelligence artificielle - jeux vidéos\buckland_aisource\mini_projet_raven\raven_bot.h
;	COMDAT ?GetTargetSys@Raven_Bot@@QAEQAVRaven_TargetingSystem@@XZ
_TEXT	SEGMENT
_this$ = -4						; size = 4
?GetTargetSys@Raven_Bot@@QAEQAVRaven_TargetingSystem@@XZ PROC ; Raven_Bot::GetTargetSys, COMDAT
; _this$ = ecx

; 208  :   Raven_TargetingSystem* const       GetTargetSys(){return m_pTargSys;}

	push	ebp
	mov	ebp, esp
	push	ecx
	mov	DWORD PTR [ebp-4], -858993460		; ccccccccH
	mov	DWORD PTR _this$[ebp], ecx
	mov	eax, DWORD PTR _this$[ebp]
	mov	eax, DWORD PTR [eax+168]
	mov	esp, ebp
	pop	ebp
	ret	0
?GetTargetSys@Raven_Bot@@QAEQAVRaven_TargetingSystem@@XZ ENDP ; Raven_Bot::GetTargetSys
_TEXT	ENDS
; Function compile flags: /Odtp /RTCsu
; File d:\cours\uqac\intelligence artificielle - jeux vidéos\buckland_aisource\mini_projet_raven\raven_targetingsystem.h
;	COMDAT ?GetTarget@Raven_TargetingSystem@@QBEPAVRaven_Bot@@XZ
_TEXT	SEGMENT
_this$ = -4						; size = 4
?GetTarget@Raven_TargetingSystem@@QBEPAVRaven_Bot@@XZ PROC ; Raven_TargetingSystem::GetTarget, COMDAT
; _this$ = ecx

; 65   :   Raven_Bot* GetTarget()const{return m_pCurrentTarget;}

	push	ebp
	mov	ebp, esp
	push	ecx
	mov	DWORD PTR [ebp-4], -858993460		; ccccccccH
	mov	DWORD PTR _this$[ebp], ecx
	mov	eax, DWORD PTR _this$[ebp]
	mov	eax, DWORD PTR [eax+4]
	mov	esp, ebp
	pop	ebp
	ret	0
?GetTarget@Raven_TargetingSystem@@QBEPAVRaven_Bot@@XZ ENDP ; Raven_TargetingSystem::GetTarget
_TEXT	ENDS
; Function compile flags: /Odtp /RTCsu
; File d:\cours\uqac\intelligence artificielle - jeux vidéos\buckland_aisource\mini_projet_raven\raven_targetingsystem.h
;	COMDAT ?isTargetPresent@Raven_TargetingSystem@@QBE_NXZ
_TEXT	SEGMENT
tv66 = -8						; size = 4
_this$ = -4						; size = 4
?isTargetPresent@Raven_TargetingSystem@@QBE_NXZ PROC	; Raven_TargetingSystem::isTargetPresent, COMDAT
; _this$ = ecx

; 45   :   bool       isTargetPresent()const{return m_pCurrentTarget != 0;}

	push	ebp
	mov	ebp, esp
	sub	esp, 8
	mov	DWORD PTR [ebp-8], -858993460		; ccccccccH
	mov	DWORD PTR [ebp-4], -858993460		; ccccccccH
	mov	DWORD PTR _this$[ebp], ecx
	mov	eax, DWORD PTR _this$[ebp]
	cmp	DWORD PTR [eax+4], 0
	je	SHORT $LN3@isTargetPr
	mov	DWORD PTR tv66[ebp], 1
	jmp	SHORT $LN4@isTargetPr
$LN3@isTargetPr:
	mov	DWORD PTR tv66[ebp], 0
$LN4@isTargetPr:
	mov	al, BYTE PTR tv66[ebp]
	mov	esp, ebp
	pop	ebp
	ret	0
?isTargetPresent@Raven_TargetingSystem@@QBE_NXZ ENDP	; Raven_TargetingSystem::isTargetPresent
_TEXT	ENDS
; Function compile flags: /Odtp /RTCsu
; File d:\cours\uqac\intelligence artificielle - jeux vidéos\buckland_aisource\mini_projet_raven\common\game\basegameentity.h
;	COMDAT ?Pos@BaseGameEntity@@QBE?AUVector2D@@XZ
_TEXT	SEGMENT
_this$ = -4						; size = 4
___$ReturnUdt$ = 8					; size = 4
?Pos@BaseGameEntity@@QBE?AUVector2D@@XZ PROC		; BaseGameEntity::Pos, COMDAT
; _this$ = ecx

; 89   :   Vector2D     Pos()const{return m_vPosition;}

	push	ebp
	mov	ebp, esp
	push	ecx
	mov	DWORD PTR [ebp-4], -858993460		; ccccccccH
	mov	DWORD PTR _this$[ebp], ecx
	mov	eax, DWORD PTR _this$[ebp]
	add	eax, 24					; 00000018H
	mov	ecx, DWORD PTR ___$ReturnUdt$[ebp]
	mov	edx, DWORD PTR [eax]
	mov	DWORD PTR [ecx], edx
	mov	edx, DWORD PTR [eax+4]
	mov	DWORD PTR [ecx+4], edx
	mov	edx, DWORD PTR [eax+8]
	mov	DWORD PTR [ecx+8], edx
	mov	eax, DWORD PTR [eax+12]
	mov	DWORD PTR [ecx+12], eax
	mov	eax, DWORD PTR ___$ReturnUdt$[ebp]
	mov	esp, ebp
	pop	ebp
	ret	4
?Pos@BaseGameEntity@@QBE?AUVector2D@@XZ ENDP		; BaseGameEntity::Pos
_TEXT	ENDS
; Function compile flags: /Odtp /RTCsu
; File d:\cours\uqac\intelligence artificielle - jeux vidéos\buckland_aisource\mini_projet_raven\common\misc\cgdi.h
;	COMDAT ?TextColor@Cgdi@@QAEXHHH@Z
_TEXT	SEGMENT
_this$ = -4						; size = 4
_r$ = 8							; size = 4
_g$ = 12						; size = 4
_b$ = 16						; size = 4
?TextColor@Cgdi@@QAEXHHH@Z PROC				; Cgdi::TextColor, COMDAT
; _this$ = ecx

; 227  :   void TextColor(int r, int g, int b){SetTextColor(m_hdc, RGB(r,g,b));}

	push	ebp
	mov	ebp, esp
	push	ecx
	push	esi
	mov	DWORD PTR [ebp-4], -858993460		; ccccccccH
	mov	DWORD PTR _this$[ebp], ecx
	movzx	eax, BYTE PTR _r$[ebp]
	movzx	ecx, BYTE PTR _g$[ebp]
	shl	ecx, 8
	or	eax, ecx
	movzx	edx, BYTE PTR _b$[ebp]
	shl	edx, 16					; 00000010H
	or	eax, edx
	mov	esi, esp
	push	eax
	mov	eax, DWORD PTR _this$[ebp]
	mov	ecx, DWORD PTR [eax+124]
	push	ecx
	call	DWORD PTR __imp__SetTextColor@8
	cmp	esi, esp
	call	__RTC_CheckEsp
	pop	esi
	add	esp, 4
	cmp	ebp, esp
	call	__RTC_CheckEsp
	mov	esp, ebp
	pop	ebp
	ret	12					; 0000000cH
?TextColor@Cgdi@@QAEXHHH@Z ENDP				; Cgdi::TextColor
_TEXT	ENDS
; Function compile flags: /Odtp /RTCsu
; File d:\cours\uqac\intelligence artificielle - jeux vidéos\buckland_aisource\mini_projet_raven\common\misc\cgdi.h
;	COMDAT ?TransparentText@Cgdi@@QAEXXZ
_TEXT	SEGMENT
_this$ = -4						; size = 4
?TransparentText@Cgdi@@QAEXXZ PROC			; Cgdi::TransparentText, COMDAT
; _this$ = ecx

; 222  :   void TransparentText(){SetBkMode(m_hdc, TRANSPARENT);}

	push	ebp
	mov	ebp, esp
	push	ecx
	push	esi
	mov	DWORD PTR [ebp-4], -858993460		; ccccccccH
	mov	DWORD PTR _this$[ebp], ecx
	mov	esi, esp
	push	1
	mov	eax, DWORD PTR _this$[ebp]
	mov	ecx, DWORD PTR [eax+124]
	push	ecx
	call	DWORD PTR __imp__SetBkMode@8
	cmp	esi, esp
	call	__RTC_CheckEsp
	pop	esi
	add	esp, 4
	cmp	ebp, esp
	call	__RTC_CheckEsp
	mov	esp, ebp
	pop	ebp
	ret	0
?TransparentText@Cgdi@@QAEXXZ ENDP			; Cgdi::TransparentText
_TEXT	ENDS
; Function compile flags: /Odtp /RTCsu
; File d:\cours\uqac\intelligence artificielle - jeux vidéos\buckland_aisource\mini_projet_raven\common\misc\cgdi.h
;	COMDAT ?TextAtPos@Cgdi@@QAEXNNABV?$basic_string@DU?$char_traits@D@std@@V?$allocator@D@2@@std@@@Z
_TEXT	SEGMENT
_this$ = -4						; size = 4
_x$ = 8							; size = 8
_y$ = 16						; size = 8
_s$ = 24						; size = 4
?TextAtPos@Cgdi@@QAEXNNABV?$basic_string@DU?$char_traits@D@std@@V?$allocator@D@2@@std@@@Z PROC ; Cgdi::TextAtPos, COMDAT
; _this$ = ecx

; 213  :   {

	push	ebp
	mov	ebp, esp
	push	ecx
	push	esi
	mov	DWORD PTR [ebp-4], -858993460		; ccccccccH
	mov	DWORD PTR _this$[ebp], ecx

; 214  :     TextOut(m_hdc, (int)x, (int)y, s.c_str(), (int)s.size());

	mov	ecx, DWORD PTR _s$[ebp]
	call	?size@?$basic_string@DU?$char_traits@D@std@@V?$allocator@D@2@@std@@QBEIXZ ; std::basic_string<char,std::char_traits<char>,std::allocator<char> >::size
	mov	esi, esp
	push	eax
	mov	ecx, DWORD PTR _s$[ebp]
	call	?c_str@?$basic_string@DU?$char_traits@D@std@@V?$allocator@D@2@@std@@QBEPBDXZ ; std::basic_string<char,std::char_traits<char>,std::allocator<char> >::c_str
	push	eax
	cvttsd2si eax, QWORD PTR _y$[ebp]
	push	eax
	cvttsd2si ecx, QWORD PTR _x$[ebp]
	push	ecx
	mov	edx, DWORD PTR _this$[ebp]
	mov	eax, DWORD PTR [edx+124]
	push	eax
	call	DWORD PTR __imp__TextOutA@20
	cmp	esi, esp
	call	__RTC_CheckEsp

; 215  :   }

	pop	esi
	add	esp, 4
	cmp	ebp, esp
	call	__RTC_CheckEsp
	mov	esp, ebp
	pop	ebp
	ret	20					; 00000014H
?TextAtPos@Cgdi@@QAEXNNABV?$basic_string@DU?$char_traits@D@std@@V?$allocator@D@2@@std@@@Z ENDP ; Cgdi::TextAtPos
_TEXT	ENDS
; Function compile flags: /Odtp /RTCsu
; File d:\cours\uqac\intelligence artificielle - jeux vidéos\buckland_aisource\mini_projet_raven\common\2d\vector2d.h
;	COMDAT ??0Vector2D@@QAE@XZ
_TEXT	SEGMENT
_this$ = -4						; size = 4
??0Vector2D@@QAE@XZ PROC				; Vector2D::Vector2D, COMDAT
; _this$ = ecx

; 24   :   Vector2D():x(0.0),y(0.0){}

	push	ebp
	mov	ebp, esp
	push	ecx
	mov	DWORD PTR [ebp-4], -858993460		; ccccccccH
	mov	DWORD PTR _this$[ebp], ecx
	mov	eax, DWORD PTR _this$[ebp]
	movsd	xmm0, QWORD PTR __real@0000000000000000
	movsd	QWORD PTR [eax], xmm0
	mov	ecx, DWORD PTR _this$[ebp]
	movsd	xmm0, QWORD PTR __real@0000000000000000
	movsd	QWORD PTR [ecx+8], xmm0
	mov	eax, DWORD PTR _this$[ebp]
	mov	esp, ebp
	pop	ebp
	ret	0
??0Vector2D@@QAE@XZ ENDP				; Vector2D::Vector2D
_TEXT	ENDS
; Function compile flags: /Odtp /RTCsu
; File d:\cours\uqac\intelligence artificielle - jeux vidéos\buckland_aisource\mini_projet_raven\common\misc\utils.h
;	COMDAT ?RandBool@@YA_NXZ
_TEXT	SEGMENT
tv69 = -8						; size = 8
?RandBool@@YA_NXZ PROC					; RandBool, COMDAT

; 100  : {

	push	ebp
	mov	ebp, esp
	sub	esp, 8
	mov	DWORD PTR [ebp-8], -858993460		; ccccccccH
	mov	DWORD PTR [ebp-4], -858993460		; ccccccccH

; 101  :   if (RandFloat() > 0.5) return true;

	call	?RandFloat@@YANXZ			; RandFloat
	fstp	QWORD PTR tv69[ebp]
	movsd	xmm0, QWORD PTR tv69[ebp]
	comisd	xmm0, QWORD PTR __real@3fe0000000000000
	jbe	SHORT $LN2@RandBool
	mov	al, 1
	jmp	SHORT $LN3@RandBool
	jmp	SHORT $LN3@RandBool
$LN2@RandBool:

; 102  : 
; 103  :   else return false;

	xor	al, al
$LN3@RandBool:

; 104  : }

	add	esp, 8
	cmp	ebp, esp
	call	__RTC_CheckEsp
	mov	esp, ebp
	pop	ebp
	ret	0
?RandBool@@YA_NXZ ENDP					; RandBool
_TEXT	ENDS
; Function compile flags: /Odtp /RTCsu
; File d:\cours\uqac\intelligence artificielle - jeux vidéos\buckland_aisource\mini_projet_raven\common\misc\utils.h
;	COMDAT ?RandFloat@@YANXZ
_TEXT	SEGMENT
tv70 = -8						; size = 8
?RandFloat@@YANXZ PROC					; RandFloat, COMDAT

; 91   : inline double RandFloat()      {return ((rand())/(RAND_MAX+1.0));}

	push	ebp
	mov	ebp, esp
	sub	esp, 8
	mov	DWORD PTR [ebp-8], -858993460		; ccccccccH
	mov	DWORD PTR [ebp-4], -858993460		; ccccccccH
	call	_rand
	cvtsi2sd xmm0, eax
	divsd	xmm0, QWORD PTR __real@40e0000000000000
	movsd	QWORD PTR tv70[ebp], xmm0
	fld	QWORD PTR tv70[ebp]
	add	esp, 8
	cmp	ebp, esp
	call	__RTC_CheckEsp
	mov	esp, ebp
	pop	ebp
	ret	0
?RandFloat@@YANXZ ENDP					; RandFloat
_TEXT	ENDS
; Function compile flags: /Odtp /RTCsu
; File d:\cours\uqac\intelligence artificielle - jeux vidéos\buckland_aisource\mini_projet_raven\common\misc\utils.h
;	COMDAT ??__EMinFloat@@YAXXZ
text$di	SEGMENT
??__EMinFloat@@YAXXZ PROC				; `dynamic initializer for 'MinFloat'', COMDAT

; 27   : const float   MinFloat  = (std::numeric_limits<float>::min)();

	push	ebp
	mov	ebp, esp
	call	?min@?$numeric_limits@M@std@@SAMXZ	; std::numeric_limits<float>::min
	fstp	DWORD PTR ?MinFloat@@3MB
	cmp	ebp, esp
	call	__RTC_CheckEsp
	pop	ebp
	ret	0
??__EMinFloat@@YAXXZ ENDP				; `dynamic initializer for 'MinFloat''
text$di	ENDS
; Function compile flags: /Odtp /RTCsu
; File d:\cours\uqac\intelligence artificielle - jeux vidéos\buckland_aisource\mini_projet_raven\common\misc\utils.h
;	COMDAT ??__EMaxFloat@@YAXXZ
text$di	SEGMENT
??__EMaxFloat@@YAXXZ PROC				; `dynamic initializer for 'MaxFloat'', COMDAT

; 26   : const float   MaxFloat  = (std::numeric_limits<float>::max)();

	push	ebp
	mov	ebp, esp
	call	?max@?$numeric_limits@M@std@@SAMXZ	; std::numeric_limits<float>::max
	fstp	DWORD PTR ?MaxFloat@@3MB
	cmp	ebp, esp
	call	__RTC_CheckEsp
	pop	ebp
	ret	0
??__EMaxFloat@@YAXXZ ENDP				; `dynamic initializer for 'MaxFloat''
text$di	ENDS
; Function compile flags: /Odtp /RTCsu
; File d:\cours\uqac\intelligence artificielle - jeux vidéos\buckland_aisource\mini_projet_raven\common\misc\utils.h
;	COMDAT ??__EMinDouble@@YAXXZ
text$di	SEGMENT
??__EMinDouble@@YAXXZ PROC				; `dynamic initializer for 'MinDouble'', COMDAT

; 25   : const double  MinDouble = (std::numeric_limits<double>::min)();

	push	ebp
	mov	ebp, esp
	call	?min@?$numeric_limits@N@std@@SANXZ	; std::numeric_limits<double>::min
	fstp	QWORD PTR ?MinDouble@@3NB
	cmp	ebp, esp
	call	__RTC_CheckEsp
	pop	ebp
	ret	0
??__EMinDouble@@YAXXZ ENDP				; `dynamic initializer for 'MinDouble''
text$di	ENDS
; Function compile flags: /Odtp /RTCsu
; File d:\cours\uqac\intelligence artificielle - jeux vidéos\buckland_aisource\mini_projet_raven\common\misc\utils.h
;	COMDAT ??__EMaxDouble@@YAXXZ
text$di	SEGMENT
??__EMaxDouble@@YAXXZ PROC				; `dynamic initializer for 'MaxDouble'', COMDAT

; 24   : const double  MaxDouble = (std::numeric_limits<double>::max)();

	push	ebp
	mov	ebp, esp
	call	?max@?$numeric_limits@N@std@@SANXZ	; std::numeric_limits<double>::max
	fstp	QWORD PTR ?MaxDouble@@3NB
	cmp	ebp, esp
	call	__RTC_CheckEsp
	pop	ebp
	ret	0
??__EMaxDouble@@YAXXZ ENDP				; `dynamic initializer for 'MaxDouble''
text$di	ENDS
; Function compile flags: /Odtp /RTCsu
; File d:\cours\uqac\intelligence artificielle - jeux vidéos\buckland_aisource\mini_projet_raven\common\misc\utils.h
;	COMDAT ??__EMaxInt@@YAXXZ
text$di	SEGMENT
??__EMaxInt@@YAXXZ PROC					; `dynamic initializer for 'MaxInt'', COMDAT

; 23   : const int     MaxInt    = (std::numeric_limits<int>::max)();

	push	ebp
	mov	ebp, esp
	call	?max@?$numeric_limits@H@std@@SAHXZ	; std::numeric_limits<int>::max
	mov	DWORD PTR ?MaxInt@@3HB, eax
	cmp	ebp, esp
	call	__RTC_CheckEsp
	pop	ebp
	ret	0
??__EMaxInt@@YAXXZ ENDP					; `dynamic initializer for 'MaxInt''
text$di	ENDS
; Function compile flags: /Odtp /RTCsu
;	COMDAT ??_Gruntime_error@std@@UAEPAXI@Z
_TEXT	SEGMENT
_this$ = -4						; size = 4
___flags$ = 8						; size = 4
??_Gruntime_error@std@@UAEPAXI@Z PROC			; std::runtime_error::`scalar deleting destructor', COMDAT
; _this$ = ecx
	push	ebp
	mov	ebp, esp
	push	ecx
	mov	DWORD PTR [ebp-4], -858993460		; ccccccccH
	mov	DWORD PTR _this$[ebp], ecx
	mov	ecx, DWORD PTR _this$[ebp]
	call	??1runtime_error@std@@UAE@XZ
	mov	eax, DWORD PTR ___flags$[ebp]
	and	eax, 1
	je	SHORT $LN2@scalar
	push	12					; 0000000cH
	mov	ecx, DWORD PTR _this$[ebp]
	push	ecx
	call	??3@YAXPAXI@Z				; operator delete
	add	esp, 8
$LN2@scalar:
	mov	eax, DWORD PTR _this$[ebp]
	add	esp, 4
	cmp	ebp, esp
	call	__RTC_CheckEsp
	mov	esp, ebp
	pop	ebp
	ret	4
??_Gruntime_error@std@@UAEPAXI@Z ENDP			; std::runtime_error::`scalar deleting destructor'
_TEXT	ENDS
; Function compile flags: /Odtp /RTCsu
;	COMDAT ??0runtime_error@std@@QAE@ABV01@@Z
_TEXT	SEGMENT
_this$ = -4						; size = 4
___that$ = 8						; size = 4
??0runtime_error@std@@QAE@ABV01@@Z PROC			; std::runtime_error::runtime_error, COMDAT
; _this$ = ecx
	push	ebp
	mov	ebp, esp
	push	ecx
	mov	DWORD PTR [ebp-4], -858993460		; ccccccccH
	mov	DWORD PTR _this$[ebp], ecx
	mov	eax, DWORD PTR ___that$[ebp]
	push	eax
	mov	ecx, DWORD PTR _this$[ebp]
	call	??0exception@std@@QAE@ABV01@@Z		; std::exception::exception
	mov	ecx, DWORD PTR _this$[ebp]
	mov	DWORD PTR [ecx], OFFSET ??_7runtime_error@std@@6B@
	mov	eax, DWORD PTR _this$[ebp]
	add	esp, 4
	cmp	ebp, esp
	call	__RTC_CheckEsp
	mov	esp, ebp
	pop	ebp
	ret	4
??0runtime_error@std@@QAE@ABV01@@Z ENDP			; std::runtime_error::runtime_error
_TEXT	ENDS
; Function compile flags: /Odtp /RTCsu
;	COMDAT ??1runtime_error@std@@UAE@XZ
_TEXT	SEGMENT
_this$ = -4						; size = 4
??1runtime_error@std@@UAE@XZ PROC			; std::runtime_error::~runtime_error, COMDAT
; _this$ = ecx
	push	ebp
	mov	ebp, esp
	push	ecx
	mov	DWORD PTR [ebp-4], -858993460		; ccccccccH
	mov	DWORD PTR _this$[ebp], ecx
	mov	ecx, DWORD PTR _this$[ebp]
	call	??1exception@std@@UAE@XZ		; std::exception::~exception
	add	esp, 4
	cmp	ebp, esp
	call	__RTC_CheckEsp
	mov	esp, ebp
	pop	ebp
	ret	0
??1runtime_error@std@@UAE@XZ ENDP			; std::runtime_error::~runtime_error
_TEXT	ENDS
; Function compile flags: /Odtp /RTCsu
; File d:\microsoft visual studio 14.0\vc\include\stdexcept
;	COMDAT ??0runtime_error@std@@QAE@PBD@Z
_TEXT	SEGMENT
_this$ = -4						; size = 4
__Message$ = 8						; size = 4
??0runtime_error@std@@QAE@PBD@Z PROC			; std::runtime_error::runtime_error, COMDAT
; _this$ = ecx

; 178  : 		{	// construct from message string

	push	ebp
	mov	ebp, esp
	push	ecx
	mov	DWORD PTR [ebp-4], -858993460		; ccccccccH
	mov	DWORD PTR _this$[ebp], ecx

; 177  : 		: _Mybase(_Message)

	mov	eax, DWORD PTR __Message$[ebp]
	push	eax
	mov	ecx, DWORD PTR _this$[ebp]
	call	??0exception@std@@QAE@QBD@Z		; std::exception::exception

; 178  : 		{	// construct from message string

	mov	ecx, DWORD PTR _this$[ebp]
	mov	DWORD PTR [ecx], OFFSET ??_7runtime_error@std@@6B@

; 179  : 		}

	mov	eax, DWORD PTR _this$[ebp]
	add	esp, 4
	cmp	ebp, esp
	call	__RTC_CheckEsp
	mov	esp, ebp
	pop	ebp
	ret	4
??0runtime_error@std@@QAE@PBD@Z ENDP			; std::runtime_error::runtime_error
_TEXT	ENDS
; Function compile flags: /Odtp /RTCsu
; File d:\microsoft visual studio 14.0\vc\include\xstring
;	COMDAT ?_Tidy@?$basic_string@DU?$char_traits@D@std@@V?$allocator@D@2@@std@@QAEX_NI@Z
_TEXT	SEGMENT
__Ptr$1 = -8						; size = 4
_this$ = -4						; size = 4
__Built$ = 8						; size = 1
__Newsize$ = 12						; size = 4
?_Tidy@?$basic_string@DU?$char_traits@D@std@@V?$allocator@D@2@@std@@QAEX_NI@Z PROC ; std::basic_string<char,std::char_traits<char>,std::allocator<char> >::_Tidy, COMDAT
; _this$ = ecx

; 2229 : 		{	// initialize buffer, deallocating any storage

	push	ebp
	mov	ebp, esp
	sub	esp, 8
	mov	DWORD PTR [ebp-8], -858993460		; ccccccccH
	mov	DWORD PTR [ebp-4], -858993460		; ccccccccH
	mov	DWORD PTR _this$[ebp], ecx

; 2230 : 		if (!_Built)

	movzx	eax, BYTE PTR __Built$[ebp]
	test	eax, eax
	jne	SHORT $LN2@Tidy
	jmp	SHORT $LN3@Tidy
$LN2@Tidy:

; 2231 : 			;
; 2232 : 		else if (this->_BUF_SIZE <= this->_Myres())

	mov	ecx, DWORD PTR _this$[ebp]
	call	?_Myres@?$_String_alloc@U?$_String_base_types@DV?$allocator@D@std@@@std@@@std@@QAEAAIXZ ; std::_String_alloc<std::_String_base_types<char,std::allocator<char> > >::_Myres
	cmp	DWORD PTR [eax], 16			; 00000010H
	jb	SHORT $LN3@Tidy

; 2233 : 			{	// copy any leftovers to small buffer and deallocate
; 2234 : 			pointer _Ptr = this->_Bx()._Ptr;

	mov	ecx, DWORD PTR _this$[ebp]
	call	?_Bx@?$_String_alloc@U?$_String_base_types@DV?$allocator@D@std@@@std@@@std@@QAEAAT_Bxty@?$_String_val@U?$_Simple_types@D@std@@@2@XZ ; std::_String_alloc<std::_String_base_types<char,std::allocator<char> > >::_Bx
	mov	ecx, DWORD PTR [eax]
	mov	DWORD PTR __Ptr$1[ebp], ecx

; 2235 : 			this->_Getal().destroy(&this->_Bx()._Ptr);

	mov	ecx, DWORD PTR _this$[ebp]
	call	?_Bx@?$_String_alloc@U?$_String_base_types@DV?$allocator@D@std@@@std@@@std@@QAEAAT_Bxty@?$_String_val@U?$_Simple_types@D@std@@@2@XZ ; std::_String_alloc<std::_String_base_types<char,std::allocator<char> > >::_Bx
	push	eax
	mov	ecx, DWORD PTR _this$[ebp]
	call	?_Getal@?$_String_alloc@U?$_String_base_types@DV?$allocator@D@std@@@std@@@std@@QAEAAU?$_Wrap_alloc@V?$allocator@D@std@@@2@XZ ; std::_String_alloc<std::_String_base_types<char,std::allocator<char> > >::_Getal
	mov	ecx, eax
	call	??$destroy@PAD@?$_Wrap_alloc@V?$allocator@D@std@@@std@@QAEXPAPAD@Z ; std::_Wrap_alloc<std::allocator<char> >::destroy<char *>

; 2236 : 			if (0 < _Newsize)

	cmp	DWORD PTR __Newsize$[ebp], 0
	jbe	SHORT $LN5@Tidy

; 2237 : 				_Traits::copy(this->_Bx()._Buf,

	mov	edx, DWORD PTR __Newsize$[ebp]
	push	edx
	mov	eax, DWORD PTR __Ptr$1[ebp]
	push	eax
	call	??$addressof@D@std@@YAPADAAD@Z		; std::addressof<char>
	add	esp, 4
	push	eax
	mov	ecx, DWORD PTR _this$[ebp]
	call	?_Bx@?$_String_alloc@U?$_String_base_types@DV?$allocator@D@std@@@std@@@std@@QAEAAT_Bxty@?$_String_val@U?$_Simple_types@D@std@@@2@XZ ; std::_String_alloc<std::_String_base_types<char,std::allocator<char> > >::_Bx
	push	eax
	call	?copy@?$char_traits@D@std@@SAPADPADPBDI@Z ; std::char_traits<char>::copy
	add	esp, 12					; 0000000cH
$LN5@Tidy:

; 2238 : 					_STD addressof(*_Ptr), _Newsize);
; 2239 : 			this->_Getal().deallocate(_Ptr, this->_Myres() + 1);

	mov	ecx, DWORD PTR _this$[ebp]
	call	?_Myres@?$_String_alloc@U?$_String_base_types@DV?$allocator@D@std@@@std@@@std@@QAEAAIXZ ; std::_String_alloc<std::_String_base_types<char,std::allocator<char> > >::_Myres
	mov	ecx, DWORD PTR [eax]
	add	ecx, 1
	push	ecx
	mov	edx, DWORD PTR __Ptr$1[ebp]
	push	edx
	mov	ecx, DWORD PTR _this$[ebp]
	call	?_Getal@?$_String_alloc@U?$_String_base_types@DV?$allocator@D@std@@@std@@@std@@QAEAAU?$_Wrap_alloc@V?$allocator@D@std@@@2@XZ ; std::_String_alloc<std::_String_base_types<char,std::allocator<char> > >::_Getal
	mov	ecx, eax
	call	?deallocate@?$_Wrap_alloc@V?$allocator@D@std@@@std@@QAEXPADI@Z ; std::_Wrap_alloc<std::allocator<char> >::deallocate
$LN3@Tidy:

; 2240 : 			}
; 2241 : 		this->_Myres() = this->_BUF_SIZE - 1;

	mov	ecx, DWORD PTR _this$[ebp]
	call	?_Myres@?$_String_alloc@U?$_String_base_types@DV?$allocator@D@std@@@std@@@std@@QAEAAIXZ ; std::_String_alloc<std::_String_base_types<char,std::allocator<char> > >::_Myres
	mov	DWORD PTR [eax], 15			; 0000000fH

; 2242 : 		_Eos(_Newsize);

	mov	eax, DWORD PTR __Newsize$[ebp]
	push	eax
	mov	ecx, DWORD PTR _this$[ebp]
	call	?_Eos@?$basic_string@DU?$char_traits@D@std@@V?$allocator@D@2@@std@@QAEXI@Z ; std::basic_string<char,std::char_traits<char>,std::allocator<char> >::_Eos

; 2243 : 		}

	add	esp, 8
	cmp	ebp, esp
	call	__RTC_CheckEsp
	mov	esp, ebp
	pop	ebp
	ret	8
?_Tidy@?$basic_string@DU?$char_traits@D@std@@V?$allocator@D@2@@std@@QAEX_NI@Z ENDP ; std::basic_string<char,std::char_traits<char>,std::allocator<char> >::_Tidy
_TEXT	ENDS
; Function compile flags: /Odtp /RTCsu
; File d:\microsoft visual studio 14.0\vc\include\xstring
;	COMDAT ?_Eos@?$basic_string@DU?$char_traits@D@std@@V?$allocator@D@2@@std@@QAEXI@Z
_TEXT	SEGMENT
$T1 = -5						; size = 1
_this$ = -4						; size = 4
__Newsize$ = 8						; size = 4
?_Eos@?$basic_string@DU?$char_traits@D@std@@V?$allocator@D@2@@std@@QAEXI@Z PROC ; std::basic_string<char,std::char_traits<char>,std::allocator<char> >::_Eos, COMDAT
; _this$ = ecx

; 2199 : 		{	// set new length and null terminator

	push	ebp
	mov	ebp, esp
	sub	esp, 8
	mov	DWORD PTR [ebp-8], -858993460		; ccccccccH
	mov	DWORD PTR [ebp-4], -858993460		; ccccccccH
	mov	DWORD PTR _this$[ebp], ecx

; 2200 : 		_Traits::assign(this->_Myptr()[this->_Mysize() = _Newsize], _Elem());

	mov	BYTE PTR $T1[ebp], 0
	mov	ecx, DWORD PTR _this$[ebp]
	call	?_Mysize@?$_String_alloc@U?$_String_base_types@DV?$allocator@D@std@@@std@@@std@@QAEAAIXZ ; std::_String_alloc<std::_String_base_types<char,std::allocator<char> > >::_Mysize
	mov	ecx, DWORD PTR __Newsize$[ebp]
	mov	DWORD PTR [eax], ecx
	lea	edx, DWORD PTR $T1[ebp]
	push	edx
	mov	ecx, DWORD PTR _this$[ebp]
	call	?_Myptr@?$_String_alloc@U?$_String_base_types@DV?$allocator@D@std@@@std@@@std@@QAEPADXZ ; std::_String_alloc<std::_String_base_types<char,std::allocator<char> > >::_Myptr
	add	eax, DWORD PTR __Newsize$[ebp]
	push	eax
	call	?assign@?$char_traits@D@std@@SAXAADABD@Z ; std::char_traits<char>::assign
	add	esp, 8

; 2201 : 		}

	add	esp, 8
	cmp	ebp, esp
	call	__RTC_CheckEsp
	mov	esp, ebp
	pop	ebp
	ret	4
?_Eos@?$basic_string@DU?$char_traits@D@std@@V?$allocator@D@2@@std@@QAEXI@Z ENDP ; std::basic_string<char,std::char_traits<char>,std::allocator<char> >::_Eos
_TEXT	ENDS
; Function compile flags: /Odtp /RTCsu
; File d:\microsoft visual studio 14.0\vc\include\xstring
;	COMDAT ?size@?$basic_string@DU?$char_traits@D@std@@V?$allocator@D@2@@std@@QBEIXZ
_TEXT	SEGMENT
_this$ = -4						; size = 4
?size@?$basic_string@DU?$char_traits@D@std@@V?$allocator@D@2@@std@@QBEIXZ PROC ; std::basic_string<char,std::char_traits<char>,std::allocator<char> >::size, COMDAT
; _this$ = ecx

; 1749 : 		{	// return length of sequence

	push	ebp
	mov	ebp, esp
	push	ecx
	mov	DWORD PTR [ebp-4], -858993460		; ccccccccH
	mov	DWORD PTR _this$[ebp], ecx

; 1750 : 		return (this->_Mysize());

	mov	ecx, DWORD PTR _this$[ebp]
	call	?_Mysize@?$_String_alloc@U?$_String_base_types@DV?$allocator@D@std@@@std@@@std@@QBEABIXZ ; std::_String_alloc<std::_String_base_types<char,std::allocator<char> > >::_Mysize
	mov	eax, DWORD PTR [eax]

; 1751 : 		}

	add	esp, 4
	cmp	ebp, esp
	call	__RTC_CheckEsp
	mov	esp, ebp
	pop	ebp
	ret	0
?size@?$basic_string@DU?$char_traits@D@std@@V?$allocator@D@2@@std@@QBEIXZ ENDP ; std::basic_string<char,std::char_traits<char>,std::allocator<char> >::size
_TEXT	ENDS
; Function compile flags: /Odtp /RTCsu
; File d:\microsoft visual studio 14.0\vc\include\xstring
;	COMDAT ?c_str@?$basic_string@DU?$char_traits@D@std@@V?$allocator@D@2@@std@@QBEPBDXZ
_TEXT	SEGMENT
_this$ = -16						; size = 4
__$EHRec$ = -12						; size = 12
?c_str@?$basic_string@DU?$char_traits@D@std@@V?$allocator@D@2@@std@@QBEPBDXZ PROC ; std::basic_string<char,std::char_traits<char>,std::allocator<char> >::c_str, COMDAT
; _this$ = ecx

; 1734 : 		{	// return pointer to null-terminated nonmutable array

	push	ebp
	mov	ebp, esp
	push	-1
	push	__ehhandler$?c_str@?$basic_string@DU?$char_traits@D@std@@V?$allocator@D@2@@std@@QBEPBDXZ
	mov	eax, DWORD PTR fs:0
	push	eax
	push	ecx
	mov	DWORD PTR [ebp-16], -858993460		; ccccccccH
	mov	eax, DWORD PTR ___security_cookie
	xor	eax, ebp
	push	eax
	lea	eax, DWORD PTR __$EHRec$[ebp]
	mov	DWORD PTR fs:0, eax
	mov	DWORD PTR _this$[ebp], ecx

; 1735 : 		return (this->_Myptr());

	mov	ecx, DWORD PTR _this$[ebp]
	call	?_Myptr@?$_String_alloc@U?$_String_base_types@DV?$allocator@D@std@@@std@@@std@@QBEPBDXZ ; std::_String_alloc<std::_String_base_types<char,std::allocator<char> > >::_Myptr

; 1736 : 		}

	mov	ecx, DWORD PTR __$EHRec$[ebp]
	mov	DWORD PTR fs:0, ecx
	pop	ecx
	add	esp, 16					; 00000010H
	cmp	ebp, esp
	call	__RTC_CheckEsp
	mov	esp, ebp
	pop	ebp
	ret	0
_TEXT	ENDS
;	COMDAT text$x
text$x	SEGMENT
__ehhandler$?c_str@?$basic_string@DU?$char_traits@D@std@@V?$allocator@D@2@@std@@QBEPBDXZ:
	mov	edx, DWORD PTR [esp+8]
	lea	eax, DWORD PTR [edx+12]
	mov	ecx, DWORD PTR [edx-8]
	xor	ecx, eax
	call	@__security_check_cookie@4
	mov	eax, OFFSET __ehfuncinfo$?c_str@?$basic_string@DU?$char_traits@D@std@@V?$allocator@D@2@@std@@QBEPBDXZ
	jmp	___CxxFrameHandler3
text$x	ENDS
?c_str@?$basic_string@DU?$char_traits@D@std@@V?$allocator@D@2@@std@@QBEPBDXZ ENDP ; std::basic_string<char,std::char_traits<char>,std::allocator<char> >::c_str
; Function compile flags: /Odtp /RTCsu
; File d:\microsoft visual studio 14.0\vc\include\xstring
;	COMDAT ??1?$basic_string@DU?$char_traits@D@std@@V?$allocator@D@2@@std@@QAE@XZ
_TEXT	SEGMENT
_this$ = -16						; size = 4
__$EHRec$ = -12						; size = 12
??1?$basic_string@DU?$char_traits@D@std@@V?$allocator@D@2@@std@@QAE@XZ PROC ; std::basic_string<char,std::char_traits<char>,std::allocator<char> >::~basic_string<char,std::char_traits<char>,std::allocator<char> >, COMDAT
; _this$ = ecx

; 1005 : 		{	// destroy the string

	push	ebp
	mov	ebp, esp
	push	-1
	push	__ehhandler$??1?$basic_string@DU?$char_traits@D@std@@V?$allocator@D@2@@std@@QAE@XZ
	mov	eax, DWORD PTR fs:0
	push	eax
	push	ecx
	mov	DWORD PTR [ebp-16], -858993460		; ccccccccH
	mov	eax, DWORD PTR ___security_cookie
	xor	eax, ebp
	push	eax
	lea	eax, DWORD PTR __$EHRec$[ebp]
	mov	DWORD PTR fs:0, eax
	mov	DWORD PTR _this$[ebp], ecx

; 1006 : 		_Tidy(true);

	push	0
	push	1
	mov	ecx, DWORD PTR _this$[ebp]
	call	?_Tidy@?$basic_string@DU?$char_traits@D@std@@V?$allocator@D@2@@std@@QAEX_NI@Z ; std::basic_string<char,std::char_traits<char>,std::allocator<char> >::_Tidy

; 1007 : 		}

	mov	ecx, DWORD PTR _this$[ebp]
	call	??1?$_String_alloc@U?$_String_base_types@DV?$allocator@D@std@@@std@@@std@@QAE@XZ ; std::_String_alloc<std::_String_base_types<char,std::allocator<char> > >::~_String_alloc<std::_String_base_types<char,std::allocator<char> > >
	mov	ecx, DWORD PTR __$EHRec$[ebp]
	mov	DWORD PTR fs:0, ecx
	pop	ecx
	add	esp, 16					; 00000010H
	cmp	ebp, esp
	call	__RTC_CheckEsp
	mov	esp, ebp
	pop	ebp
	ret	0
_TEXT	ENDS
;	COMDAT text$x
text$x	SEGMENT
__ehhandler$??1?$basic_string@DU?$char_traits@D@std@@V?$allocator@D@2@@std@@QAE@XZ:
	mov	edx, DWORD PTR [esp+8]
	lea	eax, DWORD PTR [edx+12]
	mov	ecx, DWORD PTR [edx-8]
	xor	ecx, eax
	call	@__security_check_cookie@4
	mov	eax, OFFSET __ehfuncinfo$??1?$basic_string@DU?$char_traits@D@std@@V?$allocator@D@2@@std@@QAE@XZ
	jmp	___CxxFrameHandler3
text$x	ENDS
??1?$basic_string@DU?$char_traits@D@std@@V?$allocator@D@2@@std@@QAE@XZ ENDP ; std::basic_string<char,std::char_traits<char>,std::allocator<char> >::~basic_string<char,std::char_traits<char>,std::allocator<char> >
; Function compile flags: /Odtp /RTCsu
;	COMDAT ??1?$_Compressed_pair@U?$_Wrap_alloc@V?$allocator@D@std@@@std@@V?$_String_val@U?$_Simple_types@D@std@@@2@$00@std@@QAE@XZ
_TEXT	SEGMENT
_this$ = -4						; size = 4
??1?$_Compressed_pair@U?$_Wrap_alloc@V?$allocator@D@std@@@std@@V?$_String_val@U?$_Simple_types@D@std@@@2@$00@std@@QAE@XZ PROC ; std::_Compressed_pair<std::_Wrap_alloc<std::allocator<char> >,std::_String_val<std::_Simple_types<char> >,1>::~_Compressed_pair<std::_Wrap_alloc<std::allocator<char> >,std::_String_val<std::_Simple_types<char> >,1>, COMDAT
; _this$ = ecx
	push	ebp
	mov	ebp, esp
	push	ecx
	mov	DWORD PTR [ebp-4], -858993460		; ccccccccH
	mov	DWORD PTR _this$[ebp], ecx
	mov	ecx, DWORD PTR _this$[ebp]
	call	??1?$_String_val@U?$_Simple_types@D@std@@@std@@QAE@XZ
	add	esp, 4
	cmp	ebp, esp
	call	__RTC_CheckEsp
	mov	esp, ebp
	pop	ebp
	ret	0
??1?$_Compressed_pair@U?$_Wrap_alloc@V?$allocator@D@std@@@std@@V?$_String_val@U?$_Simple_types@D@std@@@2@$00@std@@QAE@XZ ENDP ; std::_Compressed_pair<std::_Wrap_alloc<std::allocator<char> >,std::_String_val<std::_Simple_types<char> >,1>::~_Compressed_pair<std::_Wrap_alloc<std::allocator<char> >,std::_String_val<std::_Simple_types<char> >,1>
_TEXT	ENDS
; Function compile flags: /Odtp /RTCsu
; File d:\microsoft visual studio 14.0\vc\include\xutility
;	COMDAT ?_Get_second@?$_Compressed_pair@U?$_Wrap_alloc@V?$allocator@D@std@@@std@@V?$_String_val@U?$_Simple_types@D@std@@@2@$00@std@@QBEABV?$_String_val@U?$_Simple_types@D@std@@@2@XZ
_TEXT	SEGMENT
_this$ = -4						; size = 4
?_Get_second@?$_Compressed_pair@U?$_Wrap_alloc@V?$allocator@D@std@@@std@@V?$_String_val@U?$_Simple_types@D@std@@@2@$00@std@@QBEABV?$_String_val@U?$_Simple_types@D@std@@@2@XZ PROC ; std::_Compressed_pair<std::_Wrap_alloc<std::allocator<char> >,std::_String_val<std::_Simple_types<char> >,1>::_Get_second, COMDAT
; _this$ = ecx

; 318  : 		{	// return const reference to second

	push	ebp
	mov	ebp, esp
	push	ecx
	mov	DWORD PTR [ebp-4], -858993460		; ccccccccH
	mov	DWORD PTR _this$[ebp], ecx

; 319  : 		return (_Myval2);

	mov	eax, DWORD PTR _this$[ebp]

; 320  : 		}

	mov	esp, ebp
	pop	ebp
	ret	0
?_Get_second@?$_Compressed_pair@U?$_Wrap_alloc@V?$allocator@D@std@@@std@@V?$_String_val@U?$_Simple_types@D@std@@@2@$00@std@@QBEABV?$_String_val@U?$_Simple_types@D@std@@@2@XZ ENDP ; std::_Compressed_pair<std::_Wrap_alloc<std::allocator<char> >,std::_String_val<std::_Simple_types<char> >,1>::_Get_second
_TEXT	ENDS
; Function compile flags: /Odtp /RTCsu
; File d:\microsoft visual studio 14.0\vc\include\xutility
;	COMDAT ?_Get_second@?$_Compressed_pair@U?$_Wrap_alloc@V?$allocator@D@std@@@std@@V?$_String_val@U?$_Simple_types@D@std@@@2@$00@std@@QAEAAV?$_String_val@U?$_Simple_types@D@std@@@2@XZ
_TEXT	SEGMENT
_this$ = -4						; size = 4
?_Get_second@?$_Compressed_pair@U?$_Wrap_alloc@V?$allocator@D@std@@@std@@V?$_String_val@U?$_Simple_types@D@std@@@2@$00@std@@QAEAAV?$_String_val@U?$_Simple_types@D@std@@@2@XZ PROC ; std::_Compressed_pair<std::_Wrap_alloc<std::allocator<char> >,std::_String_val<std::_Simple_types<char> >,1>::_Get_second, COMDAT
; _this$ = ecx

; 313  : 		{	// return reference to second

	push	ebp
	mov	ebp, esp
	push	ecx
	mov	DWORD PTR [ebp-4], -858993460		; ccccccccH
	mov	DWORD PTR _this$[ebp], ecx

; 314  : 		return (_Myval2);

	mov	eax, DWORD PTR _this$[ebp]

; 315  : 		}

	mov	esp, ebp
	pop	ebp
	ret	0
?_Get_second@?$_Compressed_pair@U?$_Wrap_alloc@V?$allocator@D@std@@@std@@V?$_String_val@U?$_Simple_types@D@std@@@2@$00@std@@QAEAAV?$_String_val@U?$_Simple_types@D@std@@@2@XZ ENDP ; std::_Compressed_pair<std::_Wrap_alloc<std::allocator<char> >,std::_String_val<std::_Simple_types<char> >,1>::_Get_second
_TEXT	ENDS
; Function compile flags: /Odtp /RTCsu
; File d:\microsoft visual studio 14.0\vc\include\xutility
;	COMDAT ?_Get_first@?$_Compressed_pair@U?$_Wrap_alloc@V?$allocator@D@std@@@std@@V?$_String_val@U?$_Simple_types@D@std@@@2@$00@std@@QAEAAU?$_Wrap_alloc@V?$allocator@D@std@@@2@XZ
_TEXT	SEGMENT
_this$ = -4						; size = 4
?_Get_first@?$_Compressed_pair@U?$_Wrap_alloc@V?$allocator@D@std@@@std@@V?$_String_val@U?$_Simple_types@D@std@@@2@$00@std@@QAEAAU?$_Wrap_alloc@V?$allocator@D@std@@@2@XZ PROC ; std::_Compressed_pair<std::_Wrap_alloc<std::allocator<char> >,std::_String_val<std::_Simple_types<char> >,1>::_Get_first, COMDAT
; _this$ = ecx

; 293  : 		{	// return reference to first

	push	ebp
	mov	ebp, esp
	push	ecx
	mov	DWORD PTR [ebp-4], -858993460		; ccccccccH
	mov	DWORD PTR _this$[ebp], ecx

; 294  : 		return (*this);

	mov	eax, DWORD PTR _this$[ebp]

; 295  : 		}

	mov	esp, ebp
	pop	ebp
	ret	0
?_Get_first@?$_Compressed_pair@U?$_Wrap_alloc@V?$allocator@D@std@@@std@@V?$_String_val@U?$_Simple_types@D@std@@@2@$00@std@@QAEAAU?$_Wrap_alloc@V?$allocator@D@std@@@2@XZ ENDP ; std::_Compressed_pair<std::_Wrap_alloc<std::allocator<char> >,std::_String_val<std::_Simple_types<char> >,1>::_Get_first
_TEXT	ENDS
; Function compile flags: /Odtp /RTCsu
; File d:\microsoft visual studio 14.0\vc\include\xstring
;	COMDAT ?_Myres@?$_String_alloc@U?$_String_base_types@DV?$allocator@D@std@@@std@@@std@@QAEAAIXZ
_TEXT	SEGMENT
_this$ = -4						; size = 4
?_Myres@?$_String_alloc@U?$_String_base_types@DV?$allocator@D@std@@@std@@@std@@QAEAAIXZ PROC ; std::_String_alloc<std::_String_base_types<char,std::allocator<char> > >::_Myres, COMDAT
; _this$ = ecx

; 721  : 		{	// return reference to _Myres

	push	ebp
	mov	ebp, esp
	push	ecx
	mov	DWORD PTR [ebp-4], -858993460		; ccccccccH
	mov	DWORD PTR _this$[ebp], ecx

; 722  : 		return (_Get_data()._Myres);

	mov	ecx, DWORD PTR _this$[ebp]
	call	?_Get_data@?$_String_alloc@U?$_String_base_types@DV?$allocator@D@std@@@std@@@std@@QAEAAV?$_String_val@U?$_Simple_types@D@std@@@2@XZ ; std::_String_alloc<std::_String_base_types<char,std::allocator<char> > >::_Get_data
	add	eax, 24					; 00000018H

; 723  : 		}

	add	esp, 4
	cmp	ebp, esp
	call	__RTC_CheckEsp
	mov	esp, ebp
	pop	ebp
	ret	0
?_Myres@?$_String_alloc@U?$_String_base_types@DV?$allocator@D@std@@@std@@@std@@QAEAAIXZ ENDP ; std::_String_alloc<std::_String_base_types<char,std::allocator<char> > >::_Myres
_TEXT	ENDS
; Function compile flags: /Odtp /RTCsu
; File d:\microsoft visual studio 14.0\vc\include\xstring
;	COMDAT ?_Mysize@?$_String_alloc@U?$_String_base_types@DV?$allocator@D@std@@@std@@@std@@QBEABIXZ
_TEXT	SEGMENT
_this$ = -4						; size = 4
?_Mysize@?$_String_alloc@U?$_String_base_types@DV?$allocator@D@std@@@std@@@std@@QBEABIXZ PROC ; std::_String_alloc<std::_String_base_types<char,std::allocator<char> > >::_Mysize, COMDAT
; _this$ = ecx

; 716  : 		{	// return const reference to _Mysize

	push	ebp
	mov	ebp, esp
	push	ecx
	mov	DWORD PTR [ebp-4], -858993460		; ccccccccH
	mov	DWORD PTR _this$[ebp], ecx

; 717  : 		return (_Get_data()._Mysize);

	mov	ecx, DWORD PTR _this$[ebp]
	call	?_Get_data@?$_String_alloc@U?$_String_base_types@DV?$allocator@D@std@@@std@@@std@@QBEABV?$_String_val@U?$_Simple_types@D@std@@@2@XZ ; std::_String_alloc<std::_String_base_types<char,std::allocator<char> > >::_Get_data
	add	eax, 20					; 00000014H

; 718  : 		}

	add	esp, 4
	cmp	ebp, esp
	call	__RTC_CheckEsp
	mov	esp, ebp
	pop	ebp
	ret	0
?_Mysize@?$_String_alloc@U?$_String_base_types@DV?$allocator@D@std@@@std@@@std@@QBEABIXZ ENDP ; std::_String_alloc<std::_String_base_types<char,std::allocator<char> > >::_Mysize
_TEXT	ENDS
; Function compile flags: /Odtp /RTCsu
; File d:\microsoft visual studio 14.0\vc\include\xstring
;	COMDAT ?_Mysize@?$_String_alloc@U?$_String_base_types@DV?$allocator@D@std@@@std@@@std@@QAEAAIXZ
_TEXT	SEGMENT
_this$ = -4						; size = 4
?_Mysize@?$_String_alloc@U?$_String_base_types@DV?$allocator@D@std@@@std@@@std@@QAEAAIXZ PROC ; std::_String_alloc<std::_String_base_types<char,std::allocator<char> > >::_Mysize, COMDAT
; _this$ = ecx

; 711  : 		{	// return reference to _Mysize

	push	ebp
	mov	ebp, esp
	push	ecx
	mov	DWORD PTR [ebp-4], -858993460		; ccccccccH
	mov	DWORD PTR _this$[ebp], ecx

; 712  : 		return (_Get_data()._Mysize);

	mov	ecx, DWORD PTR _this$[ebp]
	call	?_Get_data@?$_String_alloc@U?$_String_base_types@DV?$allocator@D@std@@@std@@@std@@QAEAAV?$_String_val@U?$_Simple_types@D@std@@@2@XZ ; std::_String_alloc<std::_String_base_types<char,std::allocator<char> > >::_Get_data
	add	eax, 20					; 00000014H

; 713  : 		}

	add	esp, 4
	cmp	ebp, esp
	call	__RTC_CheckEsp
	mov	esp, ebp
	pop	ebp
	ret	0
?_Mysize@?$_String_alloc@U?$_String_base_types@DV?$allocator@D@std@@@std@@@std@@QAEAAIXZ ENDP ; std::_String_alloc<std::_String_base_types<char,std::allocator<char> > >::_Mysize
_TEXT	ENDS
; Function compile flags: /Odtp /RTCsu
; File d:\microsoft visual studio 14.0\vc\include\xstring
;	COMDAT ?_Bx@?$_String_alloc@U?$_String_base_types@DV?$allocator@D@std@@@std@@@std@@QAEAAT_Bxty@?$_String_val@U?$_Simple_types@D@std@@@2@XZ
_TEXT	SEGMENT
_this$ = -4						; size = 4
?_Bx@?$_String_alloc@U?$_String_base_types@DV?$allocator@D@std@@@std@@@std@@QAEAAT_Bxty@?$_String_val@U?$_Simple_types@D@std@@@2@XZ PROC ; std::_String_alloc<std::_String_base_types<char,std::allocator<char> > >::_Bx, COMDAT
; _this$ = ecx

; 701  : 		{	// return reference to _Bx

	push	ebp
	mov	ebp, esp
	push	ecx
	mov	DWORD PTR [ebp-4], -858993460		; ccccccccH
	mov	DWORD PTR _this$[ebp], ecx

; 702  : 		return (_Get_data()._Bx);

	mov	ecx, DWORD PTR _this$[ebp]
	call	?_Get_data@?$_String_alloc@U?$_String_base_types@DV?$allocator@D@std@@@std@@@std@@QAEAAV?$_String_val@U?$_Simple_types@D@std@@@2@XZ ; std::_String_alloc<std::_String_base_types<char,std::allocator<char> > >::_Get_data
	add	eax, 4

; 703  : 		}

	add	esp, 4
	cmp	ebp, esp
	call	__RTC_CheckEsp
	mov	esp, ebp
	pop	ebp
	ret	0
?_Bx@?$_String_alloc@U?$_String_base_types@DV?$allocator@D@std@@@std@@@std@@QAEAAT_Bxty@?$_String_val@U?$_Simple_types@D@std@@@2@XZ ENDP ; std::_String_alloc<std::_String_base_types<char,std::allocator<char> > >::_Bx
_TEXT	ENDS
; Function compile flags: /Odtp /RTCsu
; File d:\microsoft visual studio 14.0\vc\include\xstring
;	COMDAT ?_Get_data@?$_String_alloc@U?$_String_base_types@DV?$allocator@D@std@@@std@@@std@@QBEABV?$_String_val@U?$_Simple_types@D@std@@@2@XZ
_TEXT	SEGMENT
_this$ = -4						; size = 4
?_Get_data@?$_String_alloc@U?$_String_base_types@DV?$allocator@D@std@@@std@@@std@@QBEABV?$_String_val@U?$_Simple_types@D@std@@@2@XZ PROC ; std::_String_alloc<std::_String_base_types<char,std::allocator<char> > >::_Get_data, COMDAT
; _this$ = ecx

; 694  : 		{	// return const reference to _String_val

	push	ebp
	mov	ebp, esp
	push	ecx
	mov	DWORD PTR [ebp-4], -858993460		; ccccccccH
	mov	DWORD PTR _this$[ebp], ecx

; 695  : 		return (_Mypair._Get_second());

	mov	ecx, DWORD PTR _this$[ebp]
	call	?_Get_second@?$_Compressed_pair@U?$_Wrap_alloc@V?$allocator@D@std@@@std@@V?$_String_val@U?$_Simple_types@D@std@@@2@$00@std@@QBEABV?$_String_val@U?$_Simple_types@D@std@@@2@XZ ; std::_Compressed_pair<std::_Wrap_alloc<std::allocator<char> >,std::_String_val<std::_Simple_types<char> >,1>::_Get_second

; 696  : 		}

	add	esp, 4
	cmp	ebp, esp
	call	__RTC_CheckEsp
	mov	esp, ebp
	pop	ebp
	ret	0
?_Get_data@?$_String_alloc@U?$_String_base_types@DV?$allocator@D@std@@@std@@@std@@QBEABV?$_String_val@U?$_Simple_types@D@std@@@2@XZ ENDP ; std::_String_alloc<std::_String_base_types<char,std::allocator<char> > >::_Get_data
_TEXT	ENDS
; Function compile flags: /Odtp /RTCsu
; File d:\microsoft visual studio 14.0\vc\include\xstring
;	COMDAT ?_Get_data@?$_String_alloc@U?$_String_base_types@DV?$allocator@D@std@@@std@@@std@@QAEAAV?$_String_val@U?$_Simple_types@D@std@@@2@XZ
_TEXT	SEGMENT
_this$ = -4						; size = 4
?_Get_data@?$_String_alloc@U?$_String_base_types@DV?$allocator@D@std@@@std@@@std@@QAEAAV?$_String_val@U?$_Simple_types@D@std@@@2@XZ PROC ; std::_String_alloc<std::_String_base_types<char,std::allocator<char> > >::_Get_data, COMDAT
; _this$ = ecx

; 689  : 		{	// return reference to _String_val

	push	ebp
	mov	ebp, esp
	push	ecx
	mov	DWORD PTR [ebp-4], -858993460		; ccccccccH
	mov	DWORD PTR _this$[ebp], ecx

; 690  : 		return (_Mypair._Get_second());

	mov	ecx, DWORD PTR _this$[ebp]
	call	?_Get_second@?$_Compressed_pair@U?$_Wrap_alloc@V?$allocator@D@std@@@std@@V?$_String_val@U?$_Simple_types@D@std@@@2@$00@std@@QAEAAV?$_String_val@U?$_Simple_types@D@std@@@2@XZ ; std::_Compressed_pair<std::_Wrap_alloc<std::allocator<char> >,std::_String_val<std::_Simple_types<char> >,1>::_Get_second

; 691  : 		}

	add	esp, 4
	cmp	ebp, esp
	call	__RTC_CheckEsp
	mov	esp, ebp
	pop	ebp
	ret	0
?_Get_data@?$_String_alloc@U?$_String_base_types@DV?$allocator@D@std@@@std@@@std@@QAEAAV?$_String_val@U?$_Simple_types@D@std@@@2@XZ ENDP ; std::_String_alloc<std::_String_base_types<char,std::allocator<char> > >::_Get_data
_TEXT	ENDS
; Function compile flags: /Odtp /RTCsu
; File d:\microsoft visual studio 14.0\vc\include\xstring
;	COMDAT ?_Getal@?$_String_alloc@U?$_String_base_types@DV?$allocator@D@std@@@std@@@std@@QAEAAU?$_Wrap_alloc@V?$allocator@D@std@@@2@XZ
_TEXT	SEGMENT
_this$ = -4						; size = 4
?_Getal@?$_String_alloc@U?$_String_base_types@DV?$allocator@D@std@@@std@@@std@@QAEAAU?$_Wrap_alloc@V?$allocator@D@std@@@2@XZ PROC ; std::_String_alloc<std::_String_base_types<char,std::allocator<char> > >::_Getal, COMDAT
; _this$ = ecx

; 679  : 		{	// return reference to allocator

	push	ebp
	mov	ebp, esp
	push	ecx
	mov	DWORD PTR [ebp-4], -858993460		; ccccccccH
	mov	DWORD PTR _this$[ebp], ecx

; 680  : 		return (_Mypair._Get_first());

	mov	ecx, DWORD PTR _this$[ebp]
	call	?_Get_first@?$_Compressed_pair@U?$_Wrap_alloc@V?$allocator@D@std@@@std@@V?$_String_val@U?$_Simple_types@D@std@@@2@$00@std@@QAEAAU?$_Wrap_alloc@V?$allocator@D@std@@@2@XZ ; std::_Compressed_pair<std::_Wrap_alloc<std::allocator<char> >,std::_String_val<std::_Simple_types<char> >,1>::_Get_first

; 681  : 		}

	add	esp, 4
	cmp	ebp, esp
	call	__RTC_CheckEsp
	mov	esp, ebp
	pop	ebp
	ret	0
?_Getal@?$_String_alloc@U?$_String_base_types@DV?$allocator@D@std@@@std@@@std@@QAEAAU?$_Wrap_alloc@V?$allocator@D@std@@@2@XZ ENDP ; std::_String_alloc<std::_String_base_types<char,std::allocator<char> > >::_Getal
_TEXT	ENDS
; Function compile flags: /Odtp /RTCsu
; File d:\microsoft visual studio 14.0\vc\include\xstring
;	COMDAT ?_Orphan_all@?$_String_alloc@U?$_String_base_types@DV?$allocator@D@std@@@std@@@std@@QAEXXZ
_TEXT	SEGMENT
_this$ = -4						; size = 4
?_Orphan_all@?$_String_alloc@U?$_String_base_types@DV?$allocator@D@std@@@std@@@std@@QAEXXZ PROC ; std::_String_alloc<std::_String_base_types<char,std::allocator<char> > >::_Orphan_all, COMDAT
; _this$ = ecx

; 669  : 		{	// orphan all iterators

	push	ebp
	mov	ebp, esp
	push	ecx
	mov	DWORD PTR [ebp-4], -858993460		; ccccccccH
	mov	DWORD PTR _this$[ebp], ecx

; 670  : 		_Get_data()._Orphan_all();

	mov	ecx, DWORD PTR _this$[ebp]
	call	?_Get_data@?$_String_alloc@U?$_String_base_types@DV?$allocator@D@std@@@std@@@std@@QAEAAV?$_String_val@U?$_Simple_types@D@std@@@2@XZ ; std::_String_alloc<std::_String_base_types<char,std::allocator<char> > >::_Get_data
	mov	ecx, eax
	call	?_Orphan_all@_Container_base12@std@@QAEXXZ ; std::_Container_base12::_Orphan_all

; 671  : 		}

	add	esp, 4
	cmp	ebp, esp
	call	__RTC_CheckEsp
	mov	esp, ebp
	pop	ebp
	ret	0
?_Orphan_all@?$_String_alloc@U?$_String_base_types@DV?$allocator@D@std@@@std@@@std@@QAEXXZ ENDP ; std::_String_alloc<std::_String_base_types<char,std::allocator<char> > >::_Orphan_all
_TEXT	ENDS
; Function compile flags: /Odtp /RTCsu
; File d:\microsoft visual studio 14.0\vc\include\xstring
;	COMDAT ?_Myproxy@?$_String_alloc@U?$_String_base_types@DV?$allocator@D@std@@@std@@@std@@QAEAAPAU_Container_proxy@2@XZ
_TEXT	SEGMENT
_this$ = -4						; size = 4
?_Myproxy@?$_String_alloc@U?$_String_base_types@DV?$allocator@D@std@@@std@@@std@@QAEAAPAU_Container_proxy@2@XZ PROC ; std::_String_alloc<std::_String_base_types<char,std::allocator<char> > >::_Myproxy, COMDAT
; _this$ = ecx

; 658  : 		{	// return reference to _Myproxy

	push	ebp
	mov	ebp, esp
	push	ecx
	mov	DWORD PTR [ebp-4], -858993460		; ccccccccH
	mov	DWORD PTR _this$[ebp], ecx

; 659  : 		return (_Get_data()._Myproxy);

	mov	ecx, DWORD PTR _this$[ebp]
	call	?_Get_data@?$_String_alloc@U?$_String_base_types@DV?$allocator@D@std@@@std@@@std@@QAEAAV?$_String_val@U?$_Simple_types@D@std@@@2@XZ ; std::_String_alloc<std::_String_base_types<char,std::allocator<char> > >::_Get_data

; 660  : 		}

	add	esp, 4
	cmp	ebp, esp
	call	__RTC_CheckEsp
	mov	esp, ebp
	pop	ebp
	ret	0
?_Myproxy@?$_String_alloc@U?$_String_base_types@DV?$allocator@D@std@@@std@@@std@@QAEAAPAU_Container_proxy@2@XZ ENDP ; std::_String_alloc<std::_String_base_types<char,std::allocator<char> > >::_Myproxy
_TEXT	ENDS
; Function compile flags: /Odtp /RTCsu
; File d:\microsoft visual studio 14.0\vc\include\xstring
;	COMDAT ?_Free_proxy@?$_String_alloc@U?$_String_base_types@DV?$allocator@D@std@@@std@@@std@@QAEXXZ
_TEXT	SEGMENT
__Alproxy$ = -9						; size = 1
_this$ = -4						; size = 4
?_Free_proxy@?$_String_alloc@U?$_String_base_types@DV?$allocator@D@std@@@std@@@std@@QAEXXZ PROC ; std::_String_alloc<std::_String_base_types<char,std::allocator<char> > >::_Free_proxy, COMDAT
; _this$ = ecx

; 643  : 		{	// destroy proxy

	push	ebp
	mov	ebp, esp
	sub	esp, 16					; 00000010H
	mov	eax, -858993460				; ccccccccH
	mov	DWORD PTR [ebp-16], eax
	mov	DWORD PTR [ebp-12], eax
	mov	DWORD PTR [ebp-8], eax
	mov	DWORD PTR [ebp-4], eax
	mov	DWORD PTR _this$[ebp], ecx

; 644  : 		typename _Alty::template rebind<_Container_proxy>::other
; 645  : 			_Alproxy(_Getal());

	mov	ecx, DWORD PTR _this$[ebp]
	call	?_Getal@?$_String_alloc@U?$_String_base_types@DV?$allocator@D@std@@@std@@@std@@QAEAAU?$_Wrap_alloc@V?$allocator@D@std@@@2@XZ ; std::_String_alloc<std::_String_base_types<char,std::allocator<char> > >::_Getal
	push	eax
	lea	ecx, DWORD PTR __Alproxy$[ebp]
	call	??$?0U?$_Wrap_alloc@V?$allocator@D@std@@@std@@@?$_Wrap_alloc@V?$allocator@U_Container_proxy@std@@@std@@@std@@QAE@AAU?$_Wrap_alloc@V?$allocator@D@std@@@1@@Z ; std::_Wrap_alloc<std::allocator<std::_Container_proxy> >::_Wrap_alloc<std::allocator<std::_Container_proxy> ><std::_Wrap_alloc<std::allocator<char> > >

; 646  : 		_Orphan_all();

	mov	ecx, DWORD PTR _this$[ebp]
	call	?_Orphan_all@?$_String_alloc@U?$_String_base_types@DV?$allocator@D@std@@@std@@@std@@QAEXXZ ; std::_String_alloc<std::_String_base_types<char,std::allocator<char> > >::_Orphan_all

; 647  : 		_Alproxy.destroy(_Myproxy());

	mov	ecx, DWORD PTR _this$[ebp]
	call	?_Myproxy@?$_String_alloc@U?$_String_base_types@DV?$allocator@D@std@@@std@@@std@@QAEAAPAU_Container_proxy@2@XZ ; std::_String_alloc<std::_String_base_types<char,std::allocator<char> > >::_Myproxy
	mov	eax, DWORD PTR [eax]
	push	eax
	lea	ecx, DWORD PTR __Alproxy$[ebp]
	call	??$destroy@U_Container_proxy@std@@@?$_Wrap_alloc@V?$allocator@U_Container_proxy@std@@@std@@@std@@QAEXPAU_Container_proxy@1@@Z ; std::_Wrap_alloc<std::allocator<std::_Container_proxy> >::destroy<std::_Container_proxy>

; 648  : 		_Alproxy.deallocate(_Myproxy(), 1);

	push	1
	mov	ecx, DWORD PTR _this$[ebp]
	call	?_Myproxy@?$_String_alloc@U?$_String_base_types@DV?$allocator@D@std@@@std@@@std@@QAEAAPAU_Container_proxy@2@XZ ; std::_String_alloc<std::_String_base_types<char,std::allocator<char> > >::_Myproxy
	mov	ecx, DWORD PTR [eax]
	push	ecx
	lea	ecx, DWORD PTR __Alproxy$[ebp]
	call	?deallocate@?$_Wrap_alloc@V?$allocator@U_Container_proxy@std@@@std@@@std@@QAEXPAU_Container_proxy@2@I@Z ; std::_Wrap_alloc<std::allocator<std::_Container_proxy> >::deallocate

; 649  : 		_Myproxy() = 0;

	mov	ecx, DWORD PTR _this$[ebp]
	call	?_Myproxy@?$_String_alloc@U?$_String_base_types@DV?$allocator@D@std@@@std@@@std@@QAEAAPAU_Container_proxy@2@XZ ; std::_String_alloc<std::_String_base_types<char,std::allocator<char> > >::_Myproxy
	mov	DWORD PTR [eax], 0

; 650  : 		}

	push	edx
	mov	ecx, ebp
	push	eax
	lea	edx, DWORD PTR $LN5@Free_proxy
	call	@_RTC_CheckStackVars@8
	pop	eax
	pop	edx
	add	esp, 16					; 00000010H
	cmp	ebp, esp
	call	__RTC_CheckEsp
	mov	esp, ebp
	pop	ebp
	ret	0
$LN5@Free_proxy:
	DD	1
	DD	$LN4@Free_proxy
$LN4@Free_proxy:
	DD	-9					; fffffff7H
	DD	1
	DD	$LN3@Free_proxy
$LN3@Free_proxy:
	DB	95					; 0000005fH
	DB	65					; 00000041H
	DB	108					; 0000006cH
	DB	112					; 00000070H
	DB	114					; 00000072H
	DB	111					; 0000006fH
	DB	120					; 00000078H
	DB	121					; 00000079H
	DB	0
?_Free_proxy@?$_String_alloc@U?$_String_base_types@DV?$allocator@D@std@@@std@@@std@@QAEXXZ ENDP ; std::_String_alloc<std::_String_base_types<char,std::allocator<char> > >::_Free_proxy
_TEXT	ENDS
; Function compile flags: /Odtp /RTCsu
; File d:\microsoft visual studio 14.0\vc\include\xstring
;	COMDAT ??1?$_String_alloc@U?$_String_base_types@DV?$allocator@D@std@@@std@@@std@@QAE@XZ
_TEXT	SEGMENT
_this$ = -16						; size = 4
__$EHRec$ = -12						; size = 12
??1?$_String_alloc@U?$_String_base_types@DV?$allocator@D@std@@@std@@@std@@QAE@XZ PROC ; std::_String_alloc<std::_String_base_types<char,std::allocator<char> > >::~_String_alloc<std::_String_base_types<char,std::allocator<char> > >, COMDAT
; _this$ = ecx

; 609  : 		{	// destroy the object

	push	ebp
	mov	ebp, esp
	push	-1
	push	__ehhandler$??1?$_String_alloc@U?$_String_base_types@DV?$allocator@D@std@@@std@@@std@@QAE@XZ
	mov	eax, DWORD PTR fs:0
	push	eax
	push	ecx
	mov	DWORD PTR [ebp-16], -858993460		; ccccccccH
	mov	eax, DWORD PTR ___security_cookie
	xor	eax, ebp
	push	eax
	lea	eax, DWORD PTR __$EHRec$[ebp]
	mov	DWORD PTR fs:0, eax
	mov	DWORD PTR _this$[ebp], ecx

; 610  : 		_Free_proxy();

	mov	ecx, DWORD PTR _this$[ebp]
	call	?_Free_proxy@?$_String_alloc@U?$_String_base_types@DV?$allocator@D@std@@@std@@@std@@QAEXXZ ; std::_String_alloc<std::_String_base_types<char,std::allocator<char> > >::_Free_proxy

; 611  : 		}

	mov	ecx, DWORD PTR _this$[ebp]
	call	??1?$_Compressed_pair@U?$_Wrap_alloc@V?$allocator@D@std@@@std@@V?$_String_val@U?$_Simple_types@D@std@@@2@$00@std@@QAE@XZ
	mov	ecx, DWORD PTR __$EHRec$[ebp]
	mov	DWORD PTR fs:0, ecx
	pop	ecx
	add	esp, 16					; 00000010H
	cmp	ebp, esp
	call	__RTC_CheckEsp
	mov	esp, ebp
	pop	ebp
	ret	0
_TEXT	ENDS
;	COMDAT text$x
text$x	SEGMENT
__ehhandler$??1?$_String_alloc@U?$_String_base_types@DV?$allocator@D@std@@@std@@@std@@QAE@XZ:
	mov	edx, DWORD PTR [esp+8]
	lea	eax, DWORD PTR [edx+12]
	mov	ecx, DWORD PTR [edx-8]
	xor	ecx, eax
	call	@__security_check_cookie@4
	mov	eax, OFFSET __ehfuncinfo$??1?$_String_alloc@U?$_String_base_types@DV?$allocator@D@std@@@std@@@std@@QAE@XZ
	jmp	___CxxFrameHandler3
text$x	ENDS
??1?$_String_alloc@U?$_String_base_types@DV?$allocator@D@std@@@std@@@std@@QAE@XZ ENDP ; std::_String_alloc<std::_String_base_types<char,std::allocator<char> > >::~_String_alloc<std::_String_base_types<char,std::allocator<char> > >
; Function compile flags: /Odtp /RTCsu
; File d:\microsoft visual studio 14.0\vc\include\xstring
;	COMDAT ?_Myptr@?$_String_alloc@U?$_String_base_types@DV?$allocator@D@std@@@std@@@std@@QBEPBDXZ
_TEXT	SEGMENT
_this$ = -4						; size = 4
?_Myptr@?$_String_alloc@U?$_String_base_types@DV?$allocator@D@std@@@std@@@std@@QBEPBDXZ PROC ; std::_String_alloc<std::_String_base_types<char,std::allocator<char> > >::_Myptr, COMDAT
; _this$ = ecx

; 565  : 		{	// determine current pointer to buffer for nonmutable string

	push	ebp
	mov	ebp, esp
	push	ecx
	mov	DWORD PTR [ebp-4], -858993460		; ccccccccH
	mov	DWORD PTR _this$[ebp], ecx

; 566  : 		return (_Get_data()._Myptr());

	mov	ecx, DWORD PTR _this$[ebp]
	call	?_Get_data@?$_String_alloc@U?$_String_base_types@DV?$allocator@D@std@@@std@@@std@@QBEABV?$_String_val@U?$_Simple_types@D@std@@@2@XZ ; std::_String_alloc<std::_String_base_types<char,std::allocator<char> > >::_Get_data
	mov	ecx, eax
	call	?_Myptr@?$_String_val@U?$_Simple_types@D@std@@@std@@QBEPBDXZ ; std::_String_val<std::_Simple_types<char> >::_Myptr

; 567  : 		}

	add	esp, 4
	cmp	ebp, esp
	call	__RTC_CheckEsp
	mov	esp, ebp
	pop	ebp
	ret	0
?_Myptr@?$_String_alloc@U?$_String_base_types@DV?$allocator@D@std@@@std@@@std@@QBEPBDXZ ENDP ; std::_String_alloc<std::_String_base_types<char,std::allocator<char> > >::_Myptr
_TEXT	ENDS
; Function compile flags: /Odtp /RTCsu
; File d:\microsoft visual studio 14.0\vc\include\xstring
;	COMDAT ?_Myptr@?$_String_alloc@U?$_String_base_types@DV?$allocator@D@std@@@std@@@std@@QAEPADXZ
_TEXT	SEGMENT
_this$ = -4						; size = 4
?_Myptr@?$_String_alloc@U?$_String_base_types@DV?$allocator@D@std@@@std@@@std@@QAEPADXZ PROC ; std::_String_alloc<std::_String_base_types<char,std::allocator<char> > >::_Myptr, COMDAT
; _this$ = ecx

; 560  : 		{	// determine current pointer to buffer for mutable string

	push	ebp
	mov	ebp, esp
	push	ecx
	mov	DWORD PTR [ebp-4], -858993460		; ccccccccH
	mov	DWORD PTR _this$[ebp], ecx

; 561  : 		return (_Get_data()._Myptr());

	mov	ecx, DWORD PTR _this$[ebp]
	call	?_Get_data@?$_String_alloc@U?$_String_base_types@DV?$allocator@D@std@@@std@@@std@@QAEAAV?$_String_val@U?$_Simple_types@D@std@@@2@XZ ; std::_String_alloc<std::_String_base_types<char,std::allocator<char> > >::_Get_data
	mov	ecx, eax
	call	?_Myptr@?$_String_val@U?$_Simple_types@D@std@@@std@@QAEPADXZ ; std::_String_val<std::_Simple_types<char> >::_Myptr

; 562  : 		}

	add	esp, 4
	cmp	ebp, esp
	call	__RTC_CheckEsp
	mov	esp, ebp
	pop	ebp
	ret	0
?_Myptr@?$_String_alloc@U?$_String_base_types@DV?$allocator@D@std@@@std@@@std@@QAEPADXZ ENDP ; std::_String_alloc<std::_String_base_types<char,std::allocator<char> > >::_Myptr
_TEXT	ENDS
; Function compile flags: /Odtp /RTCsu
;	COMDAT ??1?$_String_val@U?$_Simple_types@D@std@@@std@@QAE@XZ
_TEXT	SEGMENT
_this$ = -4						; size = 4
??1?$_String_val@U?$_Simple_types@D@std@@@std@@QAE@XZ PROC ; std::_String_val<std::_Simple_types<char> >::~_String_val<std::_Simple_types<char> >, COMDAT
; _this$ = ecx
	push	ebp
	mov	ebp, esp
	push	ecx
	mov	DWORD PTR [ebp-4], -858993460		; ccccccccH
	mov	DWORD PTR _this$[ebp], ecx
	mov	ecx, DWORD PTR _this$[ebp]
	call	??1_Container_base12@std@@QAE@XZ	; std::_Container_base12::~_Container_base12
	add	esp, 4
	cmp	ebp, esp
	call	__RTC_CheckEsp
	mov	esp, ebp
	pop	ebp
	ret	0
??1?$_String_val@U?$_Simple_types@D@std@@@std@@QAE@XZ ENDP ; std::_String_val<std::_Simple_types<char> >::~_String_val<std::_Simple_types<char> >
_TEXT	ENDS
; Function compile flags: /Odtp /RTCsu
; File d:\microsoft visual studio 14.0\vc\include\xstring
;	COMDAT ?_Myptr@?$_String_val@U?$_Simple_types@D@std@@@std@@QBEPBDXZ
_TEXT	SEGMENT
tv72 = -8						; size = 4
_this$ = -4						; size = 4
?_Myptr@?$_String_val@U?$_Simple_types@D@std@@@std@@QBEPBDXZ PROC ; std::_String_val<std::_Simple_types<char> >::_Myptr, COMDAT
; _this$ = ecx

; 511  : 		{	// determine current pointer to buffer for nonmutable string

	push	ebp
	mov	ebp, esp
	sub	esp, 8
	mov	DWORD PTR [ebp-8], -858993460		; ccccccccH
	mov	DWORD PTR [ebp-4], -858993460		; ccccccccH
	mov	DWORD PTR _this$[ebp], ecx

; 512  : 		return (this->_BUF_SIZE <= this->_Myres

	mov	eax, DWORD PTR _this$[ebp]
	cmp	DWORD PTR [eax+24], 16			; 00000010H
	jb	SHORT $LN3@Myptr
	mov	ecx, DWORD PTR _this$[ebp]
	mov	edx, DWORD PTR [ecx+4]
	push	edx
	call	??$addressof@D@std@@YAPADAAD@Z		; std::addressof<char>
	add	esp, 4
	mov	DWORD PTR tv72[ebp], eax
	jmp	SHORT $LN4@Myptr
$LN3@Myptr:
	mov	eax, DWORD PTR _this$[ebp]
	add	eax, 4
	mov	DWORD PTR tv72[ebp], eax
$LN4@Myptr:
	mov	eax, DWORD PTR tv72[ebp]

; 513  : 			? _STD addressof(*this->_Bx._Ptr)
; 514  : 			: this->_Bx._Buf);
; 515  : 		}

	add	esp, 8
	cmp	ebp, esp
	call	__RTC_CheckEsp
	mov	esp, ebp
	pop	ebp
	ret	0
?_Myptr@?$_String_val@U?$_Simple_types@D@std@@@std@@QBEPBDXZ ENDP ; std::_String_val<std::_Simple_types<char> >::_Myptr
_TEXT	ENDS
; Function compile flags: /Odtp /RTCsu
; File d:\microsoft visual studio 14.0\vc\include\xstring
;	COMDAT ?_Myptr@?$_String_val@U?$_Simple_types@D@std@@@std@@QAEPADXZ
_TEXT	SEGMENT
tv72 = -8						; size = 4
_this$ = -4						; size = 4
?_Myptr@?$_String_val@U?$_Simple_types@D@std@@@std@@QAEPADXZ PROC ; std::_String_val<std::_Simple_types<char> >::_Myptr, COMDAT
; _this$ = ecx

; 504  : 		{	// determine current pointer to buffer for mutable string

	push	ebp
	mov	ebp, esp
	sub	esp, 8
	mov	DWORD PTR [ebp-8], -858993460		; ccccccccH
	mov	DWORD PTR [ebp-4], -858993460		; ccccccccH
	mov	DWORD PTR _this$[ebp], ecx

; 505  : 		return (this->_BUF_SIZE <= this->_Myres

	mov	eax, DWORD PTR _this$[ebp]
	cmp	DWORD PTR [eax+24], 16			; 00000010H
	jb	SHORT $LN3@Myptr
	mov	ecx, DWORD PTR _this$[ebp]
	mov	edx, DWORD PTR [ecx+4]
	push	edx
	call	??$addressof@D@std@@YAPADAAD@Z		; std::addressof<char>
	add	esp, 4
	mov	DWORD PTR tv72[ebp], eax
	jmp	SHORT $LN4@Myptr
$LN3@Myptr:
	mov	eax, DWORD PTR _this$[ebp]
	add	eax, 4
	mov	DWORD PTR tv72[ebp], eax
$LN4@Myptr:
	mov	eax, DWORD PTR tv72[ebp]

; 506  : 			? _STD addressof(*this->_Bx._Ptr)
; 507  : 			: this->_Bx._Buf);
; 508  : 		}

	add	esp, 8
	cmp	ebp, esp
	call	__RTC_CheckEsp
	mov	esp, ebp
	pop	ebp
	ret	0
?_Myptr@?$_String_val@U?$_Simple_types@D@std@@@std@@QAEPADXZ ENDP ; std::_String_val<std::_Simple_types<char> >::_Myptr
_TEXT	ENDS
; Function compile flags: /Odtp /RTCsu
; File d:\microsoft visual studio 14.0\vc\include\xmemory0
;	COMDAT ?deallocate@?$_Wrap_alloc@V?$allocator@D@std@@@std@@QAEXPADI@Z
_TEXT	SEGMENT
_this$ = -4						; size = 4
__Ptr$ = 8						; size = 4
__Count$ = 12						; size = 4
?deallocate@?$_Wrap_alloc@V?$allocator@D@std@@@std@@QAEXPADI@Z PROC ; std::_Wrap_alloc<std::allocator<char> >::deallocate, COMDAT
; _this$ = ecx

; 910  : 		{	// deallocate object at _Ptr, ignore size

	push	ebp
	mov	ebp, esp
	push	ecx
	mov	DWORD PTR [ebp-4], -858993460		; ccccccccH
	mov	DWORD PTR _this$[ebp], ecx

; 911  : 		_Mybase::deallocate(_Ptr, _Count);

	mov	eax, DWORD PTR __Count$[ebp]
	push	eax
	mov	ecx, DWORD PTR __Ptr$[ebp]
	push	ecx
	mov	ecx, DWORD PTR _this$[ebp]
	call	?deallocate@?$allocator@D@std@@QAEXPADI@Z ; std::allocator<char>::deallocate

; 912  : 		}

	add	esp, 4
	cmp	ebp, esp
	call	__RTC_CheckEsp
	mov	esp, ebp
	pop	ebp
	ret	8
?deallocate@?$_Wrap_alloc@V?$allocator@D@std@@@std@@QAEXPADI@Z ENDP ; std::_Wrap_alloc<std::allocator<char> >::deallocate
_TEXT	ENDS
; Function compile flags: /Odtp /RTCsu
; File d:\microsoft visual studio 14.0\vc\include\xmemory0
;	COMDAT ?deallocate@?$allocator@D@std@@QAEXPADI@Z
_TEXT	SEGMENT
_this$ = -4						; size = 4
__Ptr$ = 8						; size = 4
__Count$ = 12						; size = 4
?deallocate@?$allocator@D@std@@QAEXPADI@Z PROC		; std::allocator<char>::deallocate, COMDAT
; _this$ = ecx

; 639  : 		{	// deallocate object at _Ptr

	push	ebp
	mov	ebp, esp
	push	ecx
	mov	DWORD PTR [ebp-4], -858993460		; ccccccccH
	mov	DWORD PTR _this$[ebp], ecx

; 640  : 		_Deallocate(_Ptr, _Count);

	mov	eax, DWORD PTR __Count$[ebp]
	push	eax
	mov	ecx, DWORD PTR __Ptr$[ebp]
	push	ecx
	call	??$_Deallocate@D@std@@YAXPADI@Z		; std::_Deallocate<char>
	add	esp, 8

; 641  : 		}

	add	esp, 4
	cmp	ebp, esp
	call	__RTC_CheckEsp
	mov	esp, ebp
	pop	ebp
	ret	8
?deallocate@?$allocator@D@std@@QAEXPADI@Z ENDP		; std::allocator<char>::deallocate
_TEXT	ENDS
; Function compile flags: /Odtp /RTCsu
; File d:\microsoft visual studio 14.0\vc\include\xutility
;	COMDAT ?_Orphan_me@_Iterator_base12@std@@QAEXXZ
_TEXT	SEGMENT
__Pnext$1 = -8						; size = 4
_this$ = -4						; size = 4
?_Orphan_me@_Iterator_base12@std@@QAEXXZ PROC		; std::_Iterator_base12::_Orphan_me, COMDAT
; _this$ = ecx

; 192  : 		{	// cut ties with parent

	push	ebp
	mov	ebp, esp
	sub	esp, 8
	mov	DWORD PTR [ebp-8], -858993460		; ccccccccH
	mov	DWORD PTR [ebp-4], -858993460		; ccccccccH
	mov	DWORD PTR _this$[ebp], ecx

; 193  :  #if _ITERATOR_DEBUG_LEVEL == 2
; 194  : 		if (_Myproxy != 0)

	mov	eax, DWORD PTR _this$[ebp]
	cmp	DWORD PTR [eax], 0
	je	SHORT $LN1@Orphan_me

; 195  : 			{	// adopted, remove self from list
; 196  : 			_Iterator_base12 **_Pnext = &_Myproxy->_Myfirstiter;

	mov	ecx, DWORD PTR _this$[ebp]
	mov	edx, DWORD PTR [ecx]
	add	edx, 4
	mov	DWORD PTR __Pnext$1[ebp], edx
$LN2@Orphan_me:

; 197  : 			while (*_Pnext != 0 && *_Pnext != this)

	mov	eax, DWORD PTR __Pnext$1[ebp]
	cmp	DWORD PTR [eax], 0
	je	SHORT $LN3@Orphan_me
	mov	ecx, DWORD PTR __Pnext$1[ebp]
	mov	edx, DWORD PTR [ecx]
	cmp	edx, DWORD PTR _this$[ebp]
	je	SHORT $LN3@Orphan_me

; 198  : 				_Pnext = &(*_Pnext)->_Mynextiter;

	mov	eax, DWORD PTR __Pnext$1[ebp]
	mov	ecx, DWORD PTR [eax]
	add	ecx, 4
	mov	DWORD PTR __Pnext$1[ebp], ecx
	jmp	SHORT $LN2@Orphan_me
$LN3@Orphan_me:

; 199  : 
; 200  : 			if (*_Pnext == 0)

	mov	edx, DWORD PTR __Pnext$1[ebp]
	cmp	DWORD PTR [edx], 0
	jne	SHORT $LN5@Orphan_me

; 201  : 				_DEBUG_ERROR("ITERATOR LIST CORRUPTED!");

	push	201					; 000000c9H
	push	OFFSET ??_C@_1GI@DDIAPGKN@?$AAD?$AA?3?$AA?2?$AAM?$AAi?$AAc?$AAr?$AAo?$AAs?$AAo?$AAf?$AAt?$AA?5?$AAV?$AAi?$AAs?$AAu?$AAa?$AAl?$AA?5?$AAS?$AAt?$AAu?$AAd?$AAi?$AAo?$AA?5?$AA1?$AA4?$AA?4?$AA0?$AA?2@
	push	OFFSET ??_C@_1DC@POOIKBAO@?$AAI?$AAT?$AAE?$AAR?$AAA?$AAT?$AAO?$AAR?$AA?5?$AAL?$AAI?$AAS?$AAT?$AA?5?$AAC?$AAO?$AAR?$AAR?$AAU?$AAP?$AAT?$AAE?$AAD?$AA?$CB?$AA?$AA@
	call	?_Debug_message@std@@YAXPB_W0I@Z	; std::_Debug_message
	add	esp, 12					; 0000000cH
$LN5@Orphan_me:

; 202  : 			*_Pnext = _Mynextiter;

	mov	eax, DWORD PTR __Pnext$1[ebp]
	mov	ecx, DWORD PTR _this$[ebp]
	mov	edx, DWORD PTR [ecx+4]
	mov	DWORD PTR [eax], edx

; 203  : 			_Myproxy = 0;

	mov	eax, DWORD PTR _this$[ebp]
	mov	DWORD PTR [eax], 0
$LN1@Orphan_me:

; 204  : 			}
; 205  :  #endif /* _ITERATOR_DEBUG_LEVEL == 2 */
; 206  : 		}

	add	esp, 8
	cmp	ebp, esp
	call	__RTC_CheckEsp
	mov	esp, ebp
	pop	ebp
	ret	0
?_Orphan_me@_Iterator_base12@std@@QAEXXZ ENDP		; std::_Iterator_base12::_Orphan_me
_TEXT	ENDS
; Function compile flags: /Odtp /RTCsu
; File d:\microsoft visual studio 14.0\vc\include\xutility
;	COMDAT ?_Getpnext@_Iterator_base12@std@@QAEPAPAU12@XZ
_TEXT	SEGMENT
_this$ = -4						; size = 4
?_Getpnext@_Iterator_base12@std@@QAEPAPAU12@XZ PROC	; std::_Iterator_base12::_Getpnext, COMDAT
; _this$ = ecx

; 187  : 		{	// get address of remaining iterator chain

	push	ebp
	mov	ebp, esp
	push	ecx
	mov	DWORD PTR [ebp-4], -858993460		; ccccccccH
	mov	DWORD PTR _this$[ebp], ecx

; 188  : 		return (&_Mynextiter);

	mov	eax, DWORD PTR _this$[ebp]
	add	eax, 4

; 189  : 		}

	mov	esp, ebp
	pop	ebp
	ret	0
?_Getpnext@_Iterator_base12@std@@QAEPAPAU12@XZ ENDP	; std::_Iterator_base12::_Getpnext
_TEXT	ENDS
; Function compile flags: /Odtp /RTCsu
; File d:\microsoft visual studio 14.0\vc\include\xutility
;	COMDAT ?_Getcont@_Iterator_base12@std@@QBEPBU_Container_base12@2@XZ
_TEXT	SEGMENT
tv68 = -8						; size = 4
_this$ = -4						; size = 4
?_Getcont@_Iterator_base12@std@@QBEPBU_Container_base12@2@XZ PROC ; std::_Iterator_base12::_Getcont, COMDAT
; _this$ = ecx

; 182  : 		{	// get owning container

	push	ebp
	mov	ebp, esp
	sub	esp, 8
	mov	DWORD PTR [ebp-8], -858993460		; ccccccccH
	mov	DWORD PTR [ebp-4], -858993460		; ccccccccH
	mov	DWORD PTR _this$[ebp], ecx

; 183  : 		return (_Myproxy == 0 ? 0 : _Myproxy->_Mycont);

	mov	eax, DWORD PTR _this$[ebp]
	cmp	DWORD PTR [eax], 0
	jne	SHORT $LN3@Getcont
	mov	DWORD PTR tv68[ebp], 0
	jmp	SHORT $LN4@Getcont
$LN3@Getcont:
	mov	ecx, DWORD PTR _this$[ebp]
	mov	edx, DWORD PTR [ecx]
	mov	eax, DWORD PTR [edx]
	mov	DWORD PTR tv68[ebp], eax
$LN4@Getcont:
	mov	eax, DWORD PTR tv68[ebp]

; 184  : 		}

	mov	esp, ebp
	pop	ebp
	ret	0
?_Getcont@_Iterator_base12@std@@QBEPBU_Container_base12@2@XZ ENDP ; std::_Iterator_base12::_Getcont
_TEXT	ENDS
; Function compile flags: /Odtp /RTCsu
; File d:\microsoft visual studio 14.0\vc\include\xutility
;	COMDAT ?_Clrcont@_Iterator_base12@std@@QAEXXZ
_TEXT	SEGMENT
_this$ = -4						; size = 4
?_Clrcont@_Iterator_base12@std@@QAEXXZ PROC		; std::_Iterator_base12::_Clrcont, COMDAT
; _this$ = ecx

; 177  : 		{	// disown owning container

	push	ebp
	mov	ebp, esp
	push	ecx
	mov	DWORD PTR [ebp-4], -858993460		; ccccccccH
	mov	DWORD PTR _this$[ebp], ecx

; 178  : 		_Myproxy = 0;

	mov	eax, DWORD PTR _this$[ebp]
	mov	DWORD PTR [eax], 0

; 179  : 		}

	mov	esp, ebp
	pop	ebp
	ret	0
?_Clrcont@_Iterator_base12@std@@QAEXXZ ENDP		; std::_Iterator_base12::_Clrcont
_TEXT	ENDS
; Function compile flags: /Odtp /RTCsu
; File d:\microsoft visual studio 14.0\vc\include\xutility
;	COMDAT ?_Adopt@_Iterator_base12@std@@QAEXPBU_Container_base12@2@@Z
_TEXT	SEGMENT
__Lock$2 = -40						; size = 4
__Parent_proxy$3 = -32					; size = 4
__Lock$4 = -24						; size = 4
_this$ = -16						; size = 4
__$EHRec$ = -12						; size = 12
__Parent$ = 8						; size = 4
?_Adopt@_Iterator_base12@std@@QAEXPBU_Container_base12@2@@Z PROC ; std::_Iterator_base12::_Adopt, COMDAT
; _this$ = ecx

; 148  : 		{	// adopt this iterator by parent

	push	ebp
	mov	ebp, esp
	push	-1
	push	__ehhandler$?_Adopt@_Iterator_base12@std@@QAEXPBU_Container_base12@2@@Z
	mov	eax, DWORD PTR fs:0
	push	eax
	sub	esp, 32					; 00000020H
	mov	eax, -858993460				; ccccccccH
	mov	DWORD PTR [ebp-44], eax
	mov	DWORD PTR [ebp-40], eax
	mov	DWORD PTR [ebp-36], eax
	mov	DWORD PTR [ebp-32], eax
	mov	DWORD PTR [ebp-28], eax
	mov	DWORD PTR [ebp-24], eax
	mov	DWORD PTR [ebp-20], eax
	mov	DWORD PTR [ebp-16], eax
	mov	eax, DWORD PTR ___security_cookie
	xor	eax, ebp
	push	eax
	lea	eax, DWORD PTR __$EHRec$[ebp]
	mov	DWORD PTR fs:0, eax
	mov	DWORD PTR _this$[ebp], ecx

; 149  : 		if (_Parent == 0)

	cmp	DWORD PTR __Parent$[ebp], 0
	jne	SHORT $LN2@Adopt

; 150  : 			{	// no future parent, just disown current parent
; 151  :  #if _ITERATOR_DEBUG_LEVEL == 2
; 152  : 			_Lockit _Lock(_LOCK_DEBUG);

	push	3
	lea	ecx, DWORD PTR __Lock$4[ebp]
	call	??0_Lockit@std@@QAE@H@Z			; std::_Lockit::_Lockit
	mov	DWORD PTR __$EHRec$[ebp+8], 0

; 153  : 			_Orphan_me();

	mov	ecx, DWORD PTR _this$[ebp]
	call	?_Orphan_me@_Iterator_base12@std@@QAEXXZ ; std::_Iterator_base12::_Orphan_me

; 154  :  #endif /* _ITERATOR_DEBUG_LEVEL == 2 */
; 155  : 			}

	mov	DWORD PTR __$EHRec$[ebp+8], -1
	lea	ecx, DWORD PTR __Lock$4[ebp]
	call	??1_Lockit@std@@QAE@XZ			; std::_Lockit::~_Lockit

; 156  : 		else

	jmp	SHORT $LN1@Adopt
$LN2@Adopt:

; 157  : 			{	// have a parent, do adoption
; 158  : 			_Container_proxy *_Parent_proxy = _Parent->_Myproxy;

	mov	eax, DWORD PTR __Parent$[ebp]
	mov	ecx, DWORD PTR [eax]
	mov	DWORD PTR __Parent_proxy$3[ebp], ecx

; 159  : 
; 160  :  #if _ITERATOR_DEBUG_LEVEL == 2
; 161  : 			if (_Myproxy != _Parent_proxy)

	mov	edx, DWORD PTR _this$[ebp]
	mov	eax, DWORD PTR [edx]
	cmp	eax, DWORD PTR __Parent_proxy$3[ebp]
	je	SHORT $LN1@Adopt

; 162  : 				{	// change parentage
; 163  : 				_Lockit _Lock(_LOCK_DEBUG);

	push	3
	lea	ecx, DWORD PTR __Lock$2[ebp]
	call	??0_Lockit@std@@QAE@H@Z			; std::_Lockit::_Lockit
	mov	DWORD PTR __$EHRec$[ebp+8], 1

; 164  : 				_Orphan_me();

	mov	ecx, DWORD PTR _this$[ebp]
	call	?_Orphan_me@_Iterator_base12@std@@QAEXXZ ; std::_Iterator_base12::_Orphan_me

; 165  : 				_Mynextiter = _Parent_proxy->_Myfirstiter;

	mov	ecx, DWORD PTR _this$[ebp]
	mov	edx, DWORD PTR __Parent_proxy$3[ebp]
	mov	eax, DWORD PTR [edx+4]
	mov	DWORD PTR [ecx+4], eax

; 166  : 				_Parent_proxy->_Myfirstiter = this;

	mov	ecx, DWORD PTR __Parent_proxy$3[ebp]
	mov	edx, DWORD PTR _this$[ebp]
	mov	DWORD PTR [ecx+4], edx

; 167  : 				_Myproxy = _Parent_proxy;

	mov	eax, DWORD PTR _this$[ebp]
	mov	ecx, DWORD PTR __Parent_proxy$3[ebp]
	mov	DWORD PTR [eax], ecx

; 168  : 				}

	mov	DWORD PTR __$EHRec$[ebp+8], -1
	lea	ecx, DWORD PTR __Lock$2[ebp]
	call	??1_Lockit@std@@QAE@XZ			; std::_Lockit::~_Lockit
$LN1@Adopt:

; 169  : 
; 170  :  #else /* _ITERATOR_DEBUG_LEVEL == 2 */
; 171  : 			_Myproxy = _Parent_proxy;
; 172  :  #endif /* _ITERATOR_DEBUG_LEVEL == 2 */
; 173  : 			}
; 174  : 		}

	push	edx
	mov	ecx, ebp
	push	eax
	lea	edx, DWORD PTR $LN12@Adopt
	call	@_RTC_CheckStackVars@8
	pop	eax
	pop	edx
	mov	ecx, DWORD PTR __$EHRec$[ebp]
	mov	DWORD PTR fs:0, ecx
	pop	ecx
	add	esp, 44					; 0000002cH
	cmp	ebp, esp
	call	__RTC_CheckEsp
	mov	esp, ebp
	pop	ebp
	ret	4
$LN12@Adopt:
	DD	2
	DD	$LN11@Adopt
$LN11@Adopt:
	DD	-24					; ffffffe8H
	DD	4
	DD	$LN8@Adopt
	DD	-40					; ffffffd8H
	DD	4
	DD	$LN9@Adopt
$LN9@Adopt:
	DB	95					; 0000005fH
	DB	76					; 0000004cH
	DB	111					; 0000006fH
	DB	99					; 00000063H
	DB	107					; 0000006bH
	DB	0
$LN8@Adopt:
	DB	95					; 0000005fH
	DB	76					; 0000004cH
	DB	111					; 0000006fH
	DB	99					; 00000063H
	DB	107					; 0000006bH
	DB	0
_TEXT	ENDS
;	COMDAT text$x
text$x	SEGMENT
__unwindfunclet$?_Adopt@_Iterator_base12@std@@QAEXPBU_Container_base12@2@@Z$0:
	lea	ecx, DWORD PTR __Lock$4[ebp]
	jmp	??1_Lockit@std@@QAE@XZ			; std::_Lockit::~_Lockit
__unwindfunclet$?_Adopt@_Iterator_base12@std@@QAEXPBU_Container_base12@2@@Z$1:
	lea	ecx, DWORD PTR __Lock$2[ebp]
	jmp	??1_Lockit@std@@QAE@XZ			; std::_Lockit::~_Lockit
__ehhandler$?_Adopt@_Iterator_base12@std@@QAEXPBU_Container_base12@2@@Z:
	mov	edx, DWORD PTR [esp+8]
	lea	eax, DWORD PTR [edx+12]
	mov	ecx, DWORD PTR [edx-36]
	xor	ecx, eax
	call	@__security_check_cookie@4
	mov	eax, OFFSET __ehfuncinfo$?_Adopt@_Iterator_base12@std@@QAEXPBU_Container_base12@2@@Z
	jmp	___CxxFrameHandler3
text$x	ENDS
?_Adopt@_Iterator_base12@std@@QAEXPBU_Container_base12@2@@Z ENDP ; std::_Iterator_base12::_Adopt
; Function compile flags: /Odtp /RTCsu
; File d:\microsoft visual studio 14.0\vc\include\xutility
;	COMDAT ??1_Iterator_base12@std@@QAE@XZ
_TEXT	SEGMENT
__Lock$ = -24						; size = 4
_this$ = -16						; size = 4
__$EHRec$ = -12						; size = 12
??1_Iterator_base12@std@@QAE@XZ PROC			; std::_Iterator_base12::~_Iterator_base12, COMDAT
; _this$ = ecx

; 140  : 		{	// destroy the iterator

	push	ebp
	mov	ebp, esp
	push	-1
	push	__ehhandler$??1_Iterator_base12@std@@QAE@XZ
	mov	eax, DWORD PTR fs:0
	push	eax
	sub	esp, 16					; 00000010H
	mov	eax, -858993460				; ccccccccH
	mov	DWORD PTR [ebp-28], eax
	mov	DWORD PTR [ebp-24], eax
	mov	DWORD PTR [ebp-20], eax
	mov	DWORD PTR [ebp-16], eax
	mov	eax, DWORD PTR ___security_cookie
	xor	eax, ebp
	push	eax
	lea	eax, DWORD PTR __$EHRec$[ebp]
	mov	DWORD PTR fs:0, eax
	mov	DWORD PTR _this$[ebp], ecx

; 141  :  #if _ITERATOR_DEBUG_LEVEL == 2
; 142  : 		_Lockit _Lock(_LOCK_DEBUG);

	push	3
	lea	ecx, DWORD PTR __Lock$[ebp]
	call	??0_Lockit@std@@QAE@H@Z			; std::_Lockit::_Lockit

; 143  : 		_Orphan_me();

	mov	ecx, DWORD PTR _this$[ebp]
	call	?_Orphan_me@_Iterator_base12@std@@QAEXXZ ; std::_Iterator_base12::_Orphan_me

; 144  :  #endif /* _ITERATOR_DEBUG_LEVEL == 2 */
; 145  : 		}

	lea	ecx, DWORD PTR __Lock$[ebp]
	call	??1_Lockit@std@@QAE@XZ			; std::_Lockit::~_Lockit
	push	edx
	mov	ecx, ebp
	push	eax
	lea	edx, DWORD PTR $LN6@Iterator_b
	call	@_RTC_CheckStackVars@8
	pop	eax
	pop	edx
	mov	ecx, DWORD PTR __$EHRec$[ebp]
	mov	DWORD PTR fs:0, ecx
	pop	ecx
	add	esp, 28					; 0000001cH
	cmp	ebp, esp
	call	__RTC_CheckEsp
	mov	esp, ebp
	pop	ebp
	ret	0
	npad	3
$LN6@Iterator_b:
	DD	1
	DD	$LN5@Iterator_b
$LN5@Iterator_b:
	DD	-24					; ffffffe8H
	DD	4
	DD	$LN3@Iterator_b
$LN3@Iterator_b:
	DB	95					; 0000005fH
	DB	76					; 0000004cH
	DB	111					; 0000006fH
	DB	99					; 00000063H
	DB	107					; 0000006bH
	DB	0
_TEXT	ENDS
;	COMDAT text$x
text$x	SEGMENT
__ehhandler$??1_Iterator_base12@std@@QAE@XZ:
	mov	edx, DWORD PTR [esp+8]
	lea	eax, DWORD PTR [edx+12]
	mov	ecx, DWORD PTR [edx-20]
	xor	ecx, eax
	call	@__security_check_cookie@4
	mov	eax, OFFSET __ehfuncinfo$??1_Iterator_base12@std@@QAE@XZ
	jmp	___CxxFrameHandler3
text$x	ENDS
??1_Iterator_base12@std@@QAE@XZ ENDP			; std::_Iterator_base12::~_Iterator_base12
; Function compile flags: /Odtp /RTCsu
; File d:\microsoft visual studio 14.0\vc\include\xutility
;	COMDAT ??4_Iterator_base12@std@@QAEAAU01@ABU01@@Z
_TEXT	SEGMENT
__Lock$2 = -24						; size = 4
_this$ = -16						; size = 4
__$EHRec$ = -12						; size = 12
__Right$ = 8						; size = 4
??4_Iterator_base12@std@@QAEAAU01@ABU01@@Z PROC		; std::_Iterator_base12::operator=, COMDAT
; _this$ = ecx

; 124  : 		{	// assign an iterator

	push	ebp
	mov	ebp, esp
	push	-1
	push	__ehhandler$??4_Iterator_base12@std@@QAEAAU01@ABU01@@Z
	mov	eax, DWORD PTR fs:0
	push	eax
	sub	esp, 16					; 00000010H
	mov	eax, -858993460				; ccccccccH
	mov	DWORD PTR [ebp-28], eax
	mov	DWORD PTR [ebp-24], eax
	mov	DWORD PTR [ebp-20], eax
	mov	DWORD PTR [ebp-16], eax
	mov	eax, DWORD PTR ___security_cookie
	xor	eax, ebp
	push	eax
	lea	eax, DWORD PTR __$EHRec$[ebp]
	mov	DWORD PTR fs:0, eax
	mov	DWORD PTR _this$[ebp], ecx

; 125  : 		if (_Myproxy == _Right._Myproxy)

	mov	eax, DWORD PTR _this$[ebp]
	mov	ecx, DWORD PTR __Right$[ebp]
	mov	edx, DWORD PTR [eax]
	cmp	edx, DWORD PTR [ecx]
	jne	SHORT $LN2@operator
	jmp	SHORT $LN3@operator
$LN2@operator:

; 126  : 			;
; 127  : 		else if (_Right._Myproxy != 0)

	mov	eax, DWORD PTR __Right$[ebp]
	cmp	DWORD PTR [eax], 0
	je	SHORT $LN4@operator

; 128  : 			_Adopt(_Right._Myproxy->_Mycont);

	mov	ecx, DWORD PTR __Right$[ebp]
	mov	edx, DWORD PTR [ecx]
	mov	eax, DWORD PTR [edx]
	push	eax
	mov	ecx, DWORD PTR _this$[ebp]
	call	?_Adopt@_Iterator_base12@std@@QAEXPBU_Container_base12@2@@Z ; std::_Iterator_base12::_Adopt

; 129  : 		else

	jmp	SHORT $LN3@operator
$LN4@operator:

; 130  : 			{	// becoming invalid, disown current parent
; 131  :  #if _ITERATOR_DEBUG_LEVEL == 2
; 132  : 			_Lockit _Lock(_LOCK_DEBUG);

	push	3
	lea	ecx, DWORD PTR __Lock$2[ebp]
	call	??0_Lockit@std@@QAE@H@Z			; std::_Lockit::_Lockit
	mov	DWORD PTR __$EHRec$[ebp+8], 0

; 133  : 			_Orphan_me();

	mov	ecx, DWORD PTR _this$[ebp]
	call	?_Orphan_me@_Iterator_base12@std@@QAEXXZ ; std::_Iterator_base12::_Orphan_me

; 134  :  #endif /* _ITERATOR_DEBUG_LEVEL == 2 */
; 135  : 			}

	mov	DWORD PTR __$EHRec$[ebp+8], -1
	lea	ecx, DWORD PTR __Lock$2[ebp]
	call	??1_Lockit@std@@QAE@XZ			; std::_Lockit::~_Lockit
$LN3@operator:

; 136  : 		return (*this);

	mov	eax, DWORD PTR _this$[ebp]

; 137  : 		}

	push	edx
	mov	ecx, ebp
	push	eax
	lea	edx, DWORD PTR $LN11@operator
	call	@_RTC_CheckStackVars@8
	pop	eax
	pop	edx
	mov	ecx, DWORD PTR __$EHRec$[ebp]
	mov	DWORD PTR fs:0, ecx
	pop	ecx
	add	esp, 28					; 0000001cH
	cmp	ebp, esp
	call	__RTC_CheckEsp
	mov	esp, ebp
	pop	ebp
	ret	4
$LN11@operator:
	DD	1
	DD	$LN10@operator
$LN10@operator:
	DD	-24					; ffffffe8H
	DD	4
	DD	$LN8@operator
$LN8@operator:
	DB	95					; 0000005fH
	DB	76					; 0000004cH
	DB	111					; 0000006fH
	DB	99					; 00000063H
	DB	107					; 0000006bH
	DB	0
_TEXT	ENDS
;	COMDAT text$x
text$x	SEGMENT
__unwindfunclet$??4_Iterator_base12@std@@QAEAAU01@ABU01@@Z$0:
	lea	ecx, DWORD PTR __Lock$2[ebp]
	jmp	??1_Lockit@std@@QAE@XZ			; std::_Lockit::~_Lockit
__ehhandler$??4_Iterator_base12@std@@QAEAAU01@ABU01@@Z:
	mov	edx, DWORD PTR [esp+8]
	lea	eax, DWORD PTR [edx+12]
	mov	ecx, DWORD PTR [edx-20]
	xor	ecx, eax
	call	@__security_check_cookie@4
	mov	eax, OFFSET __ehfuncinfo$??4_Iterator_base12@std@@QAEAAU01@ABU01@@Z
	jmp	___CxxFrameHandler3
text$x	ENDS
??4_Iterator_base12@std@@QAEAAU01@ABU01@@Z ENDP		; std::_Iterator_base12::operator=
; Function compile flags: /Odtp /RTCsu
; File d:\microsoft visual studio 14.0\vc\include\xutility
;	COMDAT ??0_Iterator_base12@std@@QAE@ABU01@@Z
_TEXT	SEGMENT
_this$ = -4						; size = 4
__Right$ = 8						; size = 4
??0_Iterator_base12@std@@QAE@ABU01@@Z PROC		; std::_Iterator_base12::_Iterator_base12, COMDAT
; _this$ = ecx

; 119  : 		{	// copy an iterator

	push	ebp
	mov	ebp, esp
	push	ecx
	mov	DWORD PTR [ebp-4], -858993460		; ccccccccH
	mov	DWORD PTR _this$[ebp], ecx

; 118  : 		: _Myproxy(0), _Mynextiter(0)

	mov	eax, DWORD PTR _this$[ebp]
	mov	DWORD PTR [eax], 0
	mov	ecx, DWORD PTR _this$[ebp]
	mov	DWORD PTR [ecx+4], 0

; 120  : 		*this = _Right;

	mov	edx, DWORD PTR __Right$[ebp]
	push	edx
	mov	ecx, DWORD PTR _this$[ebp]
	call	??4_Iterator_base12@std@@QAEAAU01@ABU01@@Z ; std::_Iterator_base12::operator=

; 121  : 		}

	mov	eax, DWORD PTR _this$[ebp]
	add	esp, 4
	cmp	ebp, esp
	call	__RTC_CheckEsp
	mov	esp, ebp
	pop	ebp
	ret	4
??0_Iterator_base12@std@@QAE@ABU01@@Z ENDP		; std::_Iterator_base12::_Iterator_base12
_TEXT	ENDS
; Function compile flags: /Odtp /RTCsu
; File d:\microsoft visual studio 14.0\vc\include\xutility
;	COMDAT ??0_Iterator_base12@std@@QAE@XZ
_TEXT	SEGMENT
_this$ = -4						; size = 4
??0_Iterator_base12@std@@QAE@XZ PROC			; std::_Iterator_base12::_Iterator_base12, COMDAT
; _this$ = ecx

; 114  : 		{	// construct orphaned iterator

	push	ebp
	mov	ebp, esp
	push	ecx
	mov	DWORD PTR [ebp-4], -858993460		; ccccccccH
	mov	DWORD PTR _this$[ebp], ecx

; 113  : 		: _Myproxy(0), _Mynextiter(0)

	mov	eax, DWORD PTR _this$[ebp]
	mov	DWORD PTR [eax], 0
	mov	ecx, DWORD PTR _this$[ebp]
	mov	DWORD PTR [ecx+4], 0

; 115  : 		}

	mov	eax, DWORD PTR _this$[ebp]
	mov	esp, ebp
	pop	ebp
	ret	0
??0_Iterator_base12@std@@QAE@XZ ENDP			; std::_Iterator_base12::_Iterator_base12
_TEXT	ENDS
; Function compile flags: /Odtp /RTCsu
; File d:\microsoft visual studio 14.0\vc\include\xutility
;	COMDAT ?_Orphan_all@_Container_base12@std@@QAEXXZ
_TEXT	SEGMENT
__Pnext$1 = -20						; size = 4
__Lock$2 = -12						; size = 4
_this$ = -4						; size = 4
?_Orphan_all@_Container_base12@std@@QAEXXZ PROC		; std::_Container_base12::_Orphan_all, COMDAT
; _this$ = ecx

; 214  : 	{	// orphan all iterators

	push	ebp
	mov	ebp, esp
	sub	esp, 20					; 00000014H
	mov	eax, -858993460				; ccccccccH
	mov	DWORD PTR [ebp-20], eax
	mov	DWORD PTR [ebp-16], eax
	mov	DWORD PTR [ebp-12], eax
	mov	DWORD PTR [ebp-8], eax
	mov	DWORD PTR [ebp-4], eax
	mov	DWORD PTR _this$[ebp], ecx

; 215  :  #if _ITERATOR_DEBUG_LEVEL == 2
; 216  : 	if (_Myproxy != 0)

	mov	eax, DWORD PTR _this$[ebp]
	cmp	DWORD PTR [eax], 0
	je	SHORT $LN1@Orphan_all

; 217  : 		{	// proxy allocated, drain it
; 218  : 		_Lockit _Lock(_LOCK_DEBUG);

	push	3
	lea	ecx, DWORD PTR __Lock$2[ebp]
	call	??0_Lockit@std@@QAE@H@Z			; std::_Lockit::_Lockit

; 219  : 
; 220  : 		for (_Iterator_base12 **_Pnext = &_Myproxy->_Myfirstiter;

	mov	ecx, DWORD PTR _this$[ebp]
	mov	edx, DWORD PTR [ecx]
	add	edx, 4
	mov	DWORD PTR __Pnext$1[ebp], edx
	jmp	SHORT $LN4@Orphan_all
$LN2@Orphan_all:

; 221  : 			*_Pnext != 0; *_Pnext = (*_Pnext)->_Mynextiter)

	mov	eax, DWORD PTR __Pnext$1[ebp]
	mov	ecx, DWORD PTR [eax]
	mov	edx, DWORD PTR __Pnext$1[ebp]
	mov	eax, DWORD PTR [ecx+4]
	mov	DWORD PTR [edx], eax
$LN4@Orphan_all:
	mov	ecx, DWORD PTR __Pnext$1[ebp]
	cmp	DWORD PTR [ecx], 0
	je	SHORT $LN3@Orphan_all

; 222  : 			(*_Pnext)->_Myproxy = 0;

	mov	edx, DWORD PTR __Pnext$1[ebp]
	mov	eax, DWORD PTR [edx]
	mov	DWORD PTR [eax], 0
	jmp	SHORT $LN2@Orphan_all
$LN3@Orphan_all:

; 223  : 		_Myproxy->_Myfirstiter = 0;

	mov	ecx, DWORD PTR _this$[ebp]
	mov	edx, DWORD PTR [ecx]
	mov	DWORD PTR [edx+4], 0

; 224  : 		}

	lea	ecx, DWORD PTR __Lock$2[ebp]
	call	??1_Lockit@std@@QAE@XZ			; std::_Lockit::~_Lockit
$LN1@Orphan_all:

; 225  :  #endif /* _ITERATOR_DEBUG_LEVEL == 2 */
; 226  : 	}

	push	edx
	mov	ecx, ebp
	push	eax
	lea	edx, DWORD PTR $LN10@Orphan_all
	call	@_RTC_CheckStackVars@8
	pop	eax
	pop	edx
	add	esp, 20					; 00000014H
	cmp	ebp, esp
	call	__RTC_CheckEsp
	mov	esp, ebp
	pop	ebp
	ret	0
	npad	3
$LN10@Orphan_all:
	DD	1
	DD	$LN9@Orphan_all
$LN9@Orphan_all:
	DD	-12					; fffffff4H
	DD	4
	DD	$LN8@Orphan_all
$LN8@Orphan_all:
	DB	95					; 0000005fH
	DB	76					; 0000004cH
	DB	111					; 0000006fH
	DB	99					; 00000063H
	DB	107					; 0000006bH
	DB	0
?_Orphan_all@_Container_base12@std@@QAEXXZ ENDP		; std::_Container_base12::_Orphan_all
_TEXT	ENDS
; Function compile flags: /Odtp /RTCsu
; File d:\microsoft visual studio 14.0\vc\include\xutility
;	COMDAT ?_Getpfirst@_Container_base12@std@@QBEPAPAU_Iterator_base12@2@XZ
_TEXT	SEGMENT
tv68 = -8						; size = 4
_this$ = -4						; size = 4
?_Getpfirst@_Container_base12@std@@QBEPAPAU_Iterator_base12@2@XZ PROC ; std::_Container_base12::_Getpfirst, COMDAT
; _this$ = ecx

; 99   : 		{	// get address of iterator chain

	push	ebp
	mov	ebp, esp
	sub	esp, 8
	mov	DWORD PTR [ebp-8], -858993460		; ccccccccH
	mov	DWORD PTR [ebp-4], -858993460		; ccccccccH
	mov	DWORD PTR _this$[ebp], ecx

; 100  : 		return (_Myproxy == 0 ? 0 : &_Myproxy->_Myfirstiter);

	mov	eax, DWORD PTR _this$[ebp]
	cmp	DWORD PTR [eax], 0
	jne	SHORT $LN3@Getpfirst
	mov	DWORD PTR tv68[ebp], 0
	jmp	SHORT $LN4@Getpfirst
$LN3@Getpfirst:
	mov	ecx, DWORD PTR _this$[ebp]
	mov	edx, DWORD PTR [ecx]
	add	edx, 4
	mov	DWORD PTR tv68[ebp], edx
$LN4@Getpfirst:
	mov	eax, DWORD PTR tv68[ebp]

; 101  : 		}

	mov	esp, ebp
	pop	ebp
	ret	0
?_Getpfirst@_Container_base12@std@@QBEPAPAU_Iterator_base12@2@XZ ENDP ; std::_Container_base12::_Getpfirst
_TEXT	ENDS
; Function compile flags: /Odtp /RTCsu
; File d:\microsoft visual studio 14.0\vc\include\xutility
;	COMDAT ??1_Container_base12@std@@QAE@XZ
_TEXT	SEGMENT
_this$ = -16						; size = 4
__$EHRec$ = -12						; size = 12
??1_Container_base12@std@@QAE@XZ PROC			; std::_Container_base12::~_Container_base12, COMDAT
; _this$ = ecx

; 94   : 		{	// destroy the container

	push	ebp
	mov	ebp, esp
	push	-1
	push	__ehhandler$??1_Container_base12@std@@QAE@XZ
	mov	eax, DWORD PTR fs:0
	push	eax
	push	ecx
	mov	DWORD PTR [ebp-16], -858993460		; ccccccccH
	mov	eax, DWORD PTR ___security_cookie
	xor	eax, ebp
	push	eax
	lea	eax, DWORD PTR __$EHRec$[ebp]
	mov	DWORD PTR fs:0, eax
	mov	DWORD PTR _this$[ebp], ecx

; 95   : 		_Orphan_all();

	mov	ecx, DWORD PTR _this$[ebp]
	call	?_Orphan_all@_Container_base12@std@@QAEXXZ ; std::_Container_base12::_Orphan_all

; 96   : 		}

	mov	ecx, DWORD PTR __$EHRec$[ebp]
	mov	DWORD PTR fs:0, ecx
	pop	ecx
	add	esp, 16					; 00000010H
	cmp	ebp, esp
	call	__RTC_CheckEsp
	mov	esp, ebp
	pop	ebp
	ret	0
_TEXT	ENDS
;	COMDAT text$x
text$x	SEGMENT
__ehhandler$??1_Container_base12@std@@QAE@XZ:
	mov	edx, DWORD PTR [esp+8]
	lea	eax, DWORD PTR [edx+12]
	mov	ecx, DWORD PTR [edx-8]
	xor	ecx, eax
	call	@__security_check_cookie@4
	mov	eax, OFFSET __ehfuncinfo$??1_Container_base12@std@@QAE@XZ
	jmp	___CxxFrameHandler3
text$x	ENDS
??1_Container_base12@std@@QAE@XZ ENDP			; std::_Container_base12::~_Container_base12
; Function compile flags: /Odtp /RTCsu
; File d:\microsoft visual studio 14.0\vc\include\xutility
;	COMDAT ??0_Container_base12@std@@QAE@XZ
_TEXT	SEGMENT
_this$ = -4						; size = 4
??0_Container_base12@std@@QAE@XZ PROC			; std::_Container_base12::_Container_base12, COMDAT
; _this$ = ecx

; 80   : 		{	// construct childless container

	push	ebp
	mov	ebp, esp
	push	ecx
	mov	DWORD PTR [ebp-4], -858993460		; ccccccccH
	mov	DWORD PTR _this$[ebp], ecx

; 79   : 		: _Myproxy(0)

	mov	eax, DWORD PTR _this$[ebp]
	mov	DWORD PTR [eax], 0

; 81   : 		}

	mov	eax, DWORD PTR _this$[ebp]
	mov	esp, ebp
	pop	ebp
	ret	0
??0_Container_base12@std@@QAE@XZ ENDP			; std::_Container_base12::_Container_base12
_TEXT	ENDS
; Function compile flags: /Odtp /RTCsu
; File d:\microsoft visual studio 14.0\vc\include\xutility
;	COMDAT ??0_Container_proxy@std@@QAE@XZ
_TEXT	SEGMENT
_this$ = -4						; size = 4
??0_Container_proxy@std@@QAE@XZ PROC			; std::_Container_proxy::_Container_proxy, COMDAT
; _this$ = ecx

; 68   : 		{	// construct from pointers

	push	ebp
	mov	ebp, esp
	push	ecx
	mov	DWORD PTR [ebp-4], -858993460		; ccccccccH
	mov	DWORD PTR _this$[ebp], ecx

; 67   : 		: _Mycont(0), _Myfirstiter(0)

	mov	eax, DWORD PTR _this$[ebp]
	mov	DWORD PTR [eax], 0
	mov	ecx, DWORD PTR _this$[ebp]
	mov	DWORD PTR [ecx+4], 0

; 69   : 		}

	mov	eax, DWORD PTR _this$[ebp]
	mov	esp, ebp
	pop	ebp
	ret	0
??0_Container_proxy@std@@QAE@XZ ENDP			; std::_Container_proxy::_Container_proxy
_TEXT	ENDS
; Function compile flags: /Odtp /RTCsu
; File d:\microsoft visual studio 14.0\vc\include\xutility
;	COMDAT ?_Adopt@_Iterator_base0@std@@QAEXPBX@Z
_TEXT	SEGMENT
_this$ = -4						; size = 4
___formal$ = 8						; size = 4
?_Adopt@_Iterator_base0@std@@QAEXPBX@Z PROC		; std::_Iterator_base0::_Adopt, COMDAT
; _this$ = ecx

; 54   : 		{	// adopt this iterator by parent

	push	ebp
	mov	ebp, esp
	push	ecx
	mov	DWORD PTR [ebp-4], -858993460		; ccccccccH
	mov	DWORD PTR _this$[ebp], ecx

; 55   : 		}

	mov	esp, ebp
	pop	ebp
	ret	4
?_Adopt@_Iterator_base0@std@@QAEXPBX@Z ENDP		; std::_Iterator_base0::_Adopt
_TEXT	ENDS
; Function compile flags: /Odtp /RTCsu
; File d:\microsoft visual studio 14.0\vc\include\iosfwd
;	COMDAT ?assign@?$char_traits@D@std@@SAXAADABD@Z
_TEXT	SEGMENT
__Left$ = 8						; size = 4
__Right$ = 12						; size = 4
?assign@?$char_traits@D@std@@SAXAADABD@Z PROC		; std::char_traits<char>::assign, COMDAT

; 564  : 		{	// assign an element

	push	ebp
	mov	ebp, esp

; 565  : 		_Left = _Right;

	mov	eax, DWORD PTR __Left$[ebp]
	mov	ecx, DWORD PTR __Right$[ebp]
	mov	dl, BYTE PTR [ecx]
	mov	BYTE PTR [eax], dl

; 566  : 		}

	pop	ebp
	ret	0
?assign@?$char_traits@D@std@@SAXAADABD@Z ENDP		; std::char_traits<char>::assign
_TEXT	ENDS
; Function compile flags: /Odtp /RTCsu
; File d:\microsoft visual studio 14.0\vc\include\iosfwd
;	COMDAT ?copy@?$char_traits@D@std@@SAPADPADPBDI@Z
_TEXT	SEGMENT
tv69 = -4						; size = 4
__First1$ = 8						; size = 4
__First2$ = 12						; size = 4
__Count$ = 16						; size = 4
?copy@?$char_traits@D@std@@SAPADPADPBDI@Z PROC		; std::char_traits<char>::copy, COMDAT

; 529  : 		{	// copy [_First2, _First2 + _Count) to [_First1, ...)

	push	ebp
	mov	ebp, esp
	push	ecx
	mov	DWORD PTR [ebp-4], -858993460		; ccccccccH

; 530  : 		return (_Count == 0 ? _First1

	cmp	DWORD PTR __Count$[ebp], 0
	jne	SHORT $LN3@copy
	mov	eax, DWORD PTR __First1$[ebp]
	mov	DWORD PTR tv69[ebp], eax
	jmp	SHORT $LN4@copy
$LN3@copy:
	mov	ecx, DWORD PTR __Count$[ebp]
	push	ecx
	mov	edx, DWORD PTR __First2$[ebp]
	push	edx
	mov	eax, DWORD PTR __First1$[ebp]
	push	eax
	call	_memcpy
	add	esp, 12					; 0000000cH
	mov	DWORD PTR tv69[ebp], eax
$LN4@copy:
	mov	eax, DWORD PTR tv69[ebp]

; 531  : 			: (_Elem *)_CSTD memcpy(_First1, _First2, _Count));
; 532  : 		}

	add	esp, 4
	cmp	ebp, esp
	call	__RTC_CheckEsp
	mov	esp, ebp
	pop	ebp
	ret	0
?copy@?$char_traits@D@std@@SAPADPADPBDI@Z ENDP		; std::char_traits<char>::copy
_TEXT	ENDS
; Function compile flags: /Odtp /RTCsu
; File d:\microsoft visual studio 14.0\vc\include\vcruntime_new.h
;	COMDAT ??2@YAPAXIPAX@Z
_TEXT	SEGMENT
__Size$ = 8						; size = 4
__Where$ = 12						; size = 4
??2@YAPAXIPAX@Z PROC					; operator new, COMDAT

; 87   :     {

	push	ebp
	mov	ebp, esp

; 88   :         (void)_Size;
; 89   :         return _Where;

	mov	eax, DWORD PTR __Where$[ebp]

; 90   :     }

	pop	ebp
	ret	0
??2@YAPAXIPAX@Z ENDP					; operator new
_TEXT	ENDS
; Function compile flags: /Odtp /RTCsu
;	COMDAT ??_Gexception@std@@UAEPAXI@Z
_TEXT	SEGMENT
_this$ = -4						; size = 4
___flags$ = 8						; size = 4
??_Gexception@std@@UAEPAXI@Z PROC			; std::exception::`scalar deleting destructor', COMDAT
; _this$ = ecx
	push	ebp
	mov	ebp, esp
	push	ecx
	mov	DWORD PTR [ebp-4], -858993460		; ccccccccH
	mov	DWORD PTR _this$[ebp], ecx
	mov	ecx, DWORD PTR _this$[ebp]
	call	??1exception@std@@UAE@XZ		; std::exception::~exception
	mov	eax, DWORD PTR ___flags$[ebp]
	and	eax, 1
	je	SHORT $LN2@scalar
	push	12					; 0000000cH
	mov	ecx, DWORD PTR _this$[ebp]
	push	ecx
	call	??3@YAXPAXI@Z				; operator delete
	add	esp, 8
$LN2@scalar:
	mov	eax, DWORD PTR _this$[ebp]
	add	esp, 4
	cmp	ebp, esp
	call	__RTC_CheckEsp
	mov	esp, ebp
	pop	ebp
	ret	4
??_Gexception@std@@UAEPAXI@Z ENDP			; std::exception::`scalar deleting destructor'
_TEXT	ENDS
; Function compile flags: /Odtp /RTCsu
; File d:\microsoft visual studio 14.0\vc\include\vcruntime_exception.h
;	COMDAT ?what@exception@std@@UBEPBDXZ
_TEXT	SEGMENT
tv69 = -8						; size = 4
_this$ = -4						; size = 4
?what@exception@std@@UBEPBDXZ PROC			; std::exception::what, COMDAT
; _this$ = ecx

; 88   :     {

	push	ebp
	mov	ebp, esp
	sub	esp, 8
	mov	DWORD PTR [ebp-8], -858993460		; ccccccccH
	mov	DWORD PTR [ebp-4], -858993460		; ccccccccH
	mov	DWORD PTR _this$[ebp], ecx

; 89   :         return _Data._What ? _Data._What : "Unknown exception";

	mov	eax, DWORD PTR _this$[ebp]
	cmp	DWORD PTR [eax+4], 0
	je	SHORT $LN3@what
	mov	ecx, DWORD PTR _this$[ebp]
	mov	edx, DWORD PTR [ecx+4]
	mov	DWORD PTR tv69[ebp], edx
	jmp	SHORT $LN4@what
$LN3@what:
	mov	DWORD PTR tv69[ebp], OFFSET ??_C@_0BC@EOODALEL@Unknown?5exception?$AA@
$LN4@what:
	mov	eax, DWORD PTR tv69[ebp]

; 90   :     }

	mov	esp, ebp
	pop	ebp
	ret	0
?what@exception@std@@UBEPBDXZ ENDP			; std::exception::what
_TEXT	ENDS
; Function compile flags: /Odtp /RTCsu
; File d:\microsoft visual studio 14.0\vc\include\vcruntime_exception.h
;	COMDAT ??1exception@std@@UAE@XZ
_TEXT	SEGMENT
_this$ = -4						; size = 4
??1exception@std@@UAE@XZ PROC				; std::exception::~exception, COMDAT
; _this$ = ecx

; 83   :     {

	push	ebp
	mov	ebp, esp
	push	ecx
	mov	DWORD PTR [ebp-4], -858993460		; ccccccccH
	mov	DWORD PTR _this$[ebp], ecx
	mov	eax, DWORD PTR _this$[ebp]
	mov	DWORD PTR [eax], OFFSET ??_7exception@std@@6B@

; 84   :         __std_exception_destroy(&_Data);

	mov	ecx, DWORD PTR _this$[ebp]
	add	ecx, 4
	push	ecx
	call	___std_exception_destroy
	add	esp, 4

; 85   :     }

	add	esp, 4
	cmp	ebp, esp
	call	__RTC_CheckEsp
	mov	esp, ebp
	pop	ebp
	ret	0
??1exception@std@@UAE@XZ ENDP				; std::exception::~exception
_TEXT	ENDS
; Function compile flags: /Odtp /RTCsu
; File d:\microsoft visual studio 14.0\vc\include\vcruntime_exception.h
;	COMDAT ??0exception@std@@QAE@ABV01@@Z
_TEXT	SEGMENT
_this$ = -4						; size = 4
__Other$ = 8						; size = 4
??0exception@std@@QAE@ABV01@@Z PROC			; std::exception::exception, COMDAT
; _this$ = ecx

; 66   :     {

	push	ebp
	mov	ebp, esp
	push	ecx
	mov	DWORD PTR [ebp-4], -858993460		; ccccccccH
	mov	DWORD PTR _this$[ebp], ecx
	mov	eax, DWORD PTR _this$[ebp]
	mov	DWORD PTR [eax], OFFSET ??_7exception@std@@6B@

; 65   :         : _Data()

	xor	ecx, ecx
	mov	edx, DWORD PTR _this$[ebp]
	add	edx, 4
	mov	DWORD PTR [edx], ecx
	mov	DWORD PTR [edx+4], ecx

; 67   :         __std_exception_copy(&_Other._Data, &_Data);

	mov	eax, DWORD PTR _this$[ebp]
	add	eax, 4
	push	eax
	mov	ecx, DWORD PTR __Other$[ebp]
	add	ecx, 4
	push	ecx
	call	___std_exception_copy
	add	esp, 8

; 68   :     }

	mov	eax, DWORD PTR _this$[ebp]
	add	esp, 4
	cmp	ebp, esp
	call	__RTC_CheckEsp
	mov	esp, ebp
	pop	ebp
	ret	4
??0exception@std@@QAE@ABV01@@Z ENDP			; std::exception::exception
_TEXT	ENDS
; Function compile flags: /Odtp /RTCsu
; File d:\microsoft visual studio 14.0\vc\include\vcruntime_exception.h
;	COMDAT ??0exception@std@@QAE@QBD@Z
_TEXT	SEGMENT
__InitData$ = -16					; size = 8
_this$ = -4						; size = 4
__Message$ = 8						; size = 4
??0exception@std@@QAE@QBD@Z PROC			; std::exception::exception, COMDAT
; _this$ = ecx

; 53   :     {

	push	ebp
	mov	ebp, esp
	sub	esp, 20					; 00000014H
	mov	eax, -858993460				; ccccccccH
	mov	DWORD PTR [ebp-20], eax
	mov	DWORD PTR [ebp-16], eax
	mov	DWORD PTR [ebp-12], eax
	mov	DWORD PTR [ebp-8], eax
	mov	DWORD PTR [ebp-4], eax
	mov	DWORD PTR _this$[ebp], ecx
	mov	eax, DWORD PTR _this$[ebp]
	mov	DWORD PTR [eax], OFFSET ??_7exception@std@@6B@

; 52   :         : _Data()

	xor	ecx, ecx
	mov	edx, DWORD PTR _this$[ebp]
	add	edx, 4
	mov	DWORD PTR [edx], ecx
	mov	DWORD PTR [edx+4], ecx

; 54   :         __std_exception_data _InitData = { _Message, true };

	mov	eax, DWORD PTR __Message$[ebp]
	mov	DWORD PTR __InitData$[ebp], eax
	mov	BYTE PTR __InitData$[ebp+4], 1

; 55   :         __std_exception_copy(&_InitData, &_Data);

	mov	ecx, DWORD PTR _this$[ebp]
	add	ecx, 4
	push	ecx
	lea	edx, DWORD PTR __InitData$[ebp]
	push	edx
	call	___std_exception_copy
	add	esp, 8

; 56   :     }

	mov	eax, DWORD PTR _this$[ebp]
	push	edx
	mov	ecx, ebp
	push	eax
	lea	edx, DWORD PTR $LN5@exception
	call	@_RTC_CheckStackVars@8
	pop	eax
	pop	edx
	add	esp, 20					; 00000014H
	cmp	ebp, esp
	call	__RTC_CheckEsp
	mov	esp, ebp
	pop	ebp
	ret	4
$LN5@exception:
	DD	1
	DD	$LN4@exception
$LN4@exception:
	DD	-16					; fffffff0H
	DD	8
	DD	$LN3@exception
$LN3@exception:
	DB	95					; 0000005fH
	DB	73					; 00000049H
	DB	110					; 0000006eH
	DB	105					; 00000069H
	DB	116					; 00000074H
	DB	68					; 00000044H
	DB	97					; 00000061H
	DB	116					; 00000074H
	DB	97					; 00000061H
	DB	0
??0exception@std@@QAE@QBD@Z ENDP			; std::exception::exception
_TEXT	ENDS
; Function compile flags: /Odtp /RTCsu
; File d:\microsoft visual studio 14.0\vc\include\limits
;	COMDAT ?max@?$numeric_limits@N@std@@SANXZ
_TEXT	SEGMENT
?max@?$numeric_limits@N@std@@SANXZ PROC			; std::numeric_limits<double>::max, COMDAT

; 1156 : 		{	// return maximum value

	push	ebp
	mov	ebp, esp

; 1157 : 		return (_DBL_MAX);

	fld	QWORD PTR __real@7fefffffffffffff

; 1158 : 		}

	pop	ebp
	ret	0
?max@?$numeric_limits@N@std@@SANXZ ENDP			; std::numeric_limits<double>::max
_TEXT	ENDS
; Function compile flags: /Odtp /RTCsu
; File d:\microsoft visual studio 14.0\vc\include\limits
;	COMDAT ?min@?$numeric_limits@N@std@@SANXZ
_TEXT	SEGMENT
?min@?$numeric_limits@N@std@@SANXZ PROC			; std::numeric_limits<double>::min, COMDAT

; 1151 : 		{	// return minimum value

	push	ebp
	mov	ebp, esp

; 1152 : 		return (_DBL_MIN);

	fld	QWORD PTR __real@0010000000000000

; 1153 : 		}

	pop	ebp
	ret	0
?min@?$numeric_limits@N@std@@SANXZ ENDP			; std::numeric_limits<double>::min
_TEXT	ENDS
; Function compile flags: /Odtp /RTCsu
; File d:\microsoft visual studio 14.0\vc\include\limits
;	COMDAT ?max@?$numeric_limits@M@std@@SAMXZ
_TEXT	SEGMENT
?max@?$numeric_limits@M@std@@SAMXZ PROC			; std::numeric_limits<float>::max, COMDAT

; 1093 : 		{	// return maximum value

	push	ebp
	mov	ebp, esp

; 1094 : 		return (_FLT_MAX);

	fld	DWORD PTR __real@7f7fffff

; 1095 : 		}

	pop	ebp
	ret	0
?max@?$numeric_limits@M@std@@SAMXZ ENDP			; std::numeric_limits<float>::max
_TEXT	ENDS
; Function compile flags: /Odtp /RTCsu
; File d:\microsoft visual studio 14.0\vc\include\limits
;	COMDAT ?min@?$numeric_limits@M@std@@SAMXZ
_TEXT	SEGMENT
?min@?$numeric_limits@M@std@@SAMXZ PROC			; std::numeric_limits<float>::min, COMDAT

; 1088 : 		{	// return minimum value

	push	ebp
	mov	ebp, esp

; 1089 : 		return (_FLT_MIN);

	fld	DWORD PTR __real@00800000

; 1090 : 		}

	pop	ebp
	ret	0
?min@?$numeric_limits@M@std@@SAMXZ ENDP			; std::numeric_limits<float>::min
_TEXT	ENDS
; Function compile flags: /Odtp /RTCsu
; File d:\microsoft visual studio 14.0\vc\include\limits
;	COMDAT ?max@?$numeric_limits@H@std@@SAHXZ
_TEXT	SEGMENT
?max@?$numeric_limits@H@std@@SAHXZ PROC			; std::numeric_limits<int>::max, COMDAT

; 685  : 		{	// return maximum value

	push	ebp
	mov	ebp, esp

; 686  : 		return (INT_MAX);

	mov	eax, 2147483647				; 7fffffffH

; 687  : 		}

	pop	ebp
	ret	0
?max@?$numeric_limits@H@std@@SAHXZ ENDP			; std::numeric_limits<int>::max
_TEXT	ENDS
; Function compile flags: /Odtp /RTCsu
; File d:\cours\uqac\intelligence artificielle - jeux vidéos\buckland_aisource\mini_projet_raven\goals\goal_attacktarget.cpp
;	COMDAT ?__empty_global_delete@@YAXPAXI@Z
_TEXT	SEGMENT
___formal$ = 8						; size = 4
___formal$ = 12						; size = 4
?__empty_global_delete@@YAXPAXI@Z PROC			; __empty_global_delete, COMDAT

	push	ebp
	mov	ebp, esp
	pop	ebp
	ret	0
?__empty_global_delete@@YAXPAXI@Z ENDP			; __empty_global_delete
_TEXT	ENDS
; Function compile flags: /Odtp /RTCsu
; File d:\cours\uqac\intelligence artificielle - jeux vidéos\buckland_aisource\mini_projet_raven\goals\goal_attacktarget.cpp
;	COMDAT ?__empty_global_delete@@YAXPAX@Z
_TEXT	SEGMENT
___formal$ = 8						; size = 4
?__empty_global_delete@@YAXPAX@Z PROC			; __empty_global_delete, COMDAT

	push	ebp
	mov	ebp, esp
	pop	ebp
	ret	0
?__empty_global_delete@@YAXPAX@Z ENDP			; __empty_global_delete
_TEXT	ENDS
END
