; Listing generated by Microsoft (R) Optimizing Compiler Version 19.00.23026.0 

	TITLE	D:\cours\UQAC\Intelligence artificielle - jeux vidéos\Buckland_AISource\Mini_Projet_Raven\GraveMarkers.cpp
	.686P
	.XMM
	include listing.inc
	.model	flat

INCLUDELIB LIBCMTD
INCLUDELIB OLDNAMES

CONST	SEGMENT
?colors@@3QBKB DD 0ffH					; colors
	DD	0ff0000H
	DD	0ff00H
	DD	00H
	DD	0c8c8ffH
	DD	0c8c8c8H
	DD	0ffffH
	DD	0aaffH
	DD	0aa00ffH
	DD	05a85H
	DD	0ffffffH
	DD	06400H
	DD	0ffff00H
	DD	0c8c8c8H
	DD	0e6e6ffH
$SG156197 DB	'RIP', 00H
CONST	ENDS
PUBLIC	?__empty_global_delete@@YAXPAX@Z		; __empty_global_delete
PUBLIC	?__empty_global_delete@@YAXPAXI@Z		; __empty_global_delete
PUBLIC	?max@?$numeric_limits@H@std@@SAHXZ		; std::numeric_limits<int>::max
PUBLIC	?min@?$numeric_limits@M@std@@SAMXZ		; std::numeric_limits<float>::min
PUBLIC	?max@?$numeric_limits@M@std@@SAMXZ		; std::numeric_limits<float>::max
PUBLIC	?min@?$numeric_limits@N@std@@SANXZ		; std::numeric_limits<double>::min
PUBLIC	?max@?$numeric_limits@N@std@@SANXZ		; std::numeric_limits<double>::max
PUBLIC	??2@YAPAXIPAX@Z					; operator new
PUBLIC	?length@?$char_traits@D@std@@SAIPBD@Z		; std::char_traits<char>::length
PUBLIC	?copy@?$char_traits@D@std@@SAPADPADPBDI@Z	; std::char_traits<char>::copy
PUBLIC	?move@?$char_traits@D@std@@SAPADPADPBDI@Z	; std::char_traits<char>::move
PUBLIC	?assign@?$char_traits@D@std@@SAXAADABD@Z	; std::char_traits<char>::assign
PUBLIC	?_Adopt@_Iterator_base0@std@@QAEXPBX@Z		; std::_Iterator_base0::_Adopt
PUBLIC	??0_Container_proxy@std@@QAE@XZ			; std::_Container_proxy::_Container_proxy
PUBLIC	??0_Container_base12@std@@QAE@XZ		; std::_Container_base12::_Container_base12
PUBLIC	??1_Container_base12@std@@QAE@XZ		; std::_Container_base12::~_Container_base12
PUBLIC	?_Getpfirst@_Container_base12@std@@QBEPAPAU_Iterator_base12@2@XZ ; std::_Container_base12::_Getpfirst
PUBLIC	?_Orphan_all@_Container_base12@std@@QAEXXZ	; std::_Container_base12::_Orphan_all
PUBLIC	?_Swap_all@_Container_base12@std@@QAEXAAU12@@Z	; std::_Container_base12::_Swap_all
PUBLIC	??0_Iterator_base12@std@@QAE@XZ			; std::_Iterator_base12::_Iterator_base12
PUBLIC	??0_Iterator_base12@std@@QAE@ABU01@@Z		; std::_Iterator_base12::_Iterator_base12
PUBLIC	??4_Iterator_base12@std@@QAEAAU01@ABU01@@Z	; std::_Iterator_base12::operator=
PUBLIC	??1_Iterator_base12@std@@QAE@XZ			; std::_Iterator_base12::~_Iterator_base12
PUBLIC	?_Adopt@_Iterator_base12@std@@QAEXPBU_Container_base12@2@@Z ; std::_Iterator_base12::_Adopt
PUBLIC	?_Clrcont@_Iterator_base12@std@@QAEXXZ		; std::_Iterator_base12::_Clrcont
PUBLIC	?_Getcont@_Iterator_base12@std@@QBEPBU_Container_base12@2@XZ ; std::_Iterator_base12::_Getcont
PUBLIC	?_Getpnext@_Iterator_base12@std@@QAEPAPAU12@XZ	; std::_Iterator_base12::_Getpnext
PUBLIC	?_Orphan_me@_Iterator_base12@std@@QAEXXZ	; std::_Iterator_base12::_Orphan_me
PUBLIC	??0?$allocator@D@std@@QAE@XZ			; std::allocator<char>::allocator<char>
PUBLIC	??0?$allocator@D@std@@QAE@ABV01@@Z		; std::allocator<char>::allocator<char>
PUBLIC	?deallocate@?$allocator@D@std@@QAEXPADI@Z	; std::allocator<char>::deallocate
PUBLIC	?allocate@?$allocator@D@std@@QAEPADI@Z		; std::allocator<char>::allocate
PUBLIC	?max_size@?$allocator@D@std@@QBEIXZ		; std::allocator<char>::max_size
PUBLIC	?max_size@?$allocator_traits@V?$allocator@D@std@@@std@@SAIABV?$allocator@D@2@@Z ; std::allocator_traits<std::allocator<char> >::max_size
PUBLIC	??0?$_Wrap_alloc@V?$allocator@D@std@@@std@@QAE@ABV?$allocator@D@1@@Z ; std::_Wrap_alloc<std::allocator<char> >::_Wrap_alloc<std::allocator<char> >
PUBLIC	?allocate@?$_Wrap_alloc@V?$allocator@D@std@@@std@@QAEPADI@Z ; std::_Wrap_alloc<std::allocator<char> >::allocate
PUBLIC	?deallocate@?$_Wrap_alloc@V?$allocator@D@std@@@std@@QAEXPADI@Z ; std::_Wrap_alloc<std::allocator<char> >::deallocate
PUBLIC	?max_size@?$_Wrap_alloc@V?$allocator@D@std@@@std@@QBEIU_Nil@2@@Z ; std::_Wrap_alloc<std::allocator<char> >::max_size
PUBLIC	??0?$_String_val@U?$_Simple_types@D@std@@@std@@QAE@XZ ; std::_String_val<std::_Simple_types<char> >::_String_val<std::_Simple_types<char> >
PUBLIC	?_Myptr@?$_String_val@U?$_Simple_types@D@std@@@std@@QAEPADXZ ; std::_String_val<std::_Simple_types<char> >::_Myptr
PUBLIC	?_Myptr@?$_String_val@U?$_Simple_types@D@std@@@std@@QBEPBDXZ ; std::_String_val<std::_Simple_types<char> >::_Myptr
PUBLIC	??1?$_String_val@U?$_Simple_types@D@std@@@std@@QAE@XZ ; std::_String_val<std::_Simple_types<char> >::~_String_val<std::_Simple_types<char> >
PUBLIC	?_Myptr@?$_String_alloc@U?$_String_base_types@DV?$allocator@D@std@@@std@@@std@@QAEPADXZ ; std::_String_alloc<std::_String_base_types<char,std::allocator<char> > >::_Myptr
PUBLIC	?_Myptr@?$_String_alloc@U?$_String_base_types@DV?$allocator@D@std@@@std@@@std@@QBEPBDXZ ; std::_String_alloc<std::_String_base_types<char,std::allocator<char> > >::_Myptr
PUBLIC	??0?$_String_alloc@U?$_String_base_types@DV?$allocator@D@std@@@std@@@std@@QAE@ABV?$allocator@D@1@@Z ; std::_String_alloc<std::_String_base_types<char,std::allocator<char> > >::_String_alloc<std::_String_base_types<char,std::allocator<char> > >
PUBLIC	??1?$_String_alloc@U?$_String_base_types@DV?$allocator@D@std@@@std@@@std@@QAE@XZ ; std::_String_alloc<std::_String_base_types<char,std::allocator<char> > >::~_String_alloc<std::_String_base_types<char,std::allocator<char> > >
PUBLIC	?_Alloc_proxy@?$_String_alloc@U?$_String_base_types@DV?$allocator@D@std@@@std@@@std@@QAEXXZ ; std::_String_alloc<std::_String_base_types<char,std::allocator<char> > >::_Alloc_proxy
PUBLIC	?_Free_proxy@?$_String_alloc@U?$_String_base_types@DV?$allocator@D@std@@@std@@@std@@QAEXXZ ; std::_String_alloc<std::_String_base_types<char,std::allocator<char> > >::_Free_proxy
PUBLIC	?_Myproxy@?$_String_alloc@U?$_String_base_types@DV?$allocator@D@std@@@std@@@std@@QAEAAPAU_Container_proxy@2@XZ ; std::_String_alloc<std::_String_base_types<char,std::allocator<char> > >::_Myproxy
PUBLIC	?_Orphan_all@?$_String_alloc@U?$_String_base_types@DV?$allocator@D@std@@@std@@@std@@QAEXXZ ; std::_String_alloc<std::_String_base_types<char,std::allocator<char> > >::_Orphan_all
PUBLIC	?_Getal@?$_String_alloc@U?$_String_base_types@DV?$allocator@D@std@@@std@@@std@@QAEAAU?$_Wrap_alloc@V?$allocator@D@std@@@2@XZ ; std::_String_alloc<std::_String_base_types<char,std::allocator<char> > >::_Getal
PUBLIC	?_Getal@?$_String_alloc@U?$_String_base_types@DV?$allocator@D@std@@@std@@@std@@QBEABU?$_Wrap_alloc@V?$allocator@D@std@@@2@XZ ; std::_String_alloc<std::_String_base_types<char,std::allocator<char> > >::_Getal
PUBLIC	?_Get_data@?$_String_alloc@U?$_String_base_types@DV?$allocator@D@std@@@std@@@std@@QAEAAV?$_String_val@U?$_Simple_types@D@std@@@2@XZ ; std::_String_alloc<std::_String_base_types<char,std::allocator<char> > >::_Get_data
PUBLIC	?_Get_data@?$_String_alloc@U?$_String_base_types@DV?$allocator@D@std@@@std@@@std@@QBEABV?$_String_val@U?$_Simple_types@D@std@@@2@XZ ; std::_String_alloc<std::_String_base_types<char,std::allocator<char> > >::_Get_data
PUBLIC	?_Bx@?$_String_alloc@U?$_String_base_types@DV?$allocator@D@std@@@std@@@std@@QAEAAT_Bxty@?$_String_val@U?$_Simple_types@D@std@@@2@XZ ; std::_String_alloc<std::_String_base_types<char,std::allocator<char> > >::_Bx
PUBLIC	?_Mysize@?$_String_alloc@U?$_String_base_types@DV?$allocator@D@std@@@std@@@std@@QAEAAIXZ ; std::_String_alloc<std::_String_base_types<char,std::allocator<char> > >::_Mysize
PUBLIC	?_Mysize@?$_String_alloc@U?$_String_base_types@DV?$allocator@D@std@@@std@@@std@@QBEABIXZ ; std::_String_alloc<std::_String_base_types<char,std::allocator<char> > >::_Mysize
PUBLIC	?_Myres@?$_String_alloc@U?$_String_base_types@DV?$allocator@D@std@@@std@@@std@@QAEAAIXZ ; std::_String_alloc<std::_String_base_types<char,std::allocator<char> > >::_Myres
PUBLIC	?_Get_first@?$_Compressed_pair@U?$_Wrap_alloc@V?$allocator@D@std@@@std@@V?$_String_val@U?$_Simple_types@D@std@@@2@$00@std@@QAEAAU?$_Wrap_alloc@V?$allocator@D@std@@@2@XZ ; std::_Compressed_pair<std::_Wrap_alloc<std::allocator<char> >,std::_String_val<std::_Simple_types<char> >,1>::_Get_first
PUBLIC	?_Get_first@?$_Compressed_pair@U?$_Wrap_alloc@V?$allocator@D@std@@@std@@V?$_String_val@U?$_Simple_types@D@std@@@2@$00@std@@QBEABU?$_Wrap_alloc@V?$allocator@D@std@@@2@XZ ; std::_Compressed_pair<std::_Wrap_alloc<std::allocator<char> >,std::_String_val<std::_Simple_types<char> >,1>::_Get_first
PUBLIC	?_Get_second@?$_Compressed_pair@U?$_Wrap_alloc@V?$allocator@D@std@@@std@@V?$_String_val@U?$_Simple_types@D@std@@@2@$00@std@@QAEAAV?$_String_val@U?$_Simple_types@D@std@@@2@XZ ; std::_Compressed_pair<std::_Wrap_alloc<std::allocator<char> >,std::_String_val<std::_Simple_types<char> >,1>::_Get_second
PUBLIC	?_Get_second@?$_Compressed_pair@U?$_Wrap_alloc@V?$allocator@D@std@@@std@@V?$_String_val@U?$_Simple_types@D@std@@@2@$00@std@@QBEABV?$_String_val@U?$_Simple_types@D@std@@@2@XZ ; std::_Compressed_pair<std::_Wrap_alloc<std::allocator<char> >,std::_String_val<std::_Simple_types<char> >,1>::_Get_second
PUBLIC	??1?$_Compressed_pair@U?$_Wrap_alloc@V?$allocator@D@std@@@std@@V?$_String_val@U?$_Simple_types@D@std@@@2@$00@std@@QAE@XZ ; std::_Compressed_pair<std::_Wrap_alloc<std::allocator<char> >,std::_String_val<std::_Simple_types<char> >,1>::~_Compressed_pair<std::_Wrap_alloc<std::allocator<char> >,std::_String_val<std::_Simple_types<char> >,1>
PUBLIC	??0?$basic_string@DU?$char_traits@D@std@@V?$allocator@D@2@@std@@QAE@PBD@Z ; std::basic_string<char,std::char_traits<char>,std::allocator<char> >::basic_string<char,std::char_traits<char>,std::allocator<char> >
PUBLIC	??1?$basic_string@DU?$char_traits@D@std@@V?$allocator@D@2@@std@@QAE@XZ ; std::basic_string<char,std::char_traits<char>,std::allocator<char> >::~basic_string<char,std::char_traits<char>,std::allocator<char> >
PUBLIC	?assign@?$basic_string@DU?$char_traits@D@std@@V?$allocator@D@2@@std@@QAEAAV12@ABV12@II@Z ; std::basic_string<char,std::char_traits<char>,std::allocator<char> >::assign
PUBLIC	?assign@?$basic_string@DU?$char_traits@D@std@@V?$allocator@D@2@@std@@QAEAAV12@PBDI@Z ; std::basic_string<char,std::char_traits<char>,std::allocator<char> >::assign
PUBLIC	?assign@?$basic_string@DU?$char_traits@D@std@@V?$allocator@D@2@@std@@QAEAAV12@PBD@Z ; std::basic_string<char,std::char_traits<char>,std::allocator<char> >::assign
PUBLIC	?erase@?$basic_string@DU?$char_traits@D@std@@V?$allocator@D@2@@std@@QAEAAV12@I@Z ; std::basic_string<char,std::char_traits<char>,std::allocator<char> >::erase
PUBLIC	?erase@?$basic_string@DU?$char_traits@D@std@@V?$allocator@D@2@@std@@QAEAAV12@II@Z ; std::basic_string<char,std::char_traits<char>,std::allocator<char> >::erase
PUBLIC	?c_str@?$basic_string@DU?$char_traits@D@std@@V?$allocator@D@2@@std@@QBEPBDXZ ; std::basic_string<char,std::char_traits<char>,std::allocator<char> >::c_str
PUBLIC	?size@?$basic_string@DU?$char_traits@D@std@@V?$allocator@D@2@@std@@QBEIXZ ; std::basic_string<char,std::char_traits<char>,std::allocator<char> >::size
PUBLIC	?max_size@?$basic_string@DU?$char_traits@D@std@@V?$allocator@D@2@@std@@QBEIXZ ; std::basic_string<char,std::char_traits<char>,std::allocator<char> >::max_size
PUBLIC	?_Copy@?$basic_string@DU?$char_traits@D@std@@V?$allocator@D@2@@std@@QAEXII@Z ; std::basic_string<char,std::char_traits<char>,std::allocator<char> >::_Copy
PUBLIC	?_Eos@?$basic_string@DU?$char_traits@D@std@@V?$allocator@D@2@@std@@QAEXI@Z ; std::basic_string<char,std::char_traits<char>,std::allocator<char> >::_Eos
PUBLIC	?_Grow@?$basic_string@DU?$char_traits@D@std@@V?$allocator@D@2@@std@@QAE_NI_N@Z ; std::basic_string<char,std::char_traits<char>,std::allocator<char> >::_Grow
PUBLIC	?_Inside@?$basic_string@DU?$char_traits@D@std@@V?$allocator@D@2@@std@@QAE_NPBD@Z ; std::basic_string<char,std::char_traits<char>,std::allocator<char> >::_Inside
PUBLIC	?_Tidy@?$basic_string@DU?$char_traits@D@std@@V?$allocator@D@2@@std@@QAEX_NI@Z ; std::basic_string<char,std::char_traits<char>,std::allocator<char> >::_Tidy
PUBLIC	?_Xlen@?$basic_string@DU?$char_traits@D@std@@V?$allocator@D@2@@std@@QBEXXZ ; std::basic_string<char,std::char_traits<char>,std::allocator<char> >::_Xlen
PUBLIC	?_Xran@?$basic_string@DU?$char_traits@D@std@@V?$allocator@D@2@@std@@QBEXXZ ; std::basic_string<char,std::char_traits<char>,std::allocator<char> >::_Xran
PUBLIC	??0Vector2D@@QAE@NN@Z				; Vector2D::Vector2D
PUBLIC	?Perp@Vector2D@@QBE?AU1@XZ			; Vector2D::Perp
PUBLIC	?GetTickCount@CrudeTimer@@QAENXZ		; CrudeTimer::GetTickCount
PUBLIC	??0GraveRecord@GraveMarkers@@QAE@UVector2D@@@Z	; GraveMarkers::GraveRecord::GraveRecord
PUBLIC	??0?$allocator@UVector2D@@@std@@QAE@XZ		; std::allocator<Vector2D>::allocator<Vector2D>
PUBLIC	??0?$allocator@UVector2D@@@std@@QAE@ABV01@@Z	; std::allocator<Vector2D>::allocator<Vector2D>
PUBLIC	?deallocate@?$allocator@UVector2D@@@std@@QAEXPAUVector2D@@I@Z ; std::allocator<Vector2D>::deallocate
PUBLIC	?allocate@?$allocator@UVector2D@@@std@@QAEPAUVector2D@@I@Z ; std::allocator<Vector2D>::allocate
PUBLIC	?max_size@?$allocator@UVector2D@@@std@@QBEIXZ	; std::allocator<Vector2D>::max_size
PUBLIC	?max_size@?$allocator_traits@V?$allocator@UVector2D@@@std@@@std@@SAIABV?$allocator@UVector2D@@@2@@Z ; std::allocator_traits<std::allocator<Vector2D> >::max_size
PUBLIC	?select_on_container_copy_construction@?$allocator_traits@V?$allocator@UVector2D@@@std@@@std@@SA?AV?$allocator@UVector2D@@@2@ABV32@@Z ; std::allocator_traits<std::allocator<Vector2D> >::select_on_container_copy_construction
PUBLIC	?select_on_container_copy_construction@?$_Wrap_alloc@V?$allocator@UVector2D@@@std@@@std@@QBE?AU12@U_Nil@2@@Z ; std::_Wrap_alloc<std::allocator<Vector2D> >::select_on_container_copy_construction
PUBLIC	??0?$_Wrap_alloc@V?$allocator@UVector2D@@@std@@@std@@QAE@ABV?$allocator@UVector2D@@@1@@Z ; std::_Wrap_alloc<std::allocator<Vector2D> >::_Wrap_alloc<std::allocator<Vector2D> >
PUBLIC	??4?$_Wrap_alloc@V?$allocator@UVector2D@@@std@@@std@@QAEAAU01@ABU01@@Z ; std::_Wrap_alloc<std::allocator<Vector2D> >::operator=
PUBLIC	?allocate@?$_Wrap_alloc@V?$allocator@UVector2D@@@std@@@std@@QAEPAUVector2D@@I@Z ; std::_Wrap_alloc<std::allocator<Vector2D> >::allocate
PUBLIC	?deallocate@?$_Wrap_alloc@V?$allocator@UVector2D@@@std@@@std@@QAEXPAUVector2D@@I@Z ; std::_Wrap_alloc<std::allocator<Vector2D> >::deallocate
PUBLIC	?max_size@?$_Wrap_alloc@V?$allocator@UVector2D@@@std@@@std@@QBEIU_Nil@2@@Z ; std::_Wrap_alloc<std::allocator<Vector2D> >::max_size
PUBLIC	??0?$_Vector_alloc@U?$_Vec_base_types@UVector2D@@V?$allocator@UVector2D@@@std@@@std@@@std@@QAE@ABV?$allocator@UVector2D@@@1@@Z ; std::_Vector_alloc<std::_Vec_base_types<Vector2D,std::allocator<Vector2D> > >::_Vector_alloc<std::_Vec_base_types<Vector2D,std::allocator<Vector2D> > >
PUBLIC	??0?$_Vector_alloc@U?$_Vec_base_types@UVector2D@@V?$allocator@UVector2D@@@std@@@std@@@std@@QAE@$$QAV?$allocator@UVector2D@@@1@@Z ; std::_Vector_alloc<std::_Vec_base_types<Vector2D,std::allocator<Vector2D> > >::_Vector_alloc<std::_Vec_base_types<Vector2D,std::allocator<Vector2D> > >
PUBLIC	??1?$_Vector_alloc@U?$_Vec_base_types@UVector2D@@V?$allocator@UVector2D@@@std@@@std@@@std@@QAE@XZ ; std::_Vector_alloc<std::_Vec_base_types<Vector2D,std::allocator<Vector2D> > >::~_Vector_alloc<std::_Vec_base_types<Vector2D,std::allocator<Vector2D> > >
PUBLIC	?_Move_alloc@?$_Vector_alloc@U?$_Vec_base_types@UVector2D@@V?$allocator@UVector2D@@@std@@@std@@@std@@QAEXAAU?$_Wrap_alloc@V?$allocator@UVector2D@@@std@@@2@@Z ; std::_Vector_alloc<std::_Vec_base_types<Vector2D,std::allocator<Vector2D> > >::_Move_alloc
PUBLIC	?_Alloc_proxy@?$_Vector_alloc@U?$_Vec_base_types@UVector2D@@V?$allocator@UVector2D@@@std@@@std@@@std@@QAEXXZ ; std::_Vector_alloc<std::_Vec_base_types<Vector2D,std::allocator<Vector2D> > >::_Alloc_proxy
PUBLIC	?_Free_proxy@?$_Vector_alloc@U?$_Vec_base_types@UVector2D@@V?$allocator@UVector2D@@@std@@@std@@@std@@QAEXXZ ; std::_Vector_alloc<std::_Vec_base_types<Vector2D,std::allocator<Vector2D> > >::_Free_proxy
PUBLIC	?_Getpfirst@?$_Vector_alloc@U?$_Vec_base_types@UVector2D@@V?$allocator@UVector2D@@@std@@@std@@@std@@QBEPAPAU_Iterator_base12@2@XZ ; std::_Vector_alloc<std::_Vec_base_types<Vector2D,std::allocator<Vector2D> > >::_Getpfirst
PUBLIC	?_Myproxy@?$_Vector_alloc@U?$_Vec_base_types@UVector2D@@V?$allocator@UVector2D@@@std@@@std@@@std@@QAEAAPAU_Container_proxy@2@XZ ; std::_Vector_alloc<std::_Vec_base_types<Vector2D,std::allocator<Vector2D> > >::_Myproxy
PUBLIC	?_Orphan_all@?$_Vector_alloc@U?$_Vec_base_types@UVector2D@@V?$allocator@UVector2D@@@std@@@std@@@std@@QAEXXZ ; std::_Vector_alloc<std::_Vec_base_types<Vector2D,std::allocator<Vector2D> > >::_Orphan_all
PUBLIC	?_Swap_all@?$_Vector_alloc@U?$_Vec_base_types@UVector2D@@V?$allocator@UVector2D@@@std@@@std@@@std@@QAEXAAV12@@Z ; std::_Vector_alloc<std::_Vec_base_types<Vector2D,std::allocator<Vector2D> > >::_Swap_all
PUBLIC	?_Getal@?$_Vector_alloc@U?$_Vec_base_types@UVector2D@@V?$allocator@UVector2D@@@std@@@std@@@std@@QAEAAU?$_Wrap_alloc@V?$allocator@UVector2D@@@std@@@2@XZ ; std::_Vector_alloc<std::_Vec_base_types<Vector2D,std::allocator<Vector2D> > >::_Getal
PUBLIC	?_Getal@?$_Vector_alloc@U?$_Vec_base_types@UVector2D@@V?$allocator@UVector2D@@@std@@@std@@@std@@QBEABU?$_Wrap_alloc@V?$allocator@UVector2D@@@std@@@2@XZ ; std::_Vector_alloc<std::_Vec_base_types<Vector2D,std::allocator<Vector2D> > >::_Getal
PUBLIC	?_Get_data@?$_Vector_alloc@U?$_Vec_base_types@UVector2D@@V?$allocator@UVector2D@@@std@@@std@@@std@@QAEAAV?$_Vector_val@U?$_Simple_types@UVector2D@@@std@@@2@XZ ; std::_Vector_alloc<std::_Vec_base_types<Vector2D,std::allocator<Vector2D> > >::_Get_data
PUBLIC	?_Get_data@?$_Vector_alloc@U?$_Vec_base_types@UVector2D@@V?$allocator@UVector2D@@@std@@@std@@@std@@QBEABV?$_Vector_val@U?$_Simple_types@UVector2D@@@std@@@2@XZ ; std::_Vector_alloc<std::_Vec_base_types<Vector2D,std::allocator<Vector2D> > >::_Get_data
PUBLIC	?_Myfirst@?$_Vector_alloc@U?$_Vec_base_types@UVector2D@@V?$allocator@UVector2D@@@std@@@std@@@std@@QAEAAPAUVector2D@@XZ ; std::_Vector_alloc<std::_Vec_base_types<Vector2D,std::allocator<Vector2D> > >::_Myfirst
PUBLIC	?_Myfirst@?$_Vector_alloc@U?$_Vec_base_types@UVector2D@@V?$allocator@UVector2D@@@std@@@std@@@std@@QBEABQAUVector2D@@XZ ; std::_Vector_alloc<std::_Vec_base_types<Vector2D,std::allocator<Vector2D> > >::_Myfirst
PUBLIC	?_Mylast@?$_Vector_alloc@U?$_Vec_base_types@UVector2D@@V?$allocator@UVector2D@@@std@@@std@@@std@@QAEAAPAUVector2D@@XZ ; std::_Vector_alloc<std::_Vec_base_types<Vector2D,std::allocator<Vector2D> > >::_Mylast
PUBLIC	?_Mylast@?$_Vector_alloc@U?$_Vec_base_types@UVector2D@@V?$allocator@UVector2D@@@std@@@std@@@std@@QBEABQAUVector2D@@XZ ; std::_Vector_alloc<std::_Vec_base_types<Vector2D,std::allocator<Vector2D> > >::_Mylast
PUBLIC	?_Myend@?$_Vector_alloc@U?$_Vec_base_types@UVector2D@@V?$allocator@UVector2D@@@std@@@std@@@std@@QAEAAPAUVector2D@@XZ ; std::_Vector_alloc<std::_Vec_base_types<Vector2D,std::allocator<Vector2D> > >::_Myend
PUBLIC	?_Myend@?$_Vector_alloc@U?$_Vec_base_types@UVector2D@@V?$allocator@UVector2D@@@std@@@std@@@std@@QBEABQAUVector2D@@XZ ; std::_Vector_alloc<std::_Vec_base_types<Vector2D,std::allocator<Vector2D> > >::_Myend
PUBLIC	??0?$_Vector_val@U?$_Simple_types@UVector2D@@@std@@@std@@QAE@XZ ; std::_Vector_val<std::_Simple_types<Vector2D> >::_Vector_val<std::_Simple_types<Vector2D> >
PUBLIC	??1?$_Vector_val@U?$_Simple_types@UVector2D@@@std@@@std@@QAE@XZ ; std::_Vector_val<std::_Simple_types<Vector2D> >::~_Vector_val<std::_Simple_types<Vector2D> >
PUBLIC	?_Get_first@?$_Compressed_pair@U?$_Wrap_alloc@V?$allocator@UVector2D@@@std@@@std@@V?$_Vector_val@U?$_Simple_types@UVector2D@@@std@@@2@$00@std@@QAEAAU?$_Wrap_alloc@V?$allocator@UVector2D@@@std@@@2@XZ ; std::_Compressed_pair<std::_Wrap_alloc<std::allocator<Vector2D> >,std::_Vector_val<std::_Simple_types<Vector2D> >,1>::_Get_first
PUBLIC	?_Get_first@?$_Compressed_pair@U?$_Wrap_alloc@V?$allocator@UVector2D@@@std@@@std@@V?$_Vector_val@U?$_Simple_types@UVector2D@@@std@@@2@$00@std@@QBEABU?$_Wrap_alloc@V?$allocator@UVector2D@@@std@@@2@XZ ; std::_Compressed_pair<std::_Wrap_alloc<std::allocator<Vector2D> >,std::_Vector_val<std::_Simple_types<Vector2D> >,1>::_Get_first
PUBLIC	?_Get_second@?$_Compressed_pair@U?$_Wrap_alloc@V?$allocator@UVector2D@@@std@@@std@@V?$_Vector_val@U?$_Simple_types@UVector2D@@@std@@@2@$00@std@@QAEAAV?$_Vector_val@U?$_Simple_types@UVector2D@@@std@@@2@XZ ; std::_Compressed_pair<std::_Wrap_alloc<std::allocator<Vector2D> >,std::_Vector_val<std::_Simple_types<Vector2D> >,1>::_Get_second
PUBLIC	?_Get_second@?$_Compressed_pair@U?$_Wrap_alloc@V?$allocator@UVector2D@@@std@@@std@@V?$_Vector_val@U?$_Simple_types@UVector2D@@@std@@@2@$00@std@@QBEABV?$_Vector_val@U?$_Simple_types@UVector2D@@@std@@@2@XZ ; std::_Compressed_pair<std::_Wrap_alloc<std::allocator<Vector2D> >,std::_Vector_val<std::_Simple_types<Vector2D> >,1>::_Get_second
PUBLIC	??1?$_Compressed_pair@U?$_Wrap_alloc@V?$allocator@UVector2D@@@std@@@std@@V?$_Vector_val@U?$_Simple_types@UVector2D@@@std@@@2@$00@std@@QAE@XZ ; std::_Compressed_pair<std::_Wrap_alloc<std::allocator<Vector2D> >,std::_Vector_val<std::_Simple_types<Vector2D> >,1>::~_Compressed_pair<std::_Wrap_alloc<std::allocator<Vector2D> >,std::_Vector_val<std::_Simple_types<Vector2D> >,1>
PUBLIC	??0?$vector@UVector2D@@V?$allocator@UVector2D@@@std@@@std@@QAE@XZ ; std::vector<Vector2D,std::allocator<Vector2D> >::vector<Vector2D,std::allocator<Vector2D> >
PUBLIC	??0?$vector@UVector2D@@V?$allocator@UVector2D@@@std@@@std@@QAE@ABV01@@Z ; std::vector<Vector2D,std::allocator<Vector2D> >::vector<Vector2D,std::allocator<Vector2D> >
PUBLIC	??0?$vector@UVector2D@@V?$allocator@UVector2D@@@std@@@std@@QAE@$$QAV01@@Z ; std::vector<Vector2D,std::allocator<Vector2D> >::vector<Vector2D,std::allocator<Vector2D> >
PUBLIC	??4?$vector@UVector2D@@V?$allocator@UVector2D@@@std@@@std@@QAEAAV01@$$QAV01@@Z ; std::vector<Vector2D,std::allocator<Vector2D> >::operator=
PUBLIC	?_Assign_rv@?$vector@UVector2D@@V?$allocator@UVector2D@@@std@@@std@@QAEX$$QAV12@U?$integral_constant@_N$00@2@@Z ; std::vector<Vector2D,std::allocator<Vector2D> >::_Assign_rv
PUBLIC	?_Assign_rv@?$vector@UVector2D@@V?$allocator@UVector2D@@@std@@@std@@QAEX$$QAV12@@Z ; std::vector<Vector2D,std::allocator<Vector2D> >::_Assign_rv
PUBLIC	??1?$vector@UVector2D@@V?$allocator@UVector2D@@@std@@@std@@QAE@XZ ; std::vector<Vector2D,std::allocator<Vector2D> >::~vector<Vector2D,std::allocator<Vector2D> >
PUBLIC	?capacity@?$vector@UVector2D@@V?$allocator@UVector2D@@@std@@@std@@QBEIXZ ; std::vector<Vector2D,std::allocator<Vector2D> >::capacity
PUBLIC	?_Unused_capacity@?$vector@UVector2D@@V?$allocator@UVector2D@@@std@@@std@@QBEIXZ ; std::vector<Vector2D,std::allocator<Vector2D> >::_Unused_capacity
PUBLIC	?begin@?$vector@UVector2D@@V?$allocator@UVector2D@@@std@@@std@@QBE?AV?$_Vector_const_iterator@V?$_Vector_val@U?$_Simple_types@UVector2D@@@std@@@std@@@2@XZ ; std::vector<Vector2D,std::allocator<Vector2D> >::begin
PUBLIC	?end@?$vector@UVector2D@@V?$allocator@UVector2D@@@std@@@std@@QBE?AV?$_Vector_const_iterator@V?$_Vector_val@U?$_Simple_types@UVector2D@@@std@@@std@@@2@XZ ; std::vector<Vector2D,std::allocator<Vector2D> >::end
PUBLIC	?size@?$vector@UVector2D@@V?$allocator@UVector2D@@@std@@@std@@QBEIXZ ; std::vector<Vector2D,std::allocator<Vector2D> >::size
PUBLIC	?max_size@?$vector@UVector2D@@V?$allocator@UVector2D@@@std@@@std@@QBEIXZ ; std::vector<Vector2D,std::allocator<Vector2D> >::max_size
PUBLIC	??A?$vector@UVector2D@@V?$allocator@UVector2D@@@std@@@std@@QBEABUVector2D@@I@Z ; std::vector<Vector2D,std::allocator<Vector2D> >::operator[]
PUBLIC	??A?$vector@UVector2D@@V?$allocator@UVector2D@@@std@@@std@@QAEAAUVector2D@@I@Z ; std::vector<Vector2D,std::allocator<Vector2D> >::operator[]
PUBLIC	?push_back@?$vector@UVector2D@@V?$allocator@UVector2D@@@std@@@std@@QAEXABUVector2D@@@Z ; std::vector<Vector2D,std::allocator<Vector2D> >::push_back
PUBLIC	?_Buy@?$vector@UVector2D@@V?$allocator@UVector2D@@@std@@@std@@IAE_NI@Z ; std::vector<Vector2D,std::allocator<Vector2D> >::_Buy
PUBLIC	?_Destroy@?$vector@UVector2D@@V?$allocator@UVector2D@@@std@@@std@@IAEXPAUVector2D@@0@Z ; std::vector<Vector2D,std::allocator<Vector2D> >::_Destroy
PUBLIC	?_Grow_to@?$vector@UVector2D@@V?$allocator@UVector2D@@@std@@@std@@IBEII@Z ; std::vector<Vector2D,std::allocator<Vector2D> >::_Grow_to
PUBLIC	?_Inside@?$vector@UVector2D@@V?$allocator@UVector2D@@@std@@@std@@IBE_NPBUVector2D@@@Z ; std::vector<Vector2D,std::allocator<Vector2D> >::_Inside
PUBLIC	?_Reallocate@?$vector@UVector2D@@V?$allocator@UVector2D@@@std@@@std@@IAEXI@Z ; std::vector<Vector2D,std::allocator<Vector2D> >::_Reallocate
PUBLIC	?_Reserve@?$vector@UVector2D@@V?$allocator@UVector2D@@@std@@@std@@IAEXI@Z ; std::vector<Vector2D,std::allocator<Vector2D> >::_Reserve
PUBLIC	?_Tidy@?$vector@UVector2D@@V?$allocator@UVector2D@@@std@@@std@@IAEXXZ ; std::vector<Vector2D,std::allocator<Vector2D> >::_Tidy
PUBLIC	?_Xlen@?$vector@UVector2D@@V?$allocator@UVector2D@@@std@@@std@@IBEXXZ ; std::vector<Vector2D,std::allocator<Vector2D> >::_Xlen
PUBLIC	?_Orphan_range@?$vector@UVector2D@@V?$allocator@UVector2D@@@std@@@std@@IBEXPAUVector2D@@0@Z ; std::vector<Vector2D,std::allocator<Vector2D> >::_Orphan_range
PUBLIC	??0?$allocator@UGraveRecord@GraveMarkers@@@std@@QAE@XZ ; std::allocator<GraveMarkers::GraveRecord>::allocator<GraveMarkers::GraveRecord>
PUBLIC	?deallocate@?$allocator@U?$_List_node@UGraveRecord@GraveMarkers@@PAX@std@@@std@@QAEXPAU?$_List_node@UGraveRecord@GraveMarkers@@PAX@2@I@Z ; std::allocator<std::_List_node<GraveMarkers::GraveRecord,void *> >::deallocate
PUBLIC	?allocate@?$allocator@U?$_List_node@UGraveRecord@GraveMarkers@@PAX@std@@@std@@QAEPAU?$_List_node@UGraveRecord@GraveMarkers@@PAX@2@I@Z ; std::allocator<std::_List_node<GraveMarkers::GraveRecord,void *> >::allocate
PUBLIC	?max_size@?$allocator@U?$_List_node@UGraveRecord@GraveMarkers@@PAX@std@@@std@@QBEIXZ ; std::allocator<std::_List_node<GraveMarkers::GraveRecord,void *> >::max_size
PUBLIC	?max_size@?$allocator_traits@V?$allocator@U?$_List_node@UGraveRecord@GraveMarkers@@PAX@std@@@std@@@std@@SAIABV?$allocator@U?$_List_node@UGraveRecord@GraveMarkers@@PAX@std@@@2@@Z ; std::allocator_traits<std::allocator<std::_List_node<GraveMarkers::GraveRecord,void *> > >::max_size
PUBLIC	?allocate@?$_Wrap_alloc@V?$allocator@U?$_List_node@UGraveRecord@GraveMarkers@@PAX@std@@@std@@@std@@QAEPAU?$_List_node@UGraveRecord@GraveMarkers@@PAX@2@I@Z ; std::_Wrap_alloc<std::allocator<std::_List_node<GraveMarkers::GraveRecord,void *> > >::allocate
PUBLIC	?deallocate@?$_Wrap_alloc@V?$allocator@U?$_List_node@UGraveRecord@GraveMarkers@@PAX@std@@@std@@@std@@QAEXPAU?$_List_node@UGraveRecord@GraveMarkers@@PAX@2@I@Z ; std::_Wrap_alloc<std::allocator<std::_List_node<GraveMarkers::GraveRecord,void *> > >::deallocate
PUBLIC	?max_size@?$_Wrap_alloc@V?$allocator@U?$_List_node@UGraveRecord@GraveMarkers@@PAX@std@@@std@@@std@@QBEIU_Nil@2@@Z ; std::_Wrap_alloc<std::allocator<std::_List_node<GraveMarkers::GraveRecord,void *> > >::max_size
PUBLIC	?_Nextnode@?$_List_alloc@U?$_List_base_types@UGraveRecord@GraveMarkers@@V?$allocator@UGraveRecord@GraveMarkers@@@std@@@std@@@std@@SAAAPAU?$_List_node@UGraveRecord@GraveMarkers@@PAX@2@PAU32@@Z ; std::_List_alloc<std::_List_base_types<GraveMarkers::GraveRecord,std::allocator<GraveMarkers::GraveRecord> > >::_Nextnode
PUBLIC	?_Prevnode@?$_List_alloc@U?$_List_base_types@UGraveRecord@GraveMarkers@@V?$allocator@UGraveRecord@GraveMarkers@@@std@@@std@@@std@@SAAAPAU?$_List_node@UGraveRecord@GraveMarkers@@PAX@2@PAU32@@Z ; std::_List_alloc<std::_List_base_types<GraveMarkers::GraveRecord,std::allocator<GraveMarkers::GraveRecord> > >::_Prevnode
PUBLIC	?_Myval@?$_List_alloc@U?$_List_base_types@UGraveRecord@GraveMarkers@@V?$allocator@UGraveRecord@GraveMarkers@@@std@@@std@@@std@@SAAAUGraveRecord@GraveMarkers@@PAU?$_List_node@UGraveRecord@GraveMarkers@@PAX@2@@Z ; std::_List_alloc<std::_List_base_types<GraveMarkers::GraveRecord,std::allocator<GraveMarkers::GraveRecord> > >::_Myval
PUBLIC	??0?$_List_alloc@U?$_List_base_types@UGraveRecord@GraveMarkers@@V?$allocator@UGraveRecord@GraveMarkers@@@std@@@std@@@std@@QAE@ABV?$allocator@UGraveRecord@GraveMarkers@@@1@@Z ; std::_List_alloc<std::_List_base_types<GraveMarkers::GraveRecord,std::allocator<GraveMarkers::GraveRecord> > >::_List_alloc<std::_List_base_types<GraveMarkers::GraveRecord,std::allocator<GraveMarkers::GraveRecord> > >
PUBLIC	??1?$_List_alloc@U?$_List_base_types@UGraveRecord@GraveMarkers@@V?$allocator@UGraveRecord@GraveMarkers@@@std@@@std@@@std@@QAE@XZ ; std::_List_alloc<std::_List_base_types<GraveMarkers::GraveRecord,std::allocator<GraveMarkers::GraveRecord> > >::~_List_alloc<std::_List_base_types<GraveMarkers::GraveRecord,std::allocator<GraveMarkers::GraveRecord> > >
PUBLIC	?_Alloc_proxy@?$_List_alloc@U?$_List_base_types@UGraveRecord@GraveMarkers@@V?$allocator@UGraveRecord@GraveMarkers@@@std@@@std@@@std@@QAEXXZ ; std::_List_alloc<std::_List_base_types<GraveMarkers::GraveRecord,std::allocator<GraveMarkers::GraveRecord> > >::_Alloc_proxy
PUBLIC	?_Free_proxy@?$_List_alloc@U?$_List_base_types@UGraveRecord@GraveMarkers@@V?$allocator@UGraveRecord@GraveMarkers@@@std@@@std@@@std@@QAEXXZ ; std::_List_alloc<std::_List_base_types<GraveMarkers::GraveRecord,std::allocator<GraveMarkers::GraveRecord> > >::_Free_proxy
PUBLIC	?_Getpfirst@?$_List_alloc@U?$_List_base_types@UGraveRecord@GraveMarkers@@V?$allocator@UGraveRecord@GraveMarkers@@@std@@@std@@@std@@QBEPAPAU_Iterator_base12@2@XZ ; std::_List_alloc<std::_List_base_types<GraveMarkers::GraveRecord,std::allocator<GraveMarkers::GraveRecord> > >::_Getpfirst
PUBLIC	?_Myproxy@?$_List_alloc@U?$_List_base_types@UGraveRecord@GraveMarkers@@V?$allocator@UGraveRecord@GraveMarkers@@@std@@@std@@@std@@QAEAAPAU_Container_proxy@2@XZ ; std::_List_alloc<std::_List_base_types<GraveMarkers::GraveRecord,std::allocator<GraveMarkers::GraveRecord> > >::_Myproxy
PUBLIC	?_Buyheadnode@?$_List_alloc@U?$_List_base_types@UGraveRecord@GraveMarkers@@V?$allocator@UGraveRecord@GraveMarkers@@@std@@@std@@@std@@QAEPAU?$_List_node@UGraveRecord@GraveMarkers@@PAX@2@XZ ; std::_List_alloc<std::_List_base_types<GraveMarkers::GraveRecord,std::allocator<GraveMarkers::GraveRecord> > >::_Buyheadnode
PUBLIC	?_Freeheadnode@?$_List_alloc@U?$_List_base_types@UGraveRecord@GraveMarkers@@V?$allocator@UGraveRecord@GraveMarkers@@@std@@@std@@@std@@QAEXPAU?$_List_node@UGraveRecord@GraveMarkers@@PAX@2@@Z ; std::_List_alloc<std::_List_base_types<GraveMarkers::GraveRecord,std::allocator<GraveMarkers::GraveRecord> > >::_Freeheadnode
PUBLIC	?_Buynode0@?$_List_alloc@U?$_List_base_types@UGraveRecord@GraveMarkers@@V?$allocator@UGraveRecord@GraveMarkers@@@std@@@std@@@std@@QAEPAU?$_List_node@UGraveRecord@GraveMarkers@@PAX@2@PAU32@0@Z ; std::_List_alloc<std::_List_base_types<GraveMarkers::GraveRecord,std::allocator<GraveMarkers::GraveRecord> > >::_Buynode0
PUBLIC	?_Orphan_all@?$_List_alloc@U?$_List_base_types@UGraveRecord@GraveMarkers@@V?$allocator@UGraveRecord@GraveMarkers@@@std@@@std@@@std@@QAEXXZ ; std::_List_alloc<std::_List_base_types<GraveMarkers::GraveRecord,std::allocator<GraveMarkers::GraveRecord> > >::_Orphan_all
PUBLIC	?_Getal@?$_List_alloc@U?$_List_base_types@UGraveRecord@GraveMarkers@@V?$allocator@UGraveRecord@GraveMarkers@@@std@@@std@@@std@@QAEAAU?$_Wrap_alloc@V?$allocator@U?$_List_node@UGraveRecord@GraveMarkers@@PAX@std@@@std@@@2@XZ ; std::_List_alloc<std::_List_base_types<GraveMarkers::GraveRecord,std::allocator<GraveMarkers::GraveRecord> > >::_Getal
PUBLIC	?_Getal@?$_List_alloc@U?$_List_base_types@UGraveRecord@GraveMarkers@@V?$allocator@UGraveRecord@GraveMarkers@@@std@@@std@@@std@@QBEABU?$_Wrap_alloc@V?$allocator@U?$_List_node@UGraveRecord@GraveMarkers@@PAX@std@@@std@@@2@XZ ; std::_List_alloc<std::_List_base_types<GraveMarkers::GraveRecord,std::allocator<GraveMarkers::GraveRecord> > >::_Getal
PUBLIC	?_Get_data@?$_List_alloc@U?$_List_base_types@UGraveRecord@GraveMarkers@@V?$allocator@UGraveRecord@GraveMarkers@@@std@@@std@@@std@@QAEAAV?$_List_val@U?$_List_simple_types@UGraveRecord@GraveMarkers@@@std@@@2@XZ ; std::_List_alloc<std::_List_base_types<GraveMarkers::GraveRecord,std::allocator<GraveMarkers::GraveRecord> > >::_Get_data
PUBLIC	?_Get_data@?$_List_alloc@U?$_List_base_types@UGraveRecord@GraveMarkers@@V?$allocator@UGraveRecord@GraveMarkers@@@std@@@std@@@std@@QBEABV?$_List_val@U?$_List_simple_types@UGraveRecord@GraveMarkers@@@std@@@2@XZ ; std::_List_alloc<std::_List_base_types<GraveMarkers::GraveRecord,std::allocator<GraveMarkers::GraveRecord> > >::_Get_data
PUBLIC	?_Myhead@?$_List_alloc@U?$_List_base_types@UGraveRecord@GraveMarkers@@V?$allocator@UGraveRecord@GraveMarkers@@@std@@@std@@@std@@QAEAAPAU?$_List_node@UGraveRecord@GraveMarkers@@PAX@2@XZ ; std::_List_alloc<std::_List_base_types<GraveMarkers::GraveRecord,std::allocator<GraveMarkers::GraveRecord> > >::_Myhead
PUBLIC	?_Mysize@?$_List_alloc@U?$_List_base_types@UGraveRecord@GraveMarkers@@V?$allocator@UGraveRecord@GraveMarkers@@@std@@@std@@@std@@QAEAAIXZ ; std::_List_alloc<std::_List_base_types<GraveMarkers::GraveRecord,std::allocator<GraveMarkers::GraveRecord> > >::_Mysize
PUBLIC	??0?$_List_val@U?$_List_simple_types@UGraveRecord@GraveMarkers@@@std@@@std@@QAE@XZ ; std::_List_val<std::_List_simple_types<GraveMarkers::GraveRecord> >::_List_val<std::_List_simple_types<GraveMarkers::GraveRecord> >
PUBLIC	?_Nextnode@?$_List_val@U?$_List_simple_types@UGraveRecord@GraveMarkers@@@std@@@std@@SAAAPAU?$_List_node@UGraveRecord@GraveMarkers@@PAX@2@PAU32@@Z ; std::_List_val<std::_List_simple_types<GraveMarkers::GraveRecord> >::_Nextnode
PUBLIC	?_Prevnode@?$_List_val@U?$_List_simple_types@UGraveRecord@GraveMarkers@@@std@@@std@@SAAAPAU?$_List_node@UGraveRecord@GraveMarkers@@PAX@2@PAU32@@Z ; std::_List_val<std::_List_simple_types<GraveMarkers::GraveRecord> >::_Prevnode
PUBLIC	?_Myval@?$_List_val@U?$_List_simple_types@UGraveRecord@GraveMarkers@@@std@@@std@@SAAAUGraveRecord@GraveMarkers@@PAU?$_List_node@UGraveRecord@GraveMarkers@@PAX@2@@Z ; std::_List_val<std::_List_simple_types<GraveMarkers::GraveRecord> >::_Myval
PUBLIC	??1?$_List_val@U?$_List_simple_types@UGraveRecord@GraveMarkers@@@std@@@std@@QAE@XZ ; std::_List_val<std::_List_simple_types<GraveMarkers::GraveRecord> >::~_List_val<std::_List_simple_types<GraveMarkers::GraveRecord> >
PUBLIC	?_Get_first@?$_Compressed_pair@U?$_Wrap_alloc@V?$allocator@U?$_List_node@UGraveRecord@GraveMarkers@@PAX@std@@@std@@@std@@V?$_List_val@U?$_List_simple_types@UGraveRecord@GraveMarkers@@@std@@@2@$00@std@@QAEAAU?$_Wrap_alloc@V?$allocator@U?$_List_node@UGraveRecord@GraveMarkers@@PAX@std@@@std@@@2@XZ ; std::_Compressed_pair<std::_Wrap_alloc<std::allocator<std::_List_node<GraveMarkers::GraveRecord,void *> > >,std::_List_val<std::_List_simple_types<GraveMarkers::GraveRecord> >,1>::_Get_first
PUBLIC	?_Get_first@?$_Compressed_pair@U?$_Wrap_alloc@V?$allocator@U?$_List_node@UGraveRecord@GraveMarkers@@PAX@std@@@std@@@std@@V?$_List_val@U?$_List_simple_types@UGraveRecord@GraveMarkers@@@std@@@2@$00@std@@QBEABU?$_Wrap_alloc@V?$allocator@U?$_List_node@UGraveRecord@GraveMarkers@@PAX@std@@@std@@@2@XZ ; std::_Compressed_pair<std::_Wrap_alloc<std::allocator<std::_List_node<GraveMarkers::GraveRecord,void *> > >,std::_List_val<std::_List_simple_types<GraveMarkers::GraveRecord> >,1>::_Get_first
PUBLIC	?_Get_second@?$_Compressed_pair@U?$_Wrap_alloc@V?$allocator@U?$_List_node@UGraveRecord@GraveMarkers@@PAX@std@@@std@@@std@@V?$_List_val@U?$_List_simple_types@UGraveRecord@GraveMarkers@@@std@@@2@$00@std@@QAEAAV?$_List_val@U?$_List_simple_types@UGraveRecord@GraveMarkers@@@std@@@2@XZ ; std::_Compressed_pair<std::_Wrap_alloc<std::allocator<std::_List_node<GraveMarkers::GraveRecord,void *> > >,std::_List_val<std::_List_simple_types<GraveMarkers::GraveRecord> >,1>::_Get_second
PUBLIC	?_Get_second@?$_Compressed_pair@U?$_Wrap_alloc@V?$allocator@U?$_List_node@UGraveRecord@GraveMarkers@@PAX@std@@@std@@@std@@V?$_List_val@U?$_List_simple_types@UGraveRecord@GraveMarkers@@@std@@@2@$00@std@@QBEABV?$_List_val@U?$_List_simple_types@UGraveRecord@GraveMarkers@@@std@@@2@XZ ; std::_Compressed_pair<std::_Wrap_alloc<std::allocator<std::_List_node<GraveMarkers::GraveRecord,void *> > >,std::_List_val<std::_List_simple_types<GraveMarkers::GraveRecord> >,1>::_Get_second
PUBLIC	??1?$_Compressed_pair@U?$_Wrap_alloc@V?$allocator@U?$_List_node@UGraveRecord@GraveMarkers@@PAX@std@@@std@@@std@@V?$_List_val@U?$_List_simple_types@UGraveRecord@GraveMarkers@@@std@@@2@$00@std@@QAE@XZ ; std::_Compressed_pair<std::_Wrap_alloc<std::allocator<std::_List_node<GraveMarkers::GraveRecord,void *> > >,std::_List_val<std::_List_simple_types<GraveMarkers::GraveRecord> >,1>::~_Compressed_pair<std::_Wrap_alloc<std::allocator<std::_List_node<GraveMarkers::GraveRecord,void *> > >,std::_List_val<std::_List_simple_types<GraveMarkers::GraveRecord> >,1>
PUBLIC	??0?$_List_buy@UGraveRecord@GraveMarkers@@V?$allocator@UGraveRecord@GraveMarkers@@@std@@@std@@QAE@ABV?$allocator@UGraveRecord@GraveMarkers@@@1@@Z ; std::_List_buy<GraveMarkers::GraveRecord,std::allocator<GraveMarkers::GraveRecord> >::_List_buy<GraveMarkers::GraveRecord,std::allocator<GraveMarkers::GraveRecord> >
PUBLIC	?_Freenode@?$_List_buy@UGraveRecord@GraveMarkers@@V?$allocator@UGraveRecord@GraveMarkers@@@std@@@std@@QAEXPAU?$_List_node@UGraveRecord@GraveMarkers@@PAX@2@@Z ; std::_List_buy<GraveMarkers::GraveRecord,std::allocator<GraveMarkers::GraveRecord> >::_Freenode
PUBLIC	??1?$_List_buy@UGraveRecord@GraveMarkers@@V?$allocator@UGraveRecord@GraveMarkers@@@std@@@std@@QAE@XZ ; std::_List_buy<GraveMarkers::GraveRecord,std::allocator<GraveMarkers::GraveRecord> >::~_List_buy<GraveMarkers::GraveRecord,std::allocator<GraveMarkers::GraveRecord> >
PUBLIC	??0?$list@UGraveRecord@GraveMarkers@@V?$allocator@UGraveRecord@GraveMarkers@@@std@@@std@@QAE@XZ ; std::list<GraveMarkers::GraveRecord,std::allocator<GraveMarkers::GraveRecord> >::list<GraveMarkers::GraveRecord,std::allocator<GraveMarkers::GraveRecord> >
PUBLIC	?push_back@?$list@UGraveRecord@GraveMarkers@@V?$allocator@UGraveRecord@GraveMarkers@@@std@@@std@@QAEX$$QAUGraveRecord@GraveMarkers@@@Z ; std::list<GraveMarkers::GraveRecord,std::allocator<GraveMarkers::GraveRecord> >::push_back
PUBLIC	??1?$list@UGraveRecord@GraveMarkers@@V?$allocator@UGraveRecord@GraveMarkers@@@std@@@std@@QAE@XZ ; std::list<GraveMarkers::GraveRecord,std::allocator<GraveMarkers::GraveRecord> >::~list<GraveMarkers::GraveRecord,std::allocator<GraveMarkers::GraveRecord> >
PUBLIC	?begin@?$list@UGraveRecord@GraveMarkers@@V?$allocator@UGraveRecord@GraveMarkers@@@std@@@std@@QAE?AV?$_List_iterator@V?$_List_val@U?$_List_simple_types@UGraveRecord@GraveMarkers@@@std@@@std@@@2@XZ ; std::list<GraveMarkers::GraveRecord,std::allocator<GraveMarkers::GraveRecord> >::begin
PUBLIC	?end@?$list@UGraveRecord@GraveMarkers@@V?$allocator@UGraveRecord@GraveMarkers@@@std@@@std@@QAE?AV?$_List_iterator@V?$_List_val@U?$_List_simple_types@UGraveRecord@GraveMarkers@@@std@@@std@@@2@XZ ; std::list<GraveMarkers::GraveRecord,std::allocator<GraveMarkers::GraveRecord> >::end
PUBLIC	?_Unchecked_end@?$list@UGraveRecord@GraveMarkers@@V?$allocator@UGraveRecord@GraveMarkers@@@std@@@std@@QAE?AV?$_List_unchecked_iterator@V?$_List_val@U?$_List_simple_types@UGraveRecord@GraveMarkers@@@std@@@std@@@2@XZ ; std::list<GraveMarkers::GraveRecord,std::allocator<GraveMarkers::GraveRecord> >::_Unchecked_end
PUBLIC	?_Make_iter@?$list@UGraveRecord@GraveMarkers@@V?$allocator@UGraveRecord@GraveMarkers@@@std@@@std@@QBE?AV?$_List_iterator@V?$_List_val@U?$_List_simple_types@UGraveRecord@GraveMarkers@@@std@@@std@@@2@V?$_List_const_iterator@V?$_List_val@U?$_List_simple_types@UGraveRecord@GraveMarkers@@@std@@@std@@@2@@Z ; std::list<GraveMarkers::GraveRecord,std::allocator<GraveMarkers::GraveRecord> >::_Make_iter
PUBLIC	?max_size@?$list@UGraveRecord@GraveMarkers@@V?$allocator@UGraveRecord@GraveMarkers@@@std@@@std@@QBEIXZ ; std::list<GraveMarkers::GraveRecord,std::allocator<GraveMarkers::GraveRecord> >::max_size
PUBLIC	?_Unlinknode@?$list@UGraveRecord@GraveMarkers@@V?$allocator@UGraveRecord@GraveMarkers@@@std@@@std@@QAEPAU?$_List_node@UGraveRecord@GraveMarkers@@PAX@2@V?$_List_const_iterator@V?$_List_val@U?$_List_simple_types@UGraveRecord@GraveMarkers@@@std@@@std@@@2@@Z ; std::list<GraveMarkers::GraveRecord,std::allocator<GraveMarkers::GraveRecord> >::_Unlinknode
PUBLIC	?erase@?$list@UGraveRecord@GraveMarkers@@V?$allocator@UGraveRecord@GraveMarkers@@@std@@@std@@QAE?AV?$_List_iterator@V?$_List_val@U?$_List_simple_types@UGraveRecord@GraveMarkers@@@std@@@std@@@2@V?$_List_const_iterator@V?$_List_val@U?$_List_simple_types@UGraveRecord@GraveMarkers@@@std@@@std@@@2@@Z ; std::list<GraveMarkers::GraveRecord,std::allocator<GraveMarkers::GraveRecord> >::erase
PUBLIC	?clear@?$list@UGraveRecord@GraveMarkers@@V?$allocator@UGraveRecord@GraveMarkers@@@std@@@std@@QAEXXZ ; std::list<GraveMarkers::GraveRecord,std::allocator<GraveMarkers::GraveRecord> >::clear
PUBLIC	?_Tidy@?$list@UGraveRecord@GraveMarkers@@V?$allocator@UGraveRecord@GraveMarkers@@@std@@@std@@QAEXXZ ; std::list<GraveMarkers::GraveRecord,std::allocator<GraveMarkers::GraveRecord> >::_Tidy
PUBLIC	?_Incsize@?$list@UGraveRecord@GraveMarkers@@V?$allocator@UGraveRecord@GraveMarkers@@@std@@@std@@QAEXI@Z ; std::list<GraveMarkers::GraveRecord,std::allocator<GraveMarkers::GraveRecord> >::_Incsize
PUBLIC	?_Orphan_ptr@?$list@UGraveRecord@GraveMarkers@@V?$allocator@UGraveRecord@GraveMarkers@@@std@@@std@@QAEXPAU?$_List_node@UGraveRecord@GraveMarkers@@PAX@2@@Z ; std::list<GraveMarkers::GraveRecord,std::allocator<GraveMarkers::GraveRecord> >::_Orphan_ptr
PUBLIC	??0GraveMarkers@@QAE@N@Z			; GraveMarkers::GraveMarkers
PUBLIC	?Update@GraveMarkers@@QAEXXZ			; GraveMarkers::Update
PUBLIC	?Render@GraveMarkers@@QAEXXZ			; GraveMarkers::Render
PUBLIC	?AddGrave@GraveMarkers@@QAEXUVector2D@@@Z	; GraveMarkers::AddGrave
PUBLIC	?BrownPen@Cgdi@@QAEXXZ				; Cgdi::BrownPen
PUBLIC	?TextAtPos@Cgdi@@QAEXNNABV?$basic_string@DU?$char_traits@D@std@@V?$allocator@D@2@@std@@@Z ; Cgdi::TextAtPos
PUBLIC	?TextColor@Cgdi@@QAEXHHH@Z			; Cgdi::TextColor
PUBLIC	?ClosedShape@Cgdi@@QAEXABV?$vector@UVector2D@@V?$allocator@UVector2D@@@std@@@std@@@Z ; Cgdi::ClosedShape
PUBLIC	??0Matrix@C2DMatrix@@QAE@XZ			; C2DMatrix::Matrix::Matrix
PUBLIC	?MatrixMultiply@C2DMatrix@@AAEXAAUMatrix@1@@Z	; C2DMatrix::MatrixMultiply
PUBLIC	??0C2DMatrix@@QAE@XZ				; C2DMatrix::C2DMatrix
PUBLIC	?Identity@C2DMatrix@@QAEXXZ			; C2DMatrix::Identity
PUBLIC	?Translate@C2DMatrix@@QAEXNN@Z			; C2DMatrix::Translate
PUBLIC	?Scale@C2DMatrix@@QAEXNN@Z			; C2DMatrix::Scale
PUBLIC	?Rotate@C2DMatrix@@QAEXABUVector2D@@0@Z		; C2DMatrix::Rotate
PUBLIC	?TransformVector2Ds@C2DMatrix@@QAEXAAV?$vector@UVector2D@@V?$allocator@UVector2D@@@std@@@std@@@Z ; C2DMatrix::TransformVector2Ds
PUBLIC	?WorldTransform@@YA?AV?$vector@UVector2D@@V?$allocator@UVector2D@@@std@@@std@@AAV12@ABUVector2D@@111@Z ; WorldTransform
PUBLIC	??0?$_Iterator012@Ubidirectional_iterator_tag@std@@UGraveRecord@GraveMarkers@@HPBU34@ABU34@U_Iterator_base12@2@@std@@QAE@XZ ; std::_Iterator012<std::bidirectional_iterator_tag,GraveMarkers::GraveRecord,int,GraveMarkers::GraveRecord const *,GraveMarkers::GraveRecord const &,std::_Iterator_base12>::_Iterator012<std::bidirectional_iterator_tag,GraveMarkers::GraveRecord,int,GraveMarkers::GraveRecord const *,GraveMarkers::GraveRecord const &,std::_Iterator_base12>
PUBLIC	??1?$_Iterator012@Ubidirectional_iterator_tag@std@@UGraveRecord@GraveMarkers@@HPBU34@ABU34@U_Iterator_base12@2@@std@@QAE@XZ ; std::_Iterator012<std::bidirectional_iterator_tag,GraveMarkers::GraveRecord,int,GraveMarkers::GraveRecord const *,GraveMarkers::GraveRecord const &,std::_Iterator_base12>::~_Iterator012<std::bidirectional_iterator_tag,GraveMarkers::GraveRecord,int,GraveMarkers::GraveRecord const *,GraveMarkers::GraveRecord const &,std::_Iterator_base12>
PUBLIC	??0?$_Iterator012@Ubidirectional_iterator_tag@std@@UGraveRecord@GraveMarkers@@HPBU34@ABU34@U_Iterator_base12@2@@std@@QAE@ABU01@@Z ; std::_Iterator012<std::bidirectional_iterator_tag,GraveMarkers::GraveRecord,int,GraveMarkers::GraveRecord const *,GraveMarkers::GraveRecord const &,std::_Iterator_base12>::_Iterator012<std::bidirectional_iterator_tag,GraveMarkers::GraveRecord,int,GraveMarkers::GraveRecord const *,GraveMarkers::GraveRecord const &,std::_Iterator_base12>
PUBLIC	??0?$_Iterator012@Ubidirectional_iterator_tag@std@@UGraveRecord@GraveMarkers@@HPBU34@ABU34@U_Iterator_base12@2@@std@@QAE@$$QAU01@@Z ; std::_Iterator012<std::bidirectional_iterator_tag,GraveMarkers::GraveRecord,int,GraveMarkers::GraveRecord const *,GraveMarkers::GraveRecord const &,std::_Iterator_base12>::_Iterator012<std::bidirectional_iterator_tag,GraveMarkers::GraveRecord,int,GraveMarkers::GraveRecord const *,GraveMarkers::GraveRecord const &,std::_Iterator_base12>
PUBLIC	??4?$_Iterator012@Ubidirectional_iterator_tag@std@@UGraveRecord@GraveMarkers@@HPBU34@ABU34@U_Iterator_base12@2@@std@@QAEAAU01@$$QAU01@@Z ; std::_Iterator012<std::bidirectional_iterator_tag,GraveMarkers::GraveRecord,int,GraveMarkers::GraveRecord const *,GraveMarkers::GraveRecord const &,std::_Iterator_base12>::operator=
PUBLIC	??0?$_List_unchecked_const_iterator@V?$_List_val@U?$_List_simple_types@UGraveRecord@GraveMarkers@@@std@@@std@@U_Iterator_base12@2@@std@@QAE@PAU?$_List_node@UGraveRecord@GraveMarkers@@PAX@1@PBV?$_List_val@U?$_List_simple_types@UGraveRecord@GraveMarkers@@@std@@@1@@Z ; std::_List_unchecked_const_iterator<std::_List_val<std::_List_simple_types<GraveMarkers::GraveRecord> >,std::_Iterator_base12>::_List_unchecked_const_iterator<std::_List_val<std::_List_simple_types<GraveMarkers::GraveRecord> >,std::_Iterator_base12>
PUBLIC	?_Mynode@?$_List_unchecked_const_iterator@V?$_List_val@U?$_List_simple_types@UGraveRecord@GraveMarkers@@@std@@@std@@U_Iterator_base12@2@@std@@QBEPAU?$_List_node@UGraveRecord@GraveMarkers@@PAX@2@XZ ; std::_List_unchecked_const_iterator<std::_List_val<std::_List_simple_types<GraveMarkers::GraveRecord> >,std::_Iterator_base12>::_Mynode
PUBLIC	??1?$_List_unchecked_const_iterator@V?$_List_val@U?$_List_simple_types@UGraveRecord@GraveMarkers@@@std@@@std@@U_Iterator_base12@2@@std@@QAE@XZ ; std::_List_unchecked_const_iterator<std::_List_val<std::_List_simple_types<GraveMarkers::GraveRecord> >,std::_Iterator_base12>::~_List_unchecked_const_iterator<std::_List_val<std::_List_simple_types<GraveMarkers::GraveRecord> >,std::_Iterator_base12>
PUBLIC	??0?$_List_unchecked_const_iterator@V?$_List_val@U?$_List_simple_types@UGraveRecord@GraveMarkers@@@std@@@std@@U_Iterator_base12@2@@std@@QAE@ABV01@@Z ; std::_List_unchecked_const_iterator<std::_List_val<std::_List_simple_types<GraveMarkers::GraveRecord> >,std::_Iterator_base12>::_List_unchecked_const_iterator<std::_List_val<std::_List_simple_types<GraveMarkers::GraveRecord> >,std::_Iterator_base12>
PUBLIC	??0?$_List_unchecked_const_iterator@V?$_List_val@U?$_List_simple_types@UGraveRecord@GraveMarkers@@@std@@@std@@U_Iterator_base12@2@@std@@QAE@$$QAV01@@Z ; std::_List_unchecked_const_iterator<std::_List_val<std::_List_simple_types<GraveMarkers::GraveRecord> >,std::_Iterator_base12>::_List_unchecked_const_iterator<std::_List_val<std::_List_simple_types<GraveMarkers::GraveRecord> >,std::_Iterator_base12>
PUBLIC	??4?$_List_unchecked_const_iterator@V?$_List_val@U?$_List_simple_types@UGraveRecord@GraveMarkers@@@std@@@std@@U_Iterator_base12@2@@std@@QAEAAV01@$$QAV01@@Z ; std::_List_unchecked_const_iterator<std::_List_val<std::_List_simple_types<GraveMarkers::GraveRecord> >,std::_Iterator_base12>::operator=
PUBLIC	??0?$_List_const_iterator@V?$_List_val@U?$_List_simple_types@UGraveRecord@GraveMarkers@@@std@@@std@@@std@@QAE@PAU?$_List_node@UGraveRecord@GraveMarkers@@PAX@1@PBV?$_List_val@U?$_List_simple_types@UGraveRecord@GraveMarkers@@@std@@@1@@Z ; std::_List_const_iterator<std::_List_val<std::_List_simple_types<GraveMarkers::GraveRecord> > >::_List_const_iterator<std::_List_val<std::_List_simple_types<GraveMarkers::GraveRecord> > >
PUBLIC	??D?$_List_const_iterator@V?$_List_val@U?$_List_simple_types@UGraveRecord@GraveMarkers@@@std@@@std@@@std@@QBEABUGraveRecord@GraveMarkers@@XZ ; std::_List_const_iterator<std::_List_val<std::_List_simple_types<GraveMarkers::GraveRecord> > >::operator*
PUBLIC	??E?$_List_const_iterator@V?$_List_val@U?$_List_simple_types@UGraveRecord@GraveMarkers@@@std@@@std@@@std@@QAEAAV01@XZ ; std::_List_const_iterator<std::_List_val<std::_List_simple_types<GraveMarkers::GraveRecord> > >::operator++
PUBLIC	??E?$_List_const_iterator@V?$_List_val@U?$_List_simple_types@UGraveRecord@GraveMarkers@@@std@@@std@@@std@@QAE?AV01@H@Z ; std::_List_const_iterator<std::_List_val<std::_List_simple_types<GraveMarkers::GraveRecord> > >::operator++
PUBLIC	??8?$_List_const_iterator@V?$_List_val@U?$_List_simple_types@UGraveRecord@GraveMarkers@@@std@@@std@@@std@@QBE_NABV01@@Z ; std::_List_const_iterator<std::_List_val<std::_List_simple_types<GraveMarkers::GraveRecord> > >::operator==
PUBLIC	??9?$_List_const_iterator@V?$_List_val@U?$_List_simple_types@UGraveRecord@GraveMarkers@@@std@@@std@@@std@@QBE_NABV01@@Z ; std::_List_const_iterator<std::_List_val<std::_List_simple_types<GraveMarkers::GraveRecord> > >::operator!=
PUBLIC	??1?$_List_const_iterator@V?$_List_val@U?$_List_simple_types@UGraveRecord@GraveMarkers@@@std@@@std@@@std@@QAE@XZ ; std::_List_const_iterator<std::_List_val<std::_List_simple_types<GraveMarkers::GraveRecord> > >::~_List_const_iterator<std::_List_val<std::_List_simple_types<GraveMarkers::GraveRecord> > >
PUBLIC	??0?$_List_const_iterator@V?$_List_val@U?$_List_simple_types@UGraveRecord@GraveMarkers@@@std@@@std@@@std@@QAE@ABV01@@Z ; std::_List_const_iterator<std::_List_val<std::_List_simple_types<GraveMarkers::GraveRecord> > >::_List_const_iterator<std::_List_val<std::_List_simple_types<GraveMarkers::GraveRecord> > >
PUBLIC	??0?$_List_const_iterator@V?$_List_val@U?$_List_simple_types@UGraveRecord@GraveMarkers@@@std@@@std@@@std@@QAE@$$QAV01@@Z ; std::_List_const_iterator<std::_List_val<std::_List_simple_types<GraveMarkers::GraveRecord> > >::_List_const_iterator<std::_List_val<std::_List_simple_types<GraveMarkers::GraveRecord> > >
PUBLIC	??4?$_List_const_iterator@V?$_List_val@U?$_List_simple_types@UGraveRecord@GraveMarkers@@@std@@@std@@@std@@QAEAAV01@$$QAV01@@Z ; std::_List_const_iterator<std::_List_val<std::_List_simple_types<GraveMarkers::GraveRecord> > >::operator=
PUBLIC	??0?$_List_iterator@V?$_List_val@U?$_List_simple_types@UGraveRecord@GraveMarkers@@@std@@@std@@@std@@QAE@PAU?$_List_node@UGraveRecord@GraveMarkers@@PAX@1@PBV?$_List_val@U?$_List_simple_types@UGraveRecord@GraveMarkers@@@std@@@1@@Z ; std::_List_iterator<std::_List_val<std::_List_simple_types<GraveMarkers::GraveRecord> > >::_List_iterator<std::_List_val<std::_List_simple_types<GraveMarkers::GraveRecord> > >
PUBLIC	??D?$_List_iterator@V?$_List_val@U?$_List_simple_types@UGraveRecord@GraveMarkers@@@std@@@std@@@std@@QBEAAUGraveRecord@GraveMarkers@@XZ ; std::_List_iterator<std::_List_val<std::_List_simple_types<GraveMarkers::GraveRecord> > >::operator*
PUBLIC	??C?$_List_iterator@V?$_List_val@U?$_List_simple_types@UGraveRecord@GraveMarkers@@@std@@@std@@@std@@QBEPAUGraveRecord@GraveMarkers@@XZ ; std::_List_iterator<std::_List_val<std::_List_simple_types<GraveMarkers::GraveRecord> > >::operator->
PUBLIC	??E?$_List_iterator@V?$_List_val@U?$_List_simple_types@UGraveRecord@GraveMarkers@@@std@@@std@@@std@@QAEAAV01@XZ ; std::_List_iterator<std::_List_val<std::_List_simple_types<GraveMarkers::GraveRecord> > >::operator++
PUBLIC	??1?$_List_iterator@V?$_List_val@U?$_List_simple_types@UGraveRecord@GraveMarkers@@@std@@@std@@@std@@QAE@XZ ; std::_List_iterator<std::_List_val<std::_List_simple_types<GraveMarkers::GraveRecord> > >::~_List_iterator<std::_List_val<std::_List_simple_types<GraveMarkers::GraveRecord> > >
PUBLIC	??4?$_List_iterator@V?$_List_val@U?$_List_simple_types@UGraveRecord@GraveMarkers@@@std@@@std@@@std@@QAEAAV01@$$QAV01@@Z ; std::_List_iterator<std::_List_val<std::_List_simple_types<GraveMarkers::GraveRecord> > >::operator=
PUBLIC	?pointer_to@?$pointer_traits@PAUGraveRecord@GraveMarkers@@@std@@SAPAUGraveRecord@GraveMarkers@@AAU34@@Z ; std::pointer_traits<GraveMarkers::GraveRecord *>::pointer_to
PUBLIC	??$addressof@$$CBUVector2D@@@std@@YAPBUVector2D@@ABU1@@Z ; std::addressof<Vector2D const >
PUBLIC	??$construct@UVector2D@@AAU1@@?$_Wrap_alloc@V?$allocator@UVector2D@@@std@@@std@@QAEXPAUVector2D@@AAU2@@Z ; std::_Wrap_alloc<std::allocator<Vector2D> >::construct<Vector2D,Vector2D &>
PUBLIC	??$construct@UVector2D@@ABU1@@?$_Wrap_alloc@V?$allocator@UVector2D@@@std@@@std@@QAEXPAUVector2D@@ABU2@@Z ; std::_Wrap_alloc<std::allocator<Vector2D> >::construct<Vector2D,Vector2D const &>
PUBLIC	??$addressof@UVector2D@@@std@@YAPAUVector2D@@AAU1@@Z ; std::addressof<Vector2D>
PUBLIC	??$forward@UVector2D@@@std@@YA$$QAUVector2D@@AAU1@@Z ; std::forward<Vector2D>
PUBLIC	??$construct@UVector2D@@U1@@?$_Wrap_alloc@V?$allocator@UVector2D@@@std@@@std@@QAEXPAUVector2D@@$$QAU2@@Z ; std::_Wrap_alloc<std::allocator<Vector2D> >::construct<Vector2D,Vector2D>
PUBLIC	??$?9V?$allocator@UVector2D@@@std@@V01@@std@@YA_NABU?$_Wrap_alloc@V?$allocator@UVector2D@@@std@@@0@0@Z ; std::operator!=<std::allocator<Vector2D>,std::allocator<Vector2D> >
PUBLIC	??$forward@V?$vector@UVector2D@@V?$allocator@UVector2D@@@std@@@std@@@std@@YA$$QAV?$vector@UVector2D@@V?$allocator@UVector2D@@@std@@@0@AAV10@@Z ; std::forward<std::vector<Vector2D,std::allocator<Vector2D> > >
PUBLIC	??$move@AAU?$_Wrap_alloc@V?$allocator@UVector2D@@@std@@@std@@@std@@YA$$QAU?$_Wrap_alloc@V?$allocator@UVector2D@@@std@@@0@AAU10@@Z ; std::move<std::_Wrap_alloc<std::allocator<Vector2D> > &>
PUBLIC	??0?$_Iterator012@Urandom_access_iterator_tag@std@@UVector2D@@HPBU3@ABU3@U_Iterator_base12@2@@std@@QAE@XZ ; std::_Iterator012<std::random_access_iterator_tag,Vector2D,int,Vector2D const *,Vector2D const &,std::_Iterator_base12>::_Iterator012<std::random_access_iterator_tag,Vector2D,int,Vector2D const *,Vector2D const &,std::_Iterator_base12>
PUBLIC	??1?$_Iterator012@Urandom_access_iterator_tag@std@@UVector2D@@HPBU3@ABU3@U_Iterator_base12@2@@std@@QAE@XZ ; std::_Iterator012<std::random_access_iterator_tag,Vector2D,int,Vector2D const *,Vector2D const &,std::_Iterator_base12>::~_Iterator012<std::random_access_iterator_tag,Vector2D,int,Vector2D const *,Vector2D const &,std::_Iterator_base12>
PUBLIC	??0?$_Iterator012@Urandom_access_iterator_tag@std@@UVector2D@@HPBU3@ABU3@U_Iterator_base12@2@@std@@QAE@ABU01@@Z ; std::_Iterator012<std::random_access_iterator_tag,Vector2D,int,Vector2D const *,Vector2D const &,std::_Iterator_base12>::_Iterator012<std::random_access_iterator_tag,Vector2D,int,Vector2D const *,Vector2D const &,std::_Iterator_base12>
PUBLIC	??0?$_Vector_const_iterator@V?$_Vector_val@U?$_Simple_types@UVector2D@@@std@@@std@@@std@@QAE@PAUVector2D@@PBU_Container_base12@1@@Z ; std::_Vector_const_iterator<std::_Vector_val<std::_Simple_types<Vector2D> > >::_Vector_const_iterator<std::_Vector_val<std::_Simple_types<Vector2D> > >
PUBLIC	?_Unchecked@?$_Vector_const_iterator@V?$_Vector_val@U?$_Simple_types@UVector2D@@@std@@@std@@@std@@QBEPBUVector2D@@XZ ; std::_Vector_const_iterator<std::_Vector_val<std::_Simple_types<Vector2D> > >::_Unchecked
PUBLIC	??1?$_Vector_const_iterator@V?$_Vector_val@U?$_Simple_types@UVector2D@@@std@@@std@@@std@@QAE@XZ ; std::_Vector_const_iterator<std::_Vector_val<std::_Simple_types<Vector2D> > >::~_Vector_const_iterator<std::_Vector_val<std::_Simple_types<Vector2D> > >
PUBLIC	??0?$_Vector_const_iterator@V?$_Vector_val@U?$_Simple_types@UVector2D@@@std@@@std@@@std@@QAE@ABV01@@Z ; std::_Vector_const_iterator<std::_Vector_val<std::_Simple_types<Vector2D> > >::_Vector_const_iterator<std::_Vector_val<std::_Simple_types<Vector2D> > >
PUBLIC	??$_Ucopy@V?$_Vector_const_iterator@V?$_Vector_val@U?$_Simple_types@UVector2D@@@std@@@std@@@std@@@?$vector@UVector2D@@V?$allocator@UVector2D@@@std@@@std@@IAEPAUVector2D@@V?$_Vector_const_iterator@V?$_Vector_val@U?$_Simple_types@UVector2D@@@std@@@std@@@1@0PAU2@@Z ; std::vector<Vector2D,std::allocator<Vector2D> >::_Ucopy<std::_Vector_const_iterator<std::_Vector_val<std::_Simple_types<Vector2D> > > >
PUBLIC	??0?$_List_unchecked_const_iterator@V?$_List_val@U?$_List_simple_types@UGraveRecord@GraveMarkers@@@std@@@std@@U_Iterator_base0@2@@std@@QAE@PAU?$_List_node@UGraveRecord@GraveMarkers@@PAX@1@PBV?$_List_val@U?$_List_simple_types@UGraveRecord@GraveMarkers@@@std@@@1@@Z ; std::_List_unchecked_const_iterator<std::_List_val<std::_List_simple_types<GraveMarkers::GraveRecord> >,std::_Iterator_base0>::_List_unchecked_const_iterator<std::_List_val<std::_List_simple_types<GraveMarkers::GraveRecord> >,std::_Iterator_base0>
PUBLIC	?_Mynode@?$_List_unchecked_const_iterator@V?$_List_val@U?$_List_simple_types@UGraveRecord@GraveMarkers@@@std@@@std@@U_Iterator_base0@2@@std@@QBEPAU?$_List_node@UGraveRecord@GraveMarkers@@PAX@2@XZ ; std::_List_unchecked_const_iterator<std::_List_val<std::_List_simple_types<GraveMarkers::GraveRecord> >,std::_Iterator_base0>::_Mynode
PUBLIC	??0?$_List_unchecked_iterator@V?$_List_val@U?$_List_simple_types@UGraveRecord@GraveMarkers@@@std@@@std@@@std@@QAE@PAU?$_List_node@UGraveRecord@GraveMarkers@@PAX@1@PBV?$_List_val@U?$_List_simple_types@UGraveRecord@GraveMarkers@@@std@@@1@@Z ; std::_List_unchecked_iterator<std::_List_val<std::_List_simple_types<GraveMarkers::GraveRecord> > >::_List_unchecked_iterator<std::_List_val<std::_List_simple_types<GraveMarkers::GraveRecord> > >
PUBLIC	??$forward@UGraveRecord@GraveMarkers@@@std@@YA$$QAUGraveRecord@GraveMarkers@@AAU12@@Z ; std::forward<GraveMarkers::GraveRecord>
PUBLIC	??$_Insert@UGraveRecord@GraveMarkers@@@?$list@UGraveRecord@GraveMarkers@@V?$allocator@UGraveRecord@GraveMarkers@@@std@@@std@@QAEXV?$_List_unchecked_const_iterator@V?$_List_val@U?$_List_simple_types@UGraveRecord@GraveMarkers@@@std@@@std@@U_Iterator_base0@2@@1@$$QAUGraveRecord@GraveMarkers@@@Z ; std::list<GraveMarkers::GraveRecord,std::allocator<GraveMarkers::GraveRecord> >::_Insert<GraveMarkers::GraveRecord>
PUBLIC	??$_Debug_pointer@$$CBD@std@@YAXPBDPB_WI@Z	; std::_Debug_pointer<char const >
PUBLIC	??$addressof@UGraveRecord@GraveMarkers@@@std@@YAPAUGraveRecord@GraveMarkers@@AAU12@@Z ; std::addressof<GraveMarkers::GraveRecord>
PUBLIC	??$addressof@PAU?$_List_node@UGraveRecord@GraveMarkers@@PAX@std@@@std@@YAPAPAU?$_List_node@UGraveRecord@GraveMarkers@@PAX@0@AAPAU10@@Z ; std::addressof<std::_List_node<GraveMarkers::GraveRecord,void *> *>
PUBLIC	??$destroy@PAU?$_List_node@UGraveRecord@GraveMarkers@@PAX@std@@@?$_Wrap_alloc@V?$allocator@U?$_List_node@UGraveRecord@GraveMarkers@@PAX@std@@@std@@@std@@QAEXPAPAU?$_List_node@UGraveRecord@GraveMarkers@@PAX@1@@Z ; std::_Wrap_alloc<std::allocator<std::_List_node<GraveMarkers::GraveRecord,void *> > >::destroy<std::_List_node<GraveMarkers::GraveRecord,void *> *>
PUBLIC	??$destroy@UGraveRecord@GraveMarkers@@@?$_Wrap_alloc@V?$allocator@U?$_List_node@UGraveRecord@GraveMarkers@@PAX@std@@@std@@@std@@QAEXPAUGraveRecord@GraveMarkers@@@Z ; std::_Wrap_alloc<std::allocator<std::_List_node<GraveMarkers::GraveRecord,void *> > >::destroy<GraveMarkers::GraveRecord>
PUBLIC	??$_Pocma@U?$_Wrap_alloc@V?$allocator@UVector2D@@@std@@@std@@@std@@YAXAAU?$_Wrap_alloc@V?$allocator@UVector2D@@@std@@@0@0@Z ; std::_Pocma<std::_Wrap_alloc<std::allocator<Vector2D> > >
PUBLIC	??$move@AAV?$allocator@UVector2D@@@std@@@std@@YA$$QAV?$allocator@UVector2D@@@0@AAV10@@Z ; std::move<std::allocator<Vector2D> &>
PUBLIC	??$?0V?$allocator@UVector2D@@@std@@$$V@?$_Compressed_pair@U?$_Wrap_alloc@V?$allocator@UVector2D@@@std@@@std@@V?$_Vector_val@U?$_Simple_types@UVector2D@@@std@@@2@$00@std@@QAE@U_One_then_variadic_args_t@1@$$QAV?$allocator@UVector2D@@@1@@Z ; std::_Compressed_pair<std::_Wrap_alloc<std::allocator<Vector2D> >,std::_Vector_val<std::_Simple_types<Vector2D> >,1>::_Compressed_pair<std::_Wrap_alloc<std::allocator<Vector2D> >,std::_Vector_val<std::_Simple_types<Vector2D> >,1><std::allocator<Vector2D> >
PUBLIC	??$?0ABV?$allocator@UVector2D@@@std@@$$V@?$_Compressed_pair@U?$_Wrap_alloc@V?$allocator@UVector2D@@@std@@@std@@V?$_Vector_val@U?$_Simple_types@UVector2D@@@std@@@2@$00@std@@QAE@U_One_then_variadic_args_t@1@ABV?$allocator@UVector2D@@@1@@Z ; std::_Compressed_pair<std::_Wrap_alloc<std::allocator<Vector2D> >,std::_Vector_val<std::_Simple_types<Vector2D> >,1>::_Compressed_pair<std::_Wrap_alloc<std::allocator<Vector2D> >,std::_Vector_val<std::_Simple_types<Vector2D> >,1><std::allocator<Vector2D> const &>
PUBLIC	??$?0ABV?$allocator@D@std@@$$V@?$_Compressed_pair@U?$_Wrap_alloc@V?$allocator@D@std@@@std@@V?$_String_val@U?$_Simple_types@D@std@@@2@$00@std@@QAE@U_One_then_variadic_args_t@1@ABV?$allocator@D@1@@Z ; std::_Compressed_pair<std::_Wrap_alloc<std::allocator<char> >,std::_String_val<std::_Simple_types<char> >,1>::_Compressed_pair<std::_Wrap_alloc<std::allocator<char> >,std::_String_val<std::_Simple_types<char> >,1><std::allocator<char> const &>
PUBLIC	??$destroy@PAD@?$_Wrap_alloc@V?$allocator@D@std@@@std@@QAEXPAPAD@Z ; std::_Wrap_alloc<std::allocator<char> >::destroy<char *>
PUBLIC	??$addressof@D@std@@YAPADAAD@Z			; std::addressof<char>
PUBLIC	??$_Debug_pointer_if@$$CBD@std@@YAX_NPBDPB_WI@Z	; std::_Debug_pointer_if<char const >
PUBLIC	??$construct@PADAAPAD@?$_Wrap_alloc@V?$allocator@D@std@@@std@@QAEXPAPADAAPAD@Z ; std::_Wrap_alloc<std::allocator<char> >::construct<char *,char * &>
PUBLIC	?deallocate@?$allocator@U_Container_proxy@std@@@std@@QAEXPAU_Container_proxy@2@I@Z ; std::allocator<std::_Container_proxy>::deallocate
PUBLIC	?allocate@?$allocator@U_Container_proxy@std@@@std@@QAEPAU_Container_proxy@2@I@Z ; std::allocator<std::_Container_proxy>::allocate
PUBLIC	?allocate@?$_Wrap_alloc@V?$allocator@U_Container_proxy@std@@@std@@@std@@QAEPAU_Container_proxy@2@I@Z ; std::_Wrap_alloc<std::allocator<std::_Container_proxy> >::allocate
PUBLIC	?deallocate@?$_Wrap_alloc@V?$allocator@U_Container_proxy@std@@@std@@@std@@QAEXPAU_Container_proxy@2@I@Z ; std::_Wrap_alloc<std::allocator<std::_Container_proxy> >::deallocate
PUBLIC	??$?0U?$_Wrap_alloc@V?$allocator@U?$_List_node@UGraveRecord@GraveMarkers@@PAX@std@@@std@@@std@@@?$_Wrap_alloc@V?$allocator@U_Container_proxy@std@@@std@@@std@@QAE@AAU?$_Wrap_alloc@V?$allocator@U?$_List_node@UGraveRecord@GraveMarkers@@PAX@std@@@std@@@1@@Z ; std::_Wrap_alloc<std::allocator<std::_Container_proxy> >::_Wrap_alloc<std::allocator<std::_Container_proxy> ><std::_Wrap_alloc<std::allocator<std::_List_node<GraveMarkers::GraveRecord,void *> > > >
PUBLIC	??$?0U?$_List_node@UGraveRecord@GraveMarkers@@PAX@std@@@?$allocator@U_Container_proxy@std@@@std@@QAE@ABV?$allocator@U?$_List_node@UGraveRecord@GraveMarkers@@PAX@std@@@1@@Z ; std::allocator<std::_Container_proxy>::allocator<std::_Container_proxy><std::_List_node<GraveMarkers::GraveRecord,void *> >
PUBLIC	??$destroy@U_Container_proxy@std@@@?$_Wrap_alloc@V?$allocator@U_Container_proxy@std@@@std@@@std@@QAEXPAU_Container_proxy@1@@Z ; std::_Wrap_alloc<std::allocator<std::_Container_proxy> >::destroy<std::_Container_proxy>
PUBLIC	??$?0ABV?$allocator@UGraveRecord@GraveMarkers@@@std@@$$V@?$_Compressed_pair@U?$_Wrap_alloc@V?$allocator@U?$_List_node@UGraveRecord@GraveMarkers@@PAX@std@@@std@@@std@@V?$_List_val@U?$_List_simple_types@UGraveRecord@GraveMarkers@@@std@@@2@$00@std@@QAE@U_One_then_variadic_args_t@1@ABV?$allocator@UGraveRecord@GraveMarkers@@@1@@Z ; std::_Compressed_pair<std::_Wrap_alloc<std::allocator<std::_List_node<GraveMarkers::GraveRecord,void *> > >,std::_List_val<std::_List_simple_types<GraveMarkers::GraveRecord> >,1>::_Compressed_pair<std::_Wrap_alloc<std::allocator<std::_List_node<GraveMarkers::GraveRecord,void *> > >,std::_List_val<std::_List_simple_types<GraveMarkers::GraveRecord> >,1><std::allocator<GraveMarkers::GraveRecord> const &>
PUBLIC	??$?0U?$_Wrap_alloc@V?$allocator@UVector2D@@@std@@@std@@@?$_Wrap_alloc@V?$allocator@U_Container_proxy@std@@@std@@@std@@QAE@AAU?$_Wrap_alloc@V?$allocator@UVector2D@@@std@@@1@@Z ; std::_Wrap_alloc<std::allocator<std::_Container_proxy> >::_Wrap_alloc<std::allocator<std::_Container_proxy> ><std::_Wrap_alloc<std::allocator<Vector2D> > >
PUBLIC	??$?0UVector2D@@@?$allocator@U_Container_proxy@std@@@std@@QAE@ABV?$allocator@UVector2D@@@1@@Z ; std::allocator<std::_Container_proxy>::allocator<std::_Container_proxy><Vector2D>
PUBLIC	??$construct@U_Container_proxy@std@@U12@@?$_Wrap_alloc@V?$allocator@U_Container_proxy@std@@@std@@@std@@QAEXPAU_Container_proxy@1@$$QAU21@@Z ; std::_Wrap_alloc<std::allocator<std::_Container_proxy> >::construct<std::_Container_proxy,std::_Container_proxy>
PUBLIC	??$_Umove@PAUVector2D@@@?$vector@UVector2D@@V?$allocator@UVector2D@@@std@@@std@@IAEPAUVector2D@@PAU2@00@Z ; std::vector<Vector2D,std::allocator<Vector2D> >::_Umove<Vector2D *>
PUBLIC	??$_Destroy_range@U?$_Wrap_alloc@V?$allocator@UVector2D@@@std@@@std@@@std@@YAXPAUVector2D@@0AAU?$_Wrap_alloc@V?$allocator@UVector2D@@@std@@@0@@Z ; std::_Destroy_range<std::_Wrap_alloc<std::allocator<Vector2D> > >
PUBLIC	??$?0U?$_Wrap_alloc@V?$allocator@D@std@@@std@@@?$_Wrap_alloc@V?$allocator@U_Container_proxy@std@@@std@@@std@@QAE@AAU?$_Wrap_alloc@V?$allocator@D@std@@@1@@Z ; std::_Wrap_alloc<std::allocator<std::_Container_proxy> >::_Wrap_alloc<std::allocator<std::_Container_proxy> ><std::_Wrap_alloc<std::allocator<char> > >
PUBLIC	??$?0D@?$allocator@U_Container_proxy@std@@@std@@QAE@ABV?$allocator@D@1@@Z ; std::allocator<std::_Container_proxy>::allocator<std::_Container_proxy><char>
PUBLIC	??$_Deallocate@U?$_List_node@UGraveRecord@GraveMarkers@@PAX@std@@@std@@YAXPAU?$_List_node@UGraveRecord@GraveMarkers@@PAX@0@I@Z ; std::_Deallocate<std::_List_node<GraveMarkers::GraveRecord,void *> >
PUBLIC	??$_Allocate@UVector2D@@@std@@YAPAUVector2D@@IPAU1@_N@Z ; std::_Allocate<Vector2D>
PUBLIC	??$_Deallocate@UVector2D@@@std@@YAXPAUVector2D@@I@Z ; std::_Deallocate<Vector2D>
PUBLIC	??$_Deallocate@D@std@@YAXPADI@Z			; std::_Deallocate<char>
PUBLIC	??$_Allocate@U_Container_proxy@std@@@std@@YAPAU_Container_proxy@0@IPAU10@_N@Z ; std::_Allocate<std::_Container_proxy>
PUBLIC	??$_Deallocate@U_Container_proxy@std@@@std@@YAXPAU_Container_proxy@0@I@Z ; std::_Deallocate<std::_Container_proxy>
PUBLIC	??$construct@PAU?$_List_node@UGraveRecord@GraveMarkers@@PAX@std@@AAPAU12@@?$_Wrap_alloc@V?$allocator@U?$_List_node@UGraveRecord@GraveMarkers@@PAX@std@@@std@@@std@@QAEXPAPAU?$_List_node@UGraveRecord@GraveMarkers@@PAX@1@AAPAU21@@Z ; std::_Wrap_alloc<std::allocator<std::_List_node<GraveMarkers::GraveRecord,void *> > >::construct<std::_List_node<GraveMarkers::GraveRecord,void *> *,std::_List_node<GraveMarkers::GraveRecord,void *> * &>
PUBLIC	??$_Allocate@D@std@@YAPADIPAD_N@Z		; std::_Allocate<char>
PUBLIC	??$_Allocate@U?$_List_node@UGraveRecord@GraveMarkers@@PAX@std@@@std@@YAPAU?$_List_node@UGraveRecord@GraveMarkers@@PAX@0@IPAU10@_N@Z ; std::_Allocate<std::_List_node<GraveMarkers::GraveRecord,void *> >
PUBLIC	??$_Addressof@$$CBUVector2D@@@std@@YAPBUVector2D@@ABU1@U?$integral_constant@_N$0A@@0@@Z ; std::_Addressof<Vector2D const >
PUBLIC	??$forward@AAUVector2D@@@std@@YAAAUVector2D@@AAU1@@Z ; std::forward<Vector2D &>
PUBLIC	??$construct@UVector2D@@AAU1@@?$allocator_traits@V?$allocator@UVector2D@@@std@@@std@@SAXAAV?$allocator@UVector2D@@@1@PAUVector2D@@AAU3@@Z ; std::allocator_traits<std::allocator<Vector2D> >::construct<Vector2D,Vector2D &>
PUBLIC	??$forward@ABUVector2D@@@std@@YAABUVector2D@@ABU1@@Z ; std::forward<Vector2D const &>
PUBLIC	??$construct@UVector2D@@ABU1@@?$allocator_traits@V?$allocator@UVector2D@@@std@@@std@@SAXAAV?$allocator@UVector2D@@@1@PAUVector2D@@ABU3@@Z ; std::allocator_traits<std::allocator<Vector2D> >::construct<Vector2D,Vector2D const &>
PUBLIC	??$_Addressof@UVector2D@@@std@@YAPAUVector2D@@AAU1@U?$integral_constant@_N$0A@@0@@Z ; std::_Addressof<Vector2D>
PUBLIC	??$construct@UVector2D@@U1@@?$allocator_traits@V?$allocator@UVector2D@@@std@@@std@@SAXAAV?$allocator@UVector2D@@@1@PAUVector2D@@$$QAU3@@Z ; std::allocator_traits<std::allocator<Vector2D> >::construct<Vector2D,Vector2D>
PUBLIC	??$?8V?$allocator@UVector2D@@@std@@V01@@std@@YA_NABU?$_Wrap_alloc@V?$allocator@UVector2D@@@std@@@0@0@Z ; std::operator==<std::allocator<Vector2D>,std::allocator<Vector2D> >
PUBLIC	??$?8UVector2D@@U0@@std@@YA_NABV?$allocator@UVector2D@@@0@0@Z ; std::operator==<Vector2D,Vector2D>
PUBLIC	??$_Uninitialized_copy@V?$_Vector_const_iterator@V?$_Vector_val@U?$_Simple_types@UVector2D@@@std@@@std@@@std@@PAUVector2D@@U?$_Wrap_alloc@V?$allocator@UVector2D@@@std@@@2@@std@@YAPAUVector2D@@V?$_Vector_const_iterator@V?$_Vector_val@U?$_Simple_types@UVector2D@@@std@@@std@@@0@0PAU1@AAU?$_Wrap_alloc@V?$allocator@UVector2D@@@std@@@0@@Z ; std::_Uninitialized_copy<std::_Vector_const_iterator<std::_Vector_val<std::_Simple_types<Vector2D> > >,Vector2D *,std::_Wrap_alloc<std::allocator<Vector2D> > >
PUBLIC	??$_Buynode@UGraveRecord@GraveMarkers@@@?$_List_buy@UGraveRecord@GraveMarkers@@V?$allocator@UGraveRecord@GraveMarkers@@@std@@@std@@QAEPAU?$_List_node@UGraveRecord@GraveMarkers@@PAX@1@PAU21@0$$QAUGraveRecord@GraveMarkers@@@Z ; std::_List_buy<GraveMarkers::GraveRecord,std::allocator<GraveMarkers::GraveRecord> >::_Buynode<GraveMarkers::GraveRecord>
PUBLIC	??$_Addressof@UGraveRecord@GraveMarkers@@@std@@YAPAUGraveRecord@GraveMarkers@@AAU12@U?$integral_constant@_N$0A@@0@@Z ; std::_Addressof<GraveMarkers::GraveRecord>
PUBLIC	??$_Addressof@PAU?$_List_node@UGraveRecord@GraveMarkers@@PAX@std@@@std@@YAPAPAU?$_List_node@UGraveRecord@GraveMarkers@@PAX@0@AAPAU10@U?$integral_constant@_N$0A@@0@@Z ; std::_Addressof<std::_List_node<GraveMarkers::GraveRecord,void *> *>
PUBLIC	??$destroy@PAU?$_List_node@UGraveRecord@GraveMarkers@@PAX@std@@@?$allocator_traits@V?$allocator@U?$_List_node@UGraveRecord@GraveMarkers@@PAX@std@@@std@@@std@@SAXAAV?$allocator@U?$_List_node@UGraveRecord@GraveMarkers@@PAX@std@@@1@PAPAU?$_List_node@UGraveRecord@GraveMarkers@@PAX@1@@Z ; std::allocator_traits<std::allocator<std::_List_node<GraveMarkers::GraveRecord,void *> > >::destroy<std::_List_node<GraveMarkers::GraveRecord,void *> *>
PUBLIC	??$destroy@UGraveRecord@GraveMarkers@@@?$allocator_traits@V?$allocator@U?$_List_node@UGraveRecord@GraveMarkers@@PAX@std@@@std@@@std@@SAXAAV?$allocator@U?$_List_node@UGraveRecord@GraveMarkers@@PAX@std@@@1@PAUGraveRecord@GraveMarkers@@@Z ; std::allocator_traits<std::allocator<std::_List_node<GraveMarkers::GraveRecord,void *> > >::destroy<GraveMarkers::GraveRecord>
PUBLIC	??$_Pocma@U?$_Wrap_alloc@V?$allocator@UVector2D@@@std@@@std@@@std@@YAXAAU?$_Wrap_alloc@V?$allocator@UVector2D@@@std@@@0@0U?$integral_constant@_N$00@0@@Z ; std::_Pocma<std::_Wrap_alloc<std::allocator<Vector2D> > >
PUBLIC	??$forward@V?$allocator@UVector2D@@@std@@@std@@YA$$QAV?$allocator@UVector2D@@@0@AAV10@@Z ; std::forward<std::allocator<Vector2D> >
PUBLIC	??$forward@ABV?$allocator@UVector2D@@@std@@@std@@YAABV?$allocator@UVector2D@@@0@ABV10@@Z ; std::forward<std::allocator<Vector2D> const &>
PUBLIC	??$forward@ABV?$allocator@D@std@@@std@@YAABV?$allocator@D@0@ABV10@@Z ; std::forward<std::allocator<char> const &>
PUBLIC	??$destroy@PAD@?$allocator_traits@V?$allocator@D@std@@@std@@SAXAAV?$allocator@D@1@PAPAD@Z ; std::allocator_traits<std::allocator<char> >::destroy<char *>
PUBLIC	??$_Addressof@D@std@@YAPADAADU?$integral_constant@_N$0A@@0@@Z ; std::_Addressof<char>
PUBLIC	??$forward@AAPAD@std@@YAAAPADAAPAD@Z		; std::forward<char * &>
PUBLIC	??$construct@PADAAPAD@?$allocator_traits@V?$allocator@D@std@@@std@@SAXAAV?$allocator@D@1@PAPADAAPAD@Z ; std::allocator_traits<std::allocator<char> >::construct<char *,char * &>
PUBLIC	??$destroy@U_Container_proxy@std@@@?$allocator_traits@V?$allocator@U_Container_proxy@std@@@std@@@std@@SAXAAV?$allocator@U_Container_proxy@std@@@1@PAU_Container_proxy@1@@Z ; std::allocator_traits<std::allocator<std::_Container_proxy> >::destroy<std::_Container_proxy>
PUBLIC	??$forward@ABV?$allocator@UGraveRecord@GraveMarkers@@@std@@@std@@YAABV?$allocator@UGraveRecord@GraveMarkers@@@0@ABV10@@Z ; std::forward<std::allocator<GraveMarkers::GraveRecord> const &>
PUBLIC	??$?0V?$allocator@UGraveRecord@GraveMarkers@@@std@@@?$_Wrap_alloc@V?$allocator@U?$_List_node@UGraveRecord@GraveMarkers@@PAX@std@@@std@@@std@@QAE@ABV?$allocator@UGraveRecord@GraveMarkers@@@1@@Z ; std::_Wrap_alloc<std::allocator<std::_List_node<GraveMarkers::GraveRecord,void *> > >::_Wrap_alloc<std::allocator<std::_List_node<GraveMarkers::GraveRecord,void *> > ><std::allocator<GraveMarkers::GraveRecord> >
PUBLIC	??$?0UGraveRecord@GraveMarkers@@@?$allocator@U?$_List_node@UGraveRecord@GraveMarkers@@PAX@std@@@std@@QAE@ABV?$allocator@UGraveRecord@GraveMarkers@@@1@@Z ; std::allocator<std::_List_node<GraveMarkers::GraveRecord,void *> >::allocator<std::_List_node<GraveMarkers::GraveRecord,void *> ><GraveMarkers::GraveRecord>
PUBLIC	??$forward@U_Container_proxy@std@@@std@@YA$$QAU_Container_proxy@0@AAU10@@Z ; std::forward<std::_Container_proxy>
PUBLIC	??$construct@U_Container_proxy@std@@U12@@?$allocator_traits@V?$allocator@U_Container_proxy@std@@@std@@@std@@SAXAAV?$allocator@U_Container_proxy@std@@@1@PAU_Container_proxy@1@$$QAU31@@Z ; std::allocator_traits<std::allocator<std::_Container_proxy> >::construct<std::_Container_proxy,std::_Container_proxy>
PUBLIC	??$_Uninitialized_move@PAUVector2D@@PAU1@U?$_Wrap_alloc@V?$allocator@UVector2D@@@std@@@std@@@std@@YAPAUVector2D@@PAU1@00AAU?$_Wrap_alloc@V?$allocator@UVector2D@@@std@@@0@@Z ; std::_Uninitialized_move<Vector2D *,Vector2D *,std::_Wrap_alloc<std::allocator<Vector2D> > >
PUBLIC	??$_Ptr_cat@UVector2D@@U1@@std@@YA?AU_Nonscalar_ptr_iterator_tag@0@PBUVector2D@@PAU2@@Z ; std::_Ptr_cat<Vector2D,Vector2D>
PUBLIC	??$_Ptr_cat@UVector2D@@U1@@std@@YA?AU_Nonscalar_ptr_iterator_tag@0@PAUVector2D@@0@Z ; std::_Ptr_cat<Vector2D,Vector2D>
PUBLIC	??$_Destroy_range@U?$_Wrap_alloc@V?$allocator@UVector2D@@@std@@@std@@@std@@YAXPAUVector2D@@0AAU?$_Wrap_alloc@V?$allocator@UVector2D@@@std@@@0@U_Nonscalar_ptr_iterator_tag@0@@Z ; std::_Destroy_range<std::_Wrap_alloc<std::allocator<Vector2D> > >
PUBLIC	??$forward@AAPAU?$_List_node@UGraveRecord@GraveMarkers@@PAX@std@@@std@@YAAAPAU?$_List_node@UGraveRecord@GraveMarkers@@PAX@0@AAPAU10@@Z ; std::forward<std::_List_node<GraveMarkers::GraveRecord,void *> * &>
PUBLIC	??$construct@PAU?$_List_node@UGraveRecord@GraveMarkers@@PAX@std@@AAPAU12@@?$allocator_traits@V?$allocator@U?$_List_node@UGraveRecord@GraveMarkers@@PAX@std@@@std@@@std@@SAXAAV?$allocator@U?$_List_node@UGraveRecord@GraveMarkers@@PAX@std@@@1@PAPAU?$_List_node@UGraveRecord@GraveMarkers@@PAX@1@AAPAU31@@Z ; std::allocator_traits<std::allocator<std::_List_node<GraveMarkers::GraveRecord,void *> > >::construct<std::_List_node<GraveMarkers::GraveRecord,void *> *,std::_List_node<GraveMarkers::GraveRecord,void *> * &>
PUBLIC	??$construct@UVector2D@@AAU1@@?$allocator@UVector2D@@@std@@QAEXPAUVector2D@@AAU2@@Z ; std::allocator<Vector2D>::construct<Vector2D,Vector2D &>
PUBLIC	??$construct@UVector2D@@ABU1@@?$allocator@UVector2D@@@std@@QAEXPAUVector2D@@ABU2@@Z ; std::allocator<Vector2D>::construct<Vector2D,Vector2D const &>
PUBLIC	??$construct@UVector2D@@U1@@?$allocator@UVector2D@@@std@@QAEXPAUVector2D@@$$QAU2@@Z ; std::allocator<Vector2D>::construct<Vector2D,Vector2D>
PUBLIC	??$_Unchecked@V?$_Vector_val@U?$_Simple_types@UVector2D@@@std@@@std@@@std@@YAPBUVector2D@@V?$_Vector_const_iterator@V?$_Vector_val@U?$_Simple_types@UVector2D@@@std@@@std@@@0@@Z ; std::_Unchecked<std::_Vector_val<std::_Simple_types<Vector2D> > >
PUBLIC	??$_Unchecked@PAUVector2D@@@std@@YAPAUVector2D@@PAU1@@Z ; std::_Unchecked<Vector2D *>
PUBLIC	??$_Uninit_copy@PBUVector2D@@PAU1@U?$_Wrap_alloc@V?$allocator@UVector2D@@@std@@@std@@@std@@YAPAUVector2D@@PBU1@0PAU1@AAU?$_Wrap_alloc@V?$allocator@UVector2D@@@std@@@0@@Z ; std::_Uninit_copy<Vector2D const *,Vector2D *,std::_Wrap_alloc<std::allocator<Vector2D> > >
PUBLIC	??$_Rechecked@PAUVector2D@@PAU1@@std@@YAAAPAUVector2D@@AAPAU1@PAU1@@Z ; std::_Rechecked<Vector2D *,Vector2D *>
PUBLIC	??$construct@UGraveRecord@GraveMarkers@@U12@@?$_Wrap_alloc@V?$allocator@U?$_List_node@UGraveRecord@GraveMarkers@@PAX@std@@@std@@@std@@QAEXPAUGraveRecord@GraveMarkers@@$$QAU23@@Z ; std::_Wrap_alloc<std::allocator<std::_List_node<GraveMarkers::GraveRecord,void *> > >::construct<GraveMarkers::GraveRecord,GraveMarkers::GraveRecord>
PUBLIC	??$destroy@PAU?$_List_node@UGraveRecord@GraveMarkers@@PAX@std@@@?$allocator@U?$_List_node@UGraveRecord@GraveMarkers@@PAX@std@@@std@@QAEXPAPAU?$_List_node@UGraveRecord@GraveMarkers@@PAX@1@@Z ; std::allocator<std::_List_node<GraveMarkers::GraveRecord,void *> >::destroy<std::_List_node<GraveMarkers::GraveRecord,void *> *>
PUBLIC	??$destroy@UGraveRecord@GraveMarkers@@@?$allocator@U?$_List_node@UGraveRecord@GraveMarkers@@PAX@std@@@std@@QAEXPAUGraveRecord@GraveMarkers@@@Z ; std::allocator<std::_List_node<GraveMarkers::GraveRecord,void *> >::destroy<GraveMarkers::GraveRecord>
PUBLIC	??$destroy@PAD@?$allocator@D@std@@QAEXPAPAD@Z	; std::allocator<char>::destroy<char *>
PUBLIC	??$construct@PADAAPAD@?$allocator@D@std@@QAEXPAPADAAPAD@Z ; std::allocator<char>::construct<char *,char * &>
PUBLIC	??$destroy@U_Container_proxy@std@@@?$allocator@U_Container_proxy@std@@@std@@QAEXPAU_Container_proxy@1@@Z ; std::allocator<std::_Container_proxy>::destroy<std::_Container_proxy>
PUBLIC	??$construct@U_Container_proxy@std@@U12@@?$allocator@U_Container_proxy@std@@@std@@QAEXPAU_Container_proxy@1@$$QAU21@@Z ; std::allocator<std::_Container_proxy>::construct<std::_Container_proxy,std::_Container_proxy>
PUBLIC	??$_Uninit_move@PAUVector2D@@PAU1@U?$_Wrap_alloc@V?$allocator@UVector2D@@@std@@@std@@@std@@YAPAUVector2D@@PAU1@00AAU?$_Wrap_alloc@V?$allocator@UVector2D@@@std@@@0@@Z ; std::_Uninit_move<Vector2D *,Vector2D *,std::_Wrap_alloc<std::allocator<Vector2D> > >
PUBLIC	??$destroy@UVector2D@@@?$_Wrap_alloc@V?$allocator@UVector2D@@@std@@@std@@QAEXPAUVector2D@@@Z ; std::_Wrap_alloc<std::allocator<Vector2D> >::destroy<Vector2D>
PUBLIC	??$construct@PAU?$_List_node@UGraveRecord@GraveMarkers@@PAX@std@@AAPAU12@@?$allocator@U?$_List_node@UGraveRecord@GraveMarkers@@PAX@std@@@std@@QAEXPAPAU?$_List_node@UGraveRecord@GraveMarkers@@PAX@1@AAPAU21@@Z ; std::allocator<std::_List_node<GraveMarkers::GraveRecord,void *> >::construct<std::_List_node<GraveMarkers::GraveRecord,void *> *,std::_List_node<GraveMarkers::GraveRecord,void *> * &>
PUBLIC	??$_Uninit_copy@PBUVector2D@@PAU1@V?$allocator@UVector2D@@@std@@@std@@YAPAUVector2D@@PBU1@0PAU1@AAU?$_Wrap_alloc@V?$allocator@UVector2D@@@std@@@0@U_Nonscalar_ptr_iterator_tag@0@@Z ; std::_Uninit_copy<Vector2D const *,Vector2D *,std::allocator<Vector2D> >
PUBLIC	??$construct@UGraveRecord@GraveMarkers@@U12@@?$allocator_traits@V?$allocator@U?$_List_node@UGraveRecord@GraveMarkers@@PAX@std@@@std@@@std@@SAXAAV?$allocator@U?$_List_node@UGraveRecord@GraveMarkers@@PAX@std@@@1@PAUGraveRecord@GraveMarkers@@$$QAU34@@Z ; std::allocator_traits<std::allocator<std::_List_node<GraveMarkers::GraveRecord,void *> > >::construct<GraveMarkers::GraveRecord,GraveMarkers::GraveRecord>
PUBLIC	??$_Val_type@PAUVector2D@@@std@@YAPAUVector2D@@PAU1@@Z ; std::_Val_type<Vector2D *>
PUBLIC	??$_Uninit_move@PAUVector2D@@PAU1@V?$allocator@UVector2D@@@std@@U1@@std@@YAPAUVector2D@@PAU1@00AAU?$_Wrap_alloc@V?$allocator@UVector2D@@@std@@@0@0U_Nonscalar_ptr_iterator_tag@0@@Z ; std::_Uninit_move<Vector2D *,Vector2D *,std::allocator<Vector2D>,Vector2D>
PUBLIC	??$destroy@UVector2D@@@?$allocator_traits@V?$allocator@UVector2D@@@std@@@std@@SAXAAV?$allocator@UVector2D@@@1@PAUVector2D@@@Z ; std::allocator_traits<std::allocator<Vector2D> >::destroy<Vector2D>
PUBLIC	??$_Debug_range_ptr@PBUVector2D@@PAU1@@std@@YAXPBUVector2D@@0AAPAU1@PB_WI@Z ; std::_Debug_range_ptr<Vector2D const *,Vector2D *>
PUBLIC	??$construct@UGraveRecord@GraveMarkers@@U12@@?$allocator@U?$_List_node@UGraveRecord@GraveMarkers@@PAX@std@@@std@@QAEXPAUGraveRecord@GraveMarkers@@$$QAU23@@Z ; std::allocator<std::_List_node<GraveMarkers::GraveRecord,void *> >::construct<GraveMarkers::GraveRecord,GraveMarkers::GraveRecord>
PUBLIC	??$_Debug_range_ptr@PAUVector2D@@PAU1@@std@@YAXPAUVector2D@@0AAPAU1@PB_WI@Z ; std::_Debug_range_ptr<Vector2D *,Vector2D *>
PUBLIC	??$destroy@UVector2D@@@?$allocator@UVector2D@@@std@@QAEXPAUVector2D@@@Z ; std::allocator<Vector2D>::destroy<Vector2D>
PUBLIC	??$_Iter_cat@PBUVector2D@@@std@@YA?AUrandom_access_iterator_tag@0@ABQBUVector2D@@@Z ; std::_Iter_cat<Vector2D const *>
PUBLIC	??$_Debug_range_ptr2@PBUVector2D@@PAU1@@std@@YAXPBUVector2D@@0AAPAU1@PB_WIUrandom_access_iterator_tag@0@@Z ; std::_Debug_range_ptr2<Vector2D const *,Vector2D *>
PUBLIC	??$_Iter_cat@PAUVector2D@@@std@@YA?AUrandom_access_iterator_tag@0@ABQAUVector2D@@@Z ; std::_Iter_cat<Vector2D *>
PUBLIC	??$_Debug_range_ptr2@PAUVector2D@@PAU1@@std@@YAXPAUVector2D@@0AAPAU1@PB_WIUrandom_access_iterator_tag@0@@Z ; std::_Debug_range_ptr2<Vector2D *,Vector2D *>
PUBLIC	??$_Debug_pointer@$$CBUVector2D@@@std@@YAXPBUVector2D@@PB_WI@Z ; std::_Debug_pointer<Vector2D const >
PUBLIC	??$_Debug_pointer@UVector2D@@@std@@YAXPAUVector2D@@PB_WI@Z ; std::_Debug_pointer<Vector2D>
PUBLIC	??_C@_1GI@DDIAPGKN@?$AAD?$AA?3?$AA?2?$AAM?$AAi?$AAc?$AAr?$AAo?$AAs?$AAo?$AAf?$AAt?$AA?5?$AAV?$AAi?$AAs?$AAu?$AAa?$AAl?$AA?5?$AAS?$AAt?$AAu?$AAd?$AAi?$AAo?$AA?5?$AA1?$AA4?$AA?4?$AA0?$AA?2@ ; `string'
PUBLIC	??_C@_1DC@POOIKBAO@?$AAI?$AAT?$AAE?$AAR?$AAA?$AAT?$AAO?$AAR?$AA?5?$AAL?$AAI?$AAS?$AAT?$AA?5?$AAC?$AAO?$AAR?$AAR?$AAU?$AAP?$AAT?$AAE?$AAD?$AA?$CB?$AA?$AA@ ; `string'
PUBLIC	??_C@_1GE@BNGOPDPB@?$AAD?$AA?3?$AA?2?$AAM?$AAi?$AAc?$AAr?$AAo?$AAs?$AAo?$AAf?$AAt?$AA?5?$AAV?$AAi?$AAs?$AAu?$AAa?$AAl?$AA?5?$AAS?$AAt?$AAu?$AAd?$AAi?$AAo?$AA?5?$AA1?$AA4?$AA?4?$AA0?$AA?2@ ; `string'
PUBLIC	??_C@_1DM@LHGCHCBA@?$AAv?$AAe?$AAc?$AAt?$AAo?$AAr?$AA?5?$AAs?$AAu?$AAb?$AAs?$AAc?$AAr?$AAi?$AAp?$AAt?$AA?5?$AAo?$AAu?$AAt?$AA?5?$AAo?$AAf?$AA?5?$AAr?$AAa?$AAn?$AAg?$AAe?$AA?$AA@ ; `string'
PUBLIC	??_C@_0CE@OFMIGAMM@Standard?5C?$CL?$CL?5Libraries?5Out?5of?5Ra@ ; `string'
PUBLIC	??_C@_1FG@IBPIFFN@?$AA?$CC?$AAS?$AAt?$AAa?$AAn?$AAd?$AAa?$AAr?$AAd?$AA?5?$AAC?$AA?$CL?$AA?$CL?$AA?5?$AAL?$AAi?$AAb?$AAr?$AAa?$AAr?$AAi?$AAe?$AAs?$AA?5?$AAO?$AAu?$AAt?$AA?5?$AAo?$AAf?$AA?5?$AAR@ ; `string'
PUBLIC	??_C@_17CNPHIMPH@?$AA?$CF?$AAl?$AAs?$AA?$AA@	; `string'
PUBLIC	??_C@_1KC@ILGGEGM@?$AAs?$AAt?$AAd?$AA?3?$AA?3?$AAv?$AAe?$AAc?$AAt?$AAo?$AAr?$AA?$DM?$AAs?$AAt?$AAr?$AAu?$AAc?$AAt?$AA?5?$AAV?$AAe?$AAc?$AAt?$AAo?$AAr?$AA2?$AAD?$AA?0?$AAc?$AAl?$AAa?$AAs@ ; `string'
PUBLIC	??_C@_1BO@MEPPHOO@?$AA?$CC?$AAo?$AAu?$AAt?$AA?5?$AAo?$AAf?$AA?5?$AAr?$AAa?$AAn?$AAg?$AAe?$AA?$CC?$AA?$AA@ ; `string'
PUBLIC	??_C@_1GG@PGPFJPKM@?$AAD?$AA?3?$AA?2?$AAM?$AAi?$AAc?$AAr?$AAo?$AAs?$AAo?$AAf?$AAt?$AA?5?$AAV?$AAi?$AAs?$AAu?$AAa?$AAl?$AA?5?$AAS?$AAt?$AAu?$AAd?$AAi?$AAo?$AA?5?$AA1?$AA4?$AA?4?$AA0?$AA?2@ ; `string'
PUBLIC	??_C@_1GA@IINJPBGE@?$AAD?$AA?3?$AA?2?$AAM?$AAi?$AAc?$AAr?$AAo?$AAs?$AAo?$AAf?$AAt?$AA?5?$AAV?$AAi?$AAs?$AAu?$AAa?$AAl?$AA?5?$AAS?$AAt?$AAu?$AAd?$AAi?$AAo?$AA?5?$AA1?$AA4?$AA?4?$AA0?$AA?2@ ; `string'
PUBLIC	??_C@_1DI@MDELDGPI@?$AAl?$AAi?$AAs?$AAt?$AA?5?$AAi?$AAt?$AAe?$AAr?$AAa?$AAt?$AAo?$AAr?$AAs?$AA?5?$AAi?$AAn?$AAc?$AAo?$AAm?$AAp?$AAa?$AAt?$AAi?$AAb?$AAl?$AAe?$AA?$AA@ ; `string'
PUBLIC	??_C@_0CI@FNPHFCCM@Standard?5C?$CL?$CL?5Libraries?5Invalid?5A@ ; `string'
PUBLIC	??_C@_1FO@GJIHNDLM@?$AA?$CC?$AAS?$AAt?$AAa?$AAn?$AAd?$AAa?$AAr?$AAd?$AA?5?$AAC?$AA?$CL?$AA?$CL?$AA?5?$AAL?$AAi?$AAb?$AAr?$AAa?$AAr?$AAi?$AAe?$AAs?$AA?5?$AAI?$AAn?$AAv?$AAa?$AAl?$AAi?$AAd?$AA?5@ ; `string'
PUBLIC	??_C@_1BAC@GABKONCL@?$AAs?$AAt?$AAd?$AA?3?$AA?3?$AA_?$AAL?$AAi?$AAs?$AAt?$AA_?$AAc?$AAo?$AAn?$AAs?$AAt?$AA_?$AAi?$AAt?$AAe?$AAr?$AAa?$AAt?$AAo?$AAr?$AA?$DM?$AAc?$AAl?$AAa?$AAs?$AAs?$AA?5@ ; `string'
PUBLIC	??_C@_1CG@JNLFBNGN@?$AA?$CC?$AAi?$AAn?$AAv?$AAa?$AAl?$AAi?$AAd?$AA?5?$AAa?$AAr?$AAg?$AAu?$AAm?$AAe?$AAn?$AAt?$AA?$CC?$AA?$AA@ ; `string'
PUBLIC	??_C@_1EA@DOGAGKDH@?$AAl?$AAi?$AAs?$AAt?$AA?5?$AAi?$AAt?$AAe?$AAr?$AAa?$AAt?$AAo?$AAr?$AA?5?$AAn?$AAo?$AAt?$AA?5?$AAi?$AAn?$AAc?$AAr?$AAe?$AAm?$AAe?$AAn?$AAt?$AAa?$AAb?$AAl?$AAe?$AA?$AA@ ; `string'
PUBLIC	??_C@_1BAC@MAOHAEOO@?$AAs?$AAt?$AAd?$AA?3?$AA?3?$AA_?$AAL?$AAi?$AAs?$AAt?$AA_?$AAc?$AAo?$AAn?$AAs?$AAt?$AA_?$AAi?$AAt?$AAe?$AAr?$AAa?$AAt?$AAo?$AAr?$AA?$DM?$AAc?$AAl?$AAa?$AAs?$AAs?$AA?5@ ; `string'
PUBLIC	??_C@_1EE@BBMFLDOC@?$AAl?$AAi?$AAs?$AAt?$AA?5?$AAe?$AAr?$AAa?$AAs?$AAe?$AA?5?$AAi?$AAt?$AAe?$AAr?$AAa?$AAt?$AAo?$AAr?$AA?5?$AAo?$AAu?$AAt?$AAs?$AAi?$AAd?$AAe?$AA?5?$AAr?$AAa?$AAn?$AAg@ ; `string'
PUBLIC	??_C@_1EC@HILJLMMC@?$AAl?$AAi?$AAs?$AAt?$AA?5?$AAi?$AAt?$AAe?$AAr?$AAa?$AAt?$AAo?$AAr?$AA?5?$AAn?$AAo?$AAt?$AA?5?$AAd?$AAe?$AAr?$AAe?$AAf?$AAe?$AAr?$AAe?$AAn?$AAc?$AAa?$AAb?$AAl?$AAe@ ; `string'
PUBLIC	??_C@_1BAA@MOJEOHPG@?$AAs?$AAt?$AAd?$AA?3?$AA?3?$AA_?$AAL?$AAi?$AAs?$AAt?$AA_?$AAc?$AAo?$AAn?$AAs?$AAt?$AA_?$AAi?$AAt?$AAe?$AAr?$AAa?$AAt?$AAo?$AAr?$AA?$DM?$AAc?$AAl?$AAa?$AAs?$AAs?$AA?5@ ; `string'
PUBLIC	??_C@_0BD@OLBABOEK@vector?$DMT?$DO?5too?5long?$AA@ ; `string'
PUBLIC	??_C@_0BI@CFPLBAOH@invalid?5string?5position?$AA@ ; `string'
PUBLIC	??_C@_0BA@JFNIOLAK@string?5too?5long?$AA@	; `string'
PUBLIC	??_C@_1CK@EOPGIILJ@?$AAi?$AAn?$AAv?$AAa?$AAl?$AAi?$AAd?$AA?5?$AAn?$AAu?$AAl?$AAl?$AA?5?$AAp?$AAo?$AAi?$AAn?$AAt?$AAe?$AAr?$AA?$AA@ ; `string'
PUBLIC	??_C@_0CG@FHBDFCGK@_Count?5?$DM?$DN?5?$CIsize_t?$CJ?$CI?91?$CJ?5?1?5sizeof?5@ ; `string'
PUBLIC	??_C@_1FK@EJGLHMGC@?$AA?$CC?$AA_?$AAC?$AAo?$AAu?$AAn?$AAt?$AA?5?$AA?$DM?$AA?$DN?$AA?5?$AA?$CI?$AAs?$AAi?$AAz?$AAe?$AA_?$AAt?$AA?$CJ?$AA?$CI?$AA?9?$AA1?$AA?$CJ?$AA?5?$AA?1?$AA?5?$AAs?$AAi?$AAz?$AAe?$AAo?$AAf@ ; `string'
PUBLIC	??_C@_1GI@MOGLCDAO@?$AAD?$AA?3?$AA?2?$AAM?$AAi?$AAc?$AAr?$AAo?$AAs?$AAo?$AAf?$AAt?$AA?5?$AAV?$AAi?$AAs?$AAu?$AAa?$AAl?$AA?5?$AAS?$AAt?$AAu?$AAd?$AAi?$AAo?$AA?5?$AA1?$AA4?$AA?4?$AA0?$AA?2@ ; `string'
PUBLIC	??_C@_1CC@LOFJFFDB@?$AAs?$AAt?$AAd?$AA?3?$AA?3?$AA_?$AAD?$AAe?$AAa?$AAl?$AAl?$AAo?$AAc?$AAa?$AAt?$AAe?$AA?$AA@ ; `string'
PUBLIC	??_C@_0DD@GBGGGKGG@?$CI_Ptr_user?5?$CG?5?$CI_BIG_ALLOCATION_AL@ ; `string'
PUBLIC	??_C@_1HE@CDMBFOKC@?$AA?$CC?$AA?$CI?$AA_?$AAP?$AAt?$AAr?$AA_?$AAu?$AAs?$AAe?$AAr?$AA?5?$AA?$CG?$AA?5?$AA?$CI?$AA_?$AAB?$AAI?$AAG?$AA_?$AAA?$AAL?$AAL?$AAO?$AAC?$AAA?$AAT?$AAI?$AAO?$AAN?$AA_?$AAA@ ; `string'
PUBLIC	??_C@_0EI@NOJHEJCJ@reinterpret_cast?$DMuintptr_t?5?$CK?$DO?$CI_P@ ; `string'
PUBLIC	??_C@_1JO@EKLKIEHP@?$AA?$CC?$AAr?$AAe?$AAi?$AAn?$AAt?$AAe?$AAr?$AAp?$AAr?$AAe?$AAt?$AA_?$AAc?$AAa?$AAs?$AAt?$AA?$DM?$AAu?$AAi?$AAn?$AAt?$AAp?$AAt?$AAr?$AA_?$AAt?$AA?5?$AA?$CK?$AA?$DO?$AA?$CI?$AA_@ ; `string'
PUBLIC	??_C@_0BL@OCKMEJON@_Ptr_container?5?$DM?5_Ptr_user?$AA@ ; `string'
PUBLIC	??_C@_1EE@PDHAHDDC@?$AA?$CC?$AA_?$AAP?$AAt?$AAr?$AA_?$AAc?$AAo?$AAn?$AAt?$AAa?$AAi?$AAn?$AAe?$AAr?$AA?5?$AA?$DM?$AA?5?$AA_?$AAP?$AAt?$AAr?$AA_?$AAu?$AAs?$AAe?$AAr?$AA?$CC?$AA?5?$AA?$CG?$AA?$CG?$AA?5@ ; `string'
PUBLIC	??_C@_0DB@GLFJLNCE@2?5?$CK?5sizeof?$CIvoid?5?$CK?$CJ?5?$DM?$DN?5_Ptr_user?5@ ; `string'
PUBLIC	??_C@_1HA@NAPGMHAO@?$AA?$CC?$AA2?$AA?5?$AA?$CK?$AA?5?$AAs?$AAi?$AAz?$AAe?$AAo?$AAf?$AA?$CI?$AAv?$AAo?$AAi?$AAd?$AA?5?$AA?$CK?$AA?$CJ?$AA?5?$AA?$DM?$AA?$DN?$AA?5?$AA_?$AAP?$AAt?$AAr?$AA_?$AAu?$AAs?$AAe?$AAr@ ; `string'
PUBLIC	??_C@_0CN@BLHJCAL@_Ptr_user?5?9?5_Ptr_container?5?$DM?$DN?5_N@ ; `string'
PUBLIC	??_C@_1GI@DHJGPFNI@?$AA?$CC?$AA_?$AAP?$AAt?$AAr?$AA_?$AAu?$AAs?$AAe?$AAr?$AA?5?$AA?9?$AA?5?$AA_?$AAP?$AAt?$AAr?$AA_?$AAc?$AAo?$AAn?$AAt?$AAa?$AAi?$AAn?$AAe?$AAr?$AA?5?$AA?$DM?$AA?$DN?$AA?5?$AA_@ ; `string'
PUBLIC	??_C@_0BE@LMNLACIC@_Ptr_container?5?$CB?$DN?50?$AA@ ; `string'
PUBLIC	??_C@_1DG@HGDKEBPG@?$AA?$CC?$AA_?$AAP?$AAt?$AAr?$AA_?$AAc?$AAo?$AAn?$AAt?$AAa?$AAi?$AAn?$AAe?$AAr?$AA?5?$AA?$CB?$AA?$DN?$AA?5?$AA0?$AA?$CC?$AA?5?$AA?$CG?$AA?$CG?$AA?5?$AA0?$AA?$AA@ ; `string'
PUBLIC	??_C@_1BO@NKFMJPA@?$AAs?$AAt?$AAd?$AA?3?$AA?3?$AA_?$AAA?$AAl?$AAl?$AAo?$AAc?$AAa?$AAt?$AAe?$AA?$AA@ ; `string'
PUBLIC	??_C@_09GLJCAGLP@_Ptr?5?$CB?$DN?50?$AA@		; `string'
PUBLIC	??_C@_1CC@GKJLLHIM@?$AA?$CC?$AA_?$AAP?$AAt?$AAr?$AA?5?$AA?$CB?$AA?$DN?$AA?5?$AA0?$AA?$CC?$AA?5?$AA?$CG?$AA?$CG?$AA?5?$AA0?$AA?$AA@ ; `string'
PUBLIC	??_C@_0BB@MOGOBHAF@list?$DMT?$DO?5too?5long?$AA@ ; `string'
PUBLIC	??_C@_1CO@DGLIKNHI@?$AAi?$AAn?$AAv?$AAa?$AAl?$AAi?$AAd?$AA?5?$AAi?$AAt?$AAe?$AAr?$AAa?$AAt?$AAo?$AAr?$AA?5?$AAr?$AAa?$AAn?$AAg?$AAe?$AA?$AA@ ; `string'
PUBLIC	??_C@_1GG@BIHJGGHN@?$AAD?$AA?3?$AA?2?$AAM?$AAi?$AAc?$AAr?$AAo?$AAs?$AAo?$AAf?$AAt?$AA?5?$AAV?$AAi?$AAs?$AAu?$AAa?$AAl?$AA?5?$AAS?$AAt?$AAu?$AAd?$AAi?$AAo?$AA?5?$AA1?$AA4?$AA?4?$AA0?$AA?2@ ; `string'
PUBLIC	__real@0000000000000000
PUBLIC	__real@0010000000000000
PUBLIC	__real@00800000
PUBLIC	__real@3f50624dd2f1a9fc
PUBLIC	__real@3ff0000000000000
PUBLIC	__real@4008000000000000
PUBLIC	__real@4010000000000000
PUBLIC	__real@4014000000000000
PUBLIC	__real@4018000000000000
PUBLIC	__real@4024000000000000
PUBLIC	__real@7f7fffff
PUBLIC	__real@7fefffffffffffff
PUBLIC	__real@bff0000000000000
PUBLIC	__real@c008000000000000
PUBLIC	__real@c010000000000000
PUBLIC	__real@c014000000000000
PUBLIC	__xmm@41f00000000000000000000000000000
PUBLIC	__xmm@80000000000000008000000000000000
EXTRN	??2@YAPAXI@Z:PROC				; operator new
EXTRN	??3@YAXPAX@Z:PROC				; operator delete
EXTRN	__invalid_parameter:PROC
EXTRN	??0_Lockit@std@@QAE@H@Z:PROC			; std::_Lockit::_Lockit
EXTRN	??1_Lockit@std@@QAE@XZ:PROC			; std::_Lockit::~_Lockit
EXTRN	_memcpy:PROC
EXTRN	_memmove:PROC
EXTRN	_strlen:PROC
EXTRN	__CrtDbgReportW:PROC
EXTRN	?_Debug_message@std@@YAXPB_W0I@Z:PROC		; std::_Debug_message
EXTRN	?_Xbad_alloc@std@@YAXXZ:PROC			; std::_Xbad_alloc
EXTRN	?_Xlength_error@std@@YAXPBD@Z:PROC		; std::_Xlength_error
EXTRN	?_Xout_of_range@std@@YAXPBD@Z:PROC		; std::_Xout_of_range
EXTRN	__imp__LineTo@12:PROC
EXTRN	__imp__SelectObject@8:PROC
EXTRN	__imp__SetTextColor@8:PROC
EXTRN	__imp__MoveToEx@16:PROC
EXTRN	__imp__TextOutA@20:PROC
EXTRN	__imp__timeGetTime@0:PROC
EXTRN	?Instance@CrudeTimer@@SAPAV1@XZ:PROC		; CrudeTimer::Instance
EXTRN	?Instance@Cgdi@@SAPAV1@XZ:PROC			; Cgdi::Instance
EXTRN	@_RTC_CheckStackVars@8:PROC
EXTRN	@__security_check_cookie@4:PROC
EXTRN	__CxxThrowException@8:PROC
EXTRN	__RTC_CheckEsp:PROC
EXTRN	__RTC_InitBase:PROC
EXTRN	__RTC_Shutdown:PROC
EXTRN	___CxxFrameHandler3:PROC
EXTRN	___security_cookie:DWORD
EXTRN	__fltused:DWORD
_BSS	SEGMENT
?MaxInt@@3HB DD	01H DUP (?)				; MaxInt
	ALIGN	8

?MaxDouble@@3NB DQ 01H DUP (?)				; MaxDouble
?MinDouble@@3NB DQ 01H DUP (?)				; MinDouble
?MaxFloat@@3MB DD 01H DUP (?)				; MaxFloat
?MinFloat@@3MB DD 01H DUP (?)				; MinFloat
_BSS	ENDS
CRT$XCU	SEGMENT
?MaxInt$initializer$@@3P6AXXZA DD FLAT:??__EMaxInt@@YAXXZ ; MaxInt$initializer$
CRT$XCU	ENDS
;	COMDAT __xmm@80000000000000008000000000000000
CONST	SEGMENT
__xmm@80000000000000008000000000000000 DB 00H, 00H, 00H, 00H, 00H, 00H, 00H
	DB	080H, 00H, 00H, 00H, 00H, 00H, 00H, 00H, 080H
CONST	ENDS
;	COMDAT __xmm@41f00000000000000000000000000000
CONST	SEGMENT
__xmm@41f00000000000000000000000000000 DB 00H, 00H, 00H, 00H, 00H, 00H, 00H
	DB	00H, 00H, 00H, 00H, 00H, 00H, 00H, 0f0H, 'A'
CONST	ENDS
;	COMDAT __real@c014000000000000
CONST	SEGMENT
__real@c014000000000000 DQ 0c014000000000000r	; -5
CONST	ENDS
;	COMDAT __real@c010000000000000
CONST	SEGMENT
__real@c010000000000000 DQ 0c010000000000000r	; -4
CONST	ENDS
;	COMDAT __real@c008000000000000
CONST	SEGMENT
__real@c008000000000000 DQ 0c008000000000000r	; -3
CONST	ENDS
;	COMDAT __real@bff0000000000000
CONST	SEGMENT
__real@bff0000000000000 DQ 0bff0000000000000r	; -1
CONST	ENDS
;	COMDAT __real@7fefffffffffffff
CONST	SEGMENT
__real@7fefffffffffffff DQ 07fefffffffffffffr	; 1.79769e+308
CONST	ENDS
;	COMDAT __real@7f7fffff
CONST	SEGMENT
__real@7f7fffff DD 07f7fffffr			; 3.40282e+38
CONST	ENDS
;	COMDAT __real@4024000000000000
CONST	SEGMENT
__real@4024000000000000 DQ 04024000000000000r	; 10
CONST	ENDS
;	COMDAT __real@4018000000000000
CONST	SEGMENT
__real@4018000000000000 DQ 04018000000000000r	; 6
CONST	ENDS
;	COMDAT __real@4014000000000000
CONST	SEGMENT
__real@4014000000000000 DQ 04014000000000000r	; 5
CONST	ENDS
;	COMDAT __real@4010000000000000
CONST	SEGMENT
__real@4010000000000000 DQ 04010000000000000r	; 4
CONST	ENDS
;	COMDAT __real@4008000000000000
CONST	SEGMENT
__real@4008000000000000 DQ 04008000000000000r	; 3
CONST	ENDS
;	COMDAT __real@3ff0000000000000
CONST	SEGMENT
__real@3ff0000000000000 DQ 03ff0000000000000r	; 1
CONST	ENDS
;	COMDAT __real@3f50624dd2f1a9fc
CONST	SEGMENT
__real@3f50624dd2f1a9fc DQ 03f50624dd2f1a9fcr	; 0.001
CONST	ENDS
;	COMDAT __real@00800000
CONST	SEGMENT
__real@00800000 DD 000800000r			; 1.17549e-38
CONST	ENDS
;	COMDAT __real@0010000000000000
CONST	SEGMENT
__real@0010000000000000 DQ 00010000000000000r	; 2.22507e-308
CONST	ENDS
;	COMDAT __real@0000000000000000
CONST	SEGMENT
__real@0000000000000000 DQ 00000000000000000r	; 0
CONST	ENDS
;	COMDAT rtc$TMZ
rtc$TMZ	SEGMENT
__RTC_Shutdown.rtc$TMZ DD FLAT:__RTC_Shutdown
rtc$TMZ	ENDS
;	COMDAT rtc$IMZ
rtc$IMZ	SEGMENT
__RTC_InitBase.rtc$IMZ DD FLAT:__RTC_InitBase
rtc$IMZ	ENDS
;	COMDAT ??_C@_1GG@BIHJGGHN@?$AAD?$AA?3?$AA?2?$AAM?$AAi?$AAc?$AAr?$AAo?$AAs?$AAo?$AAf?$AAt?$AA?5?$AAV?$AAi?$AAs?$AAu?$AAa?$AAl?$AA?5?$AAS?$AAt?$AAu?$AAd?$AAi?$AAo?$AA?5?$AA1?$AA4?$AA?4?$AA0?$AA?2@
CONST	SEGMENT
??_C@_1GG@BIHJGGHN@?$AAD?$AA?3?$AA?2?$AAM?$AAi?$AAc?$AAr?$AAo?$AAs?$AAo?$AAf?$AAt?$AA?5?$AAV?$AAi?$AAs?$AAu?$AAa?$AAl?$AA?5?$AAS?$AAt?$AAu?$AAd?$AAi?$AAo?$AA?5?$AA1?$AA4?$AA?4?$AA0?$AA?2@ DB 'D'
	DB	00H, ':', 00H, '\', 00H, 'M', 00H, 'i', 00H, 'c', 00H, 'r', 00H
	DB	'o', 00H, 's', 00H, 'o', 00H, 'f', 00H, 't', 00H, ' ', 00H, 'V'
	DB	00H, 'i', 00H, 's', 00H, 'u', 00H, 'a', 00H, 'l', 00H, ' ', 00H
	DB	'S', 00H, 't', 00H, 'u', 00H, 'd', 00H, 'i', 00H, 'o', 00H, ' '
	DB	00H, '1', 00H, '4', 00H, '.', 00H, '0', 00H, '\', 00H, 'V', 00H
	DB	'C', 00H, '\', 00H, 'i', 00H, 'n', 00H, 'c', 00H, 'l', 00H, 'u'
	DB	00H, 'd', 00H, 'e', 00H, '\', 00H, 'x', 00H, 'm', 00H, 'e', 00H
	DB	'm', 00H, 'o', 00H, 'r', 00H, 'y', 00H, 00H, 00H ; `string'
CONST	ENDS
;	COMDAT ??_C@_1CO@DGLIKNHI@?$AAi?$AAn?$AAv?$AAa?$AAl?$AAi?$AAd?$AA?5?$AAi?$AAt?$AAe?$AAr?$AAa?$AAt?$AAo?$AAr?$AA?5?$AAr?$AAa?$AAn?$AAg?$AAe?$AA?$AA@
CONST	SEGMENT
??_C@_1CO@DGLIKNHI@?$AAi?$AAn?$AAv?$AAa?$AAl?$AAi?$AAd?$AA?5?$AAi?$AAt?$AAe?$AAr?$AAa?$AAt?$AAo?$AAr?$AA?5?$AAr?$AAa?$AAn?$AAg?$AAe?$AA?$AA@ DB 'i'
	DB	00H, 'n', 00H, 'v', 00H, 'a', 00H, 'l', 00H, 'i', 00H, 'd', 00H
	DB	' ', 00H, 'i', 00H, 't', 00H, 'e', 00H, 'r', 00H, 'a', 00H, 't'
	DB	00H, 'o', 00H, 'r', 00H, ' ', 00H, 'r', 00H, 'a', 00H, 'n', 00H
	DB	'g', 00H, 'e', 00H, 00H, 00H			; `string'
CONST	ENDS
;	COMDAT ??_C@_0BB@MOGOBHAF@list?$DMT?$DO?5too?5long?$AA@
CONST	SEGMENT
??_C@_0BB@MOGOBHAF@list?$DMT?$DO?5too?5long?$AA@ DB 'list<T> too long', 00H ; `string'
CONST	ENDS
;	COMDAT ??_C@_1CC@GKJLLHIM@?$AA?$CC?$AA_?$AAP?$AAt?$AAr?$AA?5?$AA?$CB?$AA?$DN?$AA?5?$AA0?$AA?$CC?$AA?5?$AA?$CG?$AA?$CG?$AA?5?$AA0?$AA?$AA@
CONST	SEGMENT
??_C@_1CC@GKJLLHIM@?$AA?$CC?$AA_?$AAP?$AAt?$AAr?$AA?5?$AA?$CB?$AA?$DN?$AA?5?$AA0?$AA?$CC?$AA?5?$AA?$CG?$AA?$CG?$AA?5?$AA0?$AA?$AA@ DB '"'
	DB	00H, '_', 00H, 'P', 00H, 't', 00H, 'r', 00H, ' ', 00H, '!', 00H
	DB	'=', 00H, ' ', 00H, '0', 00H, '"', 00H, ' ', 00H, '&', 00H, '&'
	DB	00H, ' ', 00H, '0', 00H, 00H, 00H		; `string'
CONST	ENDS
;	COMDAT ??_C@_09GLJCAGLP@_Ptr?5?$CB?$DN?50?$AA@
CONST	SEGMENT
??_C@_09GLJCAGLP@_Ptr?5?$CB?$DN?50?$AA@ DB '_Ptr != 0', 00H ; `string'
CONST	ENDS
;	COMDAT ??_C@_1BO@NKFMJPA@?$AAs?$AAt?$AAd?$AA?3?$AA?3?$AA_?$AAA?$AAl?$AAl?$AAo?$AAc?$AAa?$AAt?$AAe?$AA?$AA@
CONST	SEGMENT
??_C@_1BO@NKFMJPA@?$AAs?$AAt?$AAd?$AA?3?$AA?3?$AA_?$AAA?$AAl?$AAl?$AAo?$AAc?$AAa?$AAt?$AAe?$AA?$AA@ DB 's'
	DB	00H, 't', 00H, 'd', 00H, ':', 00H, ':', 00H, '_', 00H, 'A', 00H
	DB	'l', 00H, 'l', 00H, 'o', 00H, 'c', 00H, 'a', 00H, 't', 00H, 'e'
	DB	00H, 00H, 00H				; `string'
CONST	ENDS
;	COMDAT ??_C@_1DG@HGDKEBPG@?$AA?$CC?$AA_?$AAP?$AAt?$AAr?$AA_?$AAc?$AAo?$AAn?$AAt?$AAa?$AAi?$AAn?$AAe?$AAr?$AA?5?$AA?$CB?$AA?$DN?$AA?5?$AA0?$AA?$CC?$AA?5?$AA?$CG?$AA?$CG?$AA?5?$AA0?$AA?$AA@
CONST	SEGMENT
??_C@_1DG@HGDKEBPG@?$AA?$CC?$AA_?$AAP?$AAt?$AAr?$AA_?$AAc?$AAo?$AAn?$AAt?$AAa?$AAi?$AAn?$AAe?$AAr?$AA?5?$AA?$CB?$AA?$DN?$AA?5?$AA0?$AA?$CC?$AA?5?$AA?$CG?$AA?$CG?$AA?5?$AA0?$AA?$AA@ DB '"'
	DB	00H, '_', 00H, 'P', 00H, 't', 00H, 'r', 00H, '_', 00H, 'c', 00H
	DB	'o', 00H, 'n', 00H, 't', 00H, 'a', 00H, 'i', 00H, 'n', 00H, 'e'
	DB	00H, 'r', 00H, ' ', 00H, '!', 00H, '=', 00H, ' ', 00H, '0', 00H
	DB	'"', 00H, ' ', 00H, '&', 00H, '&', 00H, ' ', 00H, '0', 00H, 00H
	DB	00H						; `string'
CONST	ENDS
;	COMDAT ??_C@_0BE@LMNLACIC@_Ptr_container?5?$CB?$DN?50?$AA@
CONST	SEGMENT
??_C@_0BE@LMNLACIC@_Ptr_container?5?$CB?$DN?50?$AA@ DB '_Ptr_container !='
	DB	' 0', 00H					; `string'
CONST	ENDS
;	COMDAT ??_C@_1GI@DHJGPFNI@?$AA?$CC?$AA_?$AAP?$AAt?$AAr?$AA_?$AAu?$AAs?$AAe?$AAr?$AA?5?$AA?9?$AA?5?$AA_?$AAP?$AAt?$AAr?$AA_?$AAc?$AAo?$AAn?$AAt?$AAa?$AAi?$AAn?$AAe?$AAr?$AA?5?$AA?$DM?$AA?$DN?$AA?5?$AA_@
CONST	SEGMENT
??_C@_1GI@DHJGPFNI@?$AA?$CC?$AA_?$AAP?$AAt?$AAr?$AA_?$AAu?$AAs?$AAe?$AAr?$AA?5?$AA?9?$AA?5?$AA_?$AAP?$AAt?$AAr?$AA_?$AAc?$AAo?$AAn?$AAt?$AAa?$AAi?$AAn?$AAe?$AAr?$AA?5?$AA?$DM?$AA?$DN?$AA?5?$AA_@ DB '"'
	DB	00H, '_', 00H, 'P', 00H, 't', 00H, 'r', 00H, '_', 00H, 'u', 00H
	DB	's', 00H, 'e', 00H, 'r', 00H, ' ', 00H, '-', 00H, ' ', 00H, '_'
	DB	00H, 'P', 00H, 't', 00H, 'r', 00H, '_', 00H, 'c', 00H, 'o', 00H
	DB	'n', 00H, 't', 00H, 'a', 00H, 'i', 00H, 'n', 00H, 'e', 00H, 'r'
	DB	00H, ' ', 00H, '<', 00H, '=', 00H, ' ', 00H, '_', 00H, 'N', 00H
	DB	'O', 00H, 'N', 00H, '_', 00H, 'U', 00H, 'S', 00H, 'E', 00H, 'R'
	DB	00H, '_', 00H, 'S', 00H, 'I', 00H, 'Z', 00H, 'E', 00H, '"', 00H
	DB	' ', 00H, '&', 00H, '&', 00H, ' ', 00H, '0', 00H, 00H, 00H ; `string'
CONST	ENDS
;	COMDAT ??_C@_0CN@BLHJCAL@_Ptr_user?5?9?5_Ptr_container?5?$DM?$DN?5_N@
CONST	SEGMENT
??_C@_0CN@BLHJCAL@_Ptr_user?5?9?5_Ptr_container?5?$DM?$DN?5_N@ DB '_Ptr_u'
	DB	'ser - _Ptr_container <= _NON_USER_SIZE', 00H ; `string'
CONST	ENDS
;	COMDAT ??_C@_1HA@NAPGMHAO@?$AA?$CC?$AA2?$AA?5?$AA?$CK?$AA?5?$AAs?$AAi?$AAz?$AAe?$AAo?$AAf?$AA?$CI?$AAv?$AAo?$AAi?$AAd?$AA?5?$AA?$CK?$AA?$CJ?$AA?5?$AA?$DM?$AA?$DN?$AA?5?$AA_?$AAP?$AAt?$AAr?$AA_?$AAu?$AAs?$AAe?$AAr@
CONST	SEGMENT
??_C@_1HA@NAPGMHAO@?$AA?$CC?$AA2?$AA?5?$AA?$CK?$AA?5?$AAs?$AAi?$AAz?$AAe?$AAo?$AAf?$AA?$CI?$AAv?$AAo?$AAi?$AAd?$AA?5?$AA?$CK?$AA?$CJ?$AA?5?$AA?$DM?$AA?$DN?$AA?5?$AA_?$AAP?$AAt?$AAr?$AA_?$AAu?$AAs?$AAe?$AAr@ DB '"'
	DB	00H, '2', 00H, ' ', 00H, '*', 00H, ' ', 00H, 's', 00H, 'i', 00H
	DB	'z', 00H, 'e', 00H, 'o', 00H, 'f', 00H, '(', 00H, 'v', 00H, 'o'
	DB	00H, 'i', 00H, 'd', 00H, ' ', 00H, '*', 00H, ')', 00H, ' ', 00H
	DB	'<', 00H, '=', 00H, ' ', 00H, '_', 00H, 'P', 00H, 't', 00H, 'r'
	DB	00H, '_', 00H, 'u', 00H, 's', 00H, 'e', 00H, 'r', 00H, ' ', 00H
	DB	'-', 00H, ' ', 00H, '_', 00H, 'P', 00H, 't', 00H, 'r', 00H, '_'
	DB	00H, 'c', 00H, 'o', 00H, 'n', 00H, 't', 00H, 'a', 00H, 'i', 00H
	DB	'n', 00H, 'e', 00H, 'r', 00H, '"', 00H, ' ', 00H, '&', 00H, '&'
	DB	00H, ' ', 00H, '0', 00H, 00H, 00H		; `string'
CONST	ENDS
;	COMDAT ??_C@_0DB@GLFJLNCE@2?5?$CK?5sizeof?$CIvoid?5?$CK?$CJ?5?$DM?$DN?5_Ptr_user?5@
CONST	SEGMENT
??_C@_0DB@GLFJLNCE@2?5?$CK?5sizeof?$CIvoid?5?$CK?$CJ?5?$DM?$DN?5_Ptr_user?5@ DB '2'
	DB	' * sizeof(void *) <= _Ptr_user - _Ptr_container', 00H ; `string'
CONST	ENDS
;	COMDAT ??_C@_1EE@PDHAHDDC@?$AA?$CC?$AA_?$AAP?$AAt?$AAr?$AA_?$AAc?$AAo?$AAn?$AAt?$AAa?$AAi?$AAn?$AAe?$AAr?$AA?5?$AA?$DM?$AA?5?$AA_?$AAP?$AAt?$AAr?$AA_?$AAu?$AAs?$AAe?$AAr?$AA?$CC?$AA?5?$AA?$CG?$AA?$CG?$AA?5@
CONST	SEGMENT
??_C@_1EE@PDHAHDDC@?$AA?$CC?$AA_?$AAP?$AAt?$AAr?$AA_?$AAc?$AAo?$AAn?$AAt?$AAa?$AAi?$AAn?$AAe?$AAr?$AA?5?$AA?$DM?$AA?5?$AA_?$AAP?$AAt?$AAr?$AA_?$AAu?$AAs?$AAe?$AAr?$AA?$CC?$AA?5?$AA?$CG?$AA?$CG?$AA?5@ DB '"'
	DB	00H, '_', 00H, 'P', 00H, 't', 00H, 'r', 00H, '_', 00H, 'c', 00H
	DB	'o', 00H, 'n', 00H, 't', 00H, 'a', 00H, 'i', 00H, 'n', 00H, 'e'
	DB	00H, 'r', 00H, ' ', 00H, '<', 00H, ' ', 00H, '_', 00H, 'P', 00H
	DB	't', 00H, 'r', 00H, '_', 00H, 'u', 00H, 's', 00H, 'e', 00H, 'r'
	DB	00H, '"', 00H, ' ', 00H, '&', 00H, '&', 00H, ' ', 00H, '0', 00H
	DB	00H, 00H					; `string'
CONST	ENDS
;	COMDAT ??_C@_0BL@OCKMEJON@_Ptr_container?5?$DM?5_Ptr_user?$AA@
CONST	SEGMENT
??_C@_0BL@OCKMEJON@_Ptr_container?5?$DM?5_Ptr_user?$AA@ DB '_Ptr_containe'
	DB	'r < _Ptr_user', 00H				; `string'
CONST	ENDS
;	COMDAT ??_C@_1JO@EKLKIEHP@?$AA?$CC?$AAr?$AAe?$AAi?$AAn?$AAt?$AAe?$AAr?$AAp?$AAr?$AAe?$AAt?$AA_?$AAc?$AAa?$AAs?$AAt?$AA?$DM?$AAu?$AAi?$AAn?$AAt?$AAp?$AAt?$AAr?$AA_?$AAt?$AA?5?$AA?$CK?$AA?$DO?$AA?$CI?$AA_@
CONST	SEGMENT
??_C@_1JO@EKLKIEHP@?$AA?$CC?$AAr?$AAe?$AAi?$AAn?$AAt?$AAe?$AAr?$AAp?$AAr?$AAe?$AAt?$AA_?$AAc?$AAa?$AAs?$AAt?$AA?$DM?$AAu?$AAi?$AAn?$AAt?$AAp?$AAt?$AAr?$AA_?$AAt?$AA?5?$AA?$CK?$AA?$DO?$AA?$CI?$AA_@ DB '"'
	DB	00H, 'r', 00H, 'e', 00H, 'i', 00H, 'n', 00H, 't', 00H, 'e', 00H
	DB	'r', 00H, 'p', 00H, 'r', 00H, 'e', 00H, 't', 00H, '_', 00H, 'c'
	DB	00H, 'a', 00H, 's', 00H, 't', 00H, '<', 00H, 'u', 00H, 'i', 00H
	DB	'n', 00H, 't', 00H, 'p', 00H, 't', 00H, 'r', 00H, '_', 00H, 't'
	DB	00H, ' ', 00H, '*', 00H, '>', 00H, '(', 00H, '_', 00H, 'P', 00H
	DB	't', 00H, 'r', 00H, '_', 00H, 'p', 00H, 't', 00H, 'r', 00H, ')'
	DB	00H, '[', 00H, '-', 00H, '1', 00H, ']', 00H, ' ', 00H, '=', 00H
	DB	'=', 00H, ' ', 00H, '_', 00H, 'B', 00H, 'I', 00H, 'G', 00H, '_'
	DB	00H, 'A', 00H, 'L', 00H, 'L', 00H, 'O', 00H, 'C', 00H, 'A', 00H
	DB	'T', 00H, 'I', 00H, 'O', 00H, 'N', 00H, '_', 00H, 'S', 00H, 'E'
	DB	00H, 'N', 00H, 'T', 00H, 'I', 00H, 'N', 00H, 'E', 00H, 'L', 00H
	DB	'"', 00H, ' ', 00H, '&', 00H, '&', 00H, ' ', 00H, '0', 00H, 00H
	DB	00H						; `string'
CONST	ENDS
;	COMDAT ??_C@_0EI@NOJHEJCJ@reinterpret_cast?$DMuintptr_t?5?$CK?$DO?$CI_P@
CONST	SEGMENT
??_C@_0EI@NOJHEJCJ@reinterpret_cast?$DMuintptr_t?5?$CK?$DO?$CI_P@ DB 'rei'
	DB	'nterpret_cast<uintptr_t *>(_Ptr_ptr)[-1] == _BIG_ALLOCATION_S'
	DB	'ENTINEL', 00H				; `string'
CONST	ENDS
;	COMDAT ??_C@_1HE@CDMBFOKC@?$AA?$CC?$AA?$CI?$AA_?$AAP?$AAt?$AAr?$AA_?$AAu?$AAs?$AAe?$AAr?$AA?5?$AA?$CG?$AA?5?$AA?$CI?$AA_?$AAB?$AAI?$AAG?$AA_?$AAA?$AAL?$AAL?$AAO?$AAC?$AAA?$AAT?$AAI?$AAO?$AAN?$AA_?$AAA@
CONST	SEGMENT
??_C@_1HE@CDMBFOKC@?$AA?$CC?$AA?$CI?$AA_?$AAP?$AAt?$AAr?$AA_?$AAu?$AAs?$AAe?$AAr?$AA?5?$AA?$CG?$AA?5?$AA?$CI?$AA_?$AAB?$AAI?$AAG?$AA_?$AAA?$AAL?$AAL?$AAO?$AAC?$AAA?$AAT?$AAI?$AAO?$AAN?$AA_?$AAA@ DB '"'
	DB	00H, '(', 00H, '_', 00H, 'P', 00H, 't', 00H, 'r', 00H, '_', 00H
	DB	'u', 00H, 's', 00H, 'e', 00H, 'r', 00H, ' ', 00H, '&', 00H, ' '
	DB	00H, '(', 00H, '_', 00H, 'B', 00H, 'I', 00H, 'G', 00H, '_', 00H
	DB	'A', 00H, 'L', 00H, 'L', 00H, 'O', 00H, 'C', 00H, 'A', 00H, 'T'
	DB	00H, 'I', 00H, 'O', 00H, 'N', 00H, '_', 00H, 'A', 00H, 'L', 00H
	DB	'I', 00H, 'G', 00H, 'N', 00H, 'M', 00H, 'E', 00H, 'N', 00H, 'T'
	DB	00H, ' ', 00H, '-', 00H, ' ', 00H, '1', 00H, ')', 00H, ')', 00H
	DB	' ', 00H, '=', 00H, '=', 00H, ' ', 00H, '0', 00H, '"', 00H, ' '
	DB	00H, '&', 00H, '&', 00H, ' ', 00H, '0', 00H, 00H, 00H ; `string'
CONST	ENDS
;	COMDAT ??_C@_0DD@GBGGGKGG@?$CI_Ptr_user?5?$CG?5?$CI_BIG_ALLOCATION_AL@
CONST	SEGMENT
??_C@_0DD@GBGGGKGG@?$CI_Ptr_user?5?$CG?5?$CI_BIG_ALLOCATION_AL@ DB '(_Ptr'
	DB	'_user & (_BIG_ALLOCATION_ALIGNMENT - 1)) == 0', 00H ; `string'
CONST	ENDS
;	COMDAT ??_C@_1CC@LOFJFFDB@?$AAs?$AAt?$AAd?$AA?3?$AA?3?$AA_?$AAD?$AAe?$AAa?$AAl?$AAl?$AAo?$AAc?$AAa?$AAt?$AAe?$AA?$AA@
CONST	SEGMENT
??_C@_1CC@LOFJFFDB@?$AAs?$AAt?$AAd?$AA?3?$AA?3?$AA_?$AAD?$AAe?$AAa?$AAl?$AAl?$AAo?$AAc?$AAa?$AAt?$AAe?$AA?$AA@ DB 's'
	DB	00H, 't', 00H, 'd', 00H, ':', 00H, ':', 00H, '_', 00H, 'D', 00H
	DB	'e', 00H, 'a', 00H, 'l', 00H, 'l', 00H, 'o', 00H, 'c', 00H, 'a'
	DB	00H, 't', 00H, 'e', 00H, 00H, 00H		; `string'
CONST	ENDS
;	COMDAT ??_C@_1GI@MOGLCDAO@?$AAD?$AA?3?$AA?2?$AAM?$AAi?$AAc?$AAr?$AAo?$AAs?$AAo?$AAf?$AAt?$AA?5?$AAV?$AAi?$AAs?$AAu?$AAa?$AAl?$AA?5?$AAS?$AAt?$AAu?$AAd?$AAi?$AAo?$AA?5?$AA1?$AA4?$AA?4?$AA0?$AA?2@
CONST	SEGMENT
??_C@_1GI@MOGLCDAO@?$AAD?$AA?3?$AA?2?$AAM?$AAi?$AAc?$AAr?$AAo?$AAs?$AAo?$AAf?$AAt?$AA?5?$AAV?$AAi?$AAs?$AAu?$AAa?$AAl?$AA?5?$AAS?$AAt?$AAu?$AAd?$AAi?$AAo?$AA?5?$AA1?$AA4?$AA?4?$AA0?$AA?2@ DB 'D'
	DB	00H, ':', 00H, '\', 00H, 'M', 00H, 'i', 00H, 'c', 00H, 'r', 00H
	DB	'o', 00H, 's', 00H, 'o', 00H, 'f', 00H, 't', 00H, ' ', 00H, 'V'
	DB	00H, 'i', 00H, 's', 00H, 'u', 00H, 'a', 00H, 'l', 00H, ' ', 00H
	DB	'S', 00H, 't', 00H, 'u', 00H, 'd', 00H, 'i', 00H, 'o', 00H, ' '
	DB	00H, '1', 00H, '4', 00H, '.', 00H, '0', 00H, '\', 00H, 'V', 00H
	DB	'C', 00H, '\', 00H, 'i', 00H, 'n', 00H, 'c', 00H, 'l', 00H, 'u'
	DB	00H, 'd', 00H, 'e', 00H, '\', 00H, 'x', 00H, 'm', 00H, 'e', 00H
	DB	'm', 00H, 'o', 00H, 'r', 00H, 'y', 00H, '0', 00H, 00H, 00H ; `string'
CONST	ENDS
;	COMDAT ??_C@_1FK@EJGLHMGC@?$AA?$CC?$AA_?$AAC?$AAo?$AAu?$AAn?$AAt?$AA?5?$AA?$DM?$AA?$DN?$AA?5?$AA?$CI?$AAs?$AAi?$AAz?$AAe?$AA_?$AAt?$AA?$CJ?$AA?$CI?$AA?9?$AA1?$AA?$CJ?$AA?5?$AA?1?$AA?5?$AAs?$AAi?$AAz?$AAe?$AAo?$AAf@
CONST	SEGMENT
??_C@_1FK@EJGLHMGC@?$AA?$CC?$AA_?$AAC?$AAo?$AAu?$AAn?$AAt?$AA?5?$AA?$DM?$AA?$DN?$AA?5?$AA?$CI?$AAs?$AAi?$AAz?$AAe?$AA_?$AAt?$AA?$CJ?$AA?$CI?$AA?9?$AA1?$AA?$CJ?$AA?5?$AA?1?$AA?5?$AAs?$AAi?$AAz?$AAe?$AAo?$AAf@ DB '"'
	DB	00H, '_', 00H, 'C', 00H, 'o', 00H, 'u', 00H, 'n', 00H, 't', 00H
	DB	' ', 00H, '<', 00H, '=', 00H, ' ', 00H, '(', 00H, 's', 00H, 'i'
	DB	00H, 'z', 00H, 'e', 00H, '_', 00H, 't', 00H, ')', 00H, '(', 00H
	DB	'-', 00H, '1', 00H, ')', 00H, ' ', 00H, '/', 00H, ' ', 00H, 's'
	DB	00H, 'i', 00H, 'z', 00H, 'e', 00H, 'o', 00H, 'f', 00H, ' ', 00H
	DB	'(', 00H, '_', 00H, 'T', 00H, 'y', 00H, ')', 00H, '"', 00H, ' '
	DB	00H, '&', 00H, '&', 00H, ' ', 00H, '0', 00H, 00H, 00H ; `string'
CONST	ENDS
;	COMDAT ??_C@_0CG@FHBDFCGK@_Count?5?$DM?$DN?5?$CIsize_t?$CJ?$CI?91?$CJ?5?1?5sizeof?5@
CONST	SEGMENT
??_C@_0CG@FHBDFCGK@_Count?5?$DM?$DN?5?$CIsize_t?$CJ?$CI?91?$CJ?5?1?5sizeof?5@ DB '_'
	DB	'Count <= (size_t)(-1) / sizeof (_Ty)', 00H	; `string'
CONST	ENDS
;	COMDAT ??_C@_1CK@EOPGIILJ@?$AAi?$AAn?$AAv?$AAa?$AAl?$AAi?$AAd?$AA?5?$AAn?$AAu?$AAl?$AAl?$AA?5?$AAp?$AAo?$AAi?$AAn?$AAt?$AAe?$AAr?$AA?$AA@
CONST	SEGMENT
??_C@_1CK@EOPGIILJ@?$AAi?$AAn?$AAv?$AAa?$AAl?$AAi?$AAd?$AA?5?$AAn?$AAu?$AAl?$AAl?$AA?5?$AAp?$AAo?$AAi?$AAn?$AAt?$AAe?$AAr?$AA?$AA@ DB 'i'
	DB	00H, 'n', 00H, 'v', 00H, 'a', 00H, 'l', 00H, 'i', 00H, 'd', 00H
	DB	' ', 00H, 'n', 00H, 'u', 00H, 'l', 00H, 'l', 00H, ' ', 00H, 'p'
	DB	00H, 'o', 00H, 'i', 00H, 'n', 00H, 't', 00H, 'e', 00H, 'r', 00H
	DB	00H, 00H					; `string'
CONST	ENDS
;	COMDAT ??_C@_0BA@JFNIOLAK@string?5too?5long?$AA@
CONST	SEGMENT
??_C@_0BA@JFNIOLAK@string?5too?5long?$AA@ DB 'string too long', 00H ; `string'
CONST	ENDS
;	COMDAT ??_C@_0BI@CFPLBAOH@invalid?5string?5position?$AA@
CONST	SEGMENT
??_C@_0BI@CFPLBAOH@invalid?5string?5position?$AA@ DB 'invalid string posi'
	DB	'tion', 00H					; `string'
CONST	ENDS
;	COMDAT ??_C@_0BD@OLBABOEK@vector?$DMT?$DO?5too?5long?$AA@
CONST	SEGMENT
??_C@_0BD@OLBABOEK@vector?$DMT?$DO?5too?5long?$AA@ DB 'vector<T> too long'
	DB	00H						; `string'
CONST	ENDS
;	COMDAT ??_C@_1BAA@MOJEOHPG@?$AAs?$AAt?$AAd?$AA?3?$AA?3?$AA_?$AAL?$AAi?$AAs?$AAt?$AA_?$AAc?$AAo?$AAn?$AAs?$AAt?$AA_?$AAi?$AAt?$AAe?$AAr?$AAa?$AAt?$AAo?$AAr?$AA?$DM?$AAc?$AAl?$AAa?$AAs?$AAs?$AA?5@
CONST	SEGMENT
??_C@_1BAA@MOJEOHPG@?$AAs?$AAt?$AAd?$AA?3?$AA?3?$AA_?$AAL?$AAi?$AAs?$AAt?$AA_?$AAc?$AAo?$AAn?$AAs?$AAt?$AA_?$AAi?$AAt?$AAe?$AAr?$AAa?$AAt?$AAo?$AAr?$AA?$DM?$AAc?$AAl?$AAa?$AAs?$AAs?$AA?5@ DB 's'
	DB	00H, 't', 00H, 'd', 00H, ':', 00H, ':', 00H, '_', 00H, 'L', 00H
	DB	'i', 00H, 's', 00H, 't', 00H, '_', 00H, 'c', 00H, 'o', 00H, 'n'
	DB	00H, 's', 00H, 't', 00H, '_', 00H, 'i', 00H, 't', 00H, 'e', 00H
	DB	'r', 00H, 'a', 00H, 't', 00H, 'o', 00H, 'r', 00H, '<', 00H, 'c'
	DB	00H, 'l', 00H, 'a', 00H, 's', 00H, 's', 00H, ' ', 00H, 's', 00H
	DB	't', 00H, 'd', 00H, ':', 00H, ':', 00H, '_', 00H, 'L', 00H, 'i'
	DB	00H, 's', 00H, 't', 00H, '_', 00H, 'v', 00H, 'a', 00H, 'l', 00H
	DB	'<', 00H, 's', 00H, 't', 00H, 'r', 00H, 'u', 00H, 'c', 00H, 't'
	DB	00H, ' ', 00H, 's', 00H, 't', 00H, 'd', 00H, ':', 00H, ':', 00H
	DB	'_', 00H, 'L', 00H, 'i', 00H, 's', 00H, 't', 00H, '_', 00H, 's'
	DB	00H, 'i', 00H, 'm', 00H, 'p', 00H, 'l', 00H, 'e', 00H, '_', 00H
	DB	't', 00H, 'y', 00H, 'p', 00H, 'e', 00H, 's', 00H, '<', 00H, 's'
	DB	00H, 't', 00H, 'r', 00H, 'u', 00H, 'c', 00H, 't', 00H, ' ', 00H
	DB	'G', 00H, 'r', 00H, 'a', 00H, 'v', 00H, 'e', 00H, 'M', 00H, 'a'
	DB	00H, 'r', 00H, 'k', 00H, 'e', 00H, 'r', 00H, 's', 00H, ':', 00H
	DB	':', 00H, 'G', 00H, 'r', 00H, 'a', 00H, 'v', 00H, 'e', 00H, 'R'
	DB	00H, 'e', 00H, 'c', 00H, 'o', 00H, 'r', 00H, 'd', 00H, '>', 00H
	DB	' ', 00H, '>', 00H, ' ', 00H, '>', 00H, ':', 00H, ':', 00H, 'o'
	DB	00H, 'p', 00H, 'e', 00H, 'r', 00H, 'a', 00H, 't', 00H, 'o', 00H
	DB	'r', 00H, ' ', 00H, '*', 00H, 00H, 00H	; `string'
CONST	ENDS
;	COMDAT ??_C@_1EC@HILJLMMC@?$AAl?$AAi?$AAs?$AAt?$AA?5?$AAi?$AAt?$AAe?$AAr?$AAa?$AAt?$AAo?$AAr?$AA?5?$AAn?$AAo?$AAt?$AA?5?$AAd?$AAe?$AAr?$AAe?$AAf?$AAe?$AAr?$AAe?$AAn?$AAc?$AAa?$AAb?$AAl?$AAe@
CONST	SEGMENT
??_C@_1EC@HILJLMMC@?$AAl?$AAi?$AAs?$AAt?$AA?5?$AAi?$AAt?$AAe?$AAr?$AAa?$AAt?$AAo?$AAr?$AA?5?$AAn?$AAo?$AAt?$AA?5?$AAd?$AAe?$AAr?$AAe?$AAf?$AAe?$AAr?$AAe?$AAn?$AAc?$AAa?$AAb?$AAl?$AAe@ DB 'l'
	DB	00H, 'i', 00H, 's', 00H, 't', 00H, ' ', 00H, 'i', 00H, 't', 00H
	DB	'e', 00H, 'r', 00H, 'a', 00H, 't', 00H, 'o', 00H, 'r', 00H, ' '
	DB	00H, 'n', 00H, 'o', 00H, 't', 00H, ' ', 00H, 'd', 00H, 'e', 00H
	DB	'r', 00H, 'e', 00H, 'f', 00H, 'e', 00H, 'r', 00H, 'e', 00H, 'n'
	DB	00H, 'c', 00H, 'a', 00H, 'b', 00H, 'l', 00H, 'e', 00H, 00H, 00H ; `string'
CONST	ENDS
;	COMDAT ??_C@_1EE@BBMFLDOC@?$AAl?$AAi?$AAs?$AAt?$AA?5?$AAe?$AAr?$AAa?$AAs?$AAe?$AA?5?$AAi?$AAt?$AAe?$AAr?$AAa?$AAt?$AAo?$AAr?$AA?5?$AAo?$AAu?$AAt?$AAs?$AAi?$AAd?$AAe?$AA?5?$AAr?$AAa?$AAn?$AAg@
CONST	SEGMENT
??_C@_1EE@BBMFLDOC@?$AAl?$AAi?$AAs?$AAt?$AA?5?$AAe?$AAr?$AAa?$AAs?$AAe?$AA?5?$AAi?$AAt?$AAe?$AAr?$AAa?$AAt?$AAo?$AAr?$AA?5?$AAo?$AAu?$AAt?$AAs?$AAi?$AAd?$AAe?$AA?5?$AAr?$AAa?$AAn?$AAg@ DB 'l'
	DB	00H, 'i', 00H, 's', 00H, 't', 00H, ' ', 00H, 'e', 00H, 'r', 00H
	DB	'a', 00H, 's', 00H, 'e', 00H, ' ', 00H, 'i', 00H, 't', 00H, 'e'
	DB	00H, 'r', 00H, 'a', 00H, 't', 00H, 'o', 00H, 'r', 00H, ' ', 00H
	DB	'o', 00H, 'u', 00H, 't', 00H, 's', 00H, 'i', 00H, 'd', 00H, 'e'
	DB	00H, ' ', 00H, 'r', 00H, 'a', 00H, 'n', 00H, 'g', 00H, 'e', 00H
	DB	00H, 00H					; `string'
CONST	ENDS
;	COMDAT ??_C@_1BAC@MAOHAEOO@?$AAs?$AAt?$AAd?$AA?3?$AA?3?$AA_?$AAL?$AAi?$AAs?$AAt?$AA_?$AAc?$AAo?$AAn?$AAs?$AAt?$AA_?$AAi?$AAt?$AAe?$AAr?$AAa?$AAt?$AAo?$AAr?$AA?$DM?$AAc?$AAl?$AAa?$AAs?$AAs?$AA?5@
CONST	SEGMENT
??_C@_1BAC@MAOHAEOO@?$AAs?$AAt?$AAd?$AA?3?$AA?3?$AA_?$AAL?$AAi?$AAs?$AAt?$AA_?$AAc?$AAo?$AAn?$AAs?$AAt?$AA_?$AAi?$AAt?$AAe?$AAr?$AAa?$AAt?$AAo?$AAr?$AA?$DM?$AAc?$AAl?$AAa?$AAs?$AAs?$AA?5@ DB 's'
	DB	00H, 't', 00H, 'd', 00H, ':', 00H, ':', 00H, '_', 00H, 'L', 00H
	DB	'i', 00H, 's', 00H, 't', 00H, '_', 00H, 'c', 00H, 'o', 00H, 'n'
	DB	00H, 's', 00H, 't', 00H, '_', 00H, 'i', 00H, 't', 00H, 'e', 00H
	DB	'r', 00H, 'a', 00H, 't', 00H, 'o', 00H, 'r', 00H, '<', 00H, 'c'
	DB	00H, 'l', 00H, 'a', 00H, 's', 00H, 's', 00H, ' ', 00H, 's', 00H
	DB	't', 00H, 'd', 00H, ':', 00H, ':', 00H, '_', 00H, 'L', 00H, 'i'
	DB	00H, 's', 00H, 't', 00H, '_', 00H, 'v', 00H, 'a', 00H, 'l', 00H
	DB	'<', 00H, 's', 00H, 't', 00H, 'r', 00H, 'u', 00H, 'c', 00H, 't'
	DB	00H, ' ', 00H, 's', 00H, 't', 00H, 'd', 00H, ':', 00H, ':', 00H
	DB	'_', 00H, 'L', 00H, 'i', 00H, 's', 00H, 't', 00H, '_', 00H, 's'
	DB	00H, 'i', 00H, 'm', 00H, 'p', 00H, 'l', 00H, 'e', 00H, '_', 00H
	DB	't', 00H, 'y', 00H, 'p', 00H, 'e', 00H, 's', 00H, '<', 00H, 's'
	DB	00H, 't', 00H, 'r', 00H, 'u', 00H, 'c', 00H, 't', 00H, ' ', 00H
	DB	'G', 00H, 'r', 00H, 'a', 00H, 'v', 00H, 'e', 00H, 'M', 00H, 'a'
	DB	00H, 'r', 00H, 'k', 00H, 'e', 00H, 'r', 00H, 's', 00H, ':', 00H
	DB	':', 00H, 'G', 00H, 'r', 00H, 'a', 00H, 'v', 00H, 'e', 00H, 'R'
	DB	00H, 'e', 00H, 'c', 00H, 'o', 00H, 'r', 00H, 'd', 00H, '>', 00H
	DB	' ', 00H, '>', 00H, ' ', 00H, '>', 00H, ':', 00H, ':', 00H, 'o'
	DB	00H, 'p', 00H, 'e', 00H, 'r', 00H, 'a', 00H, 't', 00H, 'o', 00H
	DB	'r', 00H, ' ', 00H, '+', 00H, '+', 00H, 00H, 00H ; `string'
CONST	ENDS
;	COMDAT ??_C@_1EA@DOGAGKDH@?$AAl?$AAi?$AAs?$AAt?$AA?5?$AAi?$AAt?$AAe?$AAr?$AAa?$AAt?$AAo?$AAr?$AA?5?$AAn?$AAo?$AAt?$AA?5?$AAi?$AAn?$AAc?$AAr?$AAe?$AAm?$AAe?$AAn?$AAt?$AAa?$AAb?$AAl?$AAe?$AA?$AA@
CONST	SEGMENT
??_C@_1EA@DOGAGKDH@?$AAl?$AAi?$AAs?$AAt?$AA?5?$AAi?$AAt?$AAe?$AAr?$AAa?$AAt?$AAo?$AAr?$AA?5?$AAn?$AAo?$AAt?$AA?5?$AAi?$AAn?$AAc?$AAr?$AAe?$AAm?$AAe?$AAn?$AAt?$AAa?$AAb?$AAl?$AAe?$AA?$AA@ DB 'l'
	DB	00H, 'i', 00H, 's', 00H, 't', 00H, ' ', 00H, 'i', 00H, 't', 00H
	DB	'e', 00H, 'r', 00H, 'a', 00H, 't', 00H, 'o', 00H, 'r', 00H, ' '
	DB	00H, 'n', 00H, 'o', 00H, 't', 00H, ' ', 00H, 'i', 00H, 'n', 00H
	DB	'c', 00H, 'r', 00H, 'e', 00H, 'm', 00H, 'e', 00H, 'n', 00H, 't'
	DB	00H, 'a', 00H, 'b', 00H, 'l', 00H, 'e', 00H, 00H, 00H ; `string'
CONST	ENDS
;	COMDAT ??_C@_1CG@JNLFBNGN@?$AA?$CC?$AAi?$AAn?$AAv?$AAa?$AAl?$AAi?$AAd?$AA?5?$AAa?$AAr?$AAg?$AAu?$AAm?$AAe?$AAn?$AAt?$AA?$CC?$AA?$AA@
CONST	SEGMENT
??_C@_1CG@JNLFBNGN@?$AA?$CC?$AAi?$AAn?$AAv?$AAa?$AAl?$AAi?$AAd?$AA?5?$AAa?$AAr?$AAg?$AAu?$AAm?$AAe?$AAn?$AAt?$AA?$CC?$AA?$AA@ DB '"'
	DB	00H, 'i', 00H, 'n', 00H, 'v', 00H, 'a', 00H, 'l', 00H, 'i', 00H
	DB	'd', 00H, ' ', 00H, 'a', 00H, 'r', 00H, 'g', 00H, 'u', 00H, 'm'
	DB	00H, 'e', 00H, 'n', 00H, 't', 00H, '"', 00H, 00H, 00H ; `string'
CONST	ENDS
;	COMDAT ??_C@_1BAC@GABKONCL@?$AAs?$AAt?$AAd?$AA?3?$AA?3?$AA_?$AAL?$AAi?$AAs?$AAt?$AA_?$AAc?$AAo?$AAn?$AAs?$AAt?$AA_?$AAi?$AAt?$AAe?$AAr?$AAa?$AAt?$AAo?$AAr?$AA?$DM?$AAc?$AAl?$AAa?$AAs?$AAs?$AA?5@
CONST	SEGMENT
??_C@_1BAC@GABKONCL@?$AAs?$AAt?$AAd?$AA?3?$AA?3?$AA_?$AAL?$AAi?$AAs?$AAt?$AA_?$AAc?$AAo?$AAn?$AAs?$AAt?$AA_?$AAi?$AAt?$AAe?$AAr?$AAa?$AAt?$AAo?$AAr?$AA?$DM?$AAc?$AAl?$AAa?$AAs?$AAs?$AA?5@ DB 's'
	DB	00H, 't', 00H, 'd', 00H, ':', 00H, ':', 00H, '_', 00H, 'L', 00H
	DB	'i', 00H, 's', 00H, 't', 00H, '_', 00H, 'c', 00H, 'o', 00H, 'n'
	DB	00H, 's', 00H, 't', 00H, '_', 00H, 'i', 00H, 't', 00H, 'e', 00H
	DB	'r', 00H, 'a', 00H, 't', 00H, 'o', 00H, 'r', 00H, '<', 00H, 'c'
	DB	00H, 'l', 00H, 'a', 00H, 's', 00H, 's', 00H, ' ', 00H, 's', 00H
	DB	't', 00H, 'd', 00H, ':', 00H, ':', 00H, '_', 00H, 'L', 00H, 'i'
	DB	00H, 's', 00H, 't', 00H, '_', 00H, 'v', 00H, 'a', 00H, 'l', 00H
	DB	'<', 00H, 's', 00H, 't', 00H, 'r', 00H, 'u', 00H, 'c', 00H, 't'
	DB	00H, ' ', 00H, 's', 00H, 't', 00H, 'd', 00H, ':', 00H, ':', 00H
	DB	'_', 00H, 'L', 00H, 'i', 00H, 's', 00H, 't', 00H, '_', 00H, 's'
	DB	00H, 'i', 00H, 'm', 00H, 'p', 00H, 'l', 00H, 'e', 00H, '_', 00H
	DB	't', 00H, 'y', 00H, 'p', 00H, 'e', 00H, 's', 00H, '<', 00H, 's'
	DB	00H, 't', 00H, 'r', 00H, 'u', 00H, 'c', 00H, 't', 00H, ' ', 00H
	DB	'G', 00H, 'r', 00H, 'a', 00H, 'v', 00H, 'e', 00H, 'M', 00H, 'a'
	DB	00H, 'r', 00H, 'k', 00H, 'e', 00H, 'r', 00H, 's', 00H, ':', 00H
	DB	':', 00H, 'G', 00H, 'r', 00H, 'a', 00H, 'v', 00H, 'e', 00H, 'R'
	DB	00H, 'e', 00H, 'c', 00H, 'o', 00H, 'r', 00H, 'd', 00H, '>', 00H
	DB	' ', 00H, '>', 00H, ' ', 00H, '>', 00H, ':', 00H, ':', 00H, 'o'
	DB	00H, 'p', 00H, 'e', 00H, 'r', 00H, 'a', 00H, 't', 00H, 'o', 00H
	DB	'r', 00H, ' ', 00H, '=', 00H, '=', 00H, 00H, 00H ; `string'
CONST	ENDS
;	COMDAT ??_C@_1FO@GJIHNDLM@?$AA?$CC?$AAS?$AAt?$AAa?$AAn?$AAd?$AAa?$AAr?$AAd?$AA?5?$AAC?$AA?$CL?$AA?$CL?$AA?5?$AAL?$AAi?$AAb?$AAr?$AAa?$AAr?$AAi?$AAe?$AAs?$AA?5?$AAI?$AAn?$AAv?$AAa?$AAl?$AAi?$AAd?$AA?5@
CONST	SEGMENT
??_C@_1FO@GJIHNDLM@?$AA?$CC?$AAS?$AAt?$AAa?$AAn?$AAd?$AAa?$AAr?$AAd?$AA?5?$AAC?$AA?$CL?$AA?$CL?$AA?5?$AAL?$AAi?$AAb?$AAr?$AAa?$AAr?$AAi?$AAe?$AAs?$AA?5?$AAI?$AAn?$AAv?$AAa?$AAl?$AAi?$AAd?$AA?5@ DB '"'
	DB	00H, 'S', 00H, 't', 00H, 'a', 00H, 'n', 00H, 'd', 00H, 'a', 00H
	DB	'r', 00H, 'd', 00H, ' ', 00H, 'C', 00H, '+', 00H, '+', 00H, ' '
	DB	00H, 'L', 00H, 'i', 00H, 'b', 00H, 'r', 00H, 'a', 00H, 'r', 00H
	DB	'i', 00H, 'e', 00H, 's', 00H, ' ', 00H, 'I', 00H, 'n', 00H, 'v'
	DB	00H, 'a', 00H, 'l', 00H, 'i', 00H, 'd', 00H, ' ', 00H, 'A', 00H
	DB	'r', 00H, 'g', 00H, 'u', 00H, 'm', 00H, 'e', 00H, 'n', 00H, 't'
	DB	00H, '"', 00H, ' ', 00H, '&', 00H, '&', 00H, ' ', 00H, '0', 00H
	DB	00H, 00H					; `string'
CONST	ENDS
;	COMDAT ??_C@_0CI@FNPHFCCM@Standard?5C?$CL?$CL?5Libraries?5Invalid?5A@
CONST	SEGMENT
??_C@_0CI@FNPHFCCM@Standard?5C?$CL?$CL?5Libraries?5Invalid?5A@ DB 'Standa'
	DB	'rd C++ Libraries Invalid Argument', 00H	; `string'
CONST	ENDS
;	COMDAT ??_C@_1DI@MDELDGPI@?$AAl?$AAi?$AAs?$AAt?$AA?5?$AAi?$AAt?$AAe?$AAr?$AAa?$AAt?$AAo?$AAr?$AAs?$AA?5?$AAi?$AAn?$AAc?$AAo?$AAm?$AAp?$AAa?$AAt?$AAi?$AAb?$AAl?$AAe?$AA?$AA@
CONST	SEGMENT
??_C@_1DI@MDELDGPI@?$AAl?$AAi?$AAs?$AAt?$AA?5?$AAi?$AAt?$AAe?$AAr?$AAa?$AAt?$AAo?$AAr?$AAs?$AA?5?$AAi?$AAn?$AAc?$AAo?$AAm?$AAp?$AAa?$AAt?$AAi?$AAb?$AAl?$AAe?$AA?$AA@ DB 'l'
	DB	00H, 'i', 00H, 's', 00H, 't', 00H, ' ', 00H, 'i', 00H, 't', 00H
	DB	'e', 00H, 'r', 00H, 'a', 00H, 't', 00H, 'o', 00H, 'r', 00H, 's'
	DB	00H, ' ', 00H, 'i', 00H, 'n', 00H, 'c', 00H, 'o', 00H, 'm', 00H
	DB	'p', 00H, 'a', 00H, 't', 00H, 'i', 00H, 'b', 00H, 'l', 00H, 'e'
	DB	00H, 00H, 00H				; `string'
CONST	ENDS
;	COMDAT ??_C@_1GA@IINJPBGE@?$AAD?$AA?3?$AA?2?$AAM?$AAi?$AAc?$AAr?$AAo?$AAs?$AAo?$AAf?$AAt?$AA?5?$AAV?$AAi?$AAs?$AAu?$AAa?$AAl?$AA?5?$AAS?$AAt?$AAu?$AAd?$AAi?$AAo?$AA?5?$AA1?$AA4?$AA?4?$AA0?$AA?2@
CONST	SEGMENT
??_C@_1GA@IINJPBGE@?$AAD?$AA?3?$AA?2?$AAM?$AAi?$AAc?$AAr?$AAo?$AAs?$AAo?$AAf?$AAt?$AA?5?$AAV?$AAi?$AAs?$AAu?$AAa?$AAl?$AA?5?$AAS?$AAt?$AAu?$AAd?$AAi?$AAo?$AA?5?$AA1?$AA4?$AA?4?$AA0?$AA?2@ DB 'D'
	DB	00H, ':', 00H, '\', 00H, 'M', 00H, 'i', 00H, 'c', 00H, 'r', 00H
	DB	'o', 00H, 's', 00H, 'o', 00H, 'f', 00H, 't', 00H, ' ', 00H, 'V'
	DB	00H, 'i', 00H, 's', 00H, 'u', 00H, 'a', 00H, 'l', 00H, ' ', 00H
	DB	'S', 00H, 't', 00H, 'u', 00H, 'd', 00H, 'i', 00H, 'o', 00H, ' '
	DB	00H, '1', 00H, '4', 00H, '.', 00H, '0', 00H, '\', 00H, 'V', 00H
	DB	'C', 00H, '\', 00H, 'i', 00H, 'n', 00H, 'c', 00H, 'l', 00H, 'u'
	DB	00H, 'd', 00H, 'e', 00H, '\', 00H, 'l', 00H, 'i', 00H, 's', 00H
	DB	't', 00H, 00H, 00H				; `string'
CONST	ENDS
;	COMDAT ??_C@_1GG@PGPFJPKM@?$AAD?$AA?3?$AA?2?$AAM?$AAi?$AAc?$AAr?$AAo?$AAs?$AAo?$AAf?$AAt?$AA?5?$AAV?$AAi?$AAs?$AAu?$AAa?$AAl?$AA?5?$AAS?$AAt?$AAu?$AAd?$AAi?$AAo?$AA?5?$AA1?$AA4?$AA?4?$AA0?$AA?2@
CONST	SEGMENT
??_C@_1GG@PGPFJPKM@?$AAD?$AA?3?$AA?2?$AAM?$AAi?$AAc?$AAr?$AAo?$AAs?$AAo?$AAf?$AAt?$AA?5?$AAV?$AAi?$AAs?$AAu?$AAa?$AAl?$AA?5?$AAS?$AAt?$AAu?$AAd?$AAi?$AAo?$AA?5?$AA1?$AA4?$AA?4?$AA0?$AA?2@ DB 'D'
	DB	00H, ':', 00H, '\', 00H, 'M', 00H, 'i', 00H, 'c', 00H, 'r', 00H
	DB	'o', 00H, 's', 00H, 'o', 00H, 'f', 00H, 't', 00H, ' ', 00H, 'V'
	DB	00H, 'i', 00H, 's', 00H, 'u', 00H, 'a', 00H, 'l', 00H, ' ', 00H
	DB	'S', 00H, 't', 00H, 'u', 00H, 'd', 00H, 'i', 00H, 'o', 00H, ' '
	DB	00H, '1', 00H, '4', 00H, '.', 00H, '0', 00H, '\', 00H, 'V', 00H
	DB	'C', 00H, '\', 00H, 'i', 00H, 'n', 00H, 'c', 00H, 'l', 00H, 'u'
	DB	00H, 'd', 00H, 'e', 00H, '\', 00H, 'x', 00H, 's', 00H, 't', 00H
	DB	'r', 00H, 'i', 00H, 'n', 00H, 'g', 00H, 00H, 00H ; `string'
CONST	ENDS
;	COMDAT ??_C@_1BO@MEPPHOO@?$AA?$CC?$AAo?$AAu?$AAt?$AA?5?$AAo?$AAf?$AA?5?$AAr?$AAa?$AAn?$AAg?$AAe?$AA?$CC?$AA?$AA@
CONST	SEGMENT
??_C@_1BO@MEPPHOO@?$AA?$CC?$AAo?$AAu?$AAt?$AA?5?$AAo?$AAf?$AA?5?$AAr?$AAa?$AAn?$AAg?$AAe?$AA?$CC?$AA?$AA@ DB '"'
	DB	00H, 'o', 00H, 'u', 00H, 't', 00H, ' ', 00H, 'o', 00H, 'f', 00H
	DB	' ', 00H, 'r', 00H, 'a', 00H, 'n', 00H, 'g', 00H, 'e', 00H, '"'
	DB	00H, 00H, 00H				; `string'
CONST	ENDS
;	COMDAT ??_C@_1KC@ILGGEGM@?$AAs?$AAt?$AAd?$AA?3?$AA?3?$AAv?$AAe?$AAc?$AAt?$AAo?$AAr?$AA?$DM?$AAs?$AAt?$AAr?$AAu?$AAc?$AAt?$AA?5?$AAV?$AAe?$AAc?$AAt?$AAo?$AAr?$AA2?$AAD?$AA?0?$AAc?$AAl?$AAa?$AAs@
CONST	SEGMENT
??_C@_1KC@ILGGEGM@?$AAs?$AAt?$AAd?$AA?3?$AA?3?$AAv?$AAe?$AAc?$AAt?$AAo?$AAr?$AA?$DM?$AAs?$AAt?$AAr?$AAu?$AAc?$AAt?$AA?5?$AAV?$AAe?$AAc?$AAt?$AAo?$AAr?$AA2?$AAD?$AA?0?$AAc?$AAl?$AAa?$AAs@ DB 's'
	DB	00H, 't', 00H, 'd', 00H, ':', 00H, ':', 00H, 'v', 00H, 'e', 00H
	DB	'c', 00H, 't', 00H, 'o', 00H, 'r', 00H, '<', 00H, 's', 00H, 't'
	DB	00H, 'r', 00H, 'u', 00H, 'c', 00H, 't', 00H, ' ', 00H, 'V', 00H
	DB	'e', 00H, 'c', 00H, 't', 00H, 'o', 00H, 'r', 00H, '2', 00H, 'D'
	DB	00H, ',', 00H, 'c', 00H, 'l', 00H, 'a', 00H, 's', 00H, 's', 00H
	DB	' ', 00H, 's', 00H, 't', 00H, 'd', 00H, ':', 00H, ':', 00H, 'a'
	DB	00H, 'l', 00H, 'l', 00H, 'o', 00H, 'c', 00H, 'a', 00H, 't', 00H
	DB	'o', 00H, 'r', 00H, '<', 00H, 's', 00H, 't', 00H, 'r', 00H, 'u'
	DB	00H, 'c', 00H, 't', 00H, ' ', 00H, 'V', 00H, 'e', 00H, 'c', 00H
	DB	't', 00H, 'o', 00H, 'r', 00H, '2', 00H, 'D', 00H, '>', 00H, ' '
	DB	00H, '>', 00H, ':', 00H, ':', 00H, 'o', 00H, 'p', 00H, 'e', 00H
	DB	'r', 00H, 'a', 00H, 't', 00H, 'o', 00H, 'r', 00H, ' ', 00H, '['
	DB	00H, ']', 00H, 00H, 00H			; `string'
CONST	ENDS
;	COMDAT ??_C@_17CNPHIMPH@?$AA?$CF?$AAl?$AAs?$AA?$AA@
CONST	SEGMENT
??_C@_17CNPHIMPH@?$AA?$CF?$AAl?$AAs?$AA?$AA@ DB '%', 00H, 'l', 00H, 's', 00H
	DB	00H, 00H					; `string'
CONST	ENDS
;	COMDAT ??_C@_1FG@IBPIFFN@?$AA?$CC?$AAS?$AAt?$AAa?$AAn?$AAd?$AAa?$AAr?$AAd?$AA?5?$AAC?$AA?$CL?$AA?$CL?$AA?5?$AAL?$AAi?$AAb?$AAr?$AAa?$AAr?$AAi?$AAe?$AAs?$AA?5?$AAO?$AAu?$AAt?$AA?5?$AAo?$AAf?$AA?5?$AAR@
CONST	SEGMENT
??_C@_1FG@IBPIFFN@?$AA?$CC?$AAS?$AAt?$AAa?$AAn?$AAd?$AAa?$AAr?$AAd?$AA?5?$AAC?$AA?$CL?$AA?$CL?$AA?5?$AAL?$AAi?$AAb?$AAr?$AAa?$AAr?$AAi?$AAe?$AAs?$AA?5?$AAO?$AAu?$AAt?$AA?5?$AAo?$AAf?$AA?5?$AAR@ DB '"'
	DB	00H, 'S', 00H, 't', 00H, 'a', 00H, 'n', 00H, 'd', 00H, 'a', 00H
	DB	'r', 00H, 'd', 00H, ' ', 00H, 'C', 00H, '+', 00H, '+', 00H, ' '
	DB	00H, 'L', 00H, 'i', 00H, 'b', 00H, 'r', 00H, 'a', 00H, 'r', 00H
	DB	'i', 00H, 'e', 00H, 's', 00H, ' ', 00H, 'O', 00H, 'u', 00H, 't'
	DB	00H, ' ', 00H, 'o', 00H, 'f', 00H, ' ', 00H, 'R', 00H, 'a', 00H
	DB	'n', 00H, 'g', 00H, 'e', 00H, '"', 00H, ' ', 00H, '&', 00H, '&'
	DB	00H, ' ', 00H, '0', 00H, 00H, 00H		; `string'
CONST	ENDS
;	COMDAT ??_C@_0CE@OFMIGAMM@Standard?5C?$CL?$CL?5Libraries?5Out?5of?5Ra@
CONST	SEGMENT
??_C@_0CE@OFMIGAMM@Standard?5C?$CL?$CL?5Libraries?5Out?5of?5Ra@ DB 'Stand'
	DB	'ard C++ Libraries Out of Range', 00H	; `string'
CONST	ENDS
;	COMDAT ??_C@_1DM@LHGCHCBA@?$AAv?$AAe?$AAc?$AAt?$AAo?$AAr?$AA?5?$AAs?$AAu?$AAb?$AAs?$AAc?$AAr?$AAi?$AAp?$AAt?$AA?5?$AAo?$AAu?$AAt?$AA?5?$AAo?$AAf?$AA?5?$AAr?$AAa?$AAn?$AAg?$AAe?$AA?$AA@
CONST	SEGMENT
??_C@_1DM@LHGCHCBA@?$AAv?$AAe?$AAc?$AAt?$AAo?$AAr?$AA?5?$AAs?$AAu?$AAb?$AAs?$AAc?$AAr?$AAi?$AAp?$AAt?$AA?5?$AAo?$AAu?$AAt?$AA?5?$AAo?$AAf?$AA?5?$AAr?$AAa?$AAn?$AAg?$AAe?$AA?$AA@ DB 'v'
	DB	00H, 'e', 00H, 'c', 00H, 't', 00H, 'o', 00H, 'r', 00H, ' ', 00H
	DB	's', 00H, 'u', 00H, 'b', 00H, 's', 00H, 'c', 00H, 'r', 00H, 'i'
	DB	00H, 'p', 00H, 't', 00H, ' ', 00H, 'o', 00H, 'u', 00H, 't', 00H
	DB	' ', 00H, 'o', 00H, 'f', 00H, ' ', 00H, 'r', 00H, 'a', 00H, 'n'
	DB	00H, 'g', 00H, 'e', 00H, 00H, 00H		; `string'
CONST	ENDS
;	COMDAT ??_C@_1GE@BNGOPDPB@?$AAD?$AA?3?$AA?2?$AAM?$AAi?$AAc?$AAr?$AAo?$AAs?$AAo?$AAf?$AAt?$AA?5?$AAV?$AAi?$AAs?$AAu?$AAa?$AAl?$AA?5?$AAS?$AAt?$AAu?$AAd?$AAi?$AAo?$AA?5?$AA1?$AA4?$AA?4?$AA0?$AA?2@
CONST	SEGMENT
??_C@_1GE@BNGOPDPB@?$AAD?$AA?3?$AA?2?$AAM?$AAi?$AAc?$AAr?$AAo?$AAs?$AAo?$AAf?$AAt?$AA?5?$AAV?$AAi?$AAs?$AAu?$AAa?$AAl?$AA?5?$AAS?$AAt?$AAu?$AAd?$AAi?$AAo?$AA?5?$AA1?$AA4?$AA?4?$AA0?$AA?2@ DB 'D'
	DB	00H, ':', 00H, '\', 00H, 'M', 00H, 'i', 00H, 'c', 00H, 'r', 00H
	DB	'o', 00H, 's', 00H, 'o', 00H, 'f', 00H, 't', 00H, ' ', 00H, 'V'
	DB	00H, 'i', 00H, 's', 00H, 'u', 00H, 'a', 00H, 'l', 00H, ' ', 00H
	DB	'S', 00H, 't', 00H, 'u', 00H, 'd', 00H, 'i', 00H, 'o', 00H, ' '
	DB	00H, '1', 00H, '4', 00H, '.', 00H, '0', 00H, '\', 00H, 'V', 00H
	DB	'C', 00H, '\', 00H, 'i', 00H, 'n', 00H, 'c', 00H, 'l', 00H, 'u'
	DB	00H, 'd', 00H, 'e', 00H, '\', 00H, 'v', 00H, 'e', 00H, 'c', 00H
	DB	't', 00H, 'o', 00H, 'r', 00H, 00H, 00H	; `string'
CONST	ENDS
;	COMDAT ??_C@_1DC@POOIKBAO@?$AAI?$AAT?$AAE?$AAR?$AAA?$AAT?$AAO?$AAR?$AA?5?$AAL?$AAI?$AAS?$AAT?$AA?5?$AAC?$AAO?$AAR?$AAR?$AAU?$AAP?$AAT?$AAE?$AAD?$AA?$CB?$AA?$AA@
CONST	SEGMENT
??_C@_1DC@POOIKBAO@?$AAI?$AAT?$AAE?$AAR?$AAA?$AAT?$AAO?$AAR?$AA?5?$AAL?$AAI?$AAS?$AAT?$AA?5?$AAC?$AAO?$AAR?$AAR?$AAU?$AAP?$AAT?$AAE?$AAD?$AA?$CB?$AA?$AA@ DB 'I'
	DB	00H, 'T', 00H, 'E', 00H, 'R', 00H, 'A', 00H, 'T', 00H, 'O', 00H
	DB	'R', 00H, ' ', 00H, 'L', 00H, 'I', 00H, 'S', 00H, 'T', 00H, ' '
	DB	00H, 'C', 00H, 'O', 00H, 'R', 00H, 'R', 00H, 'U', 00H, 'P', 00H
	DB	'T', 00H, 'E', 00H, 'D', 00H, '!', 00H, 00H, 00H ; `string'
CONST	ENDS
;	COMDAT ??_C@_1GI@DDIAPGKN@?$AAD?$AA?3?$AA?2?$AAM?$AAi?$AAc?$AAr?$AAo?$AAs?$AAo?$AAf?$AAt?$AA?5?$AAV?$AAi?$AAs?$AAu?$AAa?$AAl?$AA?5?$AAS?$AAt?$AAu?$AAd?$AAi?$AAo?$AA?5?$AA1?$AA4?$AA?4?$AA0?$AA?2@
CONST	SEGMENT
??_C@_1GI@DDIAPGKN@?$AAD?$AA?3?$AA?2?$AAM?$AAi?$AAc?$AAr?$AAo?$AAs?$AAo?$AAf?$AAt?$AA?5?$AAV?$AAi?$AAs?$AAu?$AAa?$AAl?$AA?5?$AAS?$AAt?$AAu?$AAd?$AAi?$AAo?$AA?5?$AA1?$AA4?$AA?4?$AA0?$AA?2@ DB 'D'
	DB	00H, ':', 00H, '\', 00H, 'M', 00H, 'i', 00H, 'c', 00H, 'r', 00H
	DB	'o', 00H, 's', 00H, 'o', 00H, 'f', 00H, 't', 00H, ' ', 00H, 'V'
	DB	00H, 'i', 00H, 's', 00H, 'u', 00H, 'a', 00H, 'l', 00H, ' ', 00H
	DB	'S', 00H, 't', 00H, 'u', 00H, 'd', 00H, 'i', 00H, 'o', 00H, ' '
	DB	00H, '1', 00H, '4', 00H, '.', 00H, '0', 00H, '\', 00H, 'V', 00H
	DB	'C', 00H, '\', 00H, 'i', 00H, 'n', 00H, 'c', 00H, 'l', 00H, 'u'
	DB	00H, 'd', 00H, 'e', 00H, '\', 00H, 'x', 00H, 'u', 00H, 't', 00H
	DB	'i', 00H, 'l', 00H, 'i', 00H, 't', 00H, 'y', 00H, 00H, 00H ; `string'
CONST	ENDS
;	COMDAT xdata$x
xdata$x	SEGMENT
__catchsym$??$_Uninit_move@PAUVector2D@@PAU1@V?$allocator@UVector2D@@@std@@U1@@std@@YAPAUVector2D@@PAU1@00AAU?$_Wrap_alloc@V?$allocator@UVector2D@@@std@@@0@0U_Nonscalar_ptr_iterator_tag@0@@Z$2 DD 040H
	DD	00H
	DD	00H
	DD	FLAT:__catch$??$_Uninit_move@PAUVector2D@@PAU1@V?$allocator@UVector2D@@@std@@U1@@std@@YAPAUVector2D@@PAU1@00AAU?$_Wrap_alloc@V?$allocator@UVector2D@@@std@@@0@0U_Nonscalar_ptr_iterator_tag@0@@Z$0
__unwindtable$??$_Uninit_move@PAUVector2D@@PAU1@V?$allocator@UVector2D@@@std@@U1@@std@@YAPAUVector2D@@PAU1@00AAU?$_Wrap_alloc@V?$allocator@UVector2D@@@std@@@0@0U_Nonscalar_ptr_iterator_tag@0@@Z DD 0ffffffffH
	DD	00H
	DD	0ffffffffH
	DD	00H
__tryblocktable$??$_Uninit_move@PAUVector2D@@PAU1@V?$allocator@UVector2D@@@std@@U1@@std@@YAPAUVector2D@@PAU1@00AAU?$_Wrap_alloc@V?$allocator@UVector2D@@@std@@@0@0U_Nonscalar_ptr_iterator_tag@0@@Z DD 00H
	DD	00H
	DD	01H
	DD	01H
	DD	FLAT:__catchsym$??$_Uninit_move@PAUVector2D@@PAU1@V?$allocator@UVector2D@@@std@@U1@@std@@YAPAUVector2D@@PAU1@00AAU?$_Wrap_alloc@V?$allocator@UVector2D@@@std@@@0@0U_Nonscalar_ptr_iterator_tag@0@@Z$2
__ehfuncinfo$??$_Uninit_move@PAUVector2D@@PAU1@V?$allocator@UVector2D@@@std@@U1@@std@@YAPAUVector2D@@PAU1@00AAU?$_Wrap_alloc@V?$allocator@UVector2D@@@std@@@0@0U_Nonscalar_ptr_iterator_tag@0@@Z DD 019930522H
	DD	02H
	DD	FLAT:__unwindtable$??$_Uninit_move@PAUVector2D@@PAU1@V?$allocator@UVector2D@@@std@@U1@@std@@YAPAUVector2D@@PAU1@00AAU?$_Wrap_alloc@V?$allocator@UVector2D@@@std@@@0@0U_Nonscalar_ptr_iterator_tag@0@@Z
	DD	01H
	DD	FLAT:__tryblocktable$??$_Uninit_move@PAUVector2D@@PAU1@V?$allocator@UVector2D@@@std@@U1@@std@@YAPAUVector2D@@PAU1@00AAU?$_Wrap_alloc@V?$allocator@UVector2D@@@std@@@0@0U_Nonscalar_ptr_iterator_tag@0@@Z
	DD	2 DUP(00H)
	DD	00H
	DD	01H
xdata$x	ENDS
;	COMDAT xdata$x
xdata$x	SEGMENT
__catchsym$??$_Uninit_copy@PBUVector2D@@PAU1@V?$allocator@UVector2D@@@std@@@std@@YAPAUVector2D@@PBU1@0PAU1@AAU?$_Wrap_alloc@V?$allocator@UVector2D@@@std@@@0@U_Nonscalar_ptr_iterator_tag@0@@Z$2 DD 040H
	DD	00H
	DD	00H
	DD	FLAT:__catch$??$_Uninit_copy@PBUVector2D@@PAU1@V?$allocator@UVector2D@@@std@@@std@@YAPAUVector2D@@PBU1@0PAU1@AAU?$_Wrap_alloc@V?$allocator@UVector2D@@@std@@@0@U_Nonscalar_ptr_iterator_tag@0@@Z$0
__unwindtable$??$_Uninit_copy@PBUVector2D@@PAU1@V?$allocator@UVector2D@@@std@@@std@@YAPAUVector2D@@PBU1@0PAU1@AAU?$_Wrap_alloc@V?$allocator@UVector2D@@@std@@@0@U_Nonscalar_ptr_iterator_tag@0@@Z DD 0ffffffffH
	DD	00H
	DD	0ffffffffH
	DD	00H
__tryblocktable$??$_Uninit_copy@PBUVector2D@@PAU1@V?$allocator@UVector2D@@@std@@@std@@YAPAUVector2D@@PBU1@0PAU1@AAU?$_Wrap_alloc@V?$allocator@UVector2D@@@std@@@0@U_Nonscalar_ptr_iterator_tag@0@@Z DD 00H
	DD	00H
	DD	01H
	DD	01H
	DD	FLAT:__catchsym$??$_Uninit_copy@PBUVector2D@@PAU1@V?$allocator@UVector2D@@@std@@@std@@YAPAUVector2D@@PBU1@0PAU1@AAU?$_Wrap_alloc@V?$allocator@UVector2D@@@std@@@0@U_Nonscalar_ptr_iterator_tag@0@@Z$2
__ehfuncinfo$??$_Uninit_copy@PBUVector2D@@PAU1@V?$allocator@UVector2D@@@std@@@std@@YAPAUVector2D@@PBU1@0PAU1@AAU?$_Wrap_alloc@V?$allocator@UVector2D@@@std@@@0@U_Nonscalar_ptr_iterator_tag@0@@Z DD 019930522H
	DD	02H
	DD	FLAT:__unwindtable$??$_Uninit_copy@PBUVector2D@@PAU1@V?$allocator@UVector2D@@@std@@@std@@YAPAUVector2D@@PBU1@0PAU1@AAU?$_Wrap_alloc@V?$allocator@UVector2D@@@std@@@0@U_Nonscalar_ptr_iterator_tag@0@@Z
	DD	01H
	DD	FLAT:__tryblocktable$??$_Uninit_copy@PBUVector2D@@PAU1@V?$allocator@UVector2D@@@std@@@std@@YAPAUVector2D@@PBU1@0PAU1@AAU?$_Wrap_alloc@V?$allocator@UVector2D@@@std@@@0@U_Nonscalar_ptr_iterator_tag@0@@Z
	DD	2 DUP(00H)
	DD	00H
	DD	01H
xdata$x	ENDS
;	COMDAT xdata$x
xdata$x	SEGMENT
__unwindtable$??$_Unchecked@V?$_Vector_val@U?$_Simple_types@UVector2D@@@std@@@std@@@std@@YAPBUVector2D@@V?$_Vector_const_iterator@V?$_Vector_val@U?$_Simple_types@UVector2D@@@std@@@std@@@0@@Z DD 0ffffffffH
	DD	FLAT:__unwindfunclet$??$_Unchecked@V?$_Vector_val@U?$_Simple_types@UVector2D@@@std@@@std@@@std@@YAPBUVector2D@@V?$_Vector_const_iterator@V?$_Vector_val@U?$_Simple_types@UVector2D@@@std@@@std@@@0@@Z$0
__ehfuncinfo$??$_Unchecked@V?$_Vector_val@U?$_Simple_types@UVector2D@@@std@@@std@@@std@@YAPBUVector2D@@V?$_Vector_const_iterator@V?$_Vector_val@U?$_Simple_types@UVector2D@@@std@@@std@@@0@@Z DD 019930522H
	DD	01H
	DD	FLAT:__unwindtable$??$_Unchecked@V?$_Vector_val@U?$_Simple_types@UVector2D@@@std@@@std@@@std@@YAPBUVector2D@@V?$_Vector_const_iterator@V?$_Vector_val@U?$_Simple_types@UVector2D@@@std@@@std@@@0@@Z
	DD	2 DUP(00H)
	DD	2 DUP(00H)
	DD	00H
	DD	01H
xdata$x	ENDS
;	COMDAT xdata$x
xdata$x	SEGMENT
__ehfuncinfo$??$_Pocma@U?$_Wrap_alloc@V?$allocator@UVector2D@@@std@@@std@@@std@@YAXAAU?$_Wrap_alloc@V?$allocator@UVector2D@@@std@@@0@0U?$integral_constant@_N$00@0@@Z DD 019930522H
	DD	00H
	DD	00H
	DD	2 DUP(00H)
	DD	2 DUP(00H)
	DD	00H
	DD	05H
xdata$x	ENDS
;	COMDAT xdata$x
xdata$x	SEGMENT
__catchsym$??$_Buynode@UGraveRecord@GraveMarkers@@@?$_List_buy@UGraveRecord@GraveMarkers@@V?$allocator@UGraveRecord@GraveMarkers@@@std@@@std@@QAEPAU?$_List_node@UGraveRecord@GraveMarkers@@PAX@1@PAU21@0$$QAUGraveRecord@GraveMarkers@@@Z$2 DD 040H
	DD	00H
	DD	00H
	DD	FLAT:__catch$??$_Buynode@UGraveRecord@GraveMarkers@@@?$_List_buy@UGraveRecord@GraveMarkers@@V?$allocator@UGraveRecord@GraveMarkers@@@std@@@std@@QAEPAU?$_List_node@UGraveRecord@GraveMarkers@@PAX@1@PAU21@0$$QAUGraveRecord@GraveMarkers@@@Z$0
__unwindtable$??$_Buynode@UGraveRecord@GraveMarkers@@@?$_List_buy@UGraveRecord@GraveMarkers@@V?$allocator@UGraveRecord@GraveMarkers@@@std@@@std@@QAEPAU?$_List_node@UGraveRecord@GraveMarkers@@PAX@1@PAU21@0$$QAUGraveRecord@GraveMarkers@@@Z DD 0ffffffffH
	DD	00H
	DD	0ffffffffH
	DD	00H
__tryblocktable$??$_Buynode@UGraveRecord@GraveMarkers@@@?$_List_buy@UGraveRecord@GraveMarkers@@V?$allocator@UGraveRecord@GraveMarkers@@@std@@@std@@QAEPAU?$_List_node@UGraveRecord@GraveMarkers@@PAX@1@PAU21@0$$QAUGraveRecord@GraveMarkers@@@Z DD 00H
	DD	00H
	DD	01H
	DD	01H
	DD	FLAT:__catchsym$??$_Buynode@UGraveRecord@GraveMarkers@@@?$_List_buy@UGraveRecord@GraveMarkers@@V?$allocator@UGraveRecord@GraveMarkers@@@std@@@std@@QAEPAU?$_List_node@UGraveRecord@GraveMarkers@@PAX@1@PAU21@0$$QAUGraveRecord@GraveMarkers@@@Z$2
__ehfuncinfo$??$_Buynode@UGraveRecord@GraveMarkers@@@?$_List_buy@UGraveRecord@GraveMarkers@@V?$allocator@UGraveRecord@GraveMarkers@@@std@@@std@@QAEPAU?$_List_node@UGraveRecord@GraveMarkers@@PAX@1@PAU21@0$$QAUGraveRecord@GraveMarkers@@@Z DD 019930522H
	DD	02H
	DD	FLAT:__unwindtable$??$_Buynode@UGraveRecord@GraveMarkers@@@?$_List_buy@UGraveRecord@GraveMarkers@@V?$allocator@UGraveRecord@GraveMarkers@@@std@@@std@@QAEPAU?$_List_node@UGraveRecord@GraveMarkers@@PAX@1@PAU21@0$$QAUGraveRecord@GraveMarkers@@@Z
	DD	01H
	DD	FLAT:__tryblocktable$??$_Buynode@UGraveRecord@GraveMarkers@@@?$_List_buy@UGraveRecord@GraveMarkers@@V?$allocator@UGraveRecord@GraveMarkers@@@std@@@std@@QAEPAU?$_List_node@UGraveRecord@GraveMarkers@@PAX@1@PAU21@0$$QAUGraveRecord@GraveMarkers@@@Z
	DD	2 DUP(00H)
	DD	00H
	DD	01H
xdata$x	ENDS
;	COMDAT xdata$x
xdata$x	SEGMENT
__unwindtable$??$_Uninitialized_copy@V?$_Vector_const_iterator@V?$_Vector_val@U?$_Simple_types@UVector2D@@@std@@@std@@@std@@PAUVector2D@@U?$_Wrap_alloc@V?$allocator@UVector2D@@@std@@@2@@std@@YAPAUVector2D@@V?$_Vector_const_iterator@V?$_Vector_val@U?$_Simple_types@UVector2D@@@std@@@std@@@0@0PAU1@AAU?$_Wrap_alloc@V?$allocator@UVector2D@@@std@@@0@@Z DD 0ffffffffH
	DD	FLAT:__unwindfunclet$??$_Uninitialized_copy@V?$_Vector_const_iterator@V?$_Vector_val@U?$_Simple_types@UVector2D@@@std@@@std@@@std@@PAUVector2D@@U?$_Wrap_alloc@V?$allocator@UVector2D@@@std@@@2@@std@@YAPAUVector2D@@V?$_Vector_const_iterator@V?$_Vector_val@U?$_Simple_types@UVector2D@@@std@@@std@@@0@0PAU1@AAU?$_Wrap_alloc@V?$allocator@UVector2D@@@std@@@0@@Z$0
	DD	00H
	DD	FLAT:__unwindfunclet$??$_Uninitialized_copy@V?$_Vector_const_iterator@V?$_Vector_val@U?$_Simple_types@UVector2D@@@std@@@std@@@std@@PAUVector2D@@U?$_Wrap_alloc@V?$allocator@UVector2D@@@std@@@2@@std@@YAPAUVector2D@@V?$_Vector_const_iterator@V?$_Vector_val@U?$_Simple_types@UVector2D@@@std@@@std@@@0@0PAU1@AAU?$_Wrap_alloc@V?$allocator@UVector2D@@@std@@@0@@Z$1
__ehfuncinfo$??$_Uninitialized_copy@V?$_Vector_const_iterator@V?$_Vector_val@U?$_Simple_types@UVector2D@@@std@@@std@@@std@@PAUVector2D@@U?$_Wrap_alloc@V?$allocator@UVector2D@@@std@@@2@@std@@YAPAUVector2D@@V?$_Vector_const_iterator@V?$_Vector_val@U?$_Simple_types@UVector2D@@@std@@@std@@@0@0PAU1@AAU?$_Wrap_alloc@V?$allocator@UVector2D@@@std@@@0@@Z DD 019930522H
	DD	02H
	DD	FLAT:__unwindtable$??$_Uninitialized_copy@V?$_Vector_const_iterator@V?$_Vector_val@U?$_Simple_types@UVector2D@@@std@@@std@@@std@@PAUVector2D@@U?$_Wrap_alloc@V?$allocator@UVector2D@@@std@@@2@@std@@YAPAUVector2D@@V?$_Vector_const_iterator@V?$_Vector_val@U?$_Simple_types@UVector2D@@@std@@@std@@@0@0PAU1@AAU?$_Wrap_alloc@V?$allocator@UVector2D@@@std@@@0@@Z
	DD	2 DUP(00H)
	DD	2 DUP(00H)
	DD	00H
	DD	01H
xdata$x	ENDS
;	COMDAT xdata$x
xdata$x	SEGMENT
__unwindtable$??$_Ucopy@V?$_Vector_const_iterator@V?$_Vector_val@U?$_Simple_types@UVector2D@@@std@@@std@@@std@@@?$vector@UVector2D@@V?$allocator@UVector2D@@@std@@@std@@IAEPAUVector2D@@V?$_Vector_const_iterator@V?$_Vector_val@U?$_Simple_types@UVector2D@@@std@@@std@@@1@0PAU2@@Z DD 0ffffffffH
	DD	FLAT:__unwindfunclet$??$_Ucopy@V?$_Vector_const_iterator@V?$_Vector_val@U?$_Simple_types@UVector2D@@@std@@@std@@@std@@@?$vector@UVector2D@@V?$allocator@UVector2D@@@std@@@std@@IAEPAUVector2D@@V?$_Vector_const_iterator@V?$_Vector_val@U?$_Simple_types@UVector2D@@@std@@@std@@@1@0PAU2@@Z$0
	DD	00H
	DD	FLAT:__unwindfunclet$??$_Ucopy@V?$_Vector_const_iterator@V?$_Vector_val@U?$_Simple_types@UVector2D@@@std@@@std@@@std@@@?$vector@UVector2D@@V?$allocator@UVector2D@@@std@@@std@@IAEPAUVector2D@@V?$_Vector_const_iterator@V?$_Vector_val@U?$_Simple_types@UVector2D@@@std@@@std@@@1@0PAU2@@Z$1
	DD	01H
	DD	FLAT:__unwindfunclet$??$_Ucopy@V?$_Vector_const_iterator@V?$_Vector_val@U?$_Simple_types@UVector2D@@@std@@@std@@@std@@@?$vector@UVector2D@@V?$allocator@UVector2D@@@std@@@std@@IAEPAUVector2D@@V?$_Vector_const_iterator@V?$_Vector_val@U?$_Simple_types@UVector2D@@@std@@@std@@@1@0PAU2@@Z$2
__ehfuncinfo$??$_Ucopy@V?$_Vector_const_iterator@V?$_Vector_val@U?$_Simple_types@UVector2D@@@std@@@std@@@std@@@?$vector@UVector2D@@V?$allocator@UVector2D@@@std@@@std@@IAEPAUVector2D@@V?$_Vector_const_iterator@V?$_Vector_val@U?$_Simple_types@UVector2D@@@std@@@std@@@1@0PAU2@@Z DD 019930522H
	DD	03H
	DD	FLAT:__unwindtable$??$_Ucopy@V?$_Vector_const_iterator@V?$_Vector_val@U?$_Simple_types@UVector2D@@@std@@@std@@@std@@@?$vector@UVector2D@@V?$allocator@UVector2D@@@std@@@std@@IAEPAUVector2D@@V?$_Vector_const_iterator@V?$_Vector_val@U?$_Simple_types@UVector2D@@@std@@@std@@@1@0PAU2@@Z
	DD	2 DUP(00H)
	DD	2 DUP(00H)
	DD	00H
	DD	01H
xdata$x	ENDS
;	COMDAT xdata$x
xdata$x	SEGMENT
__unwindtable$??0?$_Vector_const_iterator@V?$_Vector_val@U?$_Simple_types@UVector2D@@@std@@@std@@@std@@QAE@PAUVector2D@@PBU_Container_base12@1@@Z DD 0ffffffffH
	DD	FLAT:__unwindfunclet$??0?$_Vector_const_iterator@V?$_Vector_val@U?$_Simple_types@UVector2D@@@std@@@std@@@std@@QAE@PAUVector2D@@PBU_Container_base12@1@@Z$0
__ehfuncinfo$??0?$_Vector_const_iterator@V?$_Vector_val@U?$_Simple_types@UVector2D@@@std@@@std@@@std@@QAE@PAUVector2D@@PBU_Container_base12@1@@Z DD 019930522H
	DD	01H
	DD	FLAT:__unwindtable$??0?$_Vector_const_iterator@V?$_Vector_val@U?$_Simple_types@UVector2D@@@std@@@std@@@std@@QAE@PAUVector2D@@PBU_Container_base12@1@@Z
	DD	2 DUP(00H)
	DD	2 DUP(00H)
	DD	00H
	DD	01H
xdata$x	ENDS
;	COMDAT xdata$x
xdata$x	SEGMENT
__unwindtable$??E?$_List_const_iterator@V?$_List_val@U?$_List_simple_types@UGraveRecord@GraveMarkers@@@std@@@std@@@std@@QAE?AV01@H@Z DD 0ffffffffH
	DD	FLAT:__unwindfunclet$??E?$_List_const_iterator@V?$_List_val@U?$_List_simple_types@UGraveRecord@GraveMarkers@@@std@@@std@@@std@@QAE?AV01@H@Z$0
__ehfuncinfo$??E?$_List_const_iterator@V?$_List_val@U?$_List_simple_types@UGraveRecord@GraveMarkers@@@std@@@std@@@std@@QAE?AV01@H@Z DD 019930522H
	DD	01H
	DD	FLAT:__unwindtable$??E?$_List_const_iterator@V?$_List_val@U?$_List_simple_types@UGraveRecord@GraveMarkers@@@std@@@std@@@std@@QAE?AV01@H@Z
	DD	2 DUP(00H)
	DD	2 DUP(00H)
	DD	00H
	DD	01H
xdata$x	ENDS
;	COMDAT xdata$x
xdata$x	SEGMENT
__unwindtable$??0?$_List_unchecked_const_iterator@V?$_List_val@U?$_List_simple_types@UGraveRecord@GraveMarkers@@@std@@@std@@U_Iterator_base12@2@@std@@QAE@PAU?$_List_node@UGraveRecord@GraveMarkers@@PAX@1@PBV?$_List_val@U?$_List_simple_types@UGraveRecord@GraveMarkers@@@std@@@1@@Z DD 0ffffffffH
	DD	FLAT:__unwindfunclet$??0?$_List_unchecked_const_iterator@V?$_List_val@U?$_List_simple_types@UGraveRecord@GraveMarkers@@@std@@@std@@U_Iterator_base12@2@@std@@QAE@PAU?$_List_node@UGraveRecord@GraveMarkers@@PAX@1@PBV?$_List_val@U?$_List_simple_types@UGraveRecord@GraveMarkers@@@std@@@1@@Z$0
__ehfuncinfo$??0?$_List_unchecked_const_iterator@V?$_List_val@U?$_List_simple_types@UGraveRecord@GraveMarkers@@@std@@@std@@U_Iterator_base12@2@@std@@QAE@PAU?$_List_node@UGraveRecord@GraveMarkers@@PAX@1@PBV?$_List_val@U?$_List_simple_types@UGraveRecord@GraveMarkers@@@std@@@1@@Z DD 019930522H
	DD	01H
	DD	FLAT:__unwindtable$??0?$_List_unchecked_const_iterator@V?$_List_val@U?$_List_simple_types@UGraveRecord@GraveMarkers@@@std@@@std@@U_Iterator_base12@2@@std@@QAE@PAU?$_List_node@UGraveRecord@GraveMarkers@@PAX@1@PBV?$_List_val@U?$_List_simple_types@UGraveRecord@GraveMarkers@@@std@@@1@@Z
	DD	2 DUP(00H)
	DD	2 DUP(00H)
	DD	00H
	DD	01H
xdata$x	ENDS
;	COMDAT xdata$x
xdata$x	SEGMENT
__unwindtable$?WorldTransform@@YA?AV?$vector@UVector2D@@V?$allocator@UVector2D@@@std@@@std@@AAV12@ABUVector2D@@111@Z DD 0ffffffffH
	DD	FLAT:__unwindfunclet$?WorldTransform@@YA?AV?$vector@UVector2D@@V?$allocator@UVector2D@@@std@@@std@@AAV12@ABUVector2D@@111@Z$0
__ehfuncinfo$?WorldTransform@@YA?AV?$vector@UVector2D@@V?$allocator@UVector2D@@@std@@@std@@AAV12@ABUVector2D@@111@Z DD 019930522H
	DD	01H
	DD	FLAT:__unwindtable$?WorldTransform@@YA?AV?$vector@UVector2D@@V?$allocator@UVector2D@@@std@@@std@@AAV12@ABUVector2D@@111@Z
	DD	2 DUP(00H)
	DD	2 DUP(00H)
	DD	00H
	DD	01H
xdata$x	ENDS
xdata$x	SEGMENT
__unwindtable$?Render@GraveMarkers@@QAEXXZ DD 0ffffffffH
	DD	FLAT:__unwindfunclet$?Render@GraveMarkers@@QAEXXZ$0
	DD	00H
	DD	FLAT:__unwindfunclet$?Render@GraveMarkers@@QAEXXZ$1
	DD	00H
	DD	FLAT:__unwindfunclet$?Render@GraveMarkers@@QAEXXZ$3
__unwindtable$?Update@GraveMarkers@@QAEXXZ DD 0ffffffffH
	DD	FLAT:__unwindfunclet$?Update@GraveMarkers@@QAEXXZ$0
	DD	00H
	DD	FLAT:__unwindfunclet$?Update@GraveMarkers@@QAEXXZ$1
	DD	00H
	DD	FLAT:__unwindfunclet$?Update@GraveMarkers@@QAEXXZ$3
__unwindtable$??0GraveMarkers@@QAE@N@Z DD 0ffffffffH
	DD	FLAT:__unwindfunclet$??0GraveMarkers@@QAE@N@Z$0
	DD	00H
	DD	FLAT:__unwindfunclet$??0GraveMarkers@@QAE@N@Z$1
	DD	01H
	DD	FLAT:__unwindfunclet$??0GraveMarkers@@QAE@N@Z$2
__ehfuncinfo$?Render@GraveMarkers@@QAEXXZ DD 019930522H
	DD	03H
	DD	FLAT:__unwindtable$?Render@GraveMarkers@@QAEXXZ
	DD	2 DUP(00H)
	DD	2 DUP(00H)
	DD	00H
	DD	01H
__ehfuncinfo$?Update@GraveMarkers@@QAEXXZ DD 019930522H
	DD	03H
	DD	FLAT:__unwindtable$?Update@GraveMarkers@@QAEXXZ
	DD	2 DUP(00H)
	DD	2 DUP(00H)
	DD	00H
	DD	01H
__ehfuncinfo$??0GraveMarkers@@QAE@N@Z DD 019930522H
	DD	03H
	DD	FLAT:__unwindtable$??0GraveMarkers@@QAE@N@Z
	DD	2 DUP(00H)
	DD	2 DUP(00H)
	DD	00H
	DD	01H
xdata$x	ENDS
;	COMDAT xdata$x
xdata$x	SEGMENT
__unwindtable$?_Orphan_ptr@?$list@UGraveRecord@GraveMarkers@@V?$allocator@UGraveRecord@GraveMarkers@@@std@@@std@@QAEXPAU?$_List_node@UGraveRecord@GraveMarkers@@PAX@2@@Z DD 0ffffffffH
	DD	FLAT:__unwindfunclet$?_Orphan_ptr@?$list@UGraveRecord@GraveMarkers@@V?$allocator@UGraveRecord@GraveMarkers@@@std@@@std@@QAEXPAU?$_List_node@UGraveRecord@GraveMarkers@@PAX@2@@Z$0
__ehfuncinfo$?_Orphan_ptr@?$list@UGraveRecord@GraveMarkers@@V?$allocator@UGraveRecord@GraveMarkers@@@std@@@std@@QAEXPAU?$_List_node@UGraveRecord@GraveMarkers@@PAX@2@@Z DD 019930522H
	DD	01H
	DD	FLAT:__unwindtable$?_Orphan_ptr@?$list@UGraveRecord@GraveMarkers@@V?$allocator@UGraveRecord@GraveMarkers@@@std@@@std@@QAEXPAU?$_List_node@UGraveRecord@GraveMarkers@@PAX@2@@Z
	DD	2 DUP(00H)
	DD	2 DUP(00H)
	DD	00H
	DD	01H
xdata$x	ENDS
;	COMDAT xdata$x
xdata$x	SEGMENT
__ehfuncinfo$?clear@?$list@UGraveRecord@GraveMarkers@@V?$allocator@UGraveRecord@GraveMarkers@@@std@@@std@@QAEXXZ DD 019930522H
	DD	00H
	DD	00H
	DD	2 DUP(00H)
	DD	2 DUP(00H)
	DD	00H
	DD	05H
xdata$x	ENDS
;	COMDAT xdata$x
xdata$x	SEGMENT
__unwindtable$?erase@?$list@UGraveRecord@GraveMarkers@@V?$allocator@UGraveRecord@GraveMarkers@@@std@@@std@@QAE?AV?$_List_iterator@V?$_List_val@U?$_List_simple_types@UGraveRecord@GraveMarkers@@@std@@@std@@@2@V?$_List_const_iterator@V?$_List_val@U?$_List_simple_types@UGraveRecord@GraveMarkers@@@std@@@std@@@2@@Z DD 0ffffffffH
	DD	FLAT:__unwindfunclet$?erase@?$list@UGraveRecord@GraveMarkers@@V?$allocator@UGraveRecord@GraveMarkers@@@std@@@std@@QAE?AV?$_List_iterator@V?$_List_val@U?$_List_simple_types@UGraveRecord@GraveMarkers@@@std@@@std@@@2@V?$_List_const_iterator@V?$_List_val@U?$_List_simple_types@UGraveRecord@GraveMarkers@@@std@@@std@@@2@@Z$0
__ehfuncinfo$?erase@?$list@UGraveRecord@GraveMarkers@@V?$allocator@UGraveRecord@GraveMarkers@@@std@@@std@@QAE?AV?$_List_iterator@V?$_List_val@U?$_List_simple_types@UGraveRecord@GraveMarkers@@@std@@@std@@@2@V?$_List_const_iterator@V?$_List_val@U?$_List_simple_types@UGraveRecord@GraveMarkers@@@std@@@std@@@2@@Z DD 019930522H
	DD	01H
	DD	FLAT:__unwindtable$?erase@?$list@UGraveRecord@GraveMarkers@@V?$allocator@UGraveRecord@GraveMarkers@@@std@@@std@@QAE?AV?$_List_iterator@V?$_List_val@U?$_List_simple_types@UGraveRecord@GraveMarkers@@@std@@@std@@@2@V?$_List_const_iterator@V?$_List_val@U?$_List_simple_types@UGraveRecord@GraveMarkers@@@std@@@std@@@2@@Z
	DD	2 DUP(00H)
	DD	2 DUP(00H)
	DD	00H
	DD	01H
xdata$x	ENDS
;	COMDAT xdata$x
xdata$x	SEGMENT
__unwindtable$?_Unlinknode@?$list@UGraveRecord@GraveMarkers@@V?$allocator@UGraveRecord@GraveMarkers@@@std@@@std@@QAEPAU?$_List_node@UGraveRecord@GraveMarkers@@PAX@2@V?$_List_const_iterator@V?$_List_val@U?$_List_simple_types@UGraveRecord@GraveMarkers@@@std@@@std@@@2@@Z DD 0ffffffffH
	DD	FLAT:__unwindfunclet$?_Unlinknode@?$list@UGraveRecord@GraveMarkers@@V?$allocator@UGraveRecord@GraveMarkers@@@std@@@std@@QAEPAU?$_List_node@UGraveRecord@GraveMarkers@@PAX@2@V?$_List_const_iterator@V?$_List_val@U?$_List_simple_types@UGraveRecord@GraveMarkers@@@std@@@std@@@2@@Z$0
__ehfuncinfo$?_Unlinknode@?$list@UGraveRecord@GraveMarkers@@V?$allocator@UGraveRecord@GraveMarkers@@@std@@@std@@QAEPAU?$_List_node@UGraveRecord@GraveMarkers@@PAX@2@V?$_List_const_iterator@V?$_List_val@U?$_List_simple_types@UGraveRecord@GraveMarkers@@@std@@@std@@@2@@Z DD 019930522H
	DD	01H
	DD	FLAT:__unwindtable$?_Unlinknode@?$list@UGraveRecord@GraveMarkers@@V?$allocator@UGraveRecord@GraveMarkers@@@std@@@std@@QAEPAU?$_List_node@UGraveRecord@GraveMarkers@@PAX@2@V?$_List_const_iterator@V?$_List_val@U?$_List_simple_types@UGraveRecord@GraveMarkers@@@std@@@std@@@2@@Z
	DD	2 DUP(00H)
	DD	2 DUP(00H)
	DD	00H
	DD	01H
xdata$x	ENDS
;	COMDAT xdata$x
xdata$x	SEGMENT
__ehfuncinfo$?_Make_iter@?$list@UGraveRecord@GraveMarkers@@V?$allocator@UGraveRecord@GraveMarkers@@@std@@@std@@QBE?AV?$_List_iterator@V?$_List_val@U?$_List_simple_types@UGraveRecord@GraveMarkers@@@std@@@std@@@2@V?$_List_const_iterator@V?$_List_val@U?$_List_simple_types@UGraveRecord@GraveMarkers@@@std@@@std@@@2@@Z DD 019930522H
	DD	00H
	DD	00H
	DD	2 DUP(00H)
	DD	2 DUP(00H)
	DD	00H
	DD	05H
xdata$x	ENDS
;	COMDAT xdata$x
xdata$x	SEGMENT
__ehfuncinfo$?end@?$list@UGraveRecord@GraveMarkers@@V?$allocator@UGraveRecord@GraveMarkers@@@std@@@std@@QAE?AV?$_List_iterator@V?$_List_val@U?$_List_simple_types@UGraveRecord@GraveMarkers@@@std@@@std@@@2@XZ DD 019930522H
	DD	00H
	DD	00H
	DD	2 DUP(00H)
	DD	2 DUP(00H)
	DD	00H
	DD	05H
xdata$x	ENDS
;	COMDAT xdata$x
xdata$x	SEGMENT
__ehfuncinfo$?begin@?$list@UGraveRecord@GraveMarkers@@V?$allocator@UGraveRecord@GraveMarkers@@@std@@@std@@QAE?AV?$_List_iterator@V?$_List_val@U?$_List_simple_types@UGraveRecord@GraveMarkers@@@std@@@std@@@2@XZ DD 019930522H
	DD	00H
	DD	00H
	DD	2 DUP(00H)
	DD	2 DUP(00H)
	DD	00H
	DD	05H
xdata$x	ENDS
;	COMDAT xdata$x
xdata$x	SEGMENT
__ehfuncinfo$??1?$list@UGraveRecord@GraveMarkers@@V?$allocator@UGraveRecord@GraveMarkers@@@std@@@std@@QAE@XZ DD 019930522H
	DD	00H
	DD	00H
	DD	2 DUP(00H)
	DD	2 DUP(00H)
	DD	00H
	DD	05H
xdata$x	ENDS
;	COMDAT xdata$x
xdata$x	SEGMENT
__catchsym$?_Buynode0@?$_List_alloc@U?$_List_base_types@UGraveRecord@GraveMarkers@@V?$allocator@UGraveRecord@GraveMarkers@@@std@@@std@@@std@@QAEPAU?$_List_node@UGraveRecord@GraveMarkers@@PAX@2@PAU32@0@Z$2 DD 040H
	DD	00H
	DD	00H
	DD	FLAT:__catch$?_Buynode0@?$_List_alloc@U?$_List_base_types@UGraveRecord@GraveMarkers@@V?$allocator@UGraveRecord@GraveMarkers@@@std@@@std@@@std@@QAEPAU?$_List_node@UGraveRecord@GraveMarkers@@PAX@2@PAU32@0@Z$0
__unwindtable$?_Buynode0@?$_List_alloc@U?$_List_base_types@UGraveRecord@GraveMarkers@@V?$allocator@UGraveRecord@GraveMarkers@@@std@@@std@@@std@@QAEPAU?$_List_node@UGraveRecord@GraveMarkers@@PAX@2@PAU32@0@Z DD 0ffffffffH
	DD	00H
	DD	0ffffffffH
	DD	00H
__tryblocktable$?_Buynode0@?$_List_alloc@U?$_List_base_types@UGraveRecord@GraveMarkers@@V?$allocator@UGraveRecord@GraveMarkers@@@std@@@std@@@std@@QAEPAU?$_List_node@UGraveRecord@GraveMarkers@@PAX@2@PAU32@0@Z DD 00H
	DD	00H
	DD	01H
	DD	01H
	DD	FLAT:__catchsym$?_Buynode0@?$_List_alloc@U?$_List_base_types@UGraveRecord@GraveMarkers@@V?$allocator@UGraveRecord@GraveMarkers@@@std@@@std@@@std@@QAEPAU?$_List_node@UGraveRecord@GraveMarkers@@PAX@2@PAU32@0@Z$2
__ehfuncinfo$?_Buynode0@?$_List_alloc@U?$_List_base_types@UGraveRecord@GraveMarkers@@V?$allocator@UGraveRecord@GraveMarkers@@@std@@@std@@@std@@QAEPAU?$_List_node@UGraveRecord@GraveMarkers@@PAX@2@PAU32@0@Z DD 019930522H
	DD	02H
	DD	FLAT:__unwindtable$?_Buynode0@?$_List_alloc@U?$_List_base_types@UGraveRecord@GraveMarkers@@V?$allocator@UGraveRecord@GraveMarkers@@@std@@@std@@@std@@QAEPAU?$_List_node@UGraveRecord@GraveMarkers@@PAX@2@PAU32@0@Z
	DD	01H
	DD	FLAT:__tryblocktable$?_Buynode0@?$_List_alloc@U?$_List_base_types@UGraveRecord@GraveMarkers@@V?$allocator@UGraveRecord@GraveMarkers@@@std@@@std@@@std@@QAEPAU?$_List_node@UGraveRecord@GraveMarkers@@PAX@2@PAU32@0@Z
	DD	2 DUP(00H)
	DD	00H
	DD	01H
xdata$x	ENDS
;	COMDAT xdata$x
xdata$x	SEGMENT
__ehfuncinfo$??1?$_List_alloc@U?$_List_base_types@UGraveRecord@GraveMarkers@@V?$allocator@UGraveRecord@GraveMarkers@@@std@@@std@@@std@@QAE@XZ DD 019930522H
	DD	00H
	DD	00H
	DD	2 DUP(00H)
	DD	2 DUP(00H)
	DD	00H
	DD	05H
xdata$x	ENDS
;	COMDAT xdata$x
xdata$x	SEGMENT
__catchsym$??0?$_List_alloc@U?$_List_base_types@UGraveRecord@GraveMarkers@@V?$allocator@UGraveRecord@GraveMarkers@@@std@@@std@@@std@@QAE@ABV?$allocator@UGraveRecord@GraveMarkers@@@1@@Z$3 DD 040H
	DD	00H
	DD	00H
	DD	FLAT:__catch$??0?$_List_alloc@U?$_List_base_types@UGraveRecord@GraveMarkers@@V?$allocator@UGraveRecord@GraveMarkers@@@std@@@std@@@std@@QAE@ABV?$allocator@UGraveRecord@GraveMarkers@@@1@@Z$0
__tryblocktable$??0?$_List_alloc@U?$_List_base_types@UGraveRecord@GraveMarkers@@V?$allocator@UGraveRecord@GraveMarkers@@@std@@@std@@@std@@QAE@ABV?$allocator@UGraveRecord@GraveMarkers@@@1@@Z DD 01H
	DD	01H
	DD	02H
	DD	01H
	DD	FLAT:__catchsym$??0?$_List_alloc@U?$_List_base_types@UGraveRecord@GraveMarkers@@V?$allocator@UGraveRecord@GraveMarkers@@@std@@@std@@@std@@QAE@ABV?$allocator@UGraveRecord@GraveMarkers@@@1@@Z$3
__unwindtable$??0?$_List_alloc@U?$_List_base_types@UGraveRecord@GraveMarkers@@V?$allocator@UGraveRecord@GraveMarkers@@@std@@@std@@@std@@QAE@ABV?$allocator@UGraveRecord@GraveMarkers@@@1@@Z DD 0ffffffffH
	DD	FLAT:__unwindfunclet$??0?$_List_alloc@U?$_List_base_types@UGraveRecord@GraveMarkers@@V?$allocator@UGraveRecord@GraveMarkers@@@std@@@std@@@std@@QAE@ABV?$allocator@UGraveRecord@GraveMarkers@@@1@@Z$2
	DD	00H
	DD	00H
	DD	00H
	DD	00H
__ehfuncinfo$??0?$_List_alloc@U?$_List_base_types@UGraveRecord@GraveMarkers@@V?$allocator@UGraveRecord@GraveMarkers@@@std@@@std@@@std@@QAE@ABV?$allocator@UGraveRecord@GraveMarkers@@@1@@Z DD 019930522H
	DD	03H
	DD	FLAT:__unwindtable$??0?$_List_alloc@U?$_List_base_types@UGraveRecord@GraveMarkers@@V?$allocator@UGraveRecord@GraveMarkers@@@std@@@std@@@std@@QAE@ABV?$allocator@UGraveRecord@GraveMarkers@@@1@@Z
	DD	01H
	DD	FLAT:__tryblocktable$??0?$_List_alloc@U?$_List_base_types@UGraveRecord@GraveMarkers@@V?$allocator@UGraveRecord@GraveMarkers@@@std@@@std@@@std@@QAE@ABV?$allocator@UGraveRecord@GraveMarkers@@@1@@Z
	DD	2 DUP(00H)
	DD	00H
	DD	01H
xdata$x	ENDS
;	COMDAT xdata$x
xdata$x	SEGMENT
__unwindtable$?_Orphan_range@?$vector@UVector2D@@V?$allocator@UVector2D@@@std@@@std@@IBEXPAUVector2D@@0@Z DD 0ffffffffH
	DD	FLAT:__unwindfunclet$?_Orphan_range@?$vector@UVector2D@@V?$allocator@UVector2D@@@std@@@std@@IBEXPAUVector2D@@0@Z$0
__ehfuncinfo$?_Orphan_range@?$vector@UVector2D@@V?$allocator@UVector2D@@@std@@@std@@IBEXPAUVector2D@@0@Z DD 019930522H
	DD	01H
	DD	FLAT:__unwindtable$?_Orphan_range@?$vector@UVector2D@@V?$allocator@UVector2D@@@std@@@std@@IBEXPAUVector2D@@0@Z
	DD	2 DUP(00H)
	DD	2 DUP(00H)
	DD	00H
	DD	01H
xdata$x	ENDS
;	COMDAT xdata$x
xdata$x	SEGMENT
__catchsym$?_Reallocate@?$vector@UVector2D@@V?$allocator@UVector2D@@@std@@@std@@IAEXI@Z$2 DD 040H
	DD	00H
	DD	00H
	DD	FLAT:__catch$?_Reallocate@?$vector@UVector2D@@V?$allocator@UVector2D@@@std@@@std@@IAEXI@Z$0
__unwindtable$?_Reallocate@?$vector@UVector2D@@V?$allocator@UVector2D@@@std@@@std@@IAEXI@Z DD 0ffffffffH
	DD	00H
	DD	0ffffffffH
	DD	00H
__tryblocktable$?_Reallocate@?$vector@UVector2D@@V?$allocator@UVector2D@@@std@@@std@@IAEXI@Z DD 00H
	DD	00H
	DD	01H
	DD	01H
	DD	FLAT:__catchsym$?_Reallocate@?$vector@UVector2D@@V?$allocator@UVector2D@@@std@@@std@@IAEXI@Z$2
__ehfuncinfo$?_Reallocate@?$vector@UVector2D@@V?$allocator@UVector2D@@@std@@@std@@IAEXI@Z DD 019930522H
	DD	02H
	DD	FLAT:__unwindtable$?_Reallocate@?$vector@UVector2D@@V?$allocator@UVector2D@@@std@@@std@@IAEXI@Z
	DD	01H
	DD	FLAT:__tryblocktable$?_Reallocate@?$vector@UVector2D@@V?$allocator@UVector2D@@@std@@@std@@IAEXI@Z
	DD	2 DUP(00H)
	DD	00H
	DD	01H
xdata$x	ENDS
;	COMDAT xdata$x
xdata$x	SEGMENT
__ehfuncinfo$?end@?$vector@UVector2D@@V?$allocator@UVector2D@@@std@@@std@@QBE?AV?$_Vector_const_iterator@V?$_Vector_val@U?$_Simple_types@UVector2D@@@std@@@std@@@2@XZ DD 019930522H
	DD	00H
	DD	00H
	DD	2 DUP(00H)
	DD	2 DUP(00H)
	DD	00H
	DD	05H
xdata$x	ENDS
;	COMDAT xdata$x
xdata$x	SEGMENT
__ehfuncinfo$?begin@?$vector@UVector2D@@V?$allocator@UVector2D@@@std@@@std@@QBE?AV?$_Vector_const_iterator@V?$_Vector_val@U?$_Simple_types@UVector2D@@@std@@@std@@@2@XZ DD 019930522H
	DD	00H
	DD	00H
	DD	2 DUP(00H)
	DD	2 DUP(00H)
	DD	00H
	DD	05H
xdata$x	ENDS
;	COMDAT xdata$x
xdata$x	SEGMENT
__ehfuncinfo$??1?$vector@UVector2D@@V?$allocator@UVector2D@@@std@@@std@@QAE@XZ DD 019930522H
	DD	00H
	DD	00H
	DD	2 DUP(00H)
	DD	2 DUP(00H)
	DD	00H
	DD	05H
xdata$x	ENDS
;	COMDAT xdata$x
xdata$x	SEGMENT
__ehfuncinfo$??4?$vector@UVector2D@@V?$allocator@UVector2D@@@std@@@std@@QAEAAV01@$$QAV01@@Z DD 019930522H
	DD	00H
	DD	00H
	DD	2 DUP(00H)
	DD	2 DUP(00H)
	DD	00H
	DD	05H
xdata$x	ENDS
;	COMDAT xdata$x
xdata$x	SEGMENT
__ehfuncinfo$??0?$vector@UVector2D@@V?$allocator@UVector2D@@@std@@@std@@QAE@$$QAV01@@Z DD 019930522H
	DD	00H
	DD	00H
	DD	2 DUP(00H)
	DD	2 DUP(00H)
	DD	00H
	DD	05H
xdata$x	ENDS
;	COMDAT xdata$x
xdata$x	SEGMENT
__catchsym$??0?$vector@UVector2D@@V?$allocator@UVector2D@@@std@@@std@@QAE@ABV01@@Z$5 DD 040H
	DD	00H
	DD	00H
	DD	FLAT:__catch$??0?$vector@UVector2D@@V?$allocator@UVector2D@@@std@@@std@@QAE@ABV01@@Z$0
__tryblocktable$??0?$vector@UVector2D@@V?$allocator@UVector2D@@@std@@@std@@QAE@ABV01@@Z DD 01H
	DD	01H
	DD	02H
	DD	01H
	DD	FLAT:__catchsym$??0?$vector@UVector2D@@V?$allocator@UVector2D@@@std@@@std@@QAE@ABV01@@Z$5
__unwindtable$??0?$vector@UVector2D@@V?$allocator@UVector2D@@@std@@@std@@QAE@ABV01@@Z DD 0ffffffffH
	DD	FLAT:__unwindfunclet$??0?$vector@UVector2D@@V?$allocator@UVector2D@@@std@@@std@@QAE@ABV01@@Z$2
	DD	00H
	DD	00H
	DD	00H
	DD	00H
__ehfuncinfo$??0?$vector@UVector2D@@V?$allocator@UVector2D@@@std@@@std@@QAE@ABV01@@Z DD 019930522H
	DD	03H
	DD	FLAT:__unwindtable$??0?$vector@UVector2D@@V?$allocator@UVector2D@@@std@@@std@@QAE@ABV01@@Z
	DD	01H
	DD	FLAT:__tryblocktable$??0?$vector@UVector2D@@V?$allocator@UVector2D@@@std@@@std@@QAE@ABV01@@Z
	DD	2 DUP(00H)
	DD	00H
	DD	01H
xdata$x	ENDS
;	COMDAT xdata$x
xdata$x	SEGMENT
__ehfuncinfo$??0?$vector@UVector2D@@V?$allocator@UVector2D@@@std@@@std@@QAE@XZ DD 019930522H
	DD	00H
	DD	00H
	DD	2 DUP(00H)
	DD	2 DUP(00H)
	DD	00H
	DD	05H
xdata$x	ENDS
;	COMDAT xdata$x
xdata$x	SEGMENT
__ehfuncinfo$??1?$_Vector_alloc@U?$_Vec_base_types@UVector2D@@V?$allocator@UVector2D@@@std@@@std@@@std@@QAE@XZ DD 019930522H
	DD	00H
	DD	00H
	DD	2 DUP(00H)
	DD	2 DUP(00H)
	DD	00H
	DD	05H
xdata$x	ENDS
;	COMDAT xdata$x
xdata$x	SEGMENT
__unwindtable$??0?$_Vector_alloc@U?$_Vec_base_types@UVector2D@@V?$allocator@UVector2D@@@std@@@std@@@std@@QAE@$$QAV?$allocator@UVector2D@@@1@@Z DD 0ffffffffH
	DD	FLAT:__unwindfunclet$??0?$_Vector_alloc@U?$_Vec_base_types@UVector2D@@V?$allocator@UVector2D@@@std@@@std@@@std@@QAE@$$QAV?$allocator@UVector2D@@@1@@Z$0
__ehfuncinfo$??0?$_Vector_alloc@U?$_Vec_base_types@UVector2D@@V?$allocator@UVector2D@@@std@@@std@@@std@@QAE@$$QAV?$allocator@UVector2D@@@1@@Z DD 019930522H
	DD	01H
	DD	FLAT:__unwindtable$??0?$_Vector_alloc@U?$_Vec_base_types@UVector2D@@V?$allocator@UVector2D@@@std@@@std@@@std@@QAE@$$QAV?$allocator@UVector2D@@@1@@Z
	DD	2 DUP(00H)
	DD	2 DUP(00H)
	DD	00H
	DD	01H
xdata$x	ENDS
;	COMDAT xdata$x
xdata$x	SEGMENT
__unwindtable$??0?$_Vector_alloc@U?$_Vec_base_types@UVector2D@@V?$allocator@UVector2D@@@std@@@std@@@std@@QAE@ABV?$allocator@UVector2D@@@1@@Z DD 0ffffffffH
	DD	FLAT:__unwindfunclet$??0?$_Vector_alloc@U?$_Vec_base_types@UVector2D@@V?$allocator@UVector2D@@@std@@@std@@@std@@QAE@ABV?$allocator@UVector2D@@@1@@Z$0
__ehfuncinfo$??0?$_Vector_alloc@U?$_Vec_base_types@UVector2D@@V?$allocator@UVector2D@@@std@@@std@@@std@@QAE@ABV?$allocator@UVector2D@@@1@@Z DD 019930522H
	DD	01H
	DD	FLAT:__unwindtable$??0?$_Vector_alloc@U?$_Vec_base_types@UVector2D@@V?$allocator@UVector2D@@@std@@@std@@@std@@QAE@ABV?$allocator@UVector2D@@@1@@Z
	DD	2 DUP(00H)
	DD	2 DUP(00H)
	DD	00H
	DD	01H
xdata$x	ENDS
;	COMDAT xdata$x
xdata$x	SEGMENT
__catchsym$?_Copy@?$basic_string@DU?$char_traits@D@std@@V?$allocator@D@2@@std@@QAEXII@Z$5 DD 040H
	DD	00H
	DD	00H
	DD	FLAT:__catch$?_Copy@?$basic_string@DU?$char_traits@D@std@@V?$allocator@D@2@@std@@QAEXII@Z$0
__catchsym$?_Copy@?$basic_string@DU?$char_traits@D@std@@V?$allocator@D@2@@std@@QAEXII@Z$4 DD 040H
	DD	00H
	DD	00H
	DD	FLAT:__catch$?_Copy@?$basic_string@DU?$char_traits@D@std@@V?$allocator@D@2@@std@@QAEXII@Z$1
__unwindtable$?_Copy@?$basic_string@DU?$char_traits@D@std@@V?$allocator@D@2@@std@@QAEXII@Z DD 0ffffffffH
	DD	00H
	DD	0ffffffffH
	DD	00H
	DD	01H
	DD	00H
	DD	01H
	DD	00H
__ehfuncinfo$?_Copy@?$basic_string@DU?$char_traits@D@std@@V?$allocator@D@2@@std@@QAEXII@Z DD 019930522H
	DD	04H
	DD	FLAT:__unwindtable$?_Copy@?$basic_string@DU?$char_traits@D@std@@V?$allocator@D@2@@std@@QAEXII@Z
	DD	02H
	DD	FLAT:__tryblocktable$?_Copy@?$basic_string@DU?$char_traits@D@std@@V?$allocator@D@2@@std@@QAEXII@Z
	DD	2 DUP(00H)
	DD	00H
	DD	01H
__tryblocktable$?_Copy@?$basic_string@DU?$char_traits@D@std@@V?$allocator@D@2@@std@@QAEXII@Z DD 02H
	DD	02H
	DD	03H
	DD	01H
	DD	FLAT:__catchsym$?_Copy@?$basic_string@DU?$char_traits@D@std@@V?$allocator@D@2@@std@@QAEXII@Z$4
	DD	00H
	DD	00H
	DD	03H
	DD	01H
	DD	FLAT:__catchsym$?_Copy@?$basic_string@DU?$char_traits@D@std@@V?$allocator@D@2@@std@@QAEXII@Z$5
xdata$x	ENDS
;	COMDAT xdata$x
xdata$x	SEGMENT
__ehfuncinfo$?c_str@?$basic_string@DU?$char_traits@D@std@@V?$allocator@D@2@@std@@QBEPBDXZ DD 019930522H
	DD	00H
	DD	00H
	DD	2 DUP(00H)
	DD	2 DUP(00H)
	DD	00H
	DD	05H
xdata$x	ENDS
;	COMDAT xdata$x
xdata$x	SEGMENT
__ehfuncinfo$??1?$basic_string@DU?$char_traits@D@std@@V?$allocator@D@2@@std@@QAE@XZ DD 019930522H
	DD	00H
	DD	00H
	DD	2 DUP(00H)
	DD	2 DUP(00H)
	DD	00H
	DD	05H
xdata$x	ENDS
;	COMDAT xdata$x
xdata$x	SEGMENT
__unwindtable$??0?$basic_string@DU?$char_traits@D@std@@V?$allocator@D@2@@std@@QAE@PBD@Z DD 0ffffffffH
	DD	FLAT:__unwindfunclet$??0?$basic_string@DU?$char_traits@D@std@@V?$allocator@D@2@@std@@QAE@PBD@Z$0
__ehfuncinfo$??0?$basic_string@DU?$char_traits@D@std@@V?$allocator@D@2@@std@@QAE@PBD@Z DD 019930522H
	DD	01H
	DD	FLAT:__unwindtable$??0?$basic_string@DU?$char_traits@D@std@@V?$allocator@D@2@@std@@QAE@PBD@Z
	DD	2 DUP(00H)
	DD	2 DUP(00H)
	DD	00H
	DD	01H
xdata$x	ENDS
;	COMDAT xdata$x
xdata$x	SEGMENT
__ehfuncinfo$??1?$_String_alloc@U?$_String_base_types@DV?$allocator@D@std@@@std@@@std@@QAE@XZ DD 019930522H
	DD	00H
	DD	00H
	DD	2 DUP(00H)
	DD	2 DUP(00H)
	DD	00H
	DD	05H
xdata$x	ENDS
;	COMDAT xdata$x
xdata$x	SEGMENT
__unwindtable$??0?$_String_alloc@U?$_String_base_types@DV?$allocator@D@std@@@std@@@std@@QAE@ABV?$allocator@D@1@@Z DD 0ffffffffH
	DD	FLAT:__unwindfunclet$??0?$_String_alloc@U?$_String_base_types@DV?$allocator@D@std@@@std@@@std@@QAE@ABV?$allocator@D@1@@Z$0
__ehfuncinfo$??0?$_String_alloc@U?$_String_base_types@DV?$allocator@D@std@@@std@@@std@@QAE@ABV?$allocator@D@1@@Z DD 019930522H
	DD	01H
	DD	FLAT:__unwindtable$??0?$_String_alloc@U?$_String_base_types@DV?$allocator@D@std@@@std@@@std@@QAE@ABV?$allocator@D@1@@Z
	DD	2 DUP(00H)
	DD	2 DUP(00H)
	DD	00H
	DD	01H
xdata$x	ENDS
;	COMDAT xdata$x
xdata$x	SEGMENT
__unwindtable$?_Adopt@_Iterator_base12@std@@QAEXPBU_Container_base12@2@@Z DD 0ffffffffH
	DD	FLAT:__unwindfunclet$?_Adopt@_Iterator_base12@std@@QAEXPBU_Container_base12@2@@Z$0
	DD	0ffffffffH
	DD	FLAT:__unwindfunclet$?_Adopt@_Iterator_base12@std@@QAEXPBU_Container_base12@2@@Z$1
__ehfuncinfo$?_Adopt@_Iterator_base12@std@@QAEXPBU_Container_base12@2@@Z DD 019930522H
	DD	02H
	DD	FLAT:__unwindtable$?_Adopt@_Iterator_base12@std@@QAEXPBU_Container_base12@2@@Z
	DD	2 DUP(00H)
	DD	2 DUP(00H)
	DD	00H
	DD	01H
xdata$x	ENDS
;	COMDAT xdata$x
xdata$x	SEGMENT
__ehfuncinfo$??1_Iterator_base12@std@@QAE@XZ DD 019930522H
	DD	00H
	DD	00H
	DD	2 DUP(00H)
	DD	2 DUP(00H)
	DD	00H
	DD	05H
xdata$x	ENDS
;	COMDAT xdata$x
xdata$x	SEGMENT
__unwindtable$??4_Iterator_base12@std@@QAEAAU01@ABU01@@Z DD 0ffffffffH
	DD	FLAT:__unwindfunclet$??4_Iterator_base12@std@@QAEAAU01@ABU01@@Z$0
__ehfuncinfo$??4_Iterator_base12@std@@QAEAAU01@ABU01@@Z DD 019930522H
	DD	01H
	DD	FLAT:__unwindtable$??4_Iterator_base12@std@@QAEAAU01@ABU01@@Z
	DD	2 DUP(00H)
	DD	2 DUP(00H)
	DD	00H
	DD	01H
xdata$x	ENDS
;	COMDAT xdata$x
xdata$x	SEGMENT
__ehfuncinfo$??1_Container_base12@std@@QAE@XZ DD 019930522H
	DD	00H
	DD	00H
	DD	2 DUP(00H)
	DD	2 DUP(00H)
	DD	00H
	DD	05H
xdata$x	ENDS
CRT$XCU	SEGMENT
?MaxDouble$initializer$@@3P6AXXZA DD FLAT:??__EMaxDouble@@YAXXZ ; MaxDouble$initializer$
CRT$XCU	ENDS
CRT$XCU	SEGMENT
?MinDouble$initializer$@@3P6AXXZA DD FLAT:??__EMinDouble@@YAXXZ ; MinDouble$initializer$
CRT$XCU	ENDS
CRT$XCU	SEGMENT
?MaxFloat$initializer$@@3P6AXXZA DD FLAT:??__EMaxFloat@@YAXXZ ; MaxFloat$initializer$
CRT$XCU	ENDS
CRT$XCU	SEGMENT
?MinFloat$initializer$@@3P6AXXZA DD FLAT:??__EMinFloat@@YAXXZ ; MinFloat$initializer$
CRT$XCU	ENDS
; Function compile flags: /Odtp /RTCsu
; File d:\microsoft visual studio 14.0\vc\include\xutility
;	COMDAT ??$_Debug_pointer@UVector2D@@@std@@YAXPAUVector2D@@PB_WI@Z
_TEXT	SEGMENT
__Ptr$ = 8						; size = 4
__File$ = 12						; size = 4
__Line$ = 16						; size = 4
??$_Debug_pointer@UVector2D@@@std@@YAXPAUVector2D@@PB_WI@Z PROC ; std::_Debug_pointer<Vector2D>, COMDAT

; 760  : 	{	// test pointer for non-singularity, pointers

	push	ebp
	mov	ebp, esp

; 761  : 	if (_Ptr == 0)

	cmp	DWORD PTR __Ptr$[ebp], 0
	jne	SHORT $LN1@Debug_poin

; 762  : 		_DEBUG_ERROR2("invalid null pointer", _File, _Line);

	mov	eax, DWORD PTR __Line$[ebp]
	push	eax
	mov	ecx, DWORD PTR __File$[ebp]
	push	ecx
	push	OFFSET ??_C@_1CK@EOPGIILJ@?$AAi?$AAn?$AAv?$AAa?$AAl?$AAi?$AAd?$AA?5?$AAn?$AAu?$AAl?$AAl?$AA?5?$AAp?$AAo?$AAi?$AAn?$AAt?$AAe?$AAr?$AA?$AA@
	call	?_Debug_message@std@@YAXPB_W0I@Z	; std::_Debug_message
	add	esp, 12					; 0000000cH
$LN1@Debug_poin:

; 763  : 	}

	cmp	ebp, esp
	call	__RTC_CheckEsp
	pop	ebp
	ret	0
??$_Debug_pointer@UVector2D@@@std@@YAXPAUVector2D@@PB_WI@Z ENDP ; std::_Debug_pointer<Vector2D>
_TEXT	ENDS
; Function compile flags: /Odtp /RTCsu
; File d:\microsoft visual studio 14.0\vc\include\xutility
;	COMDAT ??$_Debug_pointer@$$CBUVector2D@@@std@@YAXPBUVector2D@@PB_WI@Z
_TEXT	SEGMENT
__Ptr$ = 8						; size = 4
__File$ = 12						; size = 4
__Line$ = 16						; size = 4
??$_Debug_pointer@$$CBUVector2D@@@std@@YAXPBUVector2D@@PB_WI@Z PROC ; std::_Debug_pointer<Vector2D const >, COMDAT

; 760  : 	{	// test pointer for non-singularity, pointers

	push	ebp
	mov	ebp, esp

; 761  : 	if (_Ptr == 0)

	cmp	DWORD PTR __Ptr$[ebp], 0
	jne	SHORT $LN1@Debug_poin

; 762  : 		_DEBUG_ERROR2("invalid null pointer", _File, _Line);

	mov	eax, DWORD PTR __Line$[ebp]
	push	eax
	mov	ecx, DWORD PTR __File$[ebp]
	push	ecx
	push	OFFSET ??_C@_1CK@EOPGIILJ@?$AAi?$AAn?$AAv?$AAa?$AAl?$AAi?$AAd?$AA?5?$AAn?$AAu?$AAl?$AAl?$AA?5?$AAp?$AAo?$AAi?$AAn?$AAt?$AAe?$AAr?$AA?$AA@
	call	?_Debug_message@std@@YAXPB_W0I@Z	; std::_Debug_message
	add	esp, 12					; 0000000cH
$LN1@Debug_poin:

; 763  : 	}

	cmp	ebp, esp
	call	__RTC_CheckEsp
	pop	ebp
	ret	0
??$_Debug_pointer@$$CBUVector2D@@@std@@YAXPBUVector2D@@PB_WI@Z ENDP ; std::_Debug_pointer<Vector2D const >
_TEXT	ENDS
; Function compile flags: /Odtp /RTCsu
; File d:\microsoft visual studio 14.0\vc\include\xutility
;	COMDAT ??$_Debug_range_ptr2@PAUVector2D@@PAU1@@std@@YAXPAUVector2D@@0AAPAU1@PB_WIUrandom_access_iterator_tag@0@@Z
_TEXT	SEGMENT
__First$ = 8						; size = 4
__Last$ = 12						; size = 4
__Ptr$ = 16						; size = 4
__File$ = 20						; size = 4
__Line$ = 24						; size = 4
___formal$ = 28						; size = 1
??$_Debug_range_ptr2@PAUVector2D@@PAU1@@std@@YAXPAUVector2D@@0AAPAU1@PB_WIUrandom_access_iterator_tag@0@@Z PROC ; std::_Debug_range_ptr2<Vector2D *,Vector2D *>, COMDAT

; 822  : 	{	// test iterator pair for valid range/pointer, random-access iterators

	push	ebp
	mov	ebp, esp

; 823  : 	if (_First != _Last)

	mov	eax, DWORD PTR __First$[ebp]
	cmp	eax, DWORD PTR __Last$[ebp]
	je	SHORT $LN1@Debug_rang

; 824  : 		{	// check for non-null pointers, valid range
; 825  : 		_DEBUG_POINTER2(_First, _File, _Line);

	mov	ecx, DWORD PTR __Line$[ebp]
	push	ecx
	mov	edx, DWORD PTR __File$[ebp]
	push	edx
	mov	eax, DWORD PTR __First$[ebp]
	push	eax
	call	??$_Debug_pointer@UVector2D@@@std@@YAXPAUVector2D@@PB_WI@Z ; std::_Debug_pointer<Vector2D>
	add	esp, 12					; 0000000cH

; 826  : 		_DEBUG_POINTER2(_Last, _File, _Line);

	mov	ecx, DWORD PTR __Line$[ebp]
	push	ecx
	mov	edx, DWORD PTR __File$[ebp]
	push	edx
	mov	eax, DWORD PTR __Last$[ebp]
	push	eax
	call	??$_Debug_pointer@UVector2D@@@std@@YAXPAUVector2D@@PB_WI@Z ; std::_Debug_pointer<Vector2D>
	add	esp, 12					; 0000000cH

; 827  : 		if (_Last < _First)

	mov	ecx, DWORD PTR __Last$[ebp]
	cmp	ecx, DWORD PTR __First$[ebp]
	jae	SHORT $LN3@Debug_rang

; 828  : 			_DEBUG_ERROR2("invalid iterator range", _File, _Line);

	mov	edx, DWORD PTR __Line$[ebp]
	push	edx
	mov	eax, DWORD PTR __File$[ebp]
	push	eax
	push	OFFSET ??_C@_1CO@DGLIKNHI@?$AAi?$AAn?$AAv?$AAa?$AAl?$AAi?$AAd?$AA?5?$AAi?$AAt?$AAe?$AAr?$AAa?$AAt?$AAo?$AAr?$AA?5?$AAr?$AAa?$AAn?$AAg?$AAe?$AA?$AA@
	call	?_Debug_message@std@@YAXPB_W0I@Z	; std::_Debug_message
	add	esp, 12					; 0000000cH
$LN3@Debug_rang:

; 829  : 		_DEBUG_POINTER2(_Ptr, _File, _Line);	// test only if used

	mov	ecx, DWORD PTR __Line$[ebp]
	push	ecx
	mov	edx, DWORD PTR __File$[ebp]
	push	edx
	mov	eax, DWORD PTR __Ptr$[ebp]
	mov	ecx, DWORD PTR [eax]
	push	ecx
	call	??$_Debug_pointer@UVector2D@@@std@@YAXPAUVector2D@@PB_WI@Z ; std::_Debug_pointer<Vector2D>
	add	esp, 12					; 0000000cH
$LN1@Debug_rang:

; 830  : 		}
; 831  : 	}

	cmp	ebp, esp
	call	__RTC_CheckEsp
	pop	ebp
	ret	0
??$_Debug_range_ptr2@PAUVector2D@@PAU1@@std@@YAXPAUVector2D@@0AAPAU1@PB_WIUrandom_access_iterator_tag@0@@Z ENDP ; std::_Debug_range_ptr2<Vector2D *,Vector2D *>
_TEXT	ENDS
; Function compile flags: /Odtp /RTCsu
; File d:\microsoft visual studio 14.0\vc\include\xutility
;	COMDAT ??$_Iter_cat@PAUVector2D@@@std@@YA?AUrandom_access_iterator_tag@0@ABQAUVector2D@@@Z
_TEXT	SEGMENT
__Cat$ = -5						; size = 1
___$ReturnUdt$ = 8					; size = 4
___formal$ = 12						; size = 4
??$_Iter_cat@PAUVector2D@@@std@@YA?AUrandom_access_iterator_tag@0@ABQAUVector2D@@@Z PROC ; std::_Iter_cat<Vector2D *>, COMDAT

; 601  : 	{	// return category from iterator argument

	push	ebp
	mov	ebp, esp
	sub	esp, 12					; 0000000cH
	mov	DWORD PTR [ebp-12], -858993460		; ccccccccH
	mov	DWORD PTR [ebp-8], -858993460		; ccccccccH
	mov	DWORD PTR [ebp-4], -858993460		; ccccccccH

; 602  : 	typename iterator_traits<_Iter>::iterator_category _Cat;
; 603  : 	return (_Cat);

	mov	eax, DWORD PTR ___$ReturnUdt$[ebp]
	mov	cl, BYTE PTR __Cat$[ebp]
	mov	BYTE PTR [eax], cl
	mov	eax, DWORD PTR ___$ReturnUdt$[ebp]

; 604  : 	}

	push	edx
	mov	ecx, ebp
	push	eax
	lea	edx, DWORD PTR $LN5@Iter_cat
	call	@_RTC_CheckStackVars@8
	pop	eax
	pop	edx
	mov	esp, ebp
	pop	ebp
	ret	0
	npad	1
$LN5@Iter_cat:
	DD	1
	DD	$LN4@Iter_cat
$LN4@Iter_cat:
	DD	-5					; fffffffbH
	DD	1
	DD	$LN3@Iter_cat
$LN3@Iter_cat:
	DB	95					; 0000005fH
	DB	67					; 00000043H
	DB	97					; 00000061H
	DB	116					; 00000074H
	DB	0
??$_Iter_cat@PAUVector2D@@@std@@YA?AUrandom_access_iterator_tag@0@ABQAUVector2D@@@Z ENDP ; std::_Iter_cat<Vector2D *>
_TEXT	ENDS
; Function compile flags: /Odtp /RTCsu
; File d:\microsoft visual studio 14.0\vc\include\xutility
;	COMDAT ??$_Debug_range_ptr2@PBUVector2D@@PAU1@@std@@YAXPBUVector2D@@0AAPAU1@PB_WIUrandom_access_iterator_tag@0@@Z
_TEXT	SEGMENT
__First$ = 8						; size = 4
__Last$ = 12						; size = 4
__Ptr$ = 16						; size = 4
__File$ = 20						; size = 4
__Line$ = 24						; size = 4
___formal$ = 28						; size = 1
??$_Debug_range_ptr2@PBUVector2D@@PAU1@@std@@YAXPBUVector2D@@0AAPAU1@PB_WIUrandom_access_iterator_tag@0@@Z PROC ; std::_Debug_range_ptr2<Vector2D const *,Vector2D *>, COMDAT

; 822  : 	{	// test iterator pair for valid range/pointer, random-access iterators

	push	ebp
	mov	ebp, esp

; 823  : 	if (_First != _Last)

	mov	eax, DWORD PTR __First$[ebp]
	cmp	eax, DWORD PTR __Last$[ebp]
	je	SHORT $LN1@Debug_rang

; 824  : 		{	// check for non-null pointers, valid range
; 825  : 		_DEBUG_POINTER2(_First, _File, _Line);

	mov	ecx, DWORD PTR __Line$[ebp]
	push	ecx
	mov	edx, DWORD PTR __File$[ebp]
	push	edx
	mov	eax, DWORD PTR __First$[ebp]
	push	eax
	call	??$_Debug_pointer@$$CBUVector2D@@@std@@YAXPBUVector2D@@PB_WI@Z ; std::_Debug_pointer<Vector2D const >
	add	esp, 12					; 0000000cH

; 826  : 		_DEBUG_POINTER2(_Last, _File, _Line);

	mov	ecx, DWORD PTR __Line$[ebp]
	push	ecx
	mov	edx, DWORD PTR __File$[ebp]
	push	edx
	mov	eax, DWORD PTR __Last$[ebp]
	push	eax
	call	??$_Debug_pointer@$$CBUVector2D@@@std@@YAXPBUVector2D@@PB_WI@Z ; std::_Debug_pointer<Vector2D const >
	add	esp, 12					; 0000000cH

; 827  : 		if (_Last < _First)

	mov	ecx, DWORD PTR __Last$[ebp]
	cmp	ecx, DWORD PTR __First$[ebp]
	jae	SHORT $LN3@Debug_rang

; 828  : 			_DEBUG_ERROR2("invalid iterator range", _File, _Line);

	mov	edx, DWORD PTR __Line$[ebp]
	push	edx
	mov	eax, DWORD PTR __File$[ebp]
	push	eax
	push	OFFSET ??_C@_1CO@DGLIKNHI@?$AAi?$AAn?$AAv?$AAa?$AAl?$AAi?$AAd?$AA?5?$AAi?$AAt?$AAe?$AAr?$AAa?$AAt?$AAo?$AAr?$AA?5?$AAr?$AAa?$AAn?$AAg?$AAe?$AA?$AA@
	call	?_Debug_message@std@@YAXPB_W0I@Z	; std::_Debug_message
	add	esp, 12					; 0000000cH
$LN3@Debug_rang:

; 829  : 		_DEBUG_POINTER2(_Ptr, _File, _Line);	// test only if used

	mov	ecx, DWORD PTR __Line$[ebp]
	push	ecx
	mov	edx, DWORD PTR __File$[ebp]
	push	edx
	mov	eax, DWORD PTR __Ptr$[ebp]
	mov	ecx, DWORD PTR [eax]
	push	ecx
	call	??$_Debug_pointer@UVector2D@@@std@@YAXPAUVector2D@@PB_WI@Z ; std::_Debug_pointer<Vector2D>
	add	esp, 12					; 0000000cH
$LN1@Debug_rang:

; 830  : 		}
; 831  : 	}

	cmp	ebp, esp
	call	__RTC_CheckEsp
	pop	ebp
	ret	0
??$_Debug_range_ptr2@PBUVector2D@@PAU1@@std@@YAXPBUVector2D@@0AAPAU1@PB_WIUrandom_access_iterator_tag@0@@Z ENDP ; std::_Debug_range_ptr2<Vector2D const *,Vector2D *>
_TEXT	ENDS
; Function compile flags: /Odtp /RTCsu
; File d:\microsoft visual studio 14.0\vc\include\xutility
;	COMDAT ??$_Iter_cat@PBUVector2D@@@std@@YA?AUrandom_access_iterator_tag@0@ABQBUVector2D@@@Z
_TEXT	SEGMENT
__Cat$ = -5						; size = 1
___$ReturnUdt$ = 8					; size = 4
___formal$ = 12						; size = 4
??$_Iter_cat@PBUVector2D@@@std@@YA?AUrandom_access_iterator_tag@0@ABQBUVector2D@@@Z PROC ; std::_Iter_cat<Vector2D const *>, COMDAT

; 601  : 	{	// return category from iterator argument

	push	ebp
	mov	ebp, esp
	sub	esp, 12					; 0000000cH
	mov	DWORD PTR [ebp-12], -858993460		; ccccccccH
	mov	DWORD PTR [ebp-8], -858993460		; ccccccccH
	mov	DWORD PTR [ebp-4], -858993460		; ccccccccH

; 602  : 	typename iterator_traits<_Iter>::iterator_category _Cat;
; 603  : 	return (_Cat);

	mov	eax, DWORD PTR ___$ReturnUdt$[ebp]
	mov	cl, BYTE PTR __Cat$[ebp]
	mov	BYTE PTR [eax], cl
	mov	eax, DWORD PTR ___$ReturnUdt$[ebp]

; 604  : 	}

	push	edx
	mov	ecx, ebp
	push	eax
	lea	edx, DWORD PTR $LN5@Iter_cat
	call	@_RTC_CheckStackVars@8
	pop	eax
	pop	edx
	mov	esp, ebp
	pop	ebp
	ret	0
	npad	1
$LN5@Iter_cat:
	DD	1
	DD	$LN4@Iter_cat
$LN4@Iter_cat:
	DD	-5					; fffffffbH
	DD	1
	DD	$LN3@Iter_cat
$LN3@Iter_cat:
	DB	95					; 0000005fH
	DB	67					; 00000043H
	DB	97					; 00000061H
	DB	116					; 00000074H
	DB	0
??$_Iter_cat@PBUVector2D@@@std@@YA?AUrandom_access_iterator_tag@0@ABQBUVector2D@@@Z ENDP ; std::_Iter_cat<Vector2D const *>
_TEXT	ENDS
; Function compile flags: /Odtp /RTCsu
; File d:\microsoft visual studio 14.0\vc\include\xmemory0
;	COMDAT ??$destroy@UVector2D@@@?$allocator@UVector2D@@@std@@QAEXPAUVector2D@@@Z
_TEXT	SEGMENT
_this$ = -4						; size = 4
__Ptr$ = 8						; size = 4
??$destroy@UVector2D@@@?$allocator@UVector2D@@@std@@QAEXPAUVector2D@@@Z PROC ; std::allocator<Vector2D>::destroy<Vector2D>, COMDAT
; _this$ = ecx

; 663  : 		{	// destroy object at _Ptr

	push	ebp
	mov	ebp, esp
	push	ecx
	mov	DWORD PTR [ebp-4], -858993460		; ccccccccH
	mov	DWORD PTR _this$[ebp], ecx

; 664  : 		_Ptr->~_Uty();
; 665  : 		}

	mov	esp, ebp
	pop	ebp
	ret	4
??$destroy@UVector2D@@@?$allocator@UVector2D@@@std@@QAEXPAUVector2D@@@Z ENDP ; std::allocator<Vector2D>::destroy<Vector2D>
_TEXT	ENDS
; Function compile flags: /Odtp /RTCsu
; File d:\microsoft visual studio 14.0\vc\include\xutility
;	COMDAT ??$_Debug_range_ptr@PAUVector2D@@PAU1@@std@@YAXPAUVector2D@@0AAPAU1@PB_WI@Z
_TEXT	SEGMENT
$T1 = -1						; size = 1
__First$ = 8						; size = 4
__Last$ = 12						; size = 4
__Ptr$ = 16						; size = 4
__File$ = 20						; size = 4
__Line$ = 24						; size = 4
??$_Debug_range_ptr@PAUVector2D@@PAU1@@std@@YAXPAUVector2D@@0AAPAU1@PB_WI@Z PROC ; std::_Debug_range_ptr<Vector2D *,Vector2D *>, COMDAT

; 837  : 	{	// test iterator pair for valid range/pointer

	push	ebp
	mov	ebp, esp
	push	ecx
	mov	DWORD PTR [ebp-4], -858993460		; ccccccccH

; 838  : 	_Debug_range_ptr2(_First, _Last, _Ptr, _File, _Line, _Iter_cat(_First));

	lea	eax, DWORD PTR __First$[ebp]
	push	eax
	lea	ecx, DWORD PTR $T1[ebp]
	push	ecx
	call	??$_Iter_cat@PAUVector2D@@@std@@YA?AUrandom_access_iterator_tag@0@ABQAUVector2D@@@Z ; std::_Iter_cat<Vector2D *>
	add	esp, 8
	mov	dl, BYTE PTR [eax]
	movzx	eax, dl
	push	eax
	mov	ecx, DWORD PTR __Line$[ebp]
	push	ecx
	mov	edx, DWORD PTR __File$[ebp]
	push	edx
	mov	eax, DWORD PTR __Ptr$[ebp]
	push	eax
	mov	ecx, DWORD PTR __Last$[ebp]
	push	ecx
	mov	edx, DWORD PTR __First$[ebp]
	push	edx
	call	??$_Debug_range_ptr2@PAUVector2D@@PAU1@@std@@YAXPAUVector2D@@0AAPAU1@PB_WIUrandom_access_iterator_tag@0@@Z ; std::_Debug_range_ptr2<Vector2D *,Vector2D *>
	add	esp, 24					; 00000018H

; 839  : 	}

	add	esp, 4
	cmp	ebp, esp
	call	__RTC_CheckEsp
	mov	esp, ebp
	pop	ebp
	ret	0
??$_Debug_range_ptr@PAUVector2D@@PAU1@@std@@YAXPAUVector2D@@0AAPAU1@PB_WI@Z ENDP ; std::_Debug_range_ptr<Vector2D *,Vector2D *>
_TEXT	ENDS
; Function compile flags: /Odtp /RTCsu
; File d:\microsoft visual studio 14.0\vc\include\xmemory0
;	COMDAT ??$construct@UGraveRecord@GraveMarkers@@U12@@?$allocator@U?$_List_node@UGraveRecord@GraveMarkers@@PAX@std@@@std@@QAEXPAUGraveRecord@GraveMarkers@@$$QAU23@@Z
_TEXT	SEGMENT
tv74 = -12						; size = 4
$T1 = -8						; size = 4
_this$ = -4						; size = 4
__Ptr$ = 8						; size = 4
_<_Args_0>$ = 12					; size = 4
??$construct@UGraveRecord@GraveMarkers@@U12@@?$allocator@U?$_List_node@UGraveRecord@GraveMarkers@@PAX@std@@@std@@QAEXPAUGraveRecord@GraveMarkers@@$$QAU23@@Z PROC ; std::allocator<std::_List_node<GraveMarkers::GraveRecord,void *> >::construct<GraveMarkers::GraveRecord,GraveMarkers::GraveRecord>, COMDAT
; _this$ = ecx

; 656  : 		{	// construct _Objty(_Types...) at _Ptr

	push	ebp
	mov	ebp, esp
	sub	esp, 12					; 0000000cH
	mov	DWORD PTR [ebp-12], -858993460		; ccccccccH
	mov	DWORD PTR [ebp-8], -858993460		; ccccccccH
	mov	DWORD PTR [ebp-4], -858993460		; ccccccccH
	mov	DWORD PTR _this$[ebp], ecx

; 657  : 		::new ((void *)_Ptr) _Objty(_STD forward<_Types>(_Args)...);

	mov	eax, DWORD PTR __Ptr$[ebp]
	push	eax
	push	24					; 00000018H
	call	??2@YAPAXIPAX@Z				; operator new
	add	esp, 8
	mov	DWORD PTR $T1[ebp], eax
	cmp	DWORD PTR $T1[ebp], 0
	je	SHORT $LN3@construct
	mov	ecx, DWORD PTR _<_Args_0>$[ebp]
	push	ecx
	call	??$forward@UGraveRecord@GraveMarkers@@@std@@YA$$QAUGraveRecord@GraveMarkers@@AAU12@@Z ; std::forward<GraveMarkers::GraveRecord>
	add	esp, 4
	mov	edx, DWORD PTR $T1[ebp]
	mov	ecx, DWORD PTR [eax]
	mov	DWORD PTR [edx], ecx
	mov	ecx, DWORD PTR [eax+4]
	mov	DWORD PTR [edx+4], ecx
	mov	ecx, DWORD PTR [eax+8]
	mov	DWORD PTR [edx+8], ecx
	mov	ecx, DWORD PTR [eax+12]
	mov	DWORD PTR [edx+12], ecx
	mov	ecx, DWORD PTR [eax+16]
	mov	DWORD PTR [edx+16], ecx
	mov	eax, DWORD PTR [eax+20]
	mov	DWORD PTR [edx+20], eax
	mov	ecx, DWORD PTR $T1[ebp]
	mov	DWORD PTR tv74[ebp], ecx
	jmp	SHORT $LN1@construct
$LN3@construct:
	mov	DWORD PTR tv74[ebp], 0
$LN1@construct:

; 658  : 		}

	add	esp, 12					; 0000000cH
	cmp	ebp, esp
	call	__RTC_CheckEsp
	mov	esp, ebp
	pop	ebp
	ret	8
??$construct@UGraveRecord@GraveMarkers@@U12@@?$allocator@U?$_List_node@UGraveRecord@GraveMarkers@@PAX@std@@@std@@QAEXPAUGraveRecord@GraveMarkers@@$$QAU23@@Z ENDP ; std::allocator<std::_List_node<GraveMarkers::GraveRecord,void *> >::construct<GraveMarkers::GraveRecord,GraveMarkers::GraveRecord>
_TEXT	ENDS
; Function compile flags: /Odtp /RTCsu
; File d:\microsoft visual studio 14.0\vc\include\xutility
;	COMDAT ??$_Debug_range_ptr@PBUVector2D@@PAU1@@std@@YAXPBUVector2D@@0AAPAU1@PB_WI@Z
_TEXT	SEGMENT
$T1 = -1						; size = 1
__First$ = 8						; size = 4
__Last$ = 12						; size = 4
__Ptr$ = 16						; size = 4
__File$ = 20						; size = 4
__Line$ = 24						; size = 4
??$_Debug_range_ptr@PBUVector2D@@PAU1@@std@@YAXPBUVector2D@@0AAPAU1@PB_WI@Z PROC ; std::_Debug_range_ptr<Vector2D const *,Vector2D *>, COMDAT

; 837  : 	{	// test iterator pair for valid range/pointer

	push	ebp
	mov	ebp, esp
	push	ecx
	mov	DWORD PTR [ebp-4], -858993460		; ccccccccH

; 838  : 	_Debug_range_ptr2(_First, _Last, _Ptr, _File, _Line, _Iter_cat(_First));

	lea	eax, DWORD PTR __First$[ebp]
	push	eax
	lea	ecx, DWORD PTR $T1[ebp]
	push	ecx
	call	??$_Iter_cat@PBUVector2D@@@std@@YA?AUrandom_access_iterator_tag@0@ABQBUVector2D@@@Z ; std::_Iter_cat<Vector2D const *>
	add	esp, 8
	mov	dl, BYTE PTR [eax]
	movzx	eax, dl
	push	eax
	mov	ecx, DWORD PTR __Line$[ebp]
	push	ecx
	mov	edx, DWORD PTR __File$[ebp]
	push	edx
	mov	eax, DWORD PTR __Ptr$[ebp]
	push	eax
	mov	ecx, DWORD PTR __Last$[ebp]
	push	ecx
	mov	edx, DWORD PTR __First$[ebp]
	push	edx
	call	??$_Debug_range_ptr2@PBUVector2D@@PAU1@@std@@YAXPBUVector2D@@0AAPAU1@PB_WIUrandom_access_iterator_tag@0@@Z ; std::_Debug_range_ptr2<Vector2D const *,Vector2D *>
	add	esp, 24					; 00000018H

; 839  : 	}

	add	esp, 4
	cmp	ebp, esp
	call	__RTC_CheckEsp
	mov	esp, ebp
	pop	ebp
	ret	0
??$_Debug_range_ptr@PBUVector2D@@PAU1@@std@@YAXPBUVector2D@@0AAPAU1@PB_WI@Z ENDP ; std::_Debug_range_ptr<Vector2D const *,Vector2D *>
_TEXT	ENDS
; Function compile flags: /Odtp /RTCsu
; File d:\microsoft visual studio 14.0\vc\include\xmemory0
;	COMDAT ??$destroy@UVector2D@@@?$allocator_traits@V?$allocator@UVector2D@@@std@@@std@@SAXAAV?$allocator@UVector2D@@@1@PAUVector2D@@@Z
_TEXT	SEGMENT
__Al$ = 8						; size = 4
__Ptr$ = 12						; size = 4
??$destroy@UVector2D@@@?$allocator_traits@V?$allocator@UVector2D@@@std@@@std@@SAXAAV?$allocator@UVector2D@@@1@PAUVector2D@@@Z PROC ; std::allocator_traits<std::allocator<Vector2D> >::destroy<Vector2D>, COMDAT

; 781  : 		{	// destroy object at _Ptr

	push	ebp
	mov	ebp, esp

; 782  : 		_Al.destroy(_Ptr);

	mov	eax, DWORD PTR __Ptr$[ebp]
	push	eax
	mov	ecx, DWORD PTR __Al$[ebp]
	call	??$destroy@UVector2D@@@?$allocator@UVector2D@@@std@@QAEXPAUVector2D@@@Z ; std::allocator<Vector2D>::destroy<Vector2D>

; 783  : 		}

	cmp	ebp, esp
	call	__RTC_CheckEsp
	pop	ebp
	ret	0
??$destroy@UVector2D@@@?$allocator_traits@V?$allocator@UVector2D@@@std@@@std@@SAXAAV?$allocator@UVector2D@@@1@PAUVector2D@@@Z ENDP ; std::allocator_traits<std::allocator<Vector2D> >::destroy<Vector2D>
_TEXT	ENDS
; Function compile flags: /Odtp /RTCsu
; File d:\microsoft visual studio 14.0\vc\include\xmemory
;	COMDAT ??$_Uninit_move@PAUVector2D@@PAU1@V?$allocator@UVector2D@@@std@@U1@@std@@YAPAUVector2D@@PAU1@00AAU?$_Wrap_alloc@V?$allocator@UVector2D@@@std@@@0@0U_Nonscalar_ptr_iterator_tag@0@@Z
_TEXT	SEGMENT
__Next$ = -20						; size = 4
__$EHRec$ = -16						; size = 16
__First$ = 8						; size = 4
__Last$ = 12						; size = 4
__Dest$ = 16						; size = 4
__Al$ = 20						; size = 4
___formal$ = 24						; size = 4
___formal$ = 28						; size = 1
??$_Uninit_move@PAUVector2D@@PAU1@V?$allocator@UVector2D@@@std@@U1@@std@@YAPAUVector2D@@PAU1@00AAU?$_Wrap_alloc@V?$allocator@UVector2D@@@std@@@0@0U_Nonscalar_ptr_iterator_tag@0@@Z PROC ; std::_Uninit_move<Vector2D *,Vector2D *,std::allocator<Vector2D>,Vector2D>, COMDAT

; 437  : 	{	// move [_First, _Last) to raw _Dest, using _Al, arbitrary type

	push	ebp
	mov	ebp, esp
	push	-1
	push	__ehhandler$??$_Uninit_move@PAUVector2D@@PAU1@V?$allocator@UVector2D@@@std@@U1@@std@@YAPAUVector2D@@PAU1@00AAU?$_Wrap_alloc@V?$allocator@UVector2D@@@std@@@0@0U_Nonscalar_ptr_iterator_tag@0@@Z
	mov	eax, DWORD PTR fs:0
	push	eax
	push	ecx
	push	ecx
	push	ebx
	push	esi
	push	edi
	mov	DWORD PTR [ebp-20], -858993460		; ccccccccH
	mov	eax, DWORD PTR ___security_cookie
	xor	eax, ebp
	push	eax
	lea	eax, DWORD PTR __$EHRec$[ebp+4]
	mov	DWORD PTR fs:0, eax
	mov	DWORD PTR __$EHRec$[ebp], esp

; 438  : 	_DEBUG_RANGE_PTR(_First, _Last, _Dest);

	push	438					; 000001b6H
	push	OFFSET ??_C@_1GG@BIHJGGHN@?$AAD?$AA?3?$AA?2?$AAM?$AAi?$AAc?$AAr?$AAo?$AAs?$AAo?$AAf?$AAt?$AA?5?$AAV?$AAi?$AAs?$AAu?$AAa?$AAl?$AA?5?$AAS?$AAt?$AAu?$AAd?$AAi?$AAo?$AA?5?$AA1?$AA4?$AA?4?$AA0?$AA?2@
	lea	eax, DWORD PTR __Dest$[ebp]
	push	eax
	mov	ecx, DWORD PTR __Last$[ebp]
	push	ecx
	mov	edx, DWORD PTR __First$[ebp]
	push	edx
	call	??$_Debug_range_ptr@PAUVector2D@@PAU1@@std@@YAXPAUVector2D@@0AAPAU1@PB_WI@Z ; std::_Debug_range_ptr<Vector2D *,Vector2D *>
	add	esp, 20					; 00000014H

; 439  : 	_FwdIt _Next = _Dest;

	mov	eax, DWORD PTR __Dest$[ebp]
	mov	DWORD PTR __Next$[ebp], eax

; 440  : 
; 441  : 	_TRY_BEGIN

	mov	DWORD PTR __$EHRec$[ebp+12], 0

; 442  : 	for (; _First != _Last; ++_Dest, (void)++_First)

	jmp	SHORT $LN4@Uninit_mov
$LN2@Uninit_mov:
	mov	ecx, DWORD PTR __Dest$[ebp]
	add	ecx, 16					; 00000010H
	mov	DWORD PTR __Dest$[ebp], ecx
	mov	edx, DWORD PTR __First$[ebp]
	add	edx, 16					; 00000010H
	mov	DWORD PTR __First$[ebp], edx
$LN4@Uninit_mov:
	mov	eax, DWORD PTR __First$[ebp]
	cmp	eax, DWORD PTR __Last$[ebp]
	je	SHORT $LN3@Uninit_mov

; 443  : 		_Al.construct(_Dest, (_Valty&&)*_First);

	mov	ecx, DWORD PTR __First$[ebp]
	push	ecx
	mov	edx, DWORD PTR __Dest$[ebp]
	push	edx
	mov	ecx, DWORD PTR __Al$[ebp]
	call	??$construct@UVector2D@@U1@@?$_Wrap_alloc@V?$allocator@UVector2D@@@std@@@std@@QAEXPAUVector2D@@$$QAU2@@Z ; std::_Wrap_alloc<std::allocator<Vector2D> >::construct<Vector2D,Vector2D>
	jmp	SHORT $LN2@Uninit_mov
$LN3@Uninit_mov:
	jmp	SHORT $LN10@Uninit_mov
__catch$??$_Uninit_move@PAUVector2D@@PAU1@V?$allocator@UVector2D@@@std@@U1@@std@@YAPAUVector2D@@PAU1@00AAU?$_Wrap_alloc@V?$allocator@UVector2D@@@std@@@0@0U_Nonscalar_ptr_iterator_tag@0@@Z$0:

; 444  : 	_CATCH_ALL
; 445  : 	for (; _Next != _Dest; ++_Next)

	jmp	SHORT $LN7@Uninit_mov
$LN5@Uninit_mov:
	mov	eax, DWORD PTR __Next$[ebp]
	add	eax, 16					; 00000010H
	mov	DWORD PTR __Next$[ebp], eax
$LN7@Uninit_mov:
	mov	ecx, DWORD PTR __Next$[ebp]
	cmp	ecx, DWORD PTR __Dest$[ebp]
	je	SHORT $LN6@Uninit_mov

; 446  : 		_Al.destroy(_Next);

	mov	edx, DWORD PTR __Next$[ebp]
	push	edx
	mov	ecx, DWORD PTR __Al$[ebp]
	call	??$destroy@UVector2D@@@?$_Wrap_alloc@V?$allocator@UVector2D@@@std@@@std@@QAEXPAUVector2D@@@Z ; std::_Wrap_alloc<std::allocator<Vector2D> >::destroy<Vector2D>
	jmp	SHORT $LN5@Uninit_mov
$LN6@Uninit_mov:

; 447  : 	_RERAISE;

	push	0
	push	0
	call	__CxxThrowException@8

; 448  : 	_CATCH_END

	mov	eax, $LN13@Uninit_mov
	ret	0
$LN10@Uninit_mov:
	mov	DWORD PTR __$EHRec$[ebp+12], -1
	jmp	SHORT __tryend$??$_Uninit_move@PAUVector2D@@PAU1@V?$allocator@UVector2D@@@std@@U1@@std@@YAPAUVector2D@@PAU1@00AAU?$_Wrap_alloc@V?$allocator@UVector2D@@@std@@@0@0U_Nonscalar_ptr_iterator_tag@0@@Z$1
$LN13@Uninit_mov:
	mov	DWORD PTR __$EHRec$[ebp+12], -1
__tryend$??$_Uninit_move@PAUVector2D@@PAU1@V?$allocator@UVector2D@@@std@@U1@@std@@YAPAUVector2D@@PAU1@00AAU?$_Wrap_alloc@V?$allocator@UVector2D@@@std@@@0@0U_Nonscalar_ptr_iterator_tag@0@@Z$1:

; 449  : 	return (_Dest);

	mov	eax, DWORD PTR __Dest$[ebp]
$LN9@Uninit_mov:

; 450  : 	}

	mov	ecx, DWORD PTR __$EHRec$[ebp+4]
	mov	DWORD PTR fs:0, ecx
	pop	ecx
	pop	edi
	pop	esi
	pop	ebx
	add	esp, 20					; 00000014H
	cmp	ebp, esp
	call	__RTC_CheckEsp
	mov	esp, ebp
	pop	ebp
	ret	0
_TEXT	ENDS
;	COMDAT text$x
text$x	SEGMENT
__ehhandler$??$_Uninit_move@PAUVector2D@@PAU1@V?$allocator@UVector2D@@@std@@U1@@std@@YAPAUVector2D@@PAU1@00AAU?$_Wrap_alloc@V?$allocator@UVector2D@@@std@@@0@0U_Nonscalar_ptr_iterator_tag@0@@Z:
	mov	edx, DWORD PTR [esp+8]
	lea	eax, DWORD PTR [edx+12]
	mov	ecx, DWORD PTR [edx-24]
	xor	ecx, eax
	call	@__security_check_cookie@4
	mov	eax, OFFSET __ehfuncinfo$??$_Uninit_move@PAUVector2D@@PAU1@V?$allocator@UVector2D@@@std@@U1@@std@@YAPAUVector2D@@PAU1@00AAU?$_Wrap_alloc@V?$allocator@UVector2D@@@std@@@0@0U_Nonscalar_ptr_iterator_tag@0@@Z
	jmp	___CxxFrameHandler3
text$x	ENDS
??$_Uninit_move@PAUVector2D@@PAU1@V?$allocator@UVector2D@@@std@@U1@@std@@YAPAUVector2D@@PAU1@00AAU?$_Wrap_alloc@V?$allocator@UVector2D@@@std@@@0@0U_Nonscalar_ptr_iterator_tag@0@@Z ENDP ; std::_Uninit_move<Vector2D *,Vector2D *,std::allocator<Vector2D>,Vector2D>
; Function compile flags: /Odtp /RTCsu
; File d:\microsoft visual studio 14.0\vc\include\xutility
;	COMDAT ??$_Val_type@PAUVector2D@@@std@@YAPAUVector2D@@PAU1@@Z
_TEXT	SEGMENT
___formal$ = 8						; size = 4
??$_Val_type@PAUVector2D@@@std@@YAPAUVector2D@@PAU1@@Z PROC ; std::_Val_type<Vector2D *>, COMDAT

; 874  : 	{	// return value type from arbitrary argument

	push	ebp
	mov	ebp, esp

; 875  : 	return (0);

	xor	eax, eax

; 876  : 	}

	pop	ebp
	ret	0
??$_Val_type@PAUVector2D@@@std@@YAPAUVector2D@@PAU1@@Z ENDP ; std::_Val_type<Vector2D *>
_TEXT	ENDS
; Function compile flags: /Odtp /RTCsu
; File d:\microsoft visual studio 14.0\vc\include\xmemory0
;	COMDAT ??$construct@UGraveRecord@GraveMarkers@@U12@@?$allocator_traits@V?$allocator@U?$_List_node@UGraveRecord@GraveMarkers@@PAX@std@@@std@@@std@@SAXAAV?$allocator@U?$_List_node@UGraveRecord@GraveMarkers@@PAX@std@@@1@PAUGraveRecord@GraveMarkers@@$$QAU34@@Z
_TEXT	SEGMENT
__Al$ = 8						; size = 4
__Ptr$ = 12						; size = 4
_<_Args_0>$ = 16					; size = 4
??$construct@UGraveRecord@GraveMarkers@@U12@@?$allocator_traits@V?$allocator@U?$_List_node@UGraveRecord@GraveMarkers@@PAX@std@@@std@@@std@@SAXAAV?$allocator@U?$_List_node@UGraveRecord@GraveMarkers@@PAX@std@@@1@PAUGraveRecord@GraveMarkers@@$$QAU34@@Z PROC ; std::allocator_traits<std::allocator<std::_List_node<GraveMarkers::GraveRecord,void *> > >::construct<GraveMarkers::GraveRecord,GraveMarkers::GraveRecord>, COMDAT

; 774  : 		{	// construct _Objty(_Types...) at _Ptr

	push	ebp
	mov	ebp, esp

; 775  : 		_Al.construct(_Ptr, _STD forward<_Types>(_Args)...);

	mov	eax, DWORD PTR _<_Args_0>$[ebp]
	push	eax
	call	??$forward@UGraveRecord@GraveMarkers@@@std@@YA$$QAUGraveRecord@GraveMarkers@@AAU12@@Z ; std::forward<GraveMarkers::GraveRecord>
	add	esp, 4
	push	eax
	mov	ecx, DWORD PTR __Ptr$[ebp]
	push	ecx
	mov	ecx, DWORD PTR __Al$[ebp]
	call	??$construct@UGraveRecord@GraveMarkers@@U12@@?$allocator@U?$_List_node@UGraveRecord@GraveMarkers@@PAX@std@@@std@@QAEXPAUGraveRecord@GraveMarkers@@$$QAU23@@Z ; std::allocator<std::_List_node<GraveMarkers::GraveRecord,void *> >::construct<GraveMarkers::GraveRecord,GraveMarkers::GraveRecord>

; 776  : 		}

	cmp	ebp, esp
	call	__RTC_CheckEsp
	pop	ebp
	ret	0
??$construct@UGraveRecord@GraveMarkers@@U12@@?$allocator_traits@V?$allocator@U?$_List_node@UGraveRecord@GraveMarkers@@PAX@std@@@std@@@std@@SAXAAV?$allocator@U?$_List_node@UGraveRecord@GraveMarkers@@PAX@std@@@1@PAUGraveRecord@GraveMarkers@@$$QAU34@@Z ENDP ; std::allocator_traits<std::allocator<std::_List_node<GraveMarkers::GraveRecord,void *> > >::construct<GraveMarkers::GraveRecord,GraveMarkers::GraveRecord>
_TEXT	ENDS
; Function compile flags: /Odtp /RTCsu
; File d:\microsoft visual studio 14.0\vc\include\xmemory
;	COMDAT ??$_Uninit_copy@PBUVector2D@@PAU1@V?$allocator@UVector2D@@@std@@@std@@YAPAUVector2D@@PBU1@0PAU1@AAU?$_Wrap_alloc@V?$allocator@UVector2D@@@std@@@0@U_Nonscalar_ptr_iterator_tag@0@@Z
_TEXT	SEGMENT
__Next$ = -20						; size = 4
__$EHRec$ = -16						; size = 16
__First$ = 8						; size = 4
__Last$ = 12						; size = 4
__Dest$ = 16						; size = 4
__Al$ = 20						; size = 4
___formal$ = 24						; size = 1
??$_Uninit_copy@PBUVector2D@@PAU1@V?$allocator@UVector2D@@@std@@@std@@YAPAUVector2D@@PBU1@0PAU1@AAU?$_Wrap_alloc@V?$allocator@UVector2D@@@std@@@0@U_Nonscalar_ptr_iterator_tag@0@@Z PROC ; std::_Uninit_copy<Vector2D const *,Vector2D *,std::allocator<Vector2D> >, COMDAT

; 373  : 	{	// copy [_First, _Last) to raw _Dest, using _Al, arbitrary type

	push	ebp
	mov	ebp, esp
	push	-1
	push	__ehhandler$??$_Uninit_copy@PBUVector2D@@PAU1@V?$allocator@UVector2D@@@std@@@std@@YAPAUVector2D@@PBU1@0PAU1@AAU?$_Wrap_alloc@V?$allocator@UVector2D@@@std@@@0@U_Nonscalar_ptr_iterator_tag@0@@Z
	mov	eax, DWORD PTR fs:0
	push	eax
	push	ecx
	push	ecx
	push	ebx
	push	esi
	push	edi
	mov	DWORD PTR [ebp-20], -858993460		; ccccccccH
	mov	eax, DWORD PTR ___security_cookie
	xor	eax, ebp
	push	eax
	lea	eax, DWORD PTR __$EHRec$[ebp+4]
	mov	DWORD PTR fs:0, eax
	mov	DWORD PTR __$EHRec$[ebp], esp

; 374  : 	_DEBUG_RANGE_PTR(_First, _Last, _Dest);

	push	374					; 00000176H
	push	OFFSET ??_C@_1GG@BIHJGGHN@?$AAD?$AA?3?$AA?2?$AAM?$AAi?$AAc?$AAr?$AAo?$AAs?$AAo?$AAf?$AAt?$AA?5?$AAV?$AAi?$AAs?$AAu?$AAa?$AAl?$AA?5?$AAS?$AAt?$AAu?$AAd?$AAi?$AAo?$AA?5?$AA1?$AA4?$AA?4?$AA0?$AA?2@
	lea	eax, DWORD PTR __Dest$[ebp]
	push	eax
	mov	ecx, DWORD PTR __Last$[ebp]
	push	ecx
	mov	edx, DWORD PTR __First$[ebp]
	push	edx
	call	??$_Debug_range_ptr@PBUVector2D@@PAU1@@std@@YAXPBUVector2D@@0AAPAU1@PB_WI@Z ; std::_Debug_range_ptr<Vector2D const *,Vector2D *>
	add	esp, 20					; 00000014H

; 375  : 	_FwdIt _Next = _Dest;

	mov	eax, DWORD PTR __Dest$[ebp]
	mov	DWORD PTR __Next$[ebp], eax

; 376  : 
; 377  : 	_TRY_BEGIN

	mov	DWORD PTR __$EHRec$[ebp+12], 0

; 378  : 	for (; _First != _Last; ++_Dest, (void)++_First)

	jmp	SHORT $LN4@Uninit_cop
$LN2@Uninit_cop:
	mov	ecx, DWORD PTR __Dest$[ebp]
	add	ecx, 16					; 00000010H
	mov	DWORD PTR __Dest$[ebp], ecx
	mov	edx, DWORD PTR __First$[ebp]
	add	edx, 16					; 00000010H
	mov	DWORD PTR __First$[ebp], edx
$LN4@Uninit_cop:
	mov	eax, DWORD PTR __First$[ebp]
	cmp	eax, DWORD PTR __Last$[ebp]
	je	SHORT $LN3@Uninit_cop

; 379  : 		_Al.construct(_Dest, *_First);

	mov	ecx, DWORD PTR __First$[ebp]
	push	ecx
	mov	edx, DWORD PTR __Dest$[ebp]
	push	edx
	mov	ecx, DWORD PTR __Al$[ebp]
	call	??$construct@UVector2D@@ABU1@@?$_Wrap_alloc@V?$allocator@UVector2D@@@std@@@std@@QAEXPAUVector2D@@ABU2@@Z ; std::_Wrap_alloc<std::allocator<Vector2D> >::construct<Vector2D,Vector2D const &>
	jmp	SHORT $LN2@Uninit_cop
$LN3@Uninit_cop:
	jmp	SHORT $LN10@Uninit_cop
__catch$??$_Uninit_copy@PBUVector2D@@PAU1@V?$allocator@UVector2D@@@std@@@std@@YAPAUVector2D@@PBU1@0PAU1@AAU?$_Wrap_alloc@V?$allocator@UVector2D@@@std@@@0@U_Nonscalar_ptr_iterator_tag@0@@Z$0:

; 380  : 	_CATCH_ALL
; 381  : 	for (; _Next != _Dest; ++_Next)

	jmp	SHORT $LN7@Uninit_cop
$LN5@Uninit_cop:
	mov	eax, DWORD PTR __Next$[ebp]
	add	eax, 16					; 00000010H
	mov	DWORD PTR __Next$[ebp], eax
$LN7@Uninit_cop:
	mov	ecx, DWORD PTR __Next$[ebp]
	cmp	ecx, DWORD PTR __Dest$[ebp]
	je	SHORT $LN6@Uninit_cop

; 382  : 		_Al.destroy(_Next);

	mov	edx, DWORD PTR __Next$[ebp]
	push	edx
	mov	ecx, DWORD PTR __Al$[ebp]
	call	??$destroy@UVector2D@@@?$_Wrap_alloc@V?$allocator@UVector2D@@@std@@@std@@QAEXPAUVector2D@@@Z ; std::_Wrap_alloc<std::allocator<Vector2D> >::destroy<Vector2D>
	jmp	SHORT $LN5@Uninit_cop
$LN6@Uninit_cop:

; 383  : 	_RERAISE;

	push	0
	push	0
	call	__CxxThrowException@8

; 384  : 	_CATCH_END

	mov	eax, $LN13@Uninit_cop
	ret	0
$LN10@Uninit_cop:
	mov	DWORD PTR __$EHRec$[ebp+12], -1
	jmp	SHORT __tryend$??$_Uninit_copy@PBUVector2D@@PAU1@V?$allocator@UVector2D@@@std@@@std@@YAPAUVector2D@@PBU1@0PAU1@AAU?$_Wrap_alloc@V?$allocator@UVector2D@@@std@@@0@U_Nonscalar_ptr_iterator_tag@0@@Z$1
$LN13@Uninit_cop:
	mov	DWORD PTR __$EHRec$[ebp+12], -1
__tryend$??$_Uninit_copy@PBUVector2D@@PAU1@V?$allocator@UVector2D@@@std@@@std@@YAPAUVector2D@@PBU1@0PAU1@AAU?$_Wrap_alloc@V?$allocator@UVector2D@@@std@@@0@U_Nonscalar_ptr_iterator_tag@0@@Z$1:

; 385  : 	return (_Dest);

	mov	eax, DWORD PTR __Dest$[ebp]
$LN9@Uninit_cop:

; 386  : 	}

	mov	ecx, DWORD PTR __$EHRec$[ebp+4]
	mov	DWORD PTR fs:0, ecx
	pop	ecx
	pop	edi
	pop	esi
	pop	ebx
	add	esp, 20					; 00000014H
	cmp	ebp, esp
	call	__RTC_CheckEsp
	mov	esp, ebp
	pop	ebp
	ret	0
_TEXT	ENDS
;	COMDAT text$x
text$x	SEGMENT
__ehhandler$??$_Uninit_copy@PBUVector2D@@PAU1@V?$allocator@UVector2D@@@std@@@std@@YAPAUVector2D@@PBU1@0PAU1@AAU?$_Wrap_alloc@V?$allocator@UVector2D@@@std@@@0@U_Nonscalar_ptr_iterator_tag@0@@Z:
	mov	edx, DWORD PTR [esp+8]
	lea	eax, DWORD PTR [edx+12]
	mov	ecx, DWORD PTR [edx-24]
	xor	ecx, eax
	call	@__security_check_cookie@4
	mov	eax, OFFSET __ehfuncinfo$??$_Uninit_copy@PBUVector2D@@PAU1@V?$allocator@UVector2D@@@std@@@std@@YAPAUVector2D@@PBU1@0PAU1@AAU?$_Wrap_alloc@V?$allocator@UVector2D@@@std@@@0@U_Nonscalar_ptr_iterator_tag@0@@Z
	jmp	___CxxFrameHandler3
text$x	ENDS
??$_Uninit_copy@PBUVector2D@@PAU1@V?$allocator@UVector2D@@@std@@@std@@YAPAUVector2D@@PBU1@0PAU1@AAU?$_Wrap_alloc@V?$allocator@UVector2D@@@std@@@0@U_Nonscalar_ptr_iterator_tag@0@@Z ENDP ; std::_Uninit_copy<Vector2D const *,Vector2D *,std::allocator<Vector2D> >
; Function compile flags: /Odtp /RTCsu
; File d:\microsoft visual studio 14.0\vc\include\xmemory0
;	COMDAT ??$construct@PAU?$_List_node@UGraveRecord@GraveMarkers@@PAX@std@@AAPAU12@@?$allocator@U?$_List_node@UGraveRecord@GraveMarkers@@PAX@std@@@std@@QAEXPAPAU?$_List_node@UGraveRecord@GraveMarkers@@PAX@1@AAPAU21@@Z
_TEXT	SEGMENT
tv73 = -12						; size = 4
$T1 = -8						; size = 4
_this$ = -4						; size = 4
__Ptr$ = 8						; size = 4
_<_Args_0>$ = 12					; size = 4
??$construct@PAU?$_List_node@UGraveRecord@GraveMarkers@@PAX@std@@AAPAU12@@?$allocator@U?$_List_node@UGraveRecord@GraveMarkers@@PAX@std@@@std@@QAEXPAPAU?$_List_node@UGraveRecord@GraveMarkers@@PAX@1@AAPAU21@@Z PROC ; std::allocator<std::_List_node<GraveMarkers::GraveRecord,void *> >::construct<std::_List_node<GraveMarkers::GraveRecord,void *> *,std::_List_node<GraveMarkers::GraveRecord,void *> * &>, COMDAT
; _this$ = ecx

; 656  : 		{	// construct _Objty(_Types...) at _Ptr

	push	ebp
	mov	ebp, esp
	sub	esp, 12					; 0000000cH
	mov	DWORD PTR [ebp-12], -858993460		; ccccccccH
	mov	DWORD PTR [ebp-8], -858993460		; ccccccccH
	mov	DWORD PTR [ebp-4], -858993460		; ccccccccH
	mov	DWORD PTR _this$[ebp], ecx

; 657  : 		::new ((void *)_Ptr) _Objty(_STD forward<_Types>(_Args)...);

	mov	eax, DWORD PTR __Ptr$[ebp]
	push	eax
	push	4
	call	??2@YAPAXIPAX@Z				; operator new
	add	esp, 8
	mov	DWORD PTR $T1[ebp], eax
	cmp	DWORD PTR $T1[ebp], 0
	je	SHORT $LN3@construct
	mov	ecx, DWORD PTR _<_Args_0>$[ebp]
	push	ecx
	call	??$forward@AAPAU?$_List_node@UGraveRecord@GraveMarkers@@PAX@std@@@std@@YAAAPAU?$_List_node@UGraveRecord@GraveMarkers@@PAX@0@AAPAU10@@Z ; std::forward<std::_List_node<GraveMarkers::GraveRecord,void *> * &>
	add	esp, 4
	mov	edx, DWORD PTR $T1[ebp]
	mov	eax, DWORD PTR [eax]
	mov	DWORD PTR [edx], eax
	mov	ecx, DWORD PTR $T1[ebp]
	mov	DWORD PTR tv73[ebp], ecx
	jmp	SHORT $LN1@construct
$LN3@construct:
	mov	DWORD PTR tv73[ebp], 0
$LN1@construct:

; 658  : 		}

	add	esp, 12					; 0000000cH
	cmp	ebp, esp
	call	__RTC_CheckEsp
	mov	esp, ebp
	pop	ebp
	ret	8
??$construct@PAU?$_List_node@UGraveRecord@GraveMarkers@@PAX@std@@AAPAU12@@?$allocator@U?$_List_node@UGraveRecord@GraveMarkers@@PAX@std@@@std@@QAEXPAPAU?$_List_node@UGraveRecord@GraveMarkers@@PAX@1@AAPAU21@@Z ENDP ; std::allocator<std::_List_node<GraveMarkers::GraveRecord,void *> >::construct<std::_List_node<GraveMarkers::GraveRecord,void *> *,std::_List_node<GraveMarkers::GraveRecord,void *> * &>
_TEXT	ENDS
; Function compile flags: /Odtp /RTCsu
; File d:\microsoft visual studio 14.0\vc\include\xmemory0
;	COMDAT ??$destroy@UVector2D@@@?$_Wrap_alloc@V?$allocator@UVector2D@@@std@@@std@@QAEXPAUVector2D@@@Z
_TEXT	SEGMENT
_this$ = -4						; size = 4
__Ptr$ = 8						; size = 4
??$destroy@UVector2D@@@?$_Wrap_alloc@V?$allocator@UVector2D@@@std@@@std@@QAEXPAUVector2D@@@Z PROC ; std::_Wrap_alloc<std::allocator<Vector2D> >::destroy<Vector2D>, COMDAT
; _this$ = ecx

; 926  : 		{	// destroy object at _Ptr

	push	ebp
	mov	ebp, esp
	push	ecx
	mov	DWORD PTR [ebp-4], -858993460		; ccccccccH
	mov	DWORD PTR _this$[ebp], ecx

; 927  : 		_Mytraits::destroy(*this, _Ptr);

	mov	eax, DWORD PTR __Ptr$[ebp]
	push	eax
	mov	ecx, DWORD PTR _this$[ebp]
	push	ecx
	call	??$destroy@UVector2D@@@?$allocator_traits@V?$allocator@UVector2D@@@std@@@std@@SAXAAV?$allocator@UVector2D@@@1@PAUVector2D@@@Z ; std::allocator_traits<std::allocator<Vector2D> >::destroy<Vector2D>
	add	esp, 8

; 928  : 		}

	add	esp, 4
	cmp	ebp, esp
	call	__RTC_CheckEsp
	mov	esp, ebp
	pop	ebp
	ret	4
??$destroy@UVector2D@@@?$_Wrap_alloc@V?$allocator@UVector2D@@@std@@@std@@QAEXPAUVector2D@@@Z ENDP ; std::_Wrap_alloc<std::allocator<Vector2D> >::destroy<Vector2D>
_TEXT	ENDS
; Function compile flags: /Odtp /RTCsu
; File d:\microsoft visual studio 14.0\vc\include\xmemory
;	COMDAT ??$_Uninit_move@PAUVector2D@@PAU1@U?$_Wrap_alloc@V?$allocator@UVector2D@@@std@@@std@@@std@@YAPAUVector2D@@PAU1@00AAU?$_Wrap_alloc@V?$allocator@UVector2D@@@std@@@0@@Z
_TEXT	SEGMENT
$T1 = -1						; size = 1
__First$ = 8						; size = 4
__Last$ = 12						; size = 4
__Dest$ = 16						; size = 4
__Al$ = 20						; size = 4
??$_Uninit_move@PAUVector2D@@PAU1@U?$_Wrap_alloc@V?$allocator@UVector2D@@@std@@@std@@@std@@YAPAUVector2D@@PAU1@00AAU?$_Wrap_alloc@V?$allocator@UVector2D@@@std@@@0@@Z PROC ; std::_Uninit_move<Vector2D *,Vector2D *,std::_Wrap_alloc<std::allocator<Vector2D> > >, COMDAT

; 480  : 	{	// move [_First, _Last) to raw _Dest, using _Al

	push	ebp
	mov	ebp, esp
	push	ecx
	mov	DWORD PTR [ebp-4], -858993460		; ccccccccH

; 481  : 	return (_Uninit_move(_First, _Last, _Dest, _Al,

	mov	eax, DWORD PTR __Dest$[ebp]
	push	eax
	mov	ecx, DWORD PTR __First$[ebp]
	push	ecx
	call	??$_Ptr_cat@UVector2D@@U1@@std@@YA?AU_Nonscalar_ptr_iterator_tag@0@PAUVector2D@@0@Z ; std::_Ptr_cat<Vector2D,Vector2D>
	add	esp, 8
	mov	BYTE PTR $T1[ebp], al
	movzx	edx, BYTE PTR $T1[ebp]
	push	edx
	mov	eax, DWORD PTR __First$[ebp]
	push	eax
	call	??$_Val_type@PAUVector2D@@@std@@YAPAUVector2D@@PAU1@@Z ; std::_Val_type<Vector2D *>
	add	esp, 4
	push	eax
	mov	ecx, DWORD PTR __Al$[ebp]
	push	ecx
	mov	edx, DWORD PTR __Dest$[ebp]
	push	edx
	mov	eax, DWORD PTR __Last$[ebp]
	push	eax
	mov	ecx, DWORD PTR __First$[ebp]
	push	ecx
	call	??$_Uninit_move@PAUVector2D@@PAU1@V?$allocator@UVector2D@@@std@@U1@@std@@YAPAUVector2D@@PAU1@00AAU?$_Wrap_alloc@V?$allocator@UVector2D@@@std@@@0@0U_Nonscalar_ptr_iterator_tag@0@@Z ; std::_Uninit_move<Vector2D *,Vector2D *,std::allocator<Vector2D>,Vector2D>
	add	esp, 24					; 00000018H

; 482  : 		_Val_type(_First), _Ptr_cat(_First, _Dest)));
; 483  : 	}

	add	esp, 4
	cmp	ebp, esp
	call	__RTC_CheckEsp
	mov	esp, ebp
	pop	ebp
	ret	0
??$_Uninit_move@PAUVector2D@@PAU1@U?$_Wrap_alloc@V?$allocator@UVector2D@@@std@@@std@@@std@@YAPAUVector2D@@PAU1@00AAU?$_Wrap_alloc@V?$allocator@UVector2D@@@std@@@0@@Z ENDP ; std::_Uninit_move<Vector2D *,Vector2D *,std::_Wrap_alloc<std::allocator<Vector2D> > >
_TEXT	ENDS
; Function compile flags: /Odtp /RTCsu
; File d:\microsoft visual studio 14.0\vc\include\xmemory0
;	COMDAT ??$construct@U_Container_proxy@std@@U12@@?$allocator@U_Container_proxy@std@@@std@@QAEXPAU_Container_proxy@1@$$QAU21@@Z
_TEXT	SEGMENT
tv74 = -12						; size = 4
$T1 = -8						; size = 4
_this$ = -4						; size = 4
__Ptr$ = 8						; size = 4
_<_Args_0>$ = 12					; size = 4
??$construct@U_Container_proxy@std@@U12@@?$allocator@U_Container_proxy@std@@@std@@QAEXPAU_Container_proxy@1@$$QAU21@@Z PROC ; std::allocator<std::_Container_proxy>::construct<std::_Container_proxy,std::_Container_proxy>, COMDAT
; _this$ = ecx

; 656  : 		{	// construct _Objty(_Types...) at _Ptr

	push	ebp
	mov	ebp, esp
	sub	esp, 12					; 0000000cH
	mov	DWORD PTR [ebp-12], -858993460		; ccccccccH
	mov	DWORD PTR [ebp-8], -858993460		; ccccccccH
	mov	DWORD PTR [ebp-4], -858993460		; ccccccccH
	mov	DWORD PTR _this$[ebp], ecx

; 657  : 		::new ((void *)_Ptr) _Objty(_STD forward<_Types>(_Args)...);

	mov	eax, DWORD PTR __Ptr$[ebp]
	push	eax
	push	8
	call	??2@YAPAXIPAX@Z				; operator new
	add	esp, 8
	mov	DWORD PTR $T1[ebp], eax
	cmp	DWORD PTR $T1[ebp], 0
	je	SHORT $LN3@construct
	mov	ecx, DWORD PTR _<_Args_0>$[ebp]
	push	ecx
	call	??$forward@U_Container_proxy@std@@@std@@YA$$QAU_Container_proxy@0@AAU10@@Z ; std::forward<std::_Container_proxy>
	add	esp, 4
	mov	edx, DWORD PTR [eax]
	mov	eax, DWORD PTR [eax+4]
	mov	ecx, DWORD PTR $T1[ebp]
	mov	DWORD PTR [ecx], edx
	mov	DWORD PTR [ecx+4], eax
	mov	edx, DWORD PTR $T1[ebp]
	mov	DWORD PTR tv74[ebp], edx
	jmp	SHORT $LN1@construct
$LN3@construct:
	mov	DWORD PTR tv74[ebp], 0
$LN1@construct:

; 658  : 		}

	add	esp, 12					; 0000000cH
	cmp	ebp, esp
	call	__RTC_CheckEsp
	mov	esp, ebp
	pop	ebp
	ret	8
??$construct@U_Container_proxy@std@@U12@@?$allocator@U_Container_proxy@std@@@std@@QAEXPAU_Container_proxy@1@$$QAU21@@Z ENDP ; std::allocator<std::_Container_proxy>::construct<std::_Container_proxy,std::_Container_proxy>
_TEXT	ENDS
; Function compile flags: /Odtp /RTCsu
; File d:\microsoft visual studio 14.0\vc\include\xmemory0
;	COMDAT ??$destroy@U_Container_proxy@std@@@?$allocator@U_Container_proxy@std@@@std@@QAEXPAU_Container_proxy@1@@Z
_TEXT	SEGMENT
_this$ = -4						; size = 4
__Ptr$ = 8						; size = 4
??$destroy@U_Container_proxy@std@@@?$allocator@U_Container_proxy@std@@@std@@QAEXPAU_Container_proxy@1@@Z PROC ; std::allocator<std::_Container_proxy>::destroy<std::_Container_proxy>, COMDAT
; _this$ = ecx

; 663  : 		{	// destroy object at _Ptr

	push	ebp
	mov	ebp, esp
	push	ecx
	mov	DWORD PTR [ebp-4], -858993460		; ccccccccH
	mov	DWORD PTR _this$[ebp], ecx

; 664  : 		_Ptr->~_Uty();
; 665  : 		}

	mov	esp, ebp
	pop	ebp
	ret	4
??$destroy@U_Container_proxy@std@@@?$allocator@U_Container_proxy@std@@@std@@QAEXPAU_Container_proxy@1@@Z ENDP ; std::allocator<std::_Container_proxy>::destroy<std::_Container_proxy>
_TEXT	ENDS
; Function compile flags: /Odtp /RTCsu
; File d:\microsoft visual studio 14.0\vc\include\xmemory0
;	COMDAT ??$construct@PADAAPAD@?$allocator@D@std@@QAEXPAPADAAPAD@Z
_TEXT	SEGMENT
tv73 = -12						; size = 4
$T1 = -8						; size = 4
_this$ = -4						; size = 4
__Ptr$ = 8						; size = 4
_<_Args_0>$ = 12					; size = 4
??$construct@PADAAPAD@?$allocator@D@std@@QAEXPAPADAAPAD@Z PROC ; std::allocator<char>::construct<char *,char * &>, COMDAT
; _this$ = ecx

; 656  : 		{	// construct _Objty(_Types...) at _Ptr

	push	ebp
	mov	ebp, esp
	sub	esp, 12					; 0000000cH
	mov	DWORD PTR [ebp-12], -858993460		; ccccccccH
	mov	DWORD PTR [ebp-8], -858993460		; ccccccccH
	mov	DWORD PTR [ebp-4], -858993460		; ccccccccH
	mov	DWORD PTR _this$[ebp], ecx

; 657  : 		::new ((void *)_Ptr) _Objty(_STD forward<_Types>(_Args)...);

	mov	eax, DWORD PTR __Ptr$[ebp]
	push	eax
	push	4
	call	??2@YAPAXIPAX@Z				; operator new
	add	esp, 8
	mov	DWORD PTR $T1[ebp], eax
	cmp	DWORD PTR $T1[ebp], 0
	je	SHORT $LN3@construct
	mov	ecx, DWORD PTR _<_Args_0>$[ebp]
	push	ecx
	call	??$forward@AAPAD@std@@YAAAPADAAPAD@Z	; std::forward<char * &>
	add	esp, 4
	mov	edx, DWORD PTR $T1[ebp]
	mov	eax, DWORD PTR [eax]
	mov	DWORD PTR [edx], eax
	mov	ecx, DWORD PTR $T1[ebp]
	mov	DWORD PTR tv73[ebp], ecx
	jmp	SHORT $LN1@construct
$LN3@construct:
	mov	DWORD PTR tv73[ebp], 0
$LN1@construct:

; 658  : 		}

	add	esp, 12					; 0000000cH
	cmp	ebp, esp
	call	__RTC_CheckEsp
	mov	esp, ebp
	pop	ebp
	ret	8
??$construct@PADAAPAD@?$allocator@D@std@@QAEXPAPADAAPAD@Z ENDP ; std::allocator<char>::construct<char *,char * &>
_TEXT	ENDS
; Function compile flags: /Odtp /RTCsu
; File d:\microsoft visual studio 14.0\vc\include\xmemory0
;	COMDAT ??$destroy@PAD@?$allocator@D@std@@QAEXPAPAD@Z
_TEXT	SEGMENT
_this$ = -4						; size = 4
__Ptr$ = 8						; size = 4
??$destroy@PAD@?$allocator@D@std@@QAEXPAPAD@Z PROC	; std::allocator<char>::destroy<char *>, COMDAT
; _this$ = ecx

; 663  : 		{	// destroy object at _Ptr

	push	ebp
	mov	ebp, esp
	push	ecx
	mov	DWORD PTR [ebp-4], -858993460		; ccccccccH
	mov	DWORD PTR _this$[ebp], ecx

; 664  : 		_Ptr->~_Uty();
; 665  : 		}

	mov	esp, ebp
	pop	ebp
	ret	4
??$destroy@PAD@?$allocator@D@std@@QAEXPAPAD@Z ENDP	; std::allocator<char>::destroy<char *>
_TEXT	ENDS
; Function compile flags: /Odtp /RTCsu
; File d:\microsoft visual studio 14.0\vc\include\xmemory0
;	COMDAT ??$destroy@UGraveRecord@GraveMarkers@@@?$allocator@U?$_List_node@UGraveRecord@GraveMarkers@@PAX@std@@@std@@QAEXPAUGraveRecord@GraveMarkers@@@Z
_TEXT	SEGMENT
_this$ = -4						; size = 4
__Ptr$ = 8						; size = 4
??$destroy@UGraveRecord@GraveMarkers@@@?$allocator@U?$_List_node@UGraveRecord@GraveMarkers@@PAX@std@@@std@@QAEXPAUGraveRecord@GraveMarkers@@@Z PROC ; std::allocator<std::_List_node<GraveMarkers::GraveRecord,void *> >::destroy<GraveMarkers::GraveRecord>, COMDAT
; _this$ = ecx

; 663  : 		{	// destroy object at _Ptr

	push	ebp
	mov	ebp, esp
	push	ecx
	mov	DWORD PTR [ebp-4], -858993460		; ccccccccH
	mov	DWORD PTR _this$[ebp], ecx

; 664  : 		_Ptr->~_Uty();
; 665  : 		}

	mov	esp, ebp
	pop	ebp
	ret	4
??$destroy@UGraveRecord@GraveMarkers@@@?$allocator@U?$_List_node@UGraveRecord@GraveMarkers@@PAX@std@@@std@@QAEXPAUGraveRecord@GraveMarkers@@@Z ENDP ; std::allocator<std::_List_node<GraveMarkers::GraveRecord,void *> >::destroy<GraveMarkers::GraveRecord>
_TEXT	ENDS
; Function compile flags: /Odtp /RTCsu
; File d:\microsoft visual studio 14.0\vc\include\xmemory0
;	COMDAT ??$destroy@PAU?$_List_node@UGraveRecord@GraveMarkers@@PAX@std@@@?$allocator@U?$_List_node@UGraveRecord@GraveMarkers@@PAX@std@@@std@@QAEXPAPAU?$_List_node@UGraveRecord@GraveMarkers@@PAX@1@@Z
_TEXT	SEGMENT
_this$ = -4						; size = 4
__Ptr$ = 8						; size = 4
??$destroy@PAU?$_List_node@UGraveRecord@GraveMarkers@@PAX@std@@@?$allocator@U?$_List_node@UGraveRecord@GraveMarkers@@PAX@std@@@std@@QAEXPAPAU?$_List_node@UGraveRecord@GraveMarkers@@PAX@1@@Z PROC ; std::allocator<std::_List_node<GraveMarkers::GraveRecord,void *> >::destroy<std::_List_node<GraveMarkers::GraveRecord,void *> *>, COMDAT
; _this$ = ecx

; 663  : 		{	// destroy object at _Ptr

	push	ebp
	mov	ebp, esp
	push	ecx
	mov	DWORD PTR [ebp-4], -858993460		; ccccccccH
	mov	DWORD PTR _this$[ebp], ecx

; 664  : 		_Ptr->~_Uty();
; 665  : 		}

	mov	esp, ebp
	pop	ebp
	ret	4
??$destroy@PAU?$_List_node@UGraveRecord@GraveMarkers@@PAX@std@@@?$allocator@U?$_List_node@UGraveRecord@GraveMarkers@@PAX@std@@@std@@QAEXPAPAU?$_List_node@UGraveRecord@GraveMarkers@@PAX@1@@Z ENDP ; std::allocator<std::_List_node<GraveMarkers::GraveRecord,void *> >::destroy<std::_List_node<GraveMarkers::GraveRecord,void *> *>
_TEXT	ENDS
; Function compile flags: /Odtp /RTCsu
; File d:\microsoft visual studio 14.0\vc\include\xmemory0
;	COMDAT ??$construct@UGraveRecord@GraveMarkers@@U12@@?$_Wrap_alloc@V?$allocator@U?$_List_node@UGraveRecord@GraveMarkers@@PAX@std@@@std@@@std@@QAEXPAUGraveRecord@GraveMarkers@@$$QAU23@@Z
_TEXT	SEGMENT
_this$ = -4						; size = 4
__Ptr$ = 8						; size = 4
_<_Args_0>$ = 12					; size = 4
??$construct@UGraveRecord@GraveMarkers@@U12@@?$_Wrap_alloc@V?$allocator@U?$_List_node@UGraveRecord@GraveMarkers@@PAX@std@@@std@@@std@@QAEXPAUGraveRecord@GraveMarkers@@$$QAU23@@Z PROC ; std::_Wrap_alloc<std::allocator<std::_List_node<GraveMarkers::GraveRecord,void *> > >::construct<GraveMarkers::GraveRecord,GraveMarkers::GraveRecord>, COMDAT
; _this$ = ecx

; 918  : 		{	// construct _Ty(_Types...) at _Ptr

	push	ebp
	mov	ebp, esp
	push	ecx
	mov	DWORD PTR [ebp-4], -858993460		; ccccccccH
	mov	DWORD PTR _this$[ebp], ecx

; 919  : 		_Mytraits::construct(*this, _Ptr,

	mov	eax, DWORD PTR _<_Args_0>$[ebp]
	push	eax
	call	??$forward@UGraveRecord@GraveMarkers@@@std@@YA$$QAUGraveRecord@GraveMarkers@@AAU12@@Z ; std::forward<GraveMarkers::GraveRecord>
	add	esp, 4
	push	eax
	mov	ecx, DWORD PTR __Ptr$[ebp]
	push	ecx
	mov	edx, DWORD PTR _this$[ebp]
	push	edx
	call	??$construct@UGraveRecord@GraveMarkers@@U12@@?$allocator_traits@V?$allocator@U?$_List_node@UGraveRecord@GraveMarkers@@PAX@std@@@std@@@std@@SAXAAV?$allocator@U?$_List_node@UGraveRecord@GraveMarkers@@PAX@std@@@1@PAUGraveRecord@GraveMarkers@@$$QAU34@@Z ; std::allocator_traits<std::allocator<std::_List_node<GraveMarkers::GraveRecord,void *> > >::construct<GraveMarkers::GraveRecord,GraveMarkers::GraveRecord>
	add	esp, 12					; 0000000cH

; 920  : 			_STD forward<_Types>(_Args)...);
; 921  : 		}

	add	esp, 4
	cmp	ebp, esp
	call	__RTC_CheckEsp
	mov	esp, ebp
	pop	ebp
	ret	8
??$construct@UGraveRecord@GraveMarkers@@U12@@?$_Wrap_alloc@V?$allocator@U?$_List_node@UGraveRecord@GraveMarkers@@PAX@std@@@std@@@std@@QAEXPAUGraveRecord@GraveMarkers@@$$QAU23@@Z ENDP ; std::_Wrap_alloc<std::allocator<std::_List_node<GraveMarkers::GraveRecord,void *> > >::construct<GraveMarkers::GraveRecord,GraveMarkers::GraveRecord>
_TEXT	ENDS
; Function compile flags: /Odtp /RTCsu
; File d:\microsoft visual studio 14.0\vc\include\xutility
;	COMDAT ??$_Rechecked@PAUVector2D@@PAU1@@std@@YAAAPAUVector2D@@AAPAU1@PAU1@@Z
_TEXT	SEGMENT
__Dest$ = 8						; size = 4
__Src$ = 12						; size = 4
??$_Rechecked@PAUVector2D@@PAU1@@std@@YAAAPAUVector2D@@AAPAU1@PAU1@@Z PROC ; std::_Rechecked<Vector2D *,Vector2D *>, COMDAT

; 446  : 	{	// reset checked from unchecked, generic

	push	ebp
	mov	ebp, esp

; 447  : 	_Dest = _Src;

	mov	eax, DWORD PTR __Dest$[ebp]
	mov	ecx, DWORD PTR __Src$[ebp]
	mov	DWORD PTR [eax], ecx

; 448  : 	return (_Dest);

	mov	eax, DWORD PTR __Dest$[ebp]

; 449  : 	}

	pop	ebp
	ret	0
??$_Rechecked@PAUVector2D@@PAU1@@std@@YAAAPAUVector2D@@AAPAU1@PAU1@@Z ENDP ; std::_Rechecked<Vector2D *,Vector2D *>
_TEXT	ENDS
; Function compile flags: /Odtp /RTCsu
; File d:\microsoft visual studio 14.0\vc\include\xmemory
;	COMDAT ??$_Uninit_copy@PBUVector2D@@PAU1@U?$_Wrap_alloc@V?$allocator@UVector2D@@@std@@@std@@@std@@YAPAUVector2D@@PBU1@0PAU1@AAU?$_Wrap_alloc@V?$allocator@UVector2D@@@std@@@0@@Z
_TEXT	SEGMENT
$T1 = -1						; size = 1
__First$ = 8						; size = 4
__Last$ = 12						; size = 4
__Dest$ = 16						; size = 4
__Al$ = 20						; size = 4
??$_Uninit_copy@PBUVector2D@@PAU1@U?$_Wrap_alloc@V?$allocator@UVector2D@@@std@@@std@@@std@@YAPAUVector2D@@PBU1@0PAU1@AAU?$_Wrap_alloc@V?$allocator@UVector2D@@@std@@@0@@Z PROC ; std::_Uninit_copy<Vector2D const *,Vector2D *,std::_Wrap_alloc<std::allocator<Vector2D> > >, COMDAT

; 414  : 	{	// copy [_First, _Last) to raw _Dest, using _Al

	push	ebp
	mov	ebp, esp
	push	ecx
	mov	DWORD PTR [ebp-4], -858993460		; ccccccccH

; 415  : 	return (_Uninit_copy(_First, _Last, _Dest, _Al,

	mov	eax, DWORD PTR __Dest$[ebp]
	push	eax
	mov	ecx, DWORD PTR __First$[ebp]
	push	ecx
	call	??$_Ptr_cat@UVector2D@@U1@@std@@YA?AU_Nonscalar_ptr_iterator_tag@0@PBUVector2D@@PAU2@@Z ; std::_Ptr_cat<Vector2D,Vector2D>
	add	esp, 8
	mov	BYTE PTR $T1[ebp], al
	movzx	edx, BYTE PTR $T1[ebp]
	push	edx
	mov	eax, DWORD PTR __Al$[ebp]
	push	eax
	mov	ecx, DWORD PTR __Dest$[ebp]
	push	ecx
	mov	edx, DWORD PTR __Last$[ebp]
	push	edx
	mov	eax, DWORD PTR __First$[ebp]
	push	eax
	call	??$_Uninit_copy@PBUVector2D@@PAU1@V?$allocator@UVector2D@@@std@@@std@@YAPAUVector2D@@PBU1@0PAU1@AAU?$_Wrap_alloc@V?$allocator@UVector2D@@@std@@@0@U_Nonscalar_ptr_iterator_tag@0@@Z ; std::_Uninit_copy<Vector2D const *,Vector2D *,std::allocator<Vector2D> >
	add	esp, 20					; 00000014H

; 416  : 		_Ptr_cat(_First, _Dest)));
; 417  : 	}

	add	esp, 4
	cmp	ebp, esp
	call	__RTC_CheckEsp
	mov	esp, ebp
	pop	ebp
	ret	0
??$_Uninit_copy@PBUVector2D@@PAU1@U?$_Wrap_alloc@V?$allocator@UVector2D@@@std@@@std@@@std@@YAPAUVector2D@@PBU1@0PAU1@AAU?$_Wrap_alloc@V?$allocator@UVector2D@@@std@@@0@@Z ENDP ; std::_Uninit_copy<Vector2D const *,Vector2D *,std::_Wrap_alloc<std::allocator<Vector2D> > >
_TEXT	ENDS
; Function compile flags: /Odtp /RTCsu
; File d:\microsoft visual studio 14.0\vc\include\xutility
;	COMDAT ??$_Unchecked@PAUVector2D@@@std@@YAPAUVector2D@@PAU1@@Z
_TEXT	SEGMENT
__Src$ = 8						; size = 4
??$_Unchecked@PAUVector2D@@@std@@YAPAUVector2D@@PAU1@@Z PROC ; std::_Unchecked<Vector2D *>, COMDAT

; 438  : 	{	// construct unchecked from checked, generic

	push	ebp
	mov	ebp, esp

; 439  : 	return (_Src);

	mov	eax, DWORD PTR __Src$[ebp]

; 440  : 	}

	pop	ebp
	ret	0
??$_Unchecked@PAUVector2D@@@std@@YAPAUVector2D@@PAU1@@Z ENDP ; std::_Unchecked<Vector2D *>
_TEXT	ENDS
; Function compile flags: /Odtp /RTCsu
; File d:\microsoft visual studio 14.0\vc\include\vector
;	COMDAT ??$_Unchecked@V?$_Vector_val@U?$_Simple_types@UVector2D@@@std@@@std@@@std@@YAPBUVector2D@@V?$_Vector_const_iterator@V?$_Vector_val@U?$_Simple_types@UVector2D@@@std@@@std@@@0@@Z
_TEXT	SEGMENT
$T2 = -16						; size = 4
__$EHRec$ = -12						; size = 12
__Iter$ = 8						; size = 12
??$_Unchecked@V?$_Vector_val@U?$_Simple_types@UVector2D@@@std@@@std@@@std@@YAPBUVector2D@@V?$_Vector_const_iterator@V?$_Vector_val@U?$_Simple_types@UVector2D@@@std@@@std@@@0@@Z PROC ; std::_Unchecked<std::_Vector_val<std::_Simple_types<Vector2D> > >, COMDAT

; 265  : 	{	// convert to unchecked

	push	ebp
	mov	ebp, esp
	push	-1
	push	__ehhandler$??$_Unchecked@V?$_Vector_val@U?$_Simple_types@UVector2D@@@std@@@std@@@std@@YAPBUVector2D@@V?$_Vector_const_iterator@V?$_Vector_val@U?$_Simple_types@UVector2D@@@std@@@std@@@0@@Z
	mov	eax, DWORD PTR fs:0
	push	eax
	push	ecx
	mov	DWORD PTR [ebp-16], -858993460		; ccccccccH
	mov	eax, DWORD PTR ___security_cookie
	xor	eax, ebp
	push	eax
	lea	eax, DWORD PTR __$EHRec$[ebp]
	mov	DWORD PTR fs:0, eax
	mov	DWORD PTR __$EHRec$[ebp+8], 0

; 266  : 	return (_Iter._Unchecked());

	lea	ecx, DWORD PTR __Iter$[ebp]
	call	?_Unchecked@?$_Vector_const_iterator@V?$_Vector_val@U?$_Simple_types@UVector2D@@@std@@@std@@@std@@QBEPBUVector2D@@XZ ; std::_Vector_const_iterator<std::_Vector_val<std::_Simple_types<Vector2D> > >::_Unchecked
	mov	DWORD PTR $T2[ebp], eax
	mov	DWORD PTR __$EHRec$[ebp+8], -1
	lea	ecx, DWORD PTR __Iter$[ebp]
	call	??1?$_Vector_const_iterator@V?$_Vector_val@U?$_Simple_types@UVector2D@@@std@@@std@@@std@@QAE@XZ
	mov	eax, DWORD PTR $T2[ebp]

; 267  : 	}

	mov	ecx, DWORD PTR __$EHRec$[ebp]
	mov	DWORD PTR fs:0, ecx
	pop	ecx
	add	esp, 16					; 00000010H
	cmp	ebp, esp
	call	__RTC_CheckEsp
	mov	esp, ebp
	pop	ebp
	ret	0
_TEXT	ENDS
;	COMDAT text$x
text$x	SEGMENT
__unwindfunclet$??$_Unchecked@V?$_Vector_val@U?$_Simple_types@UVector2D@@@std@@@std@@@std@@YAPBUVector2D@@V?$_Vector_const_iterator@V?$_Vector_val@U?$_Simple_types@UVector2D@@@std@@@std@@@0@@Z$0:
	lea	ecx, DWORD PTR __Iter$[ebp]
	jmp	??1?$_Vector_const_iterator@V?$_Vector_val@U?$_Simple_types@UVector2D@@@std@@@std@@@std@@QAE@XZ
__ehhandler$??$_Unchecked@V?$_Vector_val@U?$_Simple_types@UVector2D@@@std@@@std@@@std@@YAPBUVector2D@@V?$_Vector_const_iterator@V?$_Vector_val@U?$_Simple_types@UVector2D@@@std@@@std@@@0@@Z:
	mov	edx, DWORD PTR [esp+8]
	lea	eax, DWORD PTR [edx+12]
	mov	ecx, DWORD PTR [edx-8]
	xor	ecx, eax
	call	@__security_check_cookie@4
	mov	eax, OFFSET __ehfuncinfo$??$_Unchecked@V?$_Vector_val@U?$_Simple_types@UVector2D@@@std@@@std@@@std@@YAPBUVector2D@@V?$_Vector_const_iterator@V?$_Vector_val@U?$_Simple_types@UVector2D@@@std@@@std@@@0@@Z
	jmp	___CxxFrameHandler3
text$x	ENDS
??$_Unchecked@V?$_Vector_val@U?$_Simple_types@UVector2D@@@std@@@std@@@std@@YAPBUVector2D@@V?$_Vector_const_iterator@V?$_Vector_val@U?$_Simple_types@UVector2D@@@std@@@std@@@0@@Z ENDP ; std::_Unchecked<std::_Vector_val<std::_Simple_types<Vector2D> > >
; Function compile flags: /Odtp /RTCsu
; File d:\microsoft visual studio 14.0\vc\include\xmemory0
;	COMDAT ??$construct@UVector2D@@U1@@?$allocator@UVector2D@@@std@@QAEXPAUVector2D@@$$QAU2@@Z
_TEXT	SEGMENT
tv74 = -12						; size = 4
$T1 = -8						; size = 4
_this$ = -4						; size = 4
__Ptr$ = 8						; size = 4
_<_Args_0>$ = 12					; size = 4
??$construct@UVector2D@@U1@@?$allocator@UVector2D@@@std@@QAEXPAUVector2D@@$$QAU2@@Z PROC ; std::allocator<Vector2D>::construct<Vector2D,Vector2D>, COMDAT
; _this$ = ecx

; 656  : 		{	// construct _Objty(_Types...) at _Ptr

	push	ebp
	mov	ebp, esp
	sub	esp, 12					; 0000000cH
	mov	DWORD PTR [ebp-12], -858993460		; ccccccccH
	mov	DWORD PTR [ebp-8], -858993460		; ccccccccH
	mov	DWORD PTR [ebp-4], -858993460		; ccccccccH
	mov	DWORD PTR _this$[ebp], ecx

; 657  : 		::new ((void *)_Ptr) _Objty(_STD forward<_Types>(_Args)...);

	mov	eax, DWORD PTR __Ptr$[ebp]
	push	eax
	push	16					; 00000010H
	call	??2@YAPAXIPAX@Z				; operator new
	add	esp, 8
	mov	DWORD PTR $T1[ebp], eax
	cmp	DWORD PTR $T1[ebp], 0
	je	SHORT $LN3@construct
	mov	ecx, DWORD PTR _<_Args_0>$[ebp]
	push	ecx
	call	??$forward@UVector2D@@@std@@YA$$QAUVector2D@@AAU1@@Z ; std::forward<Vector2D>
	add	esp, 4
	mov	edx, DWORD PTR $T1[ebp]
	mov	ecx, DWORD PTR [eax]
	mov	DWORD PTR [edx], ecx
	mov	ecx, DWORD PTR [eax+4]
	mov	DWORD PTR [edx+4], ecx
	mov	ecx, DWORD PTR [eax+8]
	mov	DWORD PTR [edx+8], ecx
	mov	eax, DWORD PTR [eax+12]
	mov	DWORD PTR [edx+12], eax
	mov	ecx, DWORD PTR $T1[ebp]
	mov	DWORD PTR tv74[ebp], ecx
	jmp	SHORT $LN1@construct
$LN3@construct:
	mov	DWORD PTR tv74[ebp], 0
$LN1@construct:

; 658  : 		}

	add	esp, 12					; 0000000cH
	cmp	ebp, esp
	call	__RTC_CheckEsp
	mov	esp, ebp
	pop	ebp
	ret	8
??$construct@UVector2D@@U1@@?$allocator@UVector2D@@@std@@QAEXPAUVector2D@@$$QAU2@@Z ENDP ; std::allocator<Vector2D>::construct<Vector2D,Vector2D>
_TEXT	ENDS
; Function compile flags: /Odtp /RTCsu
; File d:\microsoft visual studio 14.0\vc\include\xmemory0
;	COMDAT ??$construct@UVector2D@@ABU1@@?$allocator@UVector2D@@@std@@QAEXPAUVector2D@@ABU2@@Z
_TEXT	SEGMENT
tv74 = -12						; size = 4
$T1 = -8						; size = 4
_this$ = -4						; size = 4
__Ptr$ = 8						; size = 4
_<_Args_0>$ = 12					; size = 4
??$construct@UVector2D@@ABU1@@?$allocator@UVector2D@@@std@@QAEXPAUVector2D@@ABU2@@Z PROC ; std::allocator<Vector2D>::construct<Vector2D,Vector2D const &>, COMDAT
; _this$ = ecx

; 656  : 		{	// construct _Objty(_Types...) at _Ptr

	push	ebp
	mov	ebp, esp
	sub	esp, 12					; 0000000cH
	mov	DWORD PTR [ebp-12], -858993460		; ccccccccH
	mov	DWORD PTR [ebp-8], -858993460		; ccccccccH
	mov	DWORD PTR [ebp-4], -858993460		; ccccccccH
	mov	DWORD PTR _this$[ebp], ecx

; 657  : 		::new ((void *)_Ptr) _Objty(_STD forward<_Types>(_Args)...);

	mov	eax, DWORD PTR __Ptr$[ebp]
	push	eax
	push	16					; 00000010H
	call	??2@YAPAXIPAX@Z				; operator new
	add	esp, 8
	mov	DWORD PTR $T1[ebp], eax
	cmp	DWORD PTR $T1[ebp], 0
	je	SHORT $LN3@construct
	mov	ecx, DWORD PTR _<_Args_0>$[ebp]
	push	ecx
	call	??$forward@ABUVector2D@@@std@@YAABUVector2D@@ABU1@@Z ; std::forward<Vector2D const &>
	add	esp, 4
	mov	edx, DWORD PTR $T1[ebp]
	mov	ecx, DWORD PTR [eax]
	mov	DWORD PTR [edx], ecx
	mov	ecx, DWORD PTR [eax+4]
	mov	DWORD PTR [edx+4], ecx
	mov	ecx, DWORD PTR [eax+8]
	mov	DWORD PTR [edx+8], ecx
	mov	eax, DWORD PTR [eax+12]
	mov	DWORD PTR [edx+12], eax
	mov	ecx, DWORD PTR $T1[ebp]
	mov	DWORD PTR tv74[ebp], ecx
	jmp	SHORT $LN1@construct
$LN3@construct:
	mov	DWORD PTR tv74[ebp], 0
$LN1@construct:

; 658  : 		}

	add	esp, 12					; 0000000cH
	cmp	ebp, esp
	call	__RTC_CheckEsp
	mov	esp, ebp
	pop	ebp
	ret	8
??$construct@UVector2D@@ABU1@@?$allocator@UVector2D@@@std@@QAEXPAUVector2D@@ABU2@@Z ENDP ; std::allocator<Vector2D>::construct<Vector2D,Vector2D const &>
_TEXT	ENDS
; Function compile flags: /Odtp /RTCsu
; File d:\microsoft visual studio 14.0\vc\include\xmemory0
;	COMDAT ??$construct@UVector2D@@AAU1@@?$allocator@UVector2D@@@std@@QAEXPAUVector2D@@AAU2@@Z
_TEXT	SEGMENT
tv74 = -12						; size = 4
$T1 = -8						; size = 4
_this$ = -4						; size = 4
__Ptr$ = 8						; size = 4
_<_Args_0>$ = 12					; size = 4
??$construct@UVector2D@@AAU1@@?$allocator@UVector2D@@@std@@QAEXPAUVector2D@@AAU2@@Z PROC ; std::allocator<Vector2D>::construct<Vector2D,Vector2D &>, COMDAT
; _this$ = ecx

; 656  : 		{	// construct _Objty(_Types...) at _Ptr

	push	ebp
	mov	ebp, esp
	sub	esp, 12					; 0000000cH
	mov	DWORD PTR [ebp-12], -858993460		; ccccccccH
	mov	DWORD PTR [ebp-8], -858993460		; ccccccccH
	mov	DWORD PTR [ebp-4], -858993460		; ccccccccH
	mov	DWORD PTR _this$[ebp], ecx

; 657  : 		::new ((void *)_Ptr) _Objty(_STD forward<_Types>(_Args)...);

	mov	eax, DWORD PTR __Ptr$[ebp]
	push	eax
	push	16					; 00000010H
	call	??2@YAPAXIPAX@Z				; operator new
	add	esp, 8
	mov	DWORD PTR $T1[ebp], eax
	cmp	DWORD PTR $T1[ebp], 0
	je	SHORT $LN3@construct
	mov	ecx, DWORD PTR _<_Args_0>$[ebp]
	push	ecx
	call	??$forward@AAUVector2D@@@std@@YAAAUVector2D@@AAU1@@Z ; std::forward<Vector2D &>
	add	esp, 4
	mov	edx, DWORD PTR $T1[ebp]
	mov	ecx, DWORD PTR [eax]
	mov	DWORD PTR [edx], ecx
	mov	ecx, DWORD PTR [eax+4]
	mov	DWORD PTR [edx+4], ecx
	mov	ecx, DWORD PTR [eax+8]
	mov	DWORD PTR [edx+8], ecx
	mov	eax, DWORD PTR [eax+12]
	mov	DWORD PTR [edx+12], eax
	mov	ecx, DWORD PTR $T1[ebp]
	mov	DWORD PTR tv74[ebp], ecx
	jmp	SHORT $LN1@construct
$LN3@construct:
	mov	DWORD PTR tv74[ebp], 0
$LN1@construct:

; 658  : 		}

	add	esp, 12					; 0000000cH
	cmp	ebp, esp
	call	__RTC_CheckEsp
	mov	esp, ebp
	pop	ebp
	ret	8
??$construct@UVector2D@@AAU1@@?$allocator@UVector2D@@@std@@QAEXPAUVector2D@@AAU2@@Z ENDP ; std::allocator<Vector2D>::construct<Vector2D,Vector2D &>
_TEXT	ENDS
; Function compile flags: /Odtp /RTCsu
; File d:\microsoft visual studio 14.0\vc\include\xmemory0
;	COMDAT ??$construct@PAU?$_List_node@UGraveRecord@GraveMarkers@@PAX@std@@AAPAU12@@?$allocator_traits@V?$allocator@U?$_List_node@UGraveRecord@GraveMarkers@@PAX@std@@@std@@@std@@SAXAAV?$allocator@U?$_List_node@UGraveRecord@GraveMarkers@@PAX@std@@@1@PAPAU?$_List_node@UGraveRecord@GraveMarkers@@PAX@1@AAPAU31@@Z
_TEXT	SEGMENT
__Al$ = 8						; size = 4
__Ptr$ = 12						; size = 4
_<_Args_0>$ = 16					; size = 4
??$construct@PAU?$_List_node@UGraveRecord@GraveMarkers@@PAX@std@@AAPAU12@@?$allocator_traits@V?$allocator@U?$_List_node@UGraveRecord@GraveMarkers@@PAX@std@@@std@@@std@@SAXAAV?$allocator@U?$_List_node@UGraveRecord@GraveMarkers@@PAX@std@@@1@PAPAU?$_List_node@UGraveRecord@GraveMarkers@@PAX@1@AAPAU31@@Z PROC ; std::allocator_traits<std::allocator<std::_List_node<GraveMarkers::GraveRecord,void *> > >::construct<std::_List_node<GraveMarkers::GraveRecord,void *> *,std::_List_node<GraveMarkers::GraveRecord,void *> * &>, COMDAT

; 774  : 		{	// construct _Objty(_Types...) at _Ptr

	push	ebp
	mov	ebp, esp

; 775  : 		_Al.construct(_Ptr, _STD forward<_Types>(_Args)...);

	mov	eax, DWORD PTR _<_Args_0>$[ebp]
	push	eax
	call	??$forward@AAPAU?$_List_node@UGraveRecord@GraveMarkers@@PAX@std@@@std@@YAAAPAU?$_List_node@UGraveRecord@GraveMarkers@@PAX@0@AAPAU10@@Z ; std::forward<std::_List_node<GraveMarkers::GraveRecord,void *> * &>
	add	esp, 4
	push	eax
	mov	ecx, DWORD PTR __Ptr$[ebp]
	push	ecx
	mov	ecx, DWORD PTR __Al$[ebp]
	call	??$construct@PAU?$_List_node@UGraveRecord@GraveMarkers@@PAX@std@@AAPAU12@@?$allocator@U?$_List_node@UGraveRecord@GraveMarkers@@PAX@std@@@std@@QAEXPAPAU?$_List_node@UGraveRecord@GraveMarkers@@PAX@1@AAPAU21@@Z ; std::allocator<std::_List_node<GraveMarkers::GraveRecord,void *> >::construct<std::_List_node<GraveMarkers::GraveRecord,void *> *,std::_List_node<GraveMarkers::GraveRecord,void *> * &>

; 776  : 		}

	cmp	ebp, esp
	call	__RTC_CheckEsp
	pop	ebp
	ret	0
??$construct@PAU?$_List_node@UGraveRecord@GraveMarkers@@PAX@std@@AAPAU12@@?$allocator_traits@V?$allocator@U?$_List_node@UGraveRecord@GraveMarkers@@PAX@std@@@std@@@std@@SAXAAV?$allocator@U?$_List_node@UGraveRecord@GraveMarkers@@PAX@std@@@1@PAPAU?$_List_node@UGraveRecord@GraveMarkers@@PAX@1@AAPAU31@@Z ENDP ; std::allocator_traits<std::allocator<std::_List_node<GraveMarkers::GraveRecord,void *> > >::construct<std::_List_node<GraveMarkers::GraveRecord,void *> *,std::_List_node<GraveMarkers::GraveRecord,void *> * &>
_TEXT	ENDS
; Function compile flags: /Odtp /RTCsu
; File d:\microsoft visual studio 14.0\vc\include\type_traits
;	COMDAT ??$forward@AAPAU?$_List_node@UGraveRecord@GraveMarkers@@PAX@std@@@std@@YAAAPAU?$_List_node@UGraveRecord@GraveMarkers@@PAX@0@AAPAU10@@Z
_TEXT	SEGMENT
__Arg$ = 8						; size = 4
??$forward@AAPAU?$_List_node@UGraveRecord@GraveMarkers@@PAX@std@@@std@@YAAAPAU?$_List_node@UGraveRecord@GraveMarkers@@PAX@0@AAPAU10@@Z PROC ; std::forward<std::_List_node<GraveMarkers::GraveRecord,void *> * &>, COMDAT

; 1293 : 	{	// forward an lvalue as either an lvalue or an rvalue

	push	ebp
	mov	ebp, esp

; 1294 : 	return (static_cast<_Ty&&>(_Arg));

	mov	eax, DWORD PTR __Arg$[ebp]

; 1295 : 	}

	pop	ebp
	ret	0
??$forward@AAPAU?$_List_node@UGraveRecord@GraveMarkers@@PAX@std@@@std@@YAAAPAU?$_List_node@UGraveRecord@GraveMarkers@@PAX@0@AAPAU10@@Z ENDP ; std::forward<std::_List_node<GraveMarkers::GraveRecord,void *> * &>
_TEXT	ENDS
; Function compile flags: /Odtp /RTCsu
; File d:\microsoft visual studio 14.0\vc\include\xmemory0
;	COMDAT ??$_Destroy_range@U?$_Wrap_alloc@V?$allocator@UVector2D@@@std@@@std@@@std@@YAXPAUVector2D@@0AAU?$_Wrap_alloc@V?$allocator@UVector2D@@@std@@@0@U_Nonscalar_ptr_iterator_tag@0@@Z
_TEXT	SEGMENT
__First$ = 8						; size = 4
__Last$ = 12						; size = 4
__Al$ = 16						; size = 4
___formal$ = 20						; size = 1
??$_Destroy_range@U?$_Wrap_alloc@V?$allocator@UVector2D@@@std@@@std@@@std@@YAXPAUVector2D@@0AAU?$_Wrap_alloc@V?$allocator@UVector2D@@@std@@@0@U_Nonscalar_ptr_iterator_tag@0@@Z PROC ; std::_Destroy_range<std::_Wrap_alloc<std::allocator<Vector2D> > >, COMDAT

; 170  : 	{	// destroy [_First, _Last), arbitrary type

	push	ebp
	mov	ebp, esp

; 171  : 	for (; _First != _Last; ++_First)

	jmp	SHORT $LN4@Destroy_ra
$LN2@Destroy_ra:
	mov	eax, DWORD PTR __First$[ebp]
	add	eax, 16					; 00000010H
	mov	DWORD PTR __First$[ebp], eax
$LN4@Destroy_ra:
	mov	ecx, DWORD PTR __First$[ebp]
	cmp	ecx, DWORD PTR __Last$[ebp]
	je	SHORT $LN1@Destroy_ra

; 172  : 		_Al.destroy(_STD addressof(*_First));

	mov	edx, DWORD PTR __First$[ebp]
	push	edx
	call	??$addressof@UVector2D@@@std@@YAPAUVector2D@@AAU1@@Z ; std::addressof<Vector2D>
	add	esp, 4
	push	eax
	mov	ecx, DWORD PTR __Al$[ebp]
	call	??$destroy@UVector2D@@@?$_Wrap_alloc@V?$allocator@UVector2D@@@std@@@std@@QAEXPAUVector2D@@@Z ; std::_Wrap_alloc<std::allocator<Vector2D> >::destroy<Vector2D>
	jmp	SHORT $LN2@Destroy_ra
$LN1@Destroy_ra:

; 173  : 	}

	cmp	ebp, esp
	call	__RTC_CheckEsp
	pop	ebp
	ret	0
??$_Destroy_range@U?$_Wrap_alloc@V?$allocator@UVector2D@@@std@@@std@@@std@@YAXPAUVector2D@@0AAU?$_Wrap_alloc@V?$allocator@UVector2D@@@std@@@0@U_Nonscalar_ptr_iterator_tag@0@@Z ENDP ; std::_Destroy_range<std::_Wrap_alloc<std::allocator<Vector2D> > >
_TEXT	ENDS
; Function compile flags: /Odtp /RTCsu
; File d:\microsoft visual studio 14.0\vc\include\xutility
;	COMDAT ??$_Ptr_cat@UVector2D@@U1@@std@@YA?AU_Nonscalar_ptr_iterator_tag@0@PAUVector2D@@0@Z
_TEXT	SEGMENT
__Cat$ = -5						; size = 1
___formal$ = 8						; size = 4
___formal$ = 12						; size = 4
??$_Ptr_cat@UVector2D@@U1@@std@@YA?AU_Nonscalar_ptr_iterator_tag@0@PAUVector2D@@0@Z PROC ; std::_Ptr_cat<Vector2D,Vector2D>, COMDAT

; 640  : 	{	// return pointer category from pointers

	push	ebp
	mov	ebp, esp
	sub	esp, 12					; 0000000cH
	mov	DWORD PTR [ebp-12], -858993460		; ccccccccH
	mov	DWORD PTR [ebp-8], -858993460		; ccccccccH
	mov	DWORD PTR [ebp-4], -858993460		; ccccccccH

; 641  : 	typename _Ptr_cat_helper<_Elem1, _Elem2>::type _Cat;
; 642  : 	return (_Cat);

	mov	al, BYTE PTR __Cat$[ebp]

; 643  : 	}

	push	edx
	mov	ecx, ebp
	push	eax
	lea	edx, DWORD PTR $LN5@Ptr_cat
	call	@_RTC_CheckStackVars@8
	pop	eax
	pop	edx
	mov	esp, ebp
	pop	ebp
	ret	0
	npad	1
$LN5@Ptr_cat:
	DD	1
	DD	$LN4@Ptr_cat
$LN4@Ptr_cat:
	DD	-5					; fffffffbH
	DD	1
	DD	$LN3@Ptr_cat
$LN3@Ptr_cat:
	DB	95					; 0000005fH
	DB	67					; 00000043H
	DB	97					; 00000061H
	DB	116					; 00000074H
	DB	0
??$_Ptr_cat@UVector2D@@U1@@std@@YA?AU_Nonscalar_ptr_iterator_tag@0@PAUVector2D@@0@Z ENDP ; std::_Ptr_cat<Vector2D,Vector2D>
_TEXT	ENDS
; Function compile flags: /Odtp /RTCsu
; File d:\microsoft visual studio 14.0\vc\include\xutility
;	COMDAT ??$_Ptr_cat@UVector2D@@U1@@std@@YA?AU_Nonscalar_ptr_iterator_tag@0@PBUVector2D@@PAU2@@Z
_TEXT	SEGMENT
__Cat$ = -5						; size = 1
___formal$ = 8						; size = 4
___formal$ = 12						; size = 4
??$_Ptr_cat@UVector2D@@U1@@std@@YA?AU_Nonscalar_ptr_iterator_tag@0@PBUVector2D@@PAU2@@Z PROC ; std::_Ptr_cat<Vector2D,Vector2D>, COMDAT

; 649  : 	{	// return pointer category from pointers

	push	ebp
	mov	ebp, esp
	sub	esp, 12					; 0000000cH
	mov	DWORD PTR [ebp-12], -858993460		; ccccccccH
	mov	DWORD PTR [ebp-8], -858993460		; ccccccccH
	mov	DWORD PTR [ebp-4], -858993460		; ccccccccH

; 650  : 	typename _Ptr_cat_helper<_Elem1, _Elem2>::type _Cat;
; 651  : 	return (_Cat);

	mov	al, BYTE PTR __Cat$[ebp]

; 652  : 	}

	push	edx
	mov	ecx, ebp
	push	eax
	lea	edx, DWORD PTR $LN5@Ptr_cat
	call	@_RTC_CheckStackVars@8
	pop	eax
	pop	edx
	mov	esp, ebp
	pop	ebp
	ret	0
	npad	1
$LN5@Ptr_cat:
	DD	1
	DD	$LN4@Ptr_cat
$LN4@Ptr_cat:
	DD	-5					; fffffffbH
	DD	1
	DD	$LN3@Ptr_cat
$LN3@Ptr_cat:
	DB	95					; 0000005fH
	DB	67					; 00000043H
	DB	97					; 00000061H
	DB	116					; 00000074H
	DB	0
??$_Ptr_cat@UVector2D@@U1@@std@@YA?AU_Nonscalar_ptr_iterator_tag@0@PBUVector2D@@PAU2@@Z ENDP ; std::_Ptr_cat<Vector2D,Vector2D>
_TEXT	ENDS
; Function compile flags: /Odtp /RTCsu
; File d:\microsoft visual studio 14.0\vc\include\xmemory
;	COMDAT ??$_Uninitialized_move@PAUVector2D@@PAU1@U?$_Wrap_alloc@V?$allocator@UVector2D@@@std@@@std@@@std@@YAPAUVector2D@@PAU1@00AAU?$_Wrap_alloc@V?$allocator@UVector2D@@@std@@@0@@Z
_TEXT	SEGMENT
__First$ = 8						; size = 4
__Last$ = 12						; size = 4
__Dest$ = 16						; size = 4
__Al$ = 20						; size = 4
??$_Uninitialized_move@PAUVector2D@@PAU1@U?$_Wrap_alloc@V?$allocator@UVector2D@@@std@@@std@@@std@@YAPAUVector2D@@PAU1@00AAU?$_Wrap_alloc@V?$allocator@UVector2D@@@std@@@0@@Z PROC ; std::_Uninitialized_move<Vector2D *,Vector2D *,std::_Wrap_alloc<std::allocator<Vector2D> > >, COMDAT

; 490  : 	{	// move [_First, _Last) to raw _Dest, using _Al

	push	ebp
	mov	ebp, esp

; 491  : 	return (_Rechecked(_Dest,

	mov	eax, DWORD PTR __Al$[ebp]
	push	eax
	mov	ecx, DWORD PTR __Dest$[ebp]
	push	ecx
	call	??$_Unchecked@PAUVector2D@@@std@@YAPAUVector2D@@PAU1@@Z ; std::_Unchecked<Vector2D *>
	add	esp, 4
	push	eax
	mov	edx, DWORD PTR __Last$[ebp]
	push	edx
	call	??$_Unchecked@PAUVector2D@@@std@@YAPAUVector2D@@PAU1@@Z ; std::_Unchecked<Vector2D *>
	add	esp, 4
	push	eax
	mov	eax, DWORD PTR __First$[ebp]
	push	eax
	call	??$_Unchecked@PAUVector2D@@@std@@YAPAUVector2D@@PAU1@@Z ; std::_Unchecked<Vector2D *>
	add	esp, 4
	push	eax
	call	??$_Uninit_move@PAUVector2D@@PAU1@U?$_Wrap_alloc@V?$allocator@UVector2D@@@std@@@std@@@std@@YAPAUVector2D@@PAU1@00AAU?$_Wrap_alloc@V?$allocator@UVector2D@@@std@@@0@@Z ; std::_Uninit_move<Vector2D *,Vector2D *,std::_Wrap_alloc<std::allocator<Vector2D> > >
	add	esp, 16					; 00000010H
	push	eax
	lea	ecx, DWORD PTR __Dest$[ebp]
	push	ecx
	call	??$_Rechecked@PAUVector2D@@PAU1@@std@@YAAAPAUVector2D@@AAPAU1@PAU1@@Z ; std::_Rechecked<Vector2D *,Vector2D *>
	add	esp, 8
	mov	eax, DWORD PTR [eax]

; 492  : 		_Uninit_move(_Unchecked(_First), _Unchecked(_Last),
; 493  : 			_Unchecked(_Dest), _Al)));
; 494  : 	}

	cmp	ebp, esp
	call	__RTC_CheckEsp
	pop	ebp
	ret	0
??$_Uninitialized_move@PAUVector2D@@PAU1@U?$_Wrap_alloc@V?$allocator@UVector2D@@@std@@@std@@@std@@YAPAUVector2D@@PAU1@00AAU?$_Wrap_alloc@V?$allocator@UVector2D@@@std@@@0@@Z ENDP ; std::_Uninitialized_move<Vector2D *,Vector2D *,std::_Wrap_alloc<std::allocator<Vector2D> > >
_TEXT	ENDS
; Function compile flags: /Odtp /RTCsu
; File d:\microsoft visual studio 14.0\vc\include\xmemory0
;	COMDAT ??$construct@U_Container_proxy@std@@U12@@?$allocator_traits@V?$allocator@U_Container_proxy@std@@@std@@@std@@SAXAAV?$allocator@U_Container_proxy@std@@@1@PAU_Container_proxy@1@$$QAU31@@Z
_TEXT	SEGMENT
__Al$ = 8						; size = 4
__Ptr$ = 12						; size = 4
_<_Args_0>$ = 16					; size = 4
??$construct@U_Container_proxy@std@@U12@@?$allocator_traits@V?$allocator@U_Container_proxy@std@@@std@@@std@@SAXAAV?$allocator@U_Container_proxy@std@@@1@PAU_Container_proxy@1@$$QAU31@@Z PROC ; std::allocator_traits<std::allocator<std::_Container_proxy> >::construct<std::_Container_proxy,std::_Container_proxy>, COMDAT

; 774  : 		{	// construct _Objty(_Types...) at _Ptr

	push	ebp
	mov	ebp, esp

; 775  : 		_Al.construct(_Ptr, _STD forward<_Types>(_Args)...);

	mov	eax, DWORD PTR _<_Args_0>$[ebp]
	push	eax
	call	??$forward@U_Container_proxy@std@@@std@@YA$$QAU_Container_proxy@0@AAU10@@Z ; std::forward<std::_Container_proxy>
	add	esp, 4
	push	eax
	mov	ecx, DWORD PTR __Ptr$[ebp]
	push	ecx
	mov	ecx, DWORD PTR __Al$[ebp]
	call	??$construct@U_Container_proxy@std@@U12@@?$allocator@U_Container_proxy@std@@@std@@QAEXPAU_Container_proxy@1@$$QAU21@@Z ; std::allocator<std::_Container_proxy>::construct<std::_Container_proxy,std::_Container_proxy>

; 776  : 		}

	cmp	ebp, esp
	call	__RTC_CheckEsp
	pop	ebp
	ret	0
??$construct@U_Container_proxy@std@@U12@@?$allocator_traits@V?$allocator@U_Container_proxy@std@@@std@@@std@@SAXAAV?$allocator@U_Container_proxy@std@@@1@PAU_Container_proxy@1@$$QAU31@@Z ENDP ; std::allocator_traits<std::allocator<std::_Container_proxy> >::construct<std::_Container_proxy,std::_Container_proxy>
_TEXT	ENDS
; Function compile flags: /Odtp /RTCsu
; File d:\microsoft visual studio 14.0\vc\include\type_traits
;	COMDAT ??$forward@U_Container_proxy@std@@@std@@YA$$QAU_Container_proxy@0@AAU10@@Z
_TEXT	SEGMENT
__Arg$ = 8						; size = 4
??$forward@U_Container_proxy@std@@@std@@YA$$QAU_Container_proxy@0@AAU10@@Z PROC ; std::forward<std::_Container_proxy>, COMDAT

; 1293 : 	{	// forward an lvalue as either an lvalue or an rvalue

	push	ebp
	mov	ebp, esp

; 1294 : 	return (static_cast<_Ty&&>(_Arg));

	mov	eax, DWORD PTR __Arg$[ebp]

; 1295 : 	}

	pop	ebp
	ret	0
??$forward@U_Container_proxy@std@@@std@@YA$$QAU_Container_proxy@0@AAU10@@Z ENDP ; std::forward<std::_Container_proxy>
_TEXT	ENDS
; Function compile flags: /Odtp /RTCsu
; File d:\microsoft visual studio 14.0\vc\include\xmemory0
;	COMDAT ??$?0UGraveRecord@GraveMarkers@@@?$allocator@U?$_List_node@UGraveRecord@GraveMarkers@@PAX@std@@@std@@QAE@ABV?$allocator@UGraveRecord@GraveMarkers@@@1@@Z
_TEXT	SEGMENT
_this$ = -4						; size = 4
___formal$ = 8						; size = 4
??$?0UGraveRecord@GraveMarkers@@@?$allocator@U?$_List_node@UGraveRecord@GraveMarkers@@PAX@std@@@std@@QAE@ABV?$allocator@UGraveRecord@GraveMarkers@@@1@@Z PROC ; std::allocator<std::_List_node<GraveMarkers::GraveRecord,void *> >::allocator<std::_List_node<GraveMarkers::GraveRecord,void *> ><GraveMarkers::GraveRecord>, COMDAT
; _this$ = ecx

; 629  : 		{	// construct from a related allocator (do nothing)

	push	ebp
	mov	ebp, esp
	push	ecx
	mov	DWORD PTR [ebp-4], -858993460		; ccccccccH
	mov	DWORD PTR _this$[ebp], ecx

; 630  : 		}

	mov	eax, DWORD PTR _this$[ebp]
	mov	esp, ebp
	pop	ebp
	ret	4
??$?0UGraveRecord@GraveMarkers@@@?$allocator@U?$_List_node@UGraveRecord@GraveMarkers@@PAX@std@@@std@@QAE@ABV?$allocator@UGraveRecord@GraveMarkers@@@1@@Z ENDP ; std::allocator<std::_List_node<GraveMarkers::GraveRecord,void *> >::allocator<std::_List_node<GraveMarkers::GraveRecord,void *> ><GraveMarkers::GraveRecord>
_TEXT	ENDS
; Function compile flags: /Odtp /RTCsu
; File d:\microsoft visual studio 14.0\vc\include\xmemory0
;	COMDAT ??$?0V?$allocator@UGraveRecord@GraveMarkers@@@std@@@?$_Wrap_alloc@V?$allocator@U?$_List_node@UGraveRecord@GraveMarkers@@PAX@std@@@std@@@std@@QAE@ABV?$allocator@UGraveRecord@GraveMarkers@@@1@@Z
_TEXT	SEGMENT
_this$ = -4						; size = 4
__Right$ = 8						; size = 4
??$?0V?$allocator@UGraveRecord@GraveMarkers@@@std@@@?$_Wrap_alloc@V?$allocator@U?$_List_node@UGraveRecord@GraveMarkers@@PAX@std@@@std@@@std@@QAE@ABV?$allocator@UGraveRecord@GraveMarkers@@@1@@Z PROC ; std::_Wrap_alloc<std::allocator<std::_List_node<GraveMarkers::GraveRecord,void *> > >::_Wrap_alloc<std::allocator<std::_List_node<GraveMarkers::GraveRecord,void *> > ><std::allocator<GraveMarkers::GraveRecord> >, COMDAT
; _this$ = ecx

; 870  : 		{	// construct from a related allocator

	push	ebp
	mov	ebp, esp
	push	ecx
	mov	DWORD PTR [ebp-4], -858993460		; ccccccccH
	mov	DWORD PTR _this$[ebp], ecx

; 869  : 		: _Mybase(_Right)

	mov	eax, DWORD PTR __Right$[ebp]
	push	eax
	mov	ecx, DWORD PTR _this$[ebp]
	call	??$?0UGraveRecord@GraveMarkers@@@?$allocator@U?$_List_node@UGraveRecord@GraveMarkers@@PAX@std@@@std@@QAE@ABV?$allocator@UGraveRecord@GraveMarkers@@@1@@Z ; std::allocator<std::_List_node<GraveMarkers::GraveRecord,void *> >::allocator<std::_List_node<GraveMarkers::GraveRecord,void *> ><GraveMarkers::GraveRecord>

; 871  : 		}

	mov	eax, DWORD PTR _this$[ebp]
	add	esp, 4
	cmp	ebp, esp
	call	__RTC_CheckEsp
	mov	esp, ebp
	pop	ebp
	ret	4
??$?0V?$allocator@UGraveRecord@GraveMarkers@@@std@@@?$_Wrap_alloc@V?$allocator@U?$_List_node@UGraveRecord@GraveMarkers@@PAX@std@@@std@@@std@@QAE@ABV?$allocator@UGraveRecord@GraveMarkers@@@1@@Z ENDP ; std::_Wrap_alloc<std::allocator<std::_List_node<GraveMarkers::GraveRecord,void *> > >::_Wrap_alloc<std::allocator<std::_List_node<GraveMarkers::GraveRecord,void *> > ><std::allocator<GraveMarkers::GraveRecord> >
_TEXT	ENDS
; Function compile flags: /Odtp /RTCsu
; File d:\microsoft visual studio 14.0\vc\include\type_traits
;	COMDAT ??$forward@ABV?$allocator@UGraveRecord@GraveMarkers@@@std@@@std@@YAABV?$allocator@UGraveRecord@GraveMarkers@@@0@ABV10@@Z
_TEXT	SEGMENT
__Arg$ = 8						; size = 4
??$forward@ABV?$allocator@UGraveRecord@GraveMarkers@@@std@@@std@@YAABV?$allocator@UGraveRecord@GraveMarkers@@@0@ABV10@@Z PROC ; std::forward<std::allocator<GraveMarkers::GraveRecord> const &>, COMDAT

; 1293 : 	{	// forward an lvalue as either an lvalue or an rvalue

	push	ebp
	mov	ebp, esp

; 1294 : 	return (static_cast<_Ty&&>(_Arg));

	mov	eax, DWORD PTR __Arg$[ebp]

; 1295 : 	}

	pop	ebp
	ret	0
??$forward@ABV?$allocator@UGraveRecord@GraveMarkers@@@std@@@std@@YAABV?$allocator@UGraveRecord@GraveMarkers@@@0@ABV10@@Z ENDP ; std::forward<std::allocator<GraveMarkers::GraveRecord> const &>
_TEXT	ENDS
; Function compile flags: /Odtp /RTCsu
; File d:\microsoft visual studio 14.0\vc\include\xmemory0
;	COMDAT ??$destroy@U_Container_proxy@std@@@?$allocator_traits@V?$allocator@U_Container_proxy@std@@@std@@@std@@SAXAAV?$allocator@U_Container_proxy@std@@@1@PAU_Container_proxy@1@@Z
_TEXT	SEGMENT
__Al$ = 8						; size = 4
__Ptr$ = 12						; size = 4
??$destroy@U_Container_proxy@std@@@?$allocator_traits@V?$allocator@U_Container_proxy@std@@@std@@@std@@SAXAAV?$allocator@U_Container_proxy@std@@@1@PAU_Container_proxy@1@@Z PROC ; std::allocator_traits<std::allocator<std::_Container_proxy> >::destroy<std::_Container_proxy>, COMDAT

; 781  : 		{	// destroy object at _Ptr

	push	ebp
	mov	ebp, esp

; 782  : 		_Al.destroy(_Ptr);

	mov	eax, DWORD PTR __Ptr$[ebp]
	push	eax
	mov	ecx, DWORD PTR __Al$[ebp]
	call	??$destroy@U_Container_proxy@std@@@?$allocator@U_Container_proxy@std@@@std@@QAEXPAU_Container_proxy@1@@Z ; std::allocator<std::_Container_proxy>::destroy<std::_Container_proxy>

; 783  : 		}

	cmp	ebp, esp
	call	__RTC_CheckEsp
	pop	ebp
	ret	0
??$destroy@U_Container_proxy@std@@@?$allocator_traits@V?$allocator@U_Container_proxy@std@@@std@@@std@@SAXAAV?$allocator@U_Container_proxy@std@@@1@PAU_Container_proxy@1@@Z ENDP ; std::allocator_traits<std::allocator<std::_Container_proxy> >::destroy<std::_Container_proxy>
_TEXT	ENDS
; Function compile flags: /Odtp /RTCsu
; File d:\microsoft visual studio 14.0\vc\include\xmemory0
;	COMDAT ??$construct@PADAAPAD@?$allocator_traits@V?$allocator@D@std@@@std@@SAXAAV?$allocator@D@1@PAPADAAPAD@Z
_TEXT	SEGMENT
__Al$ = 8						; size = 4
__Ptr$ = 12						; size = 4
_<_Args_0>$ = 16					; size = 4
??$construct@PADAAPAD@?$allocator_traits@V?$allocator@D@std@@@std@@SAXAAV?$allocator@D@1@PAPADAAPAD@Z PROC ; std::allocator_traits<std::allocator<char> >::construct<char *,char * &>, COMDAT

; 774  : 		{	// construct _Objty(_Types...) at _Ptr

	push	ebp
	mov	ebp, esp

; 775  : 		_Al.construct(_Ptr, _STD forward<_Types>(_Args)...);

	mov	eax, DWORD PTR _<_Args_0>$[ebp]
	push	eax
	call	??$forward@AAPAD@std@@YAAAPADAAPAD@Z	; std::forward<char * &>
	add	esp, 4
	push	eax
	mov	ecx, DWORD PTR __Ptr$[ebp]
	push	ecx
	mov	ecx, DWORD PTR __Al$[ebp]
	call	??$construct@PADAAPAD@?$allocator@D@std@@QAEXPAPADAAPAD@Z ; std::allocator<char>::construct<char *,char * &>

; 776  : 		}

	cmp	ebp, esp
	call	__RTC_CheckEsp
	pop	ebp
	ret	0
??$construct@PADAAPAD@?$allocator_traits@V?$allocator@D@std@@@std@@SAXAAV?$allocator@D@1@PAPADAAPAD@Z ENDP ; std::allocator_traits<std::allocator<char> >::construct<char *,char * &>
_TEXT	ENDS
; Function compile flags: /Odtp /RTCsu
; File d:\microsoft visual studio 14.0\vc\include\type_traits
;	COMDAT ??$forward@AAPAD@std@@YAAAPADAAPAD@Z
_TEXT	SEGMENT
__Arg$ = 8						; size = 4
??$forward@AAPAD@std@@YAAAPADAAPAD@Z PROC		; std::forward<char * &>, COMDAT

; 1293 : 	{	// forward an lvalue as either an lvalue or an rvalue

	push	ebp
	mov	ebp, esp

; 1294 : 	return (static_cast<_Ty&&>(_Arg));

	mov	eax, DWORD PTR __Arg$[ebp]

; 1295 : 	}

	pop	ebp
	ret	0
??$forward@AAPAD@std@@YAAAPADAAPAD@Z ENDP		; std::forward<char * &>
_TEXT	ENDS
; Function compile flags: /Odtp /RTCsu
; File d:\microsoft visual studio 14.0\vc\include\xstddef
;	COMDAT ??$_Addressof@D@std@@YAPADAADU?$integral_constant@_N$0A@@0@@Z
_TEXT	SEGMENT
__Val$ = 8						; size = 4
___formal$ = 12						; size = 1
??$_Addressof@D@std@@YAPADAADU?$integral_constant@_N$0A@@0@@Z PROC ; std::_Addressof<char>, COMDAT

; 691  : 	{	// return address of object _Val

	push	ebp
	mov	ebp, esp

; 692  : 	return (reinterpret_cast<_Ty *>(

	mov	eax, DWORD PTR __Val$[ebp]

; 693  : 		&const_cast<char&>(
; 694  : 		reinterpret_cast<const volatile char&>(_Val))));
; 695  : 	}

	pop	ebp
	ret	0
??$_Addressof@D@std@@YAPADAADU?$integral_constant@_N$0A@@0@@Z ENDP ; std::_Addressof<char>
_TEXT	ENDS
; Function compile flags: /Odtp /RTCsu
; File d:\microsoft visual studio 14.0\vc\include\xmemory0
;	COMDAT ??$destroy@PAD@?$allocator_traits@V?$allocator@D@std@@@std@@SAXAAV?$allocator@D@1@PAPAD@Z
_TEXT	SEGMENT
__Al$ = 8						; size = 4
__Ptr$ = 12						; size = 4
??$destroy@PAD@?$allocator_traits@V?$allocator@D@std@@@std@@SAXAAV?$allocator@D@1@PAPAD@Z PROC ; std::allocator_traits<std::allocator<char> >::destroy<char *>, COMDAT

; 781  : 		{	// destroy object at _Ptr

	push	ebp
	mov	ebp, esp

; 782  : 		_Al.destroy(_Ptr);

	mov	eax, DWORD PTR __Ptr$[ebp]
	push	eax
	mov	ecx, DWORD PTR __Al$[ebp]
	call	??$destroy@PAD@?$allocator@D@std@@QAEXPAPAD@Z ; std::allocator<char>::destroy<char *>

; 783  : 		}

	cmp	ebp, esp
	call	__RTC_CheckEsp
	pop	ebp
	ret	0
??$destroy@PAD@?$allocator_traits@V?$allocator@D@std@@@std@@SAXAAV?$allocator@D@1@PAPAD@Z ENDP ; std::allocator_traits<std::allocator<char> >::destroy<char *>
_TEXT	ENDS
; Function compile flags: /Odtp /RTCsu
; File d:\microsoft visual studio 14.0\vc\include\type_traits
;	COMDAT ??$forward@ABV?$allocator@D@std@@@std@@YAABV?$allocator@D@0@ABV10@@Z
_TEXT	SEGMENT
__Arg$ = 8						; size = 4
??$forward@ABV?$allocator@D@std@@@std@@YAABV?$allocator@D@0@ABV10@@Z PROC ; std::forward<std::allocator<char> const &>, COMDAT

; 1293 : 	{	// forward an lvalue as either an lvalue or an rvalue

	push	ebp
	mov	ebp, esp

; 1294 : 	return (static_cast<_Ty&&>(_Arg));

	mov	eax, DWORD PTR __Arg$[ebp]

; 1295 : 	}

	pop	ebp
	ret	0
??$forward@ABV?$allocator@D@std@@@std@@YAABV?$allocator@D@0@ABV10@@Z ENDP ; std::forward<std::allocator<char> const &>
_TEXT	ENDS
; Function compile flags: /Odtp /RTCsu
; File d:\microsoft visual studio 14.0\vc\include\type_traits
;	COMDAT ??$forward@ABV?$allocator@UVector2D@@@std@@@std@@YAABV?$allocator@UVector2D@@@0@ABV10@@Z
_TEXT	SEGMENT
__Arg$ = 8						; size = 4
??$forward@ABV?$allocator@UVector2D@@@std@@@std@@YAABV?$allocator@UVector2D@@@0@ABV10@@Z PROC ; std::forward<std::allocator<Vector2D> const &>, COMDAT

; 1293 : 	{	// forward an lvalue as either an lvalue or an rvalue

	push	ebp
	mov	ebp, esp

; 1294 : 	return (static_cast<_Ty&&>(_Arg));

	mov	eax, DWORD PTR __Arg$[ebp]

; 1295 : 	}

	pop	ebp
	ret	0
??$forward@ABV?$allocator@UVector2D@@@std@@@std@@YAABV?$allocator@UVector2D@@@0@ABV10@@Z ENDP ; std::forward<std::allocator<Vector2D> const &>
_TEXT	ENDS
; Function compile flags: /Odtp /RTCsu
; File d:\microsoft visual studio 14.0\vc\include\type_traits
;	COMDAT ??$forward@V?$allocator@UVector2D@@@std@@@std@@YA$$QAV?$allocator@UVector2D@@@0@AAV10@@Z
_TEXT	SEGMENT
__Arg$ = 8						; size = 4
??$forward@V?$allocator@UVector2D@@@std@@@std@@YA$$QAV?$allocator@UVector2D@@@0@AAV10@@Z PROC ; std::forward<std::allocator<Vector2D> >, COMDAT

; 1293 : 	{	// forward an lvalue as either an lvalue or an rvalue

	push	ebp
	mov	ebp, esp

; 1294 : 	return (static_cast<_Ty&&>(_Arg));

	mov	eax, DWORD PTR __Arg$[ebp]

; 1295 : 	}

	pop	ebp
	ret	0
??$forward@V?$allocator@UVector2D@@@std@@@std@@YA$$QAV?$allocator@UVector2D@@@0@AAV10@@Z ENDP ; std::forward<std::allocator<Vector2D> >
_TEXT	ENDS
; Function compile flags: /Odtp /RTCsu
; File d:\microsoft visual studio 14.0\vc\include\xmemory0
;	COMDAT ??$_Pocma@U?$_Wrap_alloc@V?$allocator@UVector2D@@@std@@@std@@@std@@YAXAAU?$_Wrap_alloc@V?$allocator@UVector2D@@@std@@@0@0U?$integral_constant@_N$00@0@@Z
_TEXT	SEGMENT
__$EHRec$ = -12						; size = 12
__Left$ = 8						; size = 4
__Right$ = 12						; size = 4
___formal$ = 16						; size = 1
??$_Pocma@U?$_Wrap_alloc@V?$allocator@UVector2D@@@std@@@std@@@std@@YAXAAU?$_Wrap_alloc@V?$allocator@UVector2D@@@std@@@0@0U?$integral_constant@_N$00@0@@Z PROC ; std::_Pocma<std::_Wrap_alloc<std::allocator<Vector2D> > >, COMDAT

; 975  : 	{	// propagate on container move assignment

	push	ebp
	mov	ebp, esp
	push	-1
	push	__ehhandler$??$_Pocma@U?$_Wrap_alloc@V?$allocator@UVector2D@@@std@@@std@@@std@@YAXAAU?$_Wrap_alloc@V?$allocator@UVector2D@@@std@@@0@0U?$integral_constant@_N$00@0@@Z
	mov	eax, DWORD PTR fs:0
	push	eax
	mov	eax, DWORD PTR ___security_cookie
	xor	eax, ebp
	push	eax
	lea	eax, DWORD PTR __$EHRec$[ebp]
	mov	DWORD PTR fs:0, eax

; 976  : 	_Left = _STD move(_Right);

	mov	eax, DWORD PTR __Right$[ebp]
	push	eax
	call	??$move@AAU?$_Wrap_alloc@V?$allocator@UVector2D@@@std@@@std@@@std@@YA$$QAU?$_Wrap_alloc@V?$allocator@UVector2D@@@std@@@0@AAU10@@Z ; std::move<std::_Wrap_alloc<std::allocator<Vector2D> > &>
	add	esp, 4
	push	eax
	mov	ecx, DWORD PTR __Left$[ebp]
	call	??4?$_Wrap_alloc@V?$allocator@UVector2D@@@std@@@std@@QAEAAU01@ABU01@@Z ; std::_Wrap_alloc<std::allocator<Vector2D> >::operator=

; 977  : 	}

	mov	ecx, DWORD PTR __$EHRec$[ebp]
	mov	DWORD PTR fs:0, ecx
	pop	ecx
	add	esp, 12					; 0000000cH
	cmp	ebp, esp
	call	__RTC_CheckEsp
	mov	esp, ebp
	pop	ebp
	ret	0
_TEXT	ENDS
;	COMDAT text$x
text$x	SEGMENT
__ehhandler$??$_Pocma@U?$_Wrap_alloc@V?$allocator@UVector2D@@@std@@@std@@@std@@YAXAAU?$_Wrap_alloc@V?$allocator@UVector2D@@@std@@@0@0U?$integral_constant@_N$00@0@@Z:
	mov	edx, DWORD PTR [esp+8]
	lea	eax, DWORD PTR [edx+12]
	mov	ecx, DWORD PTR [edx-4]
	xor	ecx, eax
	call	@__security_check_cookie@4
	mov	eax, OFFSET __ehfuncinfo$??$_Pocma@U?$_Wrap_alloc@V?$allocator@UVector2D@@@std@@@std@@@std@@YAXAAU?$_Wrap_alloc@V?$allocator@UVector2D@@@std@@@0@0U?$integral_constant@_N$00@0@@Z
	jmp	___CxxFrameHandler3
text$x	ENDS
??$_Pocma@U?$_Wrap_alloc@V?$allocator@UVector2D@@@std@@@std@@@std@@YAXAAU?$_Wrap_alloc@V?$allocator@UVector2D@@@std@@@0@0U?$integral_constant@_N$00@0@@Z ENDP ; std::_Pocma<std::_Wrap_alloc<std::allocator<Vector2D> > >
; Function compile flags: /Odtp /RTCsu
; File d:\microsoft visual studio 14.0\vc\include\xmemory0
;	COMDAT ??$destroy@UGraveRecord@GraveMarkers@@@?$allocator_traits@V?$allocator@U?$_List_node@UGraveRecord@GraveMarkers@@PAX@std@@@std@@@std@@SAXAAV?$allocator@U?$_List_node@UGraveRecord@GraveMarkers@@PAX@std@@@1@PAUGraveRecord@GraveMarkers@@@Z
_TEXT	SEGMENT
__Al$ = 8						; size = 4
__Ptr$ = 12						; size = 4
??$destroy@UGraveRecord@GraveMarkers@@@?$allocator_traits@V?$allocator@U?$_List_node@UGraveRecord@GraveMarkers@@PAX@std@@@std@@@std@@SAXAAV?$allocator@U?$_List_node@UGraveRecord@GraveMarkers@@PAX@std@@@1@PAUGraveRecord@GraveMarkers@@@Z PROC ; std::allocator_traits<std::allocator<std::_List_node<GraveMarkers::GraveRecord,void *> > >::destroy<GraveMarkers::GraveRecord>, COMDAT

; 781  : 		{	// destroy object at _Ptr

	push	ebp
	mov	ebp, esp

; 782  : 		_Al.destroy(_Ptr);

	mov	eax, DWORD PTR __Ptr$[ebp]
	push	eax
	mov	ecx, DWORD PTR __Al$[ebp]
	call	??$destroy@UGraveRecord@GraveMarkers@@@?$allocator@U?$_List_node@UGraveRecord@GraveMarkers@@PAX@std@@@std@@QAEXPAUGraveRecord@GraveMarkers@@@Z ; std::allocator<std::_List_node<GraveMarkers::GraveRecord,void *> >::destroy<GraveMarkers::GraveRecord>

; 783  : 		}

	cmp	ebp, esp
	call	__RTC_CheckEsp
	pop	ebp
	ret	0
??$destroy@UGraveRecord@GraveMarkers@@@?$allocator_traits@V?$allocator@U?$_List_node@UGraveRecord@GraveMarkers@@PAX@std@@@std@@@std@@SAXAAV?$allocator@U?$_List_node@UGraveRecord@GraveMarkers@@PAX@std@@@1@PAUGraveRecord@GraveMarkers@@@Z ENDP ; std::allocator_traits<std::allocator<std::_List_node<GraveMarkers::GraveRecord,void *> > >::destroy<GraveMarkers::GraveRecord>
_TEXT	ENDS
; Function compile flags: /Odtp /RTCsu
; File d:\microsoft visual studio 14.0\vc\include\xmemory0
;	COMDAT ??$destroy@PAU?$_List_node@UGraveRecord@GraveMarkers@@PAX@std@@@?$allocator_traits@V?$allocator@U?$_List_node@UGraveRecord@GraveMarkers@@PAX@std@@@std@@@std@@SAXAAV?$allocator@U?$_List_node@UGraveRecord@GraveMarkers@@PAX@std@@@1@PAPAU?$_List_node@UGraveRecord@GraveMarkers@@PAX@1@@Z
_TEXT	SEGMENT
__Al$ = 8						; size = 4
__Ptr$ = 12						; size = 4
??$destroy@PAU?$_List_node@UGraveRecord@GraveMarkers@@PAX@std@@@?$allocator_traits@V?$allocator@U?$_List_node@UGraveRecord@GraveMarkers@@PAX@std@@@std@@@std@@SAXAAV?$allocator@U?$_List_node@UGraveRecord@GraveMarkers@@PAX@std@@@1@PAPAU?$_List_node@UGraveRecord@GraveMarkers@@PAX@1@@Z PROC ; std::allocator_traits<std::allocator<std::_List_node<GraveMarkers::GraveRecord,void *> > >::destroy<std::_List_node<GraveMarkers::GraveRecord,void *> *>, COMDAT

; 781  : 		{	// destroy object at _Ptr

	push	ebp
	mov	ebp, esp

; 782  : 		_Al.destroy(_Ptr);

	mov	eax, DWORD PTR __Ptr$[ebp]
	push	eax
	mov	ecx, DWORD PTR __Al$[ebp]
	call	??$destroy@PAU?$_List_node@UGraveRecord@GraveMarkers@@PAX@std@@@?$allocator@U?$_List_node@UGraveRecord@GraveMarkers@@PAX@std@@@std@@QAEXPAPAU?$_List_node@UGraveRecord@GraveMarkers@@PAX@1@@Z ; std::allocator<std::_List_node<GraveMarkers::GraveRecord,void *> >::destroy<std::_List_node<GraveMarkers::GraveRecord,void *> *>

; 783  : 		}

	cmp	ebp, esp
	call	__RTC_CheckEsp
	pop	ebp
	ret	0
??$destroy@PAU?$_List_node@UGraveRecord@GraveMarkers@@PAX@std@@@?$allocator_traits@V?$allocator@U?$_List_node@UGraveRecord@GraveMarkers@@PAX@std@@@std@@@std@@SAXAAV?$allocator@U?$_List_node@UGraveRecord@GraveMarkers@@PAX@std@@@1@PAPAU?$_List_node@UGraveRecord@GraveMarkers@@PAX@1@@Z ENDP ; std::allocator_traits<std::allocator<std::_List_node<GraveMarkers::GraveRecord,void *> > >::destroy<std::_List_node<GraveMarkers::GraveRecord,void *> *>
_TEXT	ENDS
; Function compile flags: /Odtp /RTCsu
; File d:\microsoft visual studio 14.0\vc\include\xstddef
;	COMDAT ??$_Addressof@PAU?$_List_node@UGraveRecord@GraveMarkers@@PAX@std@@@std@@YAPAPAU?$_List_node@UGraveRecord@GraveMarkers@@PAX@0@AAPAU10@U?$integral_constant@_N$0A@@0@@Z
_TEXT	SEGMENT
__Val$ = 8						; size = 4
___formal$ = 12						; size = 1
??$_Addressof@PAU?$_List_node@UGraveRecord@GraveMarkers@@PAX@std@@@std@@YAPAPAU?$_List_node@UGraveRecord@GraveMarkers@@PAX@0@AAPAU10@U?$integral_constant@_N$0A@@0@@Z PROC ; std::_Addressof<std::_List_node<GraveMarkers::GraveRecord,void *> *>, COMDAT

; 691  : 	{	// return address of object _Val

	push	ebp
	mov	ebp, esp

; 692  : 	return (reinterpret_cast<_Ty *>(

	mov	eax, DWORD PTR __Val$[ebp]

; 693  : 		&const_cast<char&>(
; 694  : 		reinterpret_cast<const volatile char&>(_Val))));
; 695  : 	}

	pop	ebp
	ret	0
??$_Addressof@PAU?$_List_node@UGraveRecord@GraveMarkers@@PAX@std@@@std@@YAPAPAU?$_List_node@UGraveRecord@GraveMarkers@@PAX@0@AAPAU10@U?$integral_constant@_N$0A@@0@@Z ENDP ; std::_Addressof<std::_List_node<GraveMarkers::GraveRecord,void *> *>
_TEXT	ENDS
; Function compile flags: /Odtp /RTCsu
; File d:\microsoft visual studio 14.0\vc\include\xstddef
;	COMDAT ??$_Addressof@UGraveRecord@GraveMarkers@@@std@@YAPAUGraveRecord@GraveMarkers@@AAU12@U?$integral_constant@_N$0A@@0@@Z
_TEXT	SEGMENT
__Val$ = 8						; size = 4
___formal$ = 12						; size = 1
??$_Addressof@UGraveRecord@GraveMarkers@@@std@@YAPAUGraveRecord@GraveMarkers@@AAU12@U?$integral_constant@_N$0A@@0@@Z PROC ; std::_Addressof<GraveMarkers::GraveRecord>, COMDAT

; 691  : 	{	// return address of object _Val

	push	ebp
	mov	ebp, esp

; 692  : 	return (reinterpret_cast<_Ty *>(

	mov	eax, DWORD PTR __Val$[ebp]

; 693  : 		&const_cast<char&>(
; 694  : 		reinterpret_cast<const volatile char&>(_Val))));
; 695  : 	}

	pop	ebp
	ret	0
??$_Addressof@UGraveRecord@GraveMarkers@@@std@@YAPAUGraveRecord@GraveMarkers@@AAU12@U?$integral_constant@_N$0A@@0@@Z ENDP ; std::_Addressof<GraveMarkers::GraveRecord>
_TEXT	ENDS
; Function compile flags: /Odtp /RTCsu
; File d:\microsoft visual studio 14.0\vc\include\list
;	COMDAT ??$_Buynode@UGraveRecord@GraveMarkers@@@?$_List_buy@UGraveRecord@GraveMarkers@@V?$allocator@UGraveRecord@GraveMarkers@@@std@@@std@@QAEPAU?$_List_node@UGraveRecord@GraveMarkers@@PAX@1@PAU21@0$$QAUGraveRecord@GraveMarkers@@@Z
_TEXT	SEGMENT
tv131 = -28						; size = 4
__Pnode$ = -24						; size = 4
_this$ = -20						; size = 4
__$EHRec$ = -16						; size = 16
__Next$ = 8						; size = 4
__Prev$ = 12						; size = 4
_<_Val_0>$ = 16						; size = 4
??$_Buynode@UGraveRecord@GraveMarkers@@@?$_List_buy@UGraveRecord@GraveMarkers@@V?$allocator@UGraveRecord@GraveMarkers@@@std@@@std@@QAEPAU?$_List_node@UGraveRecord@GraveMarkers@@PAX@1@PAU21@0$$QAUGraveRecord@GraveMarkers@@@Z PROC ; std::_List_buy<GraveMarkers::GraveRecord,std::allocator<GraveMarkers::GraveRecord> >::_Buynode<GraveMarkers::GraveRecord>, COMDAT
; _this$ = ecx

; 828  : 		{	// allocate a node and set links and value

	push	ebp
	mov	ebp, esp
	push	-1
	push	__ehhandler$??$_Buynode@UGraveRecord@GraveMarkers@@@?$_List_buy@UGraveRecord@GraveMarkers@@V?$allocator@UGraveRecord@GraveMarkers@@@std@@@std@@QAEPAU?$_List_node@UGraveRecord@GraveMarkers@@PAX@1@PAU21@0$$QAUGraveRecord@GraveMarkers@@@Z
	mov	eax, DWORD PTR fs:0
	push	eax
	push	ecx
	sub	esp, 12					; 0000000cH
	push	ebx
	push	esi
	push	edi
	mov	DWORD PTR [ebp-28], -858993460		; ccccccccH
	mov	DWORD PTR [ebp-24], -858993460		; ccccccccH
	mov	DWORD PTR [ebp-20], -858993460		; ccccccccH
	mov	eax, DWORD PTR ___security_cookie
	xor	eax, ebp
	push	eax
	lea	eax, DWORD PTR __$EHRec$[ebp+4]
	mov	DWORD PTR fs:0, eax
	mov	DWORD PTR __$EHRec$[ebp], esp
	mov	DWORD PTR _this$[ebp], ecx

; 829  : 		_Nodeptr _Pnode = this->_Buynode0(_Next, _Prev);

	mov	eax, DWORD PTR __Prev$[ebp]
	push	eax
	mov	ecx, DWORD PTR __Next$[ebp]
	push	ecx
	mov	ecx, DWORD PTR _this$[ebp]
	call	?_Buynode0@?$_List_alloc@U?$_List_base_types@UGraveRecord@GraveMarkers@@V?$allocator@UGraveRecord@GraveMarkers@@@std@@@std@@@std@@QAEPAU?$_List_node@UGraveRecord@GraveMarkers@@PAX@2@PAU32@0@Z ; std::_List_alloc<std::_List_base_types<GraveMarkers::GraveRecord,std::allocator<GraveMarkers::GraveRecord> > >::_Buynode0
	mov	DWORD PTR __Pnode$[ebp], eax

; 830  : 
; 831  : 		_TRY_BEGIN

	mov	DWORD PTR __$EHRec$[ebp+12], 0

; 832  : 		this->_Getal().construct(

	mov	edx, DWORD PTR __Pnode$[ebp]
	push	edx
	call	?_Myval@?$_List_alloc@U?$_List_base_types@UGraveRecord@GraveMarkers@@V?$allocator@UGraveRecord@GraveMarkers@@@std@@@std@@@std@@SAAAUGraveRecord@GraveMarkers@@PAU?$_List_node@UGraveRecord@GraveMarkers@@PAX@2@@Z ; std::_List_alloc<std::_List_base_types<GraveMarkers::GraveRecord,std::allocator<GraveMarkers::GraveRecord> > >::_Myval
	add	esp, 4
	mov	DWORD PTR tv131[ebp], eax
	mov	eax, DWORD PTR _<_Val_0>$[ebp]
	push	eax
	call	??$forward@UGraveRecord@GraveMarkers@@@std@@YA$$QAUGraveRecord@GraveMarkers@@AAU12@@Z ; std::forward<GraveMarkers::GraveRecord>
	add	esp, 4
	push	eax
	mov	ecx, DWORD PTR tv131[ebp]
	push	ecx
	call	??$addressof@UGraveRecord@GraveMarkers@@@std@@YAPAUGraveRecord@GraveMarkers@@AAU12@@Z ; std::addressof<GraveMarkers::GraveRecord>
	add	esp, 4
	push	eax
	mov	ecx, DWORD PTR _this$[ebp]
	call	?_Getal@?$_List_alloc@U?$_List_base_types@UGraveRecord@GraveMarkers@@V?$allocator@UGraveRecord@GraveMarkers@@@std@@@std@@@std@@QAEAAU?$_Wrap_alloc@V?$allocator@U?$_List_node@UGraveRecord@GraveMarkers@@PAX@std@@@std@@@2@XZ ; std::_List_alloc<std::_List_base_types<GraveMarkers::GraveRecord,std::allocator<GraveMarkers::GraveRecord> > >::_Getal
	mov	ecx, eax
	call	??$construct@UGraveRecord@GraveMarkers@@U12@@?$_Wrap_alloc@V?$allocator@U?$_List_node@UGraveRecord@GraveMarkers@@PAX@std@@@std@@@std@@QAEXPAUGraveRecord@GraveMarkers@@$$QAU23@@Z ; std::_Wrap_alloc<std::allocator<std::_List_node<GraveMarkers::GraveRecord,void *> > >::construct<GraveMarkers::GraveRecord,GraveMarkers::GraveRecord>
	jmp	SHORT $LN4@Buynode
__catch$??$_Buynode@UGraveRecord@GraveMarkers@@@?$_List_buy@UGraveRecord@GraveMarkers@@V?$allocator@UGraveRecord@GraveMarkers@@@std@@@std@@QAEPAU?$_List_node@UGraveRecord@GraveMarkers@@PAX@1@PAU21@0$$QAUGraveRecord@GraveMarkers@@@Z$0:

; 833  : 			_STD addressof(this->_Myval(_Pnode)),
; 834  : 				_STD forward<_Valty>(_Val)...);
; 835  : 		_CATCH_ALL
; 836  : 		this->_Getal().deallocate(_Pnode, 1);

	push	1
	mov	edx, DWORD PTR __Pnode$[ebp]
	push	edx
	mov	ecx, DWORD PTR _this$[ebp]
	call	?_Getal@?$_List_alloc@U?$_List_base_types@UGraveRecord@GraveMarkers@@V?$allocator@UGraveRecord@GraveMarkers@@@std@@@std@@@std@@QAEAAU?$_Wrap_alloc@V?$allocator@U?$_List_node@UGraveRecord@GraveMarkers@@PAX@std@@@std@@@2@XZ ; std::_List_alloc<std::_List_base_types<GraveMarkers::GraveRecord,std::allocator<GraveMarkers::GraveRecord> > >::_Getal
	mov	ecx, eax
	call	?deallocate@?$_Wrap_alloc@V?$allocator@U?$_List_node@UGraveRecord@GraveMarkers@@PAX@std@@@std@@@std@@QAEXPAU?$_List_node@UGraveRecord@GraveMarkers@@PAX@2@I@Z ; std::_Wrap_alloc<std::allocator<std::_List_node<GraveMarkers::GraveRecord,void *> > >::deallocate

; 837  : 		_RERAISE;

	push	0
	push	0
	call	__CxxThrowException@8

; 838  : 		_CATCH_END

	mov	eax, $LN7@Buynode
	ret	0
$LN4@Buynode:
	mov	DWORD PTR __$EHRec$[ebp+12], -1
	jmp	SHORT __tryend$??$_Buynode@UGraveRecord@GraveMarkers@@@?$_List_buy@UGraveRecord@GraveMarkers@@V?$allocator@UGraveRecord@GraveMarkers@@@std@@@std@@QAEPAU?$_List_node@UGraveRecord@GraveMarkers@@PAX@1@PAU21@0$$QAUGraveRecord@GraveMarkers@@@Z$1
$LN7@Buynode:
	mov	DWORD PTR __$EHRec$[ebp+12], -1
__tryend$??$_Buynode@UGraveRecord@GraveMarkers@@@?$_List_buy@UGraveRecord@GraveMarkers@@V?$allocator@UGraveRecord@GraveMarkers@@@std@@@std@@QAEPAU?$_List_node@UGraveRecord@GraveMarkers@@PAX@1@PAU21@0$$QAUGraveRecord@GraveMarkers@@@Z$1:

; 839  : 
; 840  : 		return (_Pnode);

	mov	eax, DWORD PTR __Pnode$[ebp]
$LN3@Buynode:

; 841  : 		}

	mov	ecx, DWORD PTR __$EHRec$[ebp+4]
	mov	DWORD PTR fs:0, ecx
	pop	ecx
	pop	edi
	pop	esi
	pop	ebx
	add	esp, 28					; 0000001cH
	cmp	ebp, esp
	call	__RTC_CheckEsp
	mov	esp, ebp
	pop	ebp
	ret	12					; 0000000cH
_TEXT	ENDS
;	COMDAT text$x
text$x	SEGMENT
__ehhandler$??$_Buynode@UGraveRecord@GraveMarkers@@@?$_List_buy@UGraveRecord@GraveMarkers@@V?$allocator@UGraveRecord@GraveMarkers@@@std@@@std@@QAEPAU?$_List_node@UGraveRecord@GraveMarkers@@PAX@1@PAU21@0$$QAUGraveRecord@GraveMarkers@@@Z:
	mov	edx, DWORD PTR [esp+8]
	lea	eax, DWORD PTR [edx+12]
	mov	ecx, DWORD PTR [edx-32]
	xor	ecx, eax
	call	@__security_check_cookie@4
	mov	eax, OFFSET __ehfuncinfo$??$_Buynode@UGraveRecord@GraveMarkers@@@?$_List_buy@UGraveRecord@GraveMarkers@@V?$allocator@UGraveRecord@GraveMarkers@@@std@@@std@@QAEPAU?$_List_node@UGraveRecord@GraveMarkers@@PAX@1@PAU21@0$$QAUGraveRecord@GraveMarkers@@@Z
	jmp	___CxxFrameHandler3
text$x	ENDS
??$_Buynode@UGraveRecord@GraveMarkers@@@?$_List_buy@UGraveRecord@GraveMarkers@@V?$allocator@UGraveRecord@GraveMarkers@@@std@@@std@@QAEPAU?$_List_node@UGraveRecord@GraveMarkers@@PAX@1@PAU21@0$$QAUGraveRecord@GraveMarkers@@@Z ENDP ; std::_List_buy<GraveMarkers::GraveRecord,std::allocator<GraveMarkers::GraveRecord> >::_Buynode<GraveMarkers::GraveRecord>
; Function compile flags: /Odtp /RTCsu
; File d:\microsoft visual studio 14.0\vc\include\xmemory
;	COMDAT ??$_Uninitialized_copy@V?$_Vector_const_iterator@V?$_Vector_val@U?$_Simple_types@UVector2D@@@std@@@std@@@std@@PAUVector2D@@U?$_Wrap_alloc@V?$allocator@UVector2D@@@std@@@2@@std@@YAPAUVector2D@@V?$_Vector_const_iterator@V?$_Vector_val@U?$_Simple_types@UVector2D@@@std@@@std@@@0@0PAU1@AAU?$_Wrap_alloc@V?$allocator@UVector2D@@@std@@@0@@Z
_TEXT	SEGMENT
tv67 = -44						; size = 4
tv148 = -40						; size = 4
tv147 = -36						; size = 4
tv144 = -32						; size = 4
tv143 = -28						; size = 4
$T2 = -24						; size = 4
$T3 = -20						; size = 4
$T4 = -16						; size = 4
__$EHRec$ = -12						; size = 12
__First$ = 8						; size = 12
__Last$ = 20						; size = 12
__Dest$ = 32						; size = 4
__Al$ = 36						; size = 4
??$_Uninitialized_copy@V?$_Vector_const_iterator@V?$_Vector_val@U?$_Simple_types@UVector2D@@@std@@@std@@@std@@PAUVector2D@@U?$_Wrap_alloc@V?$allocator@UVector2D@@@std@@@2@@std@@YAPAUVector2D@@V?$_Vector_const_iterator@V?$_Vector_val@U?$_Simple_types@UVector2D@@@std@@@std@@@0@0PAU1@AAU?$_Wrap_alloc@V?$allocator@UVector2D@@@std@@@0@@Z PROC ; std::_Uninitialized_copy<std::_Vector_const_iterator<std::_Vector_val<std::_Simple_types<Vector2D> > >,Vector2D *,std::_Wrap_alloc<std::allocator<Vector2D> > >, COMDAT

; 424  : 	{	// copy [_First, _Last) to raw _Dest, using _Al

	push	ebp
	mov	ebp, esp
	push	-1
	push	__ehhandler$??$_Uninitialized_copy@V?$_Vector_const_iterator@V?$_Vector_val@U?$_Simple_types@UVector2D@@@std@@@std@@@std@@PAUVector2D@@U?$_Wrap_alloc@V?$allocator@UVector2D@@@std@@@2@@std@@YAPAUVector2D@@V?$_Vector_const_iterator@V?$_Vector_val@U?$_Simple_types@UVector2D@@@std@@@std@@@0@0PAU1@AAU?$_Wrap_alloc@V?$allocator@UVector2D@@@std@@@0@@Z
	mov	eax, DWORD PTR fs:0
	push	eax
	sub	esp, 32					; 00000020H
	mov	eax, -858993460				; ccccccccH
	mov	DWORD PTR [ebp-44], eax
	mov	DWORD PTR [ebp-40], eax
	mov	DWORD PTR [ebp-36], eax
	mov	DWORD PTR [ebp-32], eax
	mov	DWORD PTR [ebp-28], eax
	mov	DWORD PTR [ebp-24], eax
	mov	DWORD PTR [ebp-20], eax
	mov	DWORD PTR [ebp-16], eax
	mov	eax, DWORD PTR ___security_cookie
	xor	eax, ebp
	push	eax
	lea	eax, DWORD PTR __$EHRec$[ebp]
	mov	DWORD PTR fs:0, eax
	mov	DWORD PTR __$EHRec$[ebp+8], 1

; 425  : 	return (_Rechecked(_Dest,

	mov	eax, DWORD PTR __Al$[ebp]
	push	eax
	mov	ecx, DWORD PTR __Dest$[ebp]
	push	ecx
	call	??$_Unchecked@PAUVector2D@@@std@@YAPAUVector2D@@PAU1@@Z ; std::_Unchecked<Vector2D *>
	add	esp, 4
	push	eax
	sub	esp, 12					; 0000000cH
	mov	ecx, esp
	mov	DWORD PTR $T3[ebp], esp
	lea	edx, DWORD PTR __Last$[ebp]
	push	edx
	call	??0?$_Vector_const_iterator@V?$_Vector_val@U?$_Simple_types@UVector2D@@@std@@@std@@@std@@QAE@ABV01@@Z
	mov	DWORD PTR tv143[ebp], eax
	call	??$_Unchecked@V?$_Vector_val@U?$_Simple_types@UVector2D@@@std@@@std@@@std@@YAPBUVector2D@@V?$_Vector_const_iterator@V?$_Vector_val@U?$_Simple_types@UVector2D@@@std@@@std@@@0@@Z ; std::_Unchecked<std::_Vector_val<std::_Simple_types<Vector2D> > >
	add	esp, 12					; 0000000cH
	mov	DWORD PTR tv144[ebp], eax
	mov	eax, DWORD PTR tv144[ebp]
	push	eax
	sub	esp, 12					; 0000000cH
	mov	ecx, esp
	mov	DWORD PTR $T2[ebp], esp
	lea	edx, DWORD PTR __First$[ebp]
	push	edx
	call	??0?$_Vector_const_iterator@V?$_Vector_val@U?$_Simple_types@UVector2D@@@std@@@std@@@std@@QAE@ABV01@@Z
	mov	DWORD PTR tv147[ebp], eax
	call	??$_Unchecked@V?$_Vector_val@U?$_Simple_types@UVector2D@@@std@@@std@@@std@@YAPBUVector2D@@V?$_Vector_const_iterator@V?$_Vector_val@U?$_Simple_types@UVector2D@@@std@@@std@@@0@@Z ; std::_Unchecked<std::_Vector_val<std::_Simple_types<Vector2D> > >
	add	esp, 12					; 0000000cH
	mov	DWORD PTR tv148[ebp], eax
	mov	eax, DWORD PTR tv148[ebp]
	push	eax
	call	??$_Uninit_copy@PBUVector2D@@PAU1@U?$_Wrap_alloc@V?$allocator@UVector2D@@@std@@@std@@@std@@YAPAUVector2D@@PBU1@0PAU1@AAU?$_Wrap_alloc@V?$allocator@UVector2D@@@std@@@0@@Z ; std::_Uninit_copy<Vector2D const *,Vector2D *,std::_Wrap_alloc<std::allocator<Vector2D> > >
	add	esp, 16					; 00000010H
	mov	DWORD PTR tv67[ebp], eax
	mov	ecx, DWORD PTR tv67[ebp]
	push	ecx
	lea	edx, DWORD PTR __Dest$[ebp]
	push	edx
	call	??$_Rechecked@PAUVector2D@@PAU1@@std@@YAAAPAUVector2D@@AAPAU1@PAU1@@Z ; std::_Rechecked<Vector2D *,Vector2D *>
	add	esp, 8
	mov	eax, DWORD PTR [eax]
	mov	DWORD PTR $T4[ebp], eax
	mov	BYTE PTR __$EHRec$[ebp+8], 0
	lea	ecx, DWORD PTR __First$[ebp]
	call	??1?$_Vector_const_iterator@V?$_Vector_val@U?$_Simple_types@UVector2D@@@std@@@std@@@std@@QAE@XZ
	mov	DWORD PTR __$EHRec$[ebp+8], -1
	lea	ecx, DWORD PTR __Last$[ebp]
	call	??1?$_Vector_const_iterator@V?$_Vector_val@U?$_Simple_types@UVector2D@@@std@@@std@@@std@@QAE@XZ
	mov	eax, DWORD PTR $T4[ebp]

; 426  : 		_Uninit_copy(_Unchecked(_First), _Unchecked(_Last),
; 427  : 			_Unchecked(_Dest), _Al)));
; 428  : 	}

	mov	ecx, DWORD PTR __$EHRec$[ebp]
	mov	DWORD PTR fs:0, ecx
	pop	ecx
	add	esp, 44					; 0000002cH
	cmp	ebp, esp
	call	__RTC_CheckEsp
	mov	esp, ebp
	pop	ebp
	ret	0
_TEXT	ENDS
;	COMDAT text$x
text$x	SEGMENT
__unwindfunclet$??$_Uninitialized_copy@V?$_Vector_const_iterator@V?$_Vector_val@U?$_Simple_types@UVector2D@@@std@@@std@@@std@@PAUVector2D@@U?$_Wrap_alloc@V?$allocator@UVector2D@@@std@@@2@@std@@YAPAUVector2D@@V?$_Vector_const_iterator@V?$_Vector_val@U?$_Simple_types@UVector2D@@@std@@@std@@@0@0PAU1@AAU?$_Wrap_alloc@V?$allocator@UVector2D@@@std@@@0@@Z$0:
	lea	ecx, DWORD PTR __Last$[ebp]
	jmp	??1?$_Vector_const_iterator@V?$_Vector_val@U?$_Simple_types@UVector2D@@@std@@@std@@@std@@QAE@XZ
__unwindfunclet$??$_Uninitialized_copy@V?$_Vector_const_iterator@V?$_Vector_val@U?$_Simple_types@UVector2D@@@std@@@std@@@std@@PAUVector2D@@U?$_Wrap_alloc@V?$allocator@UVector2D@@@std@@@2@@std@@YAPAUVector2D@@V?$_Vector_const_iterator@V?$_Vector_val@U?$_Simple_types@UVector2D@@@std@@@std@@@0@0PAU1@AAU?$_Wrap_alloc@V?$allocator@UVector2D@@@std@@@0@@Z$1:
	lea	ecx, DWORD PTR __First$[ebp]
	jmp	??1?$_Vector_const_iterator@V?$_Vector_val@U?$_Simple_types@UVector2D@@@std@@@std@@@std@@QAE@XZ
__ehhandler$??$_Uninitialized_copy@V?$_Vector_const_iterator@V?$_Vector_val@U?$_Simple_types@UVector2D@@@std@@@std@@@std@@PAUVector2D@@U?$_Wrap_alloc@V?$allocator@UVector2D@@@std@@@2@@std@@YAPAUVector2D@@V?$_Vector_const_iterator@V?$_Vector_val@U?$_Simple_types@UVector2D@@@std@@@std@@@0@0PAU1@AAU?$_Wrap_alloc@V?$allocator@UVector2D@@@std@@@0@@Z:
	mov	edx, DWORD PTR [esp+8]
	lea	eax, DWORD PTR [edx+12]
	mov	ecx, DWORD PTR [edx-36]
	xor	ecx, eax
	call	@__security_check_cookie@4
	mov	eax, OFFSET __ehfuncinfo$??$_Uninitialized_copy@V?$_Vector_const_iterator@V?$_Vector_val@U?$_Simple_types@UVector2D@@@std@@@std@@@std@@PAUVector2D@@U?$_Wrap_alloc@V?$allocator@UVector2D@@@std@@@2@@std@@YAPAUVector2D@@V?$_Vector_const_iterator@V?$_Vector_val@U?$_Simple_types@UVector2D@@@std@@@std@@@0@0PAU1@AAU?$_Wrap_alloc@V?$allocator@UVector2D@@@std@@@0@@Z
	jmp	___CxxFrameHandler3
text$x	ENDS
??$_Uninitialized_copy@V?$_Vector_const_iterator@V?$_Vector_val@U?$_Simple_types@UVector2D@@@std@@@std@@@std@@PAUVector2D@@U?$_Wrap_alloc@V?$allocator@UVector2D@@@std@@@2@@std@@YAPAUVector2D@@V?$_Vector_const_iterator@V?$_Vector_val@U?$_Simple_types@UVector2D@@@std@@@std@@@0@0PAU1@AAU?$_Wrap_alloc@V?$allocator@UVector2D@@@std@@@0@@Z ENDP ; std::_Uninitialized_copy<std::_Vector_const_iterator<std::_Vector_val<std::_Simple_types<Vector2D> > >,Vector2D *,std::_Wrap_alloc<std::allocator<Vector2D> > >
; Function compile flags: /Odtp /RTCsu
; File d:\microsoft visual studio 14.0\vc\include\xmemory0
;	COMDAT ??$?8UVector2D@@U0@@std@@YA_NABV?$allocator@UVector2D@@@0@0@Z
_TEXT	SEGMENT
___formal$ = 8						; size = 4
___formal$ = 12						; size = 4
??$?8UVector2D@@U0@@std@@YA_NABV?$allocator@UVector2D@@@0@0@Z PROC ; std::operator==<Vector2D,Vector2D>, COMDAT

; 713  : 	{	// test for allocator equality

	push	ebp
	mov	ebp, esp

; 714  : 	return (true);

	mov	al, 1

; 715  : 	}

	pop	ebp
	ret	0
??$?8UVector2D@@U0@@std@@YA_NABV?$allocator@UVector2D@@@0@0@Z ENDP ; std::operator==<Vector2D,Vector2D>
_TEXT	ENDS
; Function compile flags: /Odtp /RTCsu
; File d:\microsoft visual studio 14.0\vc\include\xmemory0
;	COMDAT ??$?8V?$allocator@UVector2D@@@std@@V01@@std@@YA_NABU?$_Wrap_alloc@V?$allocator@UVector2D@@@std@@@0@0@Z
_TEXT	SEGMENT
__Left$ = 8						; size = 4
__Right$ = 12						; size = 4
??$?8V?$allocator@UVector2D@@@std@@V01@@std@@YA_NABU?$_Wrap_alloc@V?$allocator@UVector2D@@@std@@@0@0@Z PROC ; std::operator==<std::allocator<Vector2D>,std::allocator<Vector2D> >, COMDAT

; 940  : 	{	// test for allocator equality

	push	ebp
	mov	ebp, esp

; 941  : 	return (static_cast<const _Ty&>(_Left)

	mov	eax, DWORD PTR __Right$[ebp]
	push	eax
	mov	ecx, DWORD PTR __Left$[ebp]
	push	ecx
	call	??$?8UVector2D@@U0@@std@@YA_NABV?$allocator@UVector2D@@@0@0@Z ; std::operator==<Vector2D,Vector2D>
	add	esp, 8

; 942  : 		== static_cast<const _Other&>(_Right));
; 943  : 	}

	cmp	ebp, esp
	call	__RTC_CheckEsp
	pop	ebp
	ret	0
??$?8V?$allocator@UVector2D@@@std@@V01@@std@@YA_NABU?$_Wrap_alloc@V?$allocator@UVector2D@@@std@@@0@0@Z ENDP ; std::operator==<std::allocator<Vector2D>,std::allocator<Vector2D> >
_TEXT	ENDS
; Function compile flags: /Odtp /RTCsu
; File d:\microsoft visual studio 14.0\vc\include\xmemory0
;	COMDAT ??$construct@UVector2D@@U1@@?$allocator_traits@V?$allocator@UVector2D@@@std@@@std@@SAXAAV?$allocator@UVector2D@@@1@PAUVector2D@@$$QAU3@@Z
_TEXT	SEGMENT
__Al$ = 8						; size = 4
__Ptr$ = 12						; size = 4
_<_Args_0>$ = 16					; size = 4
??$construct@UVector2D@@U1@@?$allocator_traits@V?$allocator@UVector2D@@@std@@@std@@SAXAAV?$allocator@UVector2D@@@1@PAUVector2D@@$$QAU3@@Z PROC ; std::allocator_traits<std::allocator<Vector2D> >::construct<Vector2D,Vector2D>, COMDAT

; 774  : 		{	// construct _Objty(_Types...) at _Ptr

	push	ebp
	mov	ebp, esp

; 775  : 		_Al.construct(_Ptr, _STD forward<_Types>(_Args)...);

	mov	eax, DWORD PTR _<_Args_0>$[ebp]
	push	eax
	call	??$forward@UVector2D@@@std@@YA$$QAUVector2D@@AAU1@@Z ; std::forward<Vector2D>
	add	esp, 4
	push	eax
	mov	ecx, DWORD PTR __Ptr$[ebp]
	push	ecx
	mov	ecx, DWORD PTR __Al$[ebp]
	call	??$construct@UVector2D@@U1@@?$allocator@UVector2D@@@std@@QAEXPAUVector2D@@$$QAU2@@Z ; std::allocator<Vector2D>::construct<Vector2D,Vector2D>

; 776  : 		}

	cmp	ebp, esp
	call	__RTC_CheckEsp
	pop	ebp
	ret	0
??$construct@UVector2D@@U1@@?$allocator_traits@V?$allocator@UVector2D@@@std@@@std@@SAXAAV?$allocator@UVector2D@@@1@PAUVector2D@@$$QAU3@@Z ENDP ; std::allocator_traits<std::allocator<Vector2D> >::construct<Vector2D,Vector2D>
_TEXT	ENDS
; Function compile flags: /Odtp /RTCsu
; File d:\microsoft visual studio 14.0\vc\include\xstddef
;	COMDAT ??$_Addressof@UVector2D@@@std@@YAPAUVector2D@@AAU1@U?$integral_constant@_N$0A@@0@@Z
_TEXT	SEGMENT
__Val$ = 8						; size = 4
___formal$ = 12						; size = 1
??$_Addressof@UVector2D@@@std@@YAPAUVector2D@@AAU1@U?$integral_constant@_N$0A@@0@@Z PROC ; std::_Addressof<Vector2D>, COMDAT

; 691  : 	{	// return address of object _Val

	push	ebp
	mov	ebp, esp

; 692  : 	return (reinterpret_cast<_Ty *>(

	mov	eax, DWORD PTR __Val$[ebp]

; 693  : 		&const_cast<char&>(
; 694  : 		reinterpret_cast<const volatile char&>(_Val))));
; 695  : 	}

	pop	ebp
	ret	0
??$_Addressof@UVector2D@@@std@@YAPAUVector2D@@AAU1@U?$integral_constant@_N$0A@@0@@Z ENDP ; std::_Addressof<Vector2D>
_TEXT	ENDS
; Function compile flags: /Odtp /RTCsu
; File d:\microsoft visual studio 14.0\vc\include\xmemory0
;	COMDAT ??$construct@UVector2D@@ABU1@@?$allocator_traits@V?$allocator@UVector2D@@@std@@@std@@SAXAAV?$allocator@UVector2D@@@1@PAUVector2D@@ABU3@@Z
_TEXT	SEGMENT
__Al$ = 8						; size = 4
__Ptr$ = 12						; size = 4
_<_Args_0>$ = 16					; size = 4
??$construct@UVector2D@@ABU1@@?$allocator_traits@V?$allocator@UVector2D@@@std@@@std@@SAXAAV?$allocator@UVector2D@@@1@PAUVector2D@@ABU3@@Z PROC ; std::allocator_traits<std::allocator<Vector2D> >::construct<Vector2D,Vector2D const &>, COMDAT

; 774  : 		{	// construct _Objty(_Types...) at _Ptr

	push	ebp
	mov	ebp, esp

; 775  : 		_Al.construct(_Ptr, _STD forward<_Types>(_Args)...);

	mov	eax, DWORD PTR _<_Args_0>$[ebp]
	push	eax
	call	??$forward@ABUVector2D@@@std@@YAABUVector2D@@ABU1@@Z ; std::forward<Vector2D const &>
	add	esp, 4
	push	eax
	mov	ecx, DWORD PTR __Ptr$[ebp]
	push	ecx
	mov	ecx, DWORD PTR __Al$[ebp]
	call	??$construct@UVector2D@@ABU1@@?$allocator@UVector2D@@@std@@QAEXPAUVector2D@@ABU2@@Z ; std::allocator<Vector2D>::construct<Vector2D,Vector2D const &>

; 776  : 		}

	cmp	ebp, esp
	call	__RTC_CheckEsp
	pop	ebp
	ret	0
??$construct@UVector2D@@ABU1@@?$allocator_traits@V?$allocator@UVector2D@@@std@@@std@@SAXAAV?$allocator@UVector2D@@@1@PAUVector2D@@ABU3@@Z ENDP ; std::allocator_traits<std::allocator<Vector2D> >::construct<Vector2D,Vector2D const &>
_TEXT	ENDS
; Function compile flags: /Odtp /RTCsu
; File d:\microsoft visual studio 14.0\vc\include\type_traits
;	COMDAT ??$forward@ABUVector2D@@@std@@YAABUVector2D@@ABU1@@Z
_TEXT	SEGMENT
__Arg$ = 8						; size = 4
??$forward@ABUVector2D@@@std@@YAABUVector2D@@ABU1@@Z PROC ; std::forward<Vector2D const &>, COMDAT

; 1293 : 	{	// forward an lvalue as either an lvalue or an rvalue

	push	ebp
	mov	ebp, esp

; 1294 : 	return (static_cast<_Ty&&>(_Arg));

	mov	eax, DWORD PTR __Arg$[ebp]

; 1295 : 	}

	pop	ebp
	ret	0
??$forward@ABUVector2D@@@std@@YAABUVector2D@@ABU1@@Z ENDP ; std::forward<Vector2D const &>
_TEXT	ENDS
; Function compile flags: /Odtp /RTCsu
; File d:\microsoft visual studio 14.0\vc\include\xmemory0
;	COMDAT ??$construct@UVector2D@@AAU1@@?$allocator_traits@V?$allocator@UVector2D@@@std@@@std@@SAXAAV?$allocator@UVector2D@@@1@PAUVector2D@@AAU3@@Z
_TEXT	SEGMENT
__Al$ = 8						; size = 4
__Ptr$ = 12						; size = 4
_<_Args_0>$ = 16					; size = 4
??$construct@UVector2D@@AAU1@@?$allocator_traits@V?$allocator@UVector2D@@@std@@@std@@SAXAAV?$allocator@UVector2D@@@1@PAUVector2D@@AAU3@@Z PROC ; std::allocator_traits<std::allocator<Vector2D> >::construct<Vector2D,Vector2D &>, COMDAT

; 774  : 		{	// construct _Objty(_Types...) at _Ptr

	push	ebp
	mov	ebp, esp

; 775  : 		_Al.construct(_Ptr, _STD forward<_Types>(_Args)...);

	mov	eax, DWORD PTR _<_Args_0>$[ebp]
	push	eax
	call	??$forward@AAUVector2D@@@std@@YAAAUVector2D@@AAU1@@Z ; std::forward<Vector2D &>
	add	esp, 4
	push	eax
	mov	ecx, DWORD PTR __Ptr$[ebp]
	push	ecx
	mov	ecx, DWORD PTR __Al$[ebp]
	call	??$construct@UVector2D@@AAU1@@?$allocator@UVector2D@@@std@@QAEXPAUVector2D@@AAU2@@Z ; std::allocator<Vector2D>::construct<Vector2D,Vector2D &>

; 776  : 		}

	cmp	ebp, esp
	call	__RTC_CheckEsp
	pop	ebp
	ret	0
??$construct@UVector2D@@AAU1@@?$allocator_traits@V?$allocator@UVector2D@@@std@@@std@@SAXAAV?$allocator@UVector2D@@@1@PAUVector2D@@AAU3@@Z ENDP ; std::allocator_traits<std::allocator<Vector2D> >::construct<Vector2D,Vector2D &>
_TEXT	ENDS
; Function compile flags: /Odtp /RTCsu
; File d:\microsoft visual studio 14.0\vc\include\type_traits
;	COMDAT ??$forward@AAUVector2D@@@std@@YAAAUVector2D@@AAU1@@Z
_TEXT	SEGMENT
__Arg$ = 8						; size = 4
??$forward@AAUVector2D@@@std@@YAAAUVector2D@@AAU1@@Z PROC ; std::forward<Vector2D &>, COMDAT

; 1293 : 	{	// forward an lvalue as either an lvalue or an rvalue

	push	ebp
	mov	ebp, esp

; 1294 : 	return (static_cast<_Ty&&>(_Arg));

	mov	eax, DWORD PTR __Arg$[ebp]

; 1295 : 	}

	pop	ebp
	ret	0
??$forward@AAUVector2D@@@std@@YAAAUVector2D@@AAU1@@Z ENDP ; std::forward<Vector2D &>
_TEXT	ENDS
; Function compile flags: /Odtp /RTCsu
; File d:\microsoft visual studio 14.0\vc\include\xstddef
;	COMDAT ??$_Addressof@$$CBUVector2D@@@std@@YAPBUVector2D@@ABU1@U?$integral_constant@_N$0A@@0@@Z
_TEXT	SEGMENT
__Val$ = 8						; size = 4
___formal$ = 12						; size = 1
??$_Addressof@$$CBUVector2D@@@std@@YAPBUVector2D@@ABU1@U?$integral_constant@_N$0A@@0@@Z PROC ; std::_Addressof<Vector2D const >, COMDAT

; 691  : 	{	// return address of object _Val

	push	ebp
	mov	ebp, esp

; 692  : 	return (reinterpret_cast<_Ty *>(

	mov	eax, DWORD PTR __Val$[ebp]

; 693  : 		&const_cast<char&>(
; 694  : 		reinterpret_cast<const volatile char&>(_Val))));
; 695  : 	}

	pop	ebp
	ret	0
??$_Addressof@$$CBUVector2D@@@std@@YAPBUVector2D@@ABU1@U?$integral_constant@_N$0A@@0@@Z ENDP ; std::_Addressof<Vector2D const >
_TEXT	ENDS
; Function compile flags: /Odtp /RTCsu
; File d:\microsoft visual studio 14.0\vc\include\xmemory0
;	COMDAT ??$_Allocate@U?$_List_node@UGraveRecord@GraveMarkers@@PAX@std@@@std@@YAPAU?$_List_node@UGraveRecord@GraveMarkers@@PAX@0@IPAU10@_N@Z
_TEXT	SEGMENT
__Ptr_container$1 = -16					; size = 4
__Block_size$2 = -12					; size = 4
__User_size$ = -8					; size = 4
__Ptr$ = -4						; size = 4
__Count$ = 8						; size = 4
___formal$ = 12						; size = 4
__Try_aligned_allocation$ = 16				; size = 1
??$_Allocate@U?$_List_node@UGraveRecord@GraveMarkers@@PAX@std@@@std@@YAPAU?$_List_node@UGraveRecord@GraveMarkers@@PAX@0@IPAU10@_N@Z PROC ; std::_Allocate<std::_List_node<GraveMarkers::GraveRecord,void *> >, COMDAT

; 54   : 	{	// allocate storage for _Count elements of type _Ty

	push	ebp
	mov	ebp, esp
	sub	esp, 16					; 00000010H
	mov	eax, -858993460				; ccccccccH
	mov	DWORD PTR [ebp-16], eax
	mov	DWORD PTR [ebp-12], eax
	mov	DWORD PTR [ebp-8], eax
	mov	DWORD PTR [ebp-4], eax

; 55   : 	void *_Ptr = 0;

	mov	DWORD PTR __Ptr$[ebp], 0

; 56   : 
; 57   : 	if (_Count == 0)

	cmp	DWORD PTR __Count$[ebp], 0
	jne	SHORT $LN2@Allocate

; 58   : 		return (static_cast<_Ty *>(_Ptr));

	mov	eax, DWORD PTR __Ptr$[ebp]
	jmp	$LN9@Allocate
$LN2@Allocate:

; 59   : 
; 60   : 	// check overflow of multiply
; 61   : 	if ((size_t)(-1) / sizeof (_Ty) < _Count)

	cmp	DWORD PTR __Count$[ebp], 134217727	; 07ffffffH
	jbe	SHORT $LN3@Allocate

; 62   : 		_Xbad_alloc();	// report no memory

	call	?_Xbad_alloc@std@@YAXXZ			; std::_Xbad_alloc
$LN3@Allocate:

; 63   : 	const size_t _User_size = _Count * sizeof (_Ty);

	mov	eax, DWORD PTR __Count$[ebp]
	shl	eax, 5
	mov	DWORD PTR __User_size$[ebp], eax

; 64   : 
; 65   :  #if defined(_M_IX86) || defined(_M_X64)
; 66   : 	if (_Try_aligned_allocation
; 67   : 		&& _BIG_ALLOCATION_THRESHOLD <= _User_size)

	movzx	ecx, BYTE PTR __Try_aligned_allocation$[ebp]
	test	ecx, ecx
	je	$LN4@Allocate
	cmp	DWORD PTR __User_size$[ebp], 4096	; 00001000H
	jb	$LN4@Allocate

; 68   : 		{	// allocate large block
; 69   : 		static_assert(sizeof (void *) < _BIG_ALLOCATION_ALIGNMENT,
; 70   : 			"Big allocations should at least match vector register size");
; 71   : 		const size_t _Block_size = _NON_USER_SIZE + _User_size;

	mov	edx, DWORD PTR __User_size$[ebp]
	add	edx, 39					; 00000027H
	mov	DWORD PTR __Block_size$2[ebp], edx

; 72   : 		if (_Block_size <= _User_size)

	mov	eax, DWORD PTR __Block_size$2[ebp]
	cmp	eax, DWORD PTR __User_size$[ebp]
	ja	SHORT $LN6@Allocate

; 73   : 			_Xbad_alloc();	// report no memory

	call	?_Xbad_alloc@std@@YAXXZ			; std::_Xbad_alloc
$LN6@Allocate:

; 74   : 		const uintptr_t _Ptr_container =
; 75   : 			reinterpret_cast<uintptr_t>(::operator new(_Block_size));

	mov	ecx, DWORD PTR __Block_size$2[ebp]
	push	ecx
	call	??2@YAPAXI@Z				; operator new
	add	esp, 4
	mov	DWORD PTR __Ptr_container$1[ebp], eax

; 76   : 		_SCL_SECURE_ALWAYS_VALIDATE(_Ptr_container != 0);

	cmp	DWORD PTR __Ptr_container$1[ebp], 0
	jne	SHORT $LN7@Allocate
	mov	edx, OFFSET ??_C@_0BE@LMNLACIC@_Ptr_container?5?$CB?$DN?50?$AA@
	test	edx, edx
	je	SHORT $LN10@Allocate
	xor	eax, eax
	jne	SHORT $LN11@Allocate
$LN10@Allocate:
	push	OFFSET ??_C@_1DG@HGDKEBPG@?$AA?$CC?$AA_?$AAP?$AAt?$AAr?$AA_?$AAc?$AAo?$AAn?$AAt?$AAa?$AAi?$AAn?$AAe?$AAr?$AA?5?$AA?$CB?$AA?$DN?$AA?5?$AA0?$AA?$CC?$AA?5?$AA?$CG?$AA?$CG?$AA?5?$AA0?$AA?$AA@
	push	OFFSET ??_C@_17CNPHIMPH@?$AA?$CF?$AAl?$AAs?$AA?$AA@
	push	0
	push	76					; 0000004cH
	push	OFFSET ??_C@_1GI@MOGLCDAO@?$AAD?$AA?3?$AA?2?$AAM?$AAi?$AAc?$AAr?$AAo?$AAs?$AAo?$AAf?$AAt?$AA?5?$AAV?$AAi?$AAs?$AAu?$AAa?$AAl?$AA?5?$AAS?$AAt?$AAu?$AAd?$AAi?$AAo?$AA?5?$AA1?$AA4?$AA?4?$AA0?$AA?2@
	push	2
	call	__CrtDbgReportW
	add	esp, 24					; 00000018H
	cmp	eax, 1
	jne	SHORT $LN11@Allocate
	int	3
$LN11@Allocate:
	push	0
	push	76					; 0000004cH
	push	OFFSET ??_C@_1GI@MOGLCDAO@?$AAD?$AA?3?$AA?2?$AAM?$AAi?$AAc?$AAr?$AAo?$AAs?$AAo?$AAf?$AAt?$AA?5?$AAV?$AAi?$AAs?$AAu?$AAa?$AAl?$AA?5?$AAS?$AAt?$AAu?$AAd?$AAi?$AAo?$AA?5?$AA1?$AA4?$AA?4?$AA0?$AA?2@
	push	OFFSET ??_C@_1BO@NKFMJPA@?$AAs?$AAt?$AAd?$AA?3?$AA?3?$AA_?$AAA?$AAl?$AAl?$AAo?$AAc?$AAa?$AAt?$AAe?$AA?$AA@
	push	OFFSET ??_C@_1CG@JNLFBNGN@?$AA?$CC?$AAi?$AAn?$AAv?$AAa?$AAl?$AAi?$AAd?$AA?5?$AAa?$AAr?$AAg?$AAu?$AAm?$AAe?$AAn?$AAt?$AA?$CC?$AA?$AA@
	call	__invalid_parameter
	add	esp, 20					; 00000014H
$LN7@Allocate:

; 77   : 		_Ptr = reinterpret_cast<void *>((_Ptr_container + _NON_USER_SIZE)

	mov	edx, DWORD PTR __Ptr_container$1[ebp]
	add	edx, 39					; 00000027H
	and	edx, -32				; ffffffe0H
	mov	DWORD PTR __Ptr$[ebp], edx

; 78   : 			& ~(_BIG_ALLOCATION_ALIGNMENT - 1));
; 79   : 		static_cast<uintptr_t *>(_Ptr)[-1] = _Ptr_container;

	mov	eax, 4
	imul	ecx, eax, -1
	mov	edx, DWORD PTR __Ptr$[ebp]
	mov	eax, DWORD PTR __Ptr_container$1[ebp]
	mov	DWORD PTR [edx+ecx], eax

; 80   : 
; 81   :  #ifdef _DEBUG
; 82   : 		static_cast<uintptr_t *>(_Ptr)[-2] = _BIG_ALLOCATION_SENTINEL;

	mov	ecx, 4
	imul	edx, ecx, -2
	mov	eax, DWORD PTR __Ptr$[ebp]
	mov	DWORD PTR [eax+edx], -84215046		; fafafafaH

; 83   :  #endif /* _DEBUG */
; 84   : 		}
; 85   : 	else

	jmp	SHORT $LN5@Allocate
$LN4@Allocate:

; 86   :  #endif /* defined(_M_IX86) || defined(_M_X64) */
; 87   : 
; 88   : 		{	// allocate normal block
; 89   : 		_Ptr = ::operator new(_User_size);

	mov	ecx, DWORD PTR __User_size$[ebp]
	push	ecx
	call	??2@YAPAXI@Z				; operator new
	add	esp, 4
	mov	DWORD PTR __Ptr$[ebp], eax

; 90   : 		_SCL_SECURE_ALWAYS_VALIDATE(_Ptr != 0);

	cmp	DWORD PTR __Ptr$[ebp], 0
	jne	SHORT $LN5@Allocate
	mov	edx, OFFSET ??_C@_09GLJCAGLP@_Ptr?5?$CB?$DN?50?$AA@
	test	edx, edx
	je	SHORT $LN12@Allocate
	xor	eax, eax
	jne	SHORT $LN13@Allocate
$LN12@Allocate:
	push	OFFSET ??_C@_1CC@GKJLLHIM@?$AA?$CC?$AA_?$AAP?$AAt?$AAr?$AA?5?$AA?$CB?$AA?$DN?$AA?5?$AA0?$AA?$CC?$AA?5?$AA?$CG?$AA?$CG?$AA?5?$AA0?$AA?$AA@
	push	OFFSET ??_C@_17CNPHIMPH@?$AA?$CF?$AAl?$AAs?$AA?$AA@
	push	0
	push	90					; 0000005aH
	push	OFFSET ??_C@_1GI@MOGLCDAO@?$AAD?$AA?3?$AA?2?$AAM?$AAi?$AAc?$AAr?$AAo?$AAs?$AAo?$AAf?$AAt?$AA?5?$AAV?$AAi?$AAs?$AAu?$AAa?$AAl?$AA?5?$AAS?$AAt?$AAu?$AAd?$AAi?$AAo?$AA?5?$AA1?$AA4?$AA?4?$AA0?$AA?2@
	push	2
	call	__CrtDbgReportW
	add	esp, 24					; 00000018H
	cmp	eax, 1
	jne	SHORT $LN13@Allocate
	int	3
$LN13@Allocate:
	push	0
	push	90					; 0000005aH
	push	OFFSET ??_C@_1GI@MOGLCDAO@?$AAD?$AA?3?$AA?2?$AAM?$AAi?$AAc?$AAr?$AAo?$AAs?$AAo?$AAf?$AAt?$AA?5?$AAV?$AAi?$AAs?$AAu?$AAa?$AAl?$AA?5?$AAS?$AAt?$AAu?$AAd?$AAi?$AAo?$AA?5?$AA1?$AA4?$AA?4?$AA0?$AA?2@
	push	OFFSET ??_C@_1BO@NKFMJPA@?$AAs?$AAt?$AAd?$AA?3?$AA?3?$AA_?$AAA?$AAl?$AAl?$AAo?$AAc?$AAa?$AAt?$AAe?$AA?$AA@
	push	OFFSET ??_C@_1CG@JNLFBNGN@?$AA?$CC?$AAi?$AAn?$AAv?$AAa?$AAl?$AAi?$AAd?$AA?5?$AAa?$AAr?$AAg?$AAu?$AAm?$AAe?$AAn?$AAt?$AA?$CC?$AA?$AA@
	call	__invalid_parameter
	add	esp, 20					; 00000014H
$LN5@Allocate:

; 91   : 		}
; 92   : 	return (static_cast<_Ty *>(_Ptr));

	mov	eax, DWORD PTR __Ptr$[ebp]
$LN9@Allocate:

; 93   : 	}

	add	esp, 16					; 00000010H
	cmp	ebp, esp
	call	__RTC_CheckEsp
	mov	esp, ebp
	pop	ebp
	ret	0
??$_Allocate@U?$_List_node@UGraveRecord@GraveMarkers@@PAX@std@@@std@@YAPAU?$_List_node@UGraveRecord@GraveMarkers@@PAX@0@IPAU10@_N@Z ENDP ; std::_Allocate<std::_List_node<GraveMarkers::GraveRecord,void *> >
_TEXT	ENDS
; Function compile flags: /Odtp /RTCsu
; File d:\microsoft visual studio 14.0\vc\include\xmemory0
;	COMDAT ??$_Allocate@D@std@@YAPADIPAD_N@Z
_TEXT	SEGMENT
__Ptr_container$1 = -16					; size = 4
__Block_size$2 = -12					; size = 4
__User_size$ = -8					; size = 4
__Ptr$ = -4						; size = 4
__Count$ = 8						; size = 4
___formal$ = 12						; size = 4
__Try_aligned_allocation$ = 16				; size = 1
??$_Allocate@D@std@@YAPADIPAD_N@Z PROC			; std::_Allocate<char>, COMDAT

; 54   : 	{	// allocate storage for _Count elements of type _Ty

	push	ebp
	mov	ebp, esp
	sub	esp, 16					; 00000010H
	mov	eax, -858993460				; ccccccccH
	mov	DWORD PTR [ebp-16], eax
	mov	DWORD PTR [ebp-12], eax
	mov	DWORD PTR [ebp-8], eax
	mov	DWORD PTR [ebp-4], eax

; 55   : 	void *_Ptr = 0;

	mov	DWORD PTR __Ptr$[ebp], 0

; 56   : 
; 57   : 	if (_Count == 0)

	cmp	DWORD PTR __Count$[ebp], 0
	jne	SHORT $LN2@Allocate

; 58   : 		return (static_cast<_Ty *>(_Ptr));

	mov	eax, DWORD PTR __Ptr$[ebp]
	jmp	$LN9@Allocate
$LN2@Allocate:

; 59   : 
; 60   : 	// check overflow of multiply
; 61   : 	if ((size_t)(-1) / sizeof (_Ty) < _Count)

	cmp	DWORD PTR __Count$[ebp], -1
	jbe	SHORT $LN3@Allocate

; 62   : 		_Xbad_alloc();	// report no memory

	call	?_Xbad_alloc@std@@YAXXZ			; std::_Xbad_alloc
$LN3@Allocate:

; 63   : 	const size_t _User_size = _Count * sizeof (_Ty);

	mov	eax, DWORD PTR __Count$[ebp]
	mov	DWORD PTR __User_size$[ebp], eax

; 64   : 
; 65   :  #if defined(_M_IX86) || defined(_M_X64)
; 66   : 	if (_Try_aligned_allocation
; 67   : 		&& _BIG_ALLOCATION_THRESHOLD <= _User_size)

	movzx	ecx, BYTE PTR __Try_aligned_allocation$[ebp]
	test	ecx, ecx
	je	$LN4@Allocate
	cmp	DWORD PTR __User_size$[ebp], 4096	; 00001000H
	jb	$LN4@Allocate

; 68   : 		{	// allocate large block
; 69   : 		static_assert(sizeof (void *) < _BIG_ALLOCATION_ALIGNMENT,
; 70   : 			"Big allocations should at least match vector register size");
; 71   : 		const size_t _Block_size = _NON_USER_SIZE + _User_size;

	mov	edx, DWORD PTR __User_size$[ebp]
	add	edx, 39					; 00000027H
	mov	DWORD PTR __Block_size$2[ebp], edx

; 72   : 		if (_Block_size <= _User_size)

	mov	eax, DWORD PTR __Block_size$2[ebp]
	cmp	eax, DWORD PTR __User_size$[ebp]
	ja	SHORT $LN6@Allocate

; 73   : 			_Xbad_alloc();	// report no memory

	call	?_Xbad_alloc@std@@YAXXZ			; std::_Xbad_alloc
$LN6@Allocate:

; 74   : 		const uintptr_t _Ptr_container =
; 75   : 			reinterpret_cast<uintptr_t>(::operator new(_Block_size));

	mov	ecx, DWORD PTR __Block_size$2[ebp]
	push	ecx
	call	??2@YAPAXI@Z				; operator new
	add	esp, 4
	mov	DWORD PTR __Ptr_container$1[ebp], eax

; 76   : 		_SCL_SECURE_ALWAYS_VALIDATE(_Ptr_container != 0);

	cmp	DWORD PTR __Ptr_container$1[ebp], 0
	jne	SHORT $LN7@Allocate
	mov	edx, OFFSET ??_C@_0BE@LMNLACIC@_Ptr_container?5?$CB?$DN?50?$AA@
	test	edx, edx
	je	SHORT $LN10@Allocate
	xor	eax, eax
	jne	SHORT $LN11@Allocate
$LN10@Allocate:
	push	OFFSET ??_C@_1DG@HGDKEBPG@?$AA?$CC?$AA_?$AAP?$AAt?$AAr?$AA_?$AAc?$AAo?$AAn?$AAt?$AAa?$AAi?$AAn?$AAe?$AAr?$AA?5?$AA?$CB?$AA?$DN?$AA?5?$AA0?$AA?$CC?$AA?5?$AA?$CG?$AA?$CG?$AA?5?$AA0?$AA?$AA@
	push	OFFSET ??_C@_17CNPHIMPH@?$AA?$CF?$AAl?$AAs?$AA?$AA@
	push	0
	push	76					; 0000004cH
	push	OFFSET ??_C@_1GI@MOGLCDAO@?$AAD?$AA?3?$AA?2?$AAM?$AAi?$AAc?$AAr?$AAo?$AAs?$AAo?$AAf?$AAt?$AA?5?$AAV?$AAi?$AAs?$AAu?$AAa?$AAl?$AA?5?$AAS?$AAt?$AAu?$AAd?$AAi?$AAo?$AA?5?$AA1?$AA4?$AA?4?$AA0?$AA?2@
	push	2
	call	__CrtDbgReportW
	add	esp, 24					; 00000018H
	cmp	eax, 1
	jne	SHORT $LN11@Allocate
	int	3
$LN11@Allocate:
	push	0
	push	76					; 0000004cH
	push	OFFSET ??_C@_1GI@MOGLCDAO@?$AAD?$AA?3?$AA?2?$AAM?$AAi?$AAc?$AAr?$AAo?$AAs?$AAo?$AAf?$AAt?$AA?5?$AAV?$AAi?$AAs?$AAu?$AAa?$AAl?$AA?5?$AAS?$AAt?$AAu?$AAd?$AAi?$AAo?$AA?5?$AA1?$AA4?$AA?4?$AA0?$AA?2@
	push	OFFSET ??_C@_1BO@NKFMJPA@?$AAs?$AAt?$AAd?$AA?3?$AA?3?$AA_?$AAA?$AAl?$AAl?$AAo?$AAc?$AAa?$AAt?$AAe?$AA?$AA@
	push	OFFSET ??_C@_1CG@JNLFBNGN@?$AA?$CC?$AAi?$AAn?$AAv?$AAa?$AAl?$AAi?$AAd?$AA?5?$AAa?$AAr?$AAg?$AAu?$AAm?$AAe?$AAn?$AAt?$AA?$CC?$AA?$AA@
	call	__invalid_parameter
	add	esp, 20					; 00000014H
$LN7@Allocate:

; 77   : 		_Ptr = reinterpret_cast<void *>((_Ptr_container + _NON_USER_SIZE)

	mov	edx, DWORD PTR __Ptr_container$1[ebp]
	add	edx, 39					; 00000027H
	and	edx, -32				; ffffffe0H
	mov	DWORD PTR __Ptr$[ebp], edx

; 78   : 			& ~(_BIG_ALLOCATION_ALIGNMENT - 1));
; 79   : 		static_cast<uintptr_t *>(_Ptr)[-1] = _Ptr_container;

	mov	eax, 4
	imul	ecx, eax, -1
	mov	edx, DWORD PTR __Ptr$[ebp]
	mov	eax, DWORD PTR __Ptr_container$1[ebp]
	mov	DWORD PTR [edx+ecx], eax

; 80   : 
; 81   :  #ifdef _DEBUG
; 82   : 		static_cast<uintptr_t *>(_Ptr)[-2] = _BIG_ALLOCATION_SENTINEL;

	mov	ecx, 4
	imul	edx, ecx, -2
	mov	eax, DWORD PTR __Ptr$[ebp]
	mov	DWORD PTR [eax+edx], -84215046		; fafafafaH

; 83   :  #endif /* _DEBUG */
; 84   : 		}
; 85   : 	else

	jmp	SHORT $LN5@Allocate
$LN4@Allocate:

; 86   :  #endif /* defined(_M_IX86) || defined(_M_X64) */
; 87   : 
; 88   : 		{	// allocate normal block
; 89   : 		_Ptr = ::operator new(_User_size);

	mov	ecx, DWORD PTR __User_size$[ebp]
	push	ecx
	call	??2@YAPAXI@Z				; operator new
	add	esp, 4
	mov	DWORD PTR __Ptr$[ebp], eax

; 90   : 		_SCL_SECURE_ALWAYS_VALIDATE(_Ptr != 0);

	cmp	DWORD PTR __Ptr$[ebp], 0
	jne	SHORT $LN5@Allocate
	mov	edx, OFFSET ??_C@_09GLJCAGLP@_Ptr?5?$CB?$DN?50?$AA@
	test	edx, edx
	je	SHORT $LN12@Allocate
	xor	eax, eax
	jne	SHORT $LN13@Allocate
$LN12@Allocate:
	push	OFFSET ??_C@_1CC@GKJLLHIM@?$AA?$CC?$AA_?$AAP?$AAt?$AAr?$AA?5?$AA?$CB?$AA?$DN?$AA?5?$AA0?$AA?$CC?$AA?5?$AA?$CG?$AA?$CG?$AA?5?$AA0?$AA?$AA@
	push	OFFSET ??_C@_17CNPHIMPH@?$AA?$CF?$AAl?$AAs?$AA?$AA@
	push	0
	push	90					; 0000005aH
	push	OFFSET ??_C@_1GI@MOGLCDAO@?$AAD?$AA?3?$AA?2?$AAM?$AAi?$AAc?$AAr?$AAo?$AAs?$AAo?$AAf?$AAt?$AA?5?$AAV?$AAi?$AAs?$AAu?$AAa?$AAl?$AA?5?$AAS?$AAt?$AAu?$AAd?$AAi?$AAo?$AA?5?$AA1?$AA4?$AA?4?$AA0?$AA?2@
	push	2
	call	__CrtDbgReportW
	add	esp, 24					; 00000018H
	cmp	eax, 1
	jne	SHORT $LN13@Allocate
	int	3
$LN13@Allocate:
	push	0
	push	90					; 0000005aH
	push	OFFSET ??_C@_1GI@MOGLCDAO@?$AAD?$AA?3?$AA?2?$AAM?$AAi?$AAc?$AAr?$AAo?$AAs?$AAo?$AAf?$AAt?$AA?5?$AAV?$AAi?$AAs?$AAu?$AAa?$AAl?$AA?5?$AAS?$AAt?$AAu?$AAd?$AAi?$AAo?$AA?5?$AA1?$AA4?$AA?4?$AA0?$AA?2@
	push	OFFSET ??_C@_1BO@NKFMJPA@?$AAs?$AAt?$AAd?$AA?3?$AA?3?$AA_?$AAA?$AAl?$AAl?$AAo?$AAc?$AAa?$AAt?$AAe?$AA?$AA@
	push	OFFSET ??_C@_1CG@JNLFBNGN@?$AA?$CC?$AAi?$AAn?$AAv?$AAa?$AAl?$AAi?$AAd?$AA?5?$AAa?$AAr?$AAg?$AAu?$AAm?$AAe?$AAn?$AAt?$AA?$CC?$AA?$AA@
	call	__invalid_parameter
	add	esp, 20					; 00000014H
$LN5@Allocate:

; 91   : 		}
; 92   : 	return (static_cast<_Ty *>(_Ptr));

	mov	eax, DWORD PTR __Ptr$[ebp]
$LN9@Allocate:

; 93   : 	}

	add	esp, 16					; 00000010H
	cmp	ebp, esp
	call	__RTC_CheckEsp
	mov	esp, ebp
	pop	ebp
	ret	0
??$_Allocate@D@std@@YAPADIPAD_N@Z ENDP			; std::_Allocate<char>
_TEXT	ENDS
; Function compile flags: /Odtp /RTCsu
; File d:\microsoft visual studio 14.0\vc\include\xmemory0
;	COMDAT ??$construct@PAU?$_List_node@UGraveRecord@GraveMarkers@@PAX@std@@AAPAU12@@?$_Wrap_alloc@V?$allocator@U?$_List_node@UGraveRecord@GraveMarkers@@PAX@std@@@std@@@std@@QAEXPAPAU?$_List_node@UGraveRecord@GraveMarkers@@PAX@1@AAPAU21@@Z
_TEXT	SEGMENT
_this$ = -4						; size = 4
__Ptr$ = 8						; size = 4
_<_Args_0>$ = 12					; size = 4
??$construct@PAU?$_List_node@UGraveRecord@GraveMarkers@@PAX@std@@AAPAU12@@?$_Wrap_alloc@V?$allocator@U?$_List_node@UGraveRecord@GraveMarkers@@PAX@std@@@std@@@std@@QAEXPAPAU?$_List_node@UGraveRecord@GraveMarkers@@PAX@1@AAPAU21@@Z PROC ; std::_Wrap_alloc<std::allocator<std::_List_node<GraveMarkers::GraveRecord,void *> > >::construct<std::_List_node<GraveMarkers::GraveRecord,void *> *,std::_List_node<GraveMarkers::GraveRecord,void *> * &>, COMDAT
; _this$ = ecx

; 918  : 		{	// construct _Ty(_Types...) at _Ptr

	push	ebp
	mov	ebp, esp
	push	ecx
	mov	DWORD PTR [ebp-4], -858993460		; ccccccccH
	mov	DWORD PTR _this$[ebp], ecx

; 919  : 		_Mytraits::construct(*this, _Ptr,

	mov	eax, DWORD PTR _<_Args_0>$[ebp]
	push	eax
	call	??$forward@AAPAU?$_List_node@UGraveRecord@GraveMarkers@@PAX@std@@@std@@YAAAPAU?$_List_node@UGraveRecord@GraveMarkers@@PAX@0@AAPAU10@@Z ; std::forward<std::_List_node<GraveMarkers::GraveRecord,void *> * &>
	add	esp, 4
	push	eax
	mov	ecx, DWORD PTR __Ptr$[ebp]
	push	ecx
	mov	edx, DWORD PTR _this$[ebp]
	push	edx
	call	??$construct@PAU?$_List_node@UGraveRecord@GraveMarkers@@PAX@std@@AAPAU12@@?$allocator_traits@V?$allocator@U?$_List_node@UGraveRecord@GraveMarkers@@PAX@std@@@std@@@std@@SAXAAV?$allocator@U?$_List_node@UGraveRecord@GraveMarkers@@PAX@std@@@1@PAPAU?$_List_node@UGraveRecord@GraveMarkers@@PAX@1@AAPAU31@@Z ; std::allocator_traits<std::allocator<std::_List_node<GraveMarkers::GraveRecord,void *> > >::construct<std::_List_node<GraveMarkers::GraveRecord,void *> *,std::_List_node<GraveMarkers::GraveRecord,void *> * &>
	add	esp, 12					; 0000000cH

; 920  : 			_STD forward<_Types>(_Args)...);
; 921  : 		}

	add	esp, 4
	cmp	ebp, esp
	call	__RTC_CheckEsp
	mov	esp, ebp
	pop	ebp
	ret	8
??$construct@PAU?$_List_node@UGraveRecord@GraveMarkers@@PAX@std@@AAPAU12@@?$_Wrap_alloc@V?$allocator@U?$_List_node@UGraveRecord@GraveMarkers@@PAX@std@@@std@@@std@@QAEXPAPAU?$_List_node@UGraveRecord@GraveMarkers@@PAX@1@AAPAU21@@Z ENDP ; std::_Wrap_alloc<std::allocator<std::_List_node<GraveMarkers::GraveRecord,void *> > >::construct<std::_List_node<GraveMarkers::GraveRecord,void *> *,std::_List_node<GraveMarkers::GraveRecord,void *> * &>
_TEXT	ENDS
; Function compile flags: /Odtp /RTCsu
; File d:\microsoft visual studio 14.0\vc\include\xmemory0
;	COMDAT ??$_Deallocate@U_Container_proxy@std@@@std@@YAXPAU_Container_proxy@0@I@Z
_TEXT	SEGMENT
__Ptr_container$1 = -16					; size = 4
__Ptr_ptr$2 = -12					; size = 4
__Ptr_user$3 = -8					; size = 4
__User_size$ = -4					; size = 4
__Ptr$ = 8						; size = 4
__Count$ = 12						; size = 4
??$_Deallocate@U_Container_proxy@std@@@std@@YAXPAU_Container_proxy@0@I@Z PROC ; std::_Deallocate<std::_Container_proxy>, COMDAT

; 98   : 	{	// deallocate storage for _Count elements of type _Ty

	push	ebp
	mov	ebp, esp
	sub	esp, 16					; 00000010H
	mov	eax, -858993460				; ccccccccH
	mov	DWORD PTR [ebp-16], eax
	mov	DWORD PTR [ebp-12], eax
	mov	DWORD PTR [ebp-8], eax
	mov	DWORD PTR [ebp-4], eax

; 99   :  #if defined(_M_IX86) || defined(_M_X64)
; 100  : 	_SCL_SECURE_ALWAYS_VALIDATE(_Count <= (size_t)(-1) / sizeof (_Ty));

	cmp	DWORD PTR __Count$[ebp], 536870911	; 1fffffffH
	jbe	SHORT $LN2@Deallocate
	mov	eax, OFFSET ??_C@_0CG@FHBDFCGK@_Count?5?$DM?$DN?5?$CIsize_t?$CJ?$CI?91?$CJ?5?1?5sizeof?5@
	test	eax, eax
	je	SHORT $LN10@Deallocate
	xor	ecx, ecx
	jne	SHORT $LN11@Deallocate
$LN10@Deallocate:
	push	OFFSET ??_C@_1FK@EJGLHMGC@?$AA?$CC?$AA_?$AAC?$AAo?$AAu?$AAn?$AAt?$AA?5?$AA?$DM?$AA?$DN?$AA?5?$AA?$CI?$AAs?$AAi?$AAz?$AAe?$AA_?$AAt?$AA?$CJ?$AA?$CI?$AA?9?$AA1?$AA?$CJ?$AA?5?$AA?1?$AA?5?$AAs?$AAi?$AAz?$AAe?$AAo?$AAf@
	push	OFFSET ??_C@_17CNPHIMPH@?$AA?$CF?$AAl?$AAs?$AA?$AA@
	push	0
	push	100					; 00000064H
	push	OFFSET ??_C@_1GI@MOGLCDAO@?$AAD?$AA?3?$AA?2?$AAM?$AAi?$AAc?$AAr?$AAo?$AAs?$AAo?$AAf?$AAt?$AA?5?$AAV?$AAi?$AAs?$AAu?$AAa?$AAl?$AA?5?$AAS?$AAt?$AAu?$AAd?$AAi?$AAo?$AA?5?$AA1?$AA4?$AA?4?$AA0?$AA?2@
	push	2
	call	__CrtDbgReportW
	add	esp, 24					; 00000018H
	cmp	eax, 1
	jne	SHORT $LN11@Deallocate
	int	3
$LN11@Deallocate:
	push	0
	push	100					; 00000064H
	push	OFFSET ??_C@_1GI@MOGLCDAO@?$AAD?$AA?3?$AA?2?$AAM?$AAi?$AAc?$AAr?$AAo?$AAs?$AAo?$AAf?$AAt?$AA?5?$AAV?$AAi?$AAs?$AAu?$AAa?$AAl?$AA?5?$AAS?$AAt?$AAu?$AAd?$AAi?$AAo?$AA?5?$AA1?$AA4?$AA?4?$AA0?$AA?2@
	push	OFFSET ??_C@_1CC@LOFJFFDB@?$AAs?$AAt?$AAd?$AA?3?$AA?3?$AA_?$AAD?$AAe?$AAa?$AAl?$AAl?$AAo?$AAc?$AAa?$AAt?$AAe?$AA?$AA@
	push	OFFSET ??_C@_1CG@JNLFBNGN@?$AA?$CC?$AAi?$AAn?$AAv?$AAa?$AAl?$AAi?$AAd?$AA?5?$AAa?$AAr?$AAg?$AAu?$AAm?$AAe?$AAn?$AAt?$AA?$CC?$AA?$AA@
	call	__invalid_parameter
	add	esp, 20					; 00000014H
$LN2@Deallocate:

; 101  : 	const size_t _User_size = _Count * sizeof (_Ty);

	mov	eax, DWORD PTR __Count$[ebp]
	shl	eax, 3
	mov	DWORD PTR __User_size$[ebp], eax

; 102  : 	if (_BIG_ALLOCATION_THRESHOLD <= _User_size)

	cmp	DWORD PTR __User_size$[ebp], 4096	; 00001000H
	jb	$LN3@Deallocate

; 103  : 		{	// deallocate large block
; 104  : 		const uintptr_t _Ptr_user = reinterpret_cast<uintptr_t>(_Ptr);

	mov	ecx, DWORD PTR __Ptr$[ebp]
	mov	DWORD PTR __Ptr_user$3[ebp], ecx

; 105  : 		_SCL_SECURE_ALWAYS_VALIDATE(

	mov	edx, DWORD PTR __Ptr_user$3[ebp]
	and	edx, 31					; 0000001fH
	je	SHORT $LN4@Deallocate
	mov	eax, OFFSET ??_C@_0DD@GBGGGKGG@?$CI_Ptr_user?5?$CG?5?$CI_BIG_ALLOCATION_AL@
	test	eax, eax
	je	SHORT $LN12@Deallocate
	xor	ecx, ecx
	jne	SHORT $LN13@Deallocate
$LN12@Deallocate:
	push	OFFSET ??_C@_1HE@CDMBFOKC@?$AA?$CC?$AA?$CI?$AA_?$AAP?$AAt?$AAr?$AA_?$AAu?$AAs?$AAe?$AAr?$AA?5?$AA?$CG?$AA?5?$AA?$CI?$AA_?$AAB?$AAI?$AAG?$AA_?$AAA?$AAL?$AAL?$AAO?$AAC?$AAA?$AAT?$AAI?$AAO?$AAN?$AA_?$AAA@
	push	OFFSET ??_C@_17CNPHIMPH@?$AA?$CF?$AAl?$AAs?$AA?$AA@
	push	0
	push	106					; 0000006aH
	push	OFFSET ??_C@_1GI@MOGLCDAO@?$AAD?$AA?3?$AA?2?$AAM?$AAi?$AAc?$AAr?$AAo?$AAs?$AAo?$AAf?$AAt?$AA?5?$AAV?$AAi?$AAs?$AAu?$AAa?$AAl?$AA?5?$AAS?$AAt?$AAu?$AAd?$AAi?$AAo?$AA?5?$AA1?$AA4?$AA?4?$AA0?$AA?2@
	push	2
	call	__CrtDbgReportW
	add	esp, 24					; 00000018H
	cmp	eax, 1
	jne	SHORT $LN13@Deallocate
	int	3
$LN13@Deallocate:
	push	0
	push	106					; 0000006aH
	push	OFFSET ??_C@_1GI@MOGLCDAO@?$AAD?$AA?3?$AA?2?$AAM?$AAi?$AAc?$AAr?$AAo?$AAs?$AAo?$AAf?$AAt?$AA?5?$AAV?$AAi?$AAs?$AAu?$AAa?$AAl?$AA?5?$AAS?$AAt?$AAu?$AAd?$AAi?$AAo?$AA?5?$AA1?$AA4?$AA?4?$AA0?$AA?2@
	push	OFFSET ??_C@_1CC@LOFJFFDB@?$AAs?$AAt?$AAd?$AA?3?$AA?3?$AA_?$AAD?$AAe?$AAa?$AAl?$AAl?$AAo?$AAc?$AAa?$AAt?$AAe?$AA?$AA@
	push	OFFSET ??_C@_1CG@JNLFBNGN@?$AA?$CC?$AAi?$AAn?$AAv?$AAa?$AAl?$AAi?$AAd?$AA?5?$AAa?$AAr?$AAg?$AAu?$AAm?$AAe?$AAn?$AAt?$AA?$CC?$AA?$AA@
	call	__invalid_parameter
	add	esp, 20					; 00000014H
$LN4@Deallocate:

; 106  : 			(_Ptr_user & (_BIG_ALLOCATION_ALIGNMENT - 1)) == 0);
; 107  : 		const uintptr_t _Ptr_ptr = _Ptr_user - sizeof(void *);

	mov	eax, DWORD PTR __Ptr_user$3[ebp]
	sub	eax, 4
	mov	DWORD PTR __Ptr_ptr$2[ebp], eax

; 108  : 		const uintptr_t _Ptr_container =
; 109  : 			*reinterpret_cast<uintptr_t *>(_Ptr_ptr);

	mov	ecx, DWORD PTR __Ptr_ptr$2[ebp]
	mov	edx, DWORD PTR [ecx]
	mov	DWORD PTR __Ptr_container$1[ebp], edx

; 110  : 
; 111  :  #ifdef _DEBUG
; 112  : 		// If the following asserts, it likely means that we are performing
; 113  : 		// an aligned delete on memory coming from an unaligned allocation.
; 114  : 		_SCL_SECURE_ALWAYS_VALIDATE(

	mov	eax, 4
	imul	ecx, eax, -1
	mov	edx, DWORD PTR __Ptr_ptr$2[ebp]
	cmp	DWORD PTR [edx+ecx], -84215046		; fafafafaH
	je	SHORT $LN5@Deallocate
	mov	eax, OFFSET ??_C@_0EI@NOJHEJCJ@reinterpret_cast?$DMuintptr_t?5?$CK?$DO?$CI_P@
	test	eax, eax
	je	SHORT $LN14@Deallocate
	xor	ecx, ecx
	jne	SHORT $LN15@Deallocate
$LN14@Deallocate:
	push	OFFSET ??_C@_1JO@EKLKIEHP@?$AA?$CC?$AAr?$AAe?$AAi?$AAn?$AAt?$AAe?$AAr?$AAp?$AAr?$AAe?$AAt?$AA_?$AAc?$AAa?$AAs?$AAt?$AA?$DM?$AAu?$AAi?$AAn?$AAt?$AAp?$AAt?$AAr?$AA_?$AAt?$AA?5?$AA?$CK?$AA?$DO?$AA?$CI?$AA_@
	push	OFFSET ??_C@_17CNPHIMPH@?$AA?$CF?$AAl?$AAs?$AA?$AA@
	push	0
	push	116					; 00000074H
	push	OFFSET ??_C@_1GI@MOGLCDAO@?$AAD?$AA?3?$AA?2?$AAM?$AAi?$AAc?$AAr?$AAo?$AAs?$AAo?$AAf?$AAt?$AA?5?$AAV?$AAi?$AAs?$AAu?$AAa?$AAl?$AA?5?$AAS?$AAt?$AAu?$AAd?$AAi?$AAo?$AA?5?$AA1?$AA4?$AA?4?$AA0?$AA?2@
	push	2
	call	__CrtDbgReportW
	add	esp, 24					; 00000018H
	cmp	eax, 1
	jne	SHORT $LN15@Deallocate
	int	3
$LN15@Deallocate:
	push	0
	push	116					; 00000074H
	push	OFFSET ??_C@_1GI@MOGLCDAO@?$AAD?$AA?3?$AA?2?$AAM?$AAi?$AAc?$AAr?$AAo?$AAs?$AAo?$AAf?$AAt?$AA?5?$AAV?$AAi?$AAs?$AAu?$AAa?$AAl?$AA?5?$AAS?$AAt?$AAu?$AAd?$AAi?$AAo?$AA?5?$AA1?$AA4?$AA?4?$AA0?$AA?2@
	push	OFFSET ??_C@_1CC@LOFJFFDB@?$AAs?$AAt?$AAd?$AA?3?$AA?3?$AA_?$AAD?$AAe?$AAa?$AAl?$AAl?$AAo?$AAc?$AAa?$AAt?$AAe?$AA?$AA@
	push	OFFSET ??_C@_1CG@JNLFBNGN@?$AA?$CC?$AAi?$AAn?$AAv?$AAa?$AAl?$AAi?$AAd?$AA?5?$AAa?$AAr?$AAg?$AAu?$AAm?$AAe?$AAn?$AAt?$AA?$CC?$AA?$AA@
	call	__invalid_parameter
	add	esp, 20					; 00000014H
$LN5@Deallocate:

; 115  : 			reinterpret_cast<uintptr_t *>(_Ptr_ptr)[-1] ==
; 116  : 				_BIG_ALLOCATION_SENTINEL);
; 117  :  #endif /* _DEBUG */
; 118  : 
; 119  : 		// Extra paranoia on aligned allocation/deallocation
; 120  : 		_SCL_SECURE_ALWAYS_VALIDATE(_Ptr_container < _Ptr_user);

	mov	eax, DWORD PTR __Ptr_container$1[ebp]
	cmp	eax, DWORD PTR __Ptr_user$3[ebp]
	jb	SHORT $LN6@Deallocate
	mov	ecx, OFFSET ??_C@_0BL@OCKMEJON@_Ptr_container?5?$DM?5_Ptr_user?$AA@
	test	ecx, ecx
	je	SHORT $LN16@Deallocate
	xor	edx, edx
	jne	SHORT $LN17@Deallocate
$LN16@Deallocate:
	push	OFFSET ??_C@_1EE@PDHAHDDC@?$AA?$CC?$AA_?$AAP?$AAt?$AAr?$AA_?$AAc?$AAo?$AAn?$AAt?$AAa?$AAi?$AAn?$AAe?$AAr?$AA?5?$AA?$DM?$AA?5?$AA_?$AAP?$AAt?$AAr?$AA_?$AAu?$AAs?$AAe?$AAr?$AA?$CC?$AA?5?$AA?$CG?$AA?$CG?$AA?5@
	push	OFFSET ??_C@_17CNPHIMPH@?$AA?$CF?$AAl?$AAs?$AA?$AA@
	push	0
	push	120					; 00000078H
	push	OFFSET ??_C@_1GI@MOGLCDAO@?$AAD?$AA?3?$AA?2?$AAM?$AAi?$AAc?$AAr?$AAo?$AAs?$AAo?$AAf?$AAt?$AA?5?$AAV?$AAi?$AAs?$AAu?$AAa?$AAl?$AA?5?$AAS?$AAt?$AAu?$AAd?$AAi?$AAo?$AA?5?$AA1?$AA4?$AA?4?$AA0?$AA?2@
	push	2
	call	__CrtDbgReportW
	add	esp, 24					; 00000018H
	cmp	eax, 1
	jne	SHORT $LN17@Deallocate
	int	3
$LN17@Deallocate:
	push	0
	push	120					; 00000078H
	push	OFFSET ??_C@_1GI@MOGLCDAO@?$AAD?$AA?3?$AA?2?$AAM?$AAi?$AAc?$AAr?$AAo?$AAs?$AAo?$AAf?$AAt?$AA?5?$AAV?$AAi?$AAs?$AAu?$AAa?$AAl?$AA?5?$AAS?$AAt?$AAu?$AAd?$AAi?$AAo?$AA?5?$AA1?$AA4?$AA?4?$AA0?$AA?2@
	push	OFFSET ??_C@_1CC@LOFJFFDB@?$AAs?$AAt?$AAd?$AA?3?$AA?3?$AA_?$AAD?$AAe?$AAa?$AAl?$AAl?$AAo?$AAc?$AAa?$AAt?$AAe?$AA?$AA@
	push	OFFSET ??_C@_1CG@JNLFBNGN@?$AA?$CC?$AAi?$AAn?$AAv?$AAa?$AAl?$AAi?$AAd?$AA?5?$AAa?$AAr?$AAg?$AAu?$AAm?$AAe?$AAn?$AAt?$AA?$CC?$AA?$AA@
	call	__invalid_parameter
	add	esp, 20					; 00000014H
$LN6@Deallocate:

; 121  : 
; 122  :  #ifdef _DEBUG
; 123  : 		_SCL_SECURE_ALWAYS_VALIDATE(2 * sizeof(void *)

	mov	ecx, DWORD PTR __Ptr_user$3[ebp]
	sub	ecx, DWORD PTR __Ptr_container$1[ebp]
	cmp	ecx, 8
	jae	SHORT $LN7@Deallocate
	mov	edx, OFFSET ??_C@_0DB@GLFJLNCE@2?5?$CK?5sizeof?$CIvoid?5?$CK?$CJ?5?$DM?$DN?5_Ptr_user?5@
	test	edx, edx
	je	SHORT $LN18@Deallocate
	xor	eax, eax
	jne	SHORT $LN19@Deallocate
$LN18@Deallocate:
	push	OFFSET ??_C@_1HA@NAPGMHAO@?$AA?$CC?$AA2?$AA?5?$AA?$CK?$AA?5?$AAs?$AAi?$AAz?$AAe?$AAo?$AAf?$AA?$CI?$AAv?$AAo?$AAi?$AAd?$AA?5?$AA?$CK?$AA?$CJ?$AA?5?$AA?$DM?$AA?$DN?$AA?5?$AA_?$AAP?$AAt?$AAr?$AA_?$AAu?$AAs?$AAe?$AAr@
	push	OFFSET ??_C@_17CNPHIMPH@?$AA?$CF?$AAl?$AAs?$AA?$AA@
	push	0
	push	124					; 0000007cH
	push	OFFSET ??_C@_1GI@MOGLCDAO@?$AAD?$AA?3?$AA?2?$AAM?$AAi?$AAc?$AAr?$AAo?$AAs?$AAo?$AAf?$AAt?$AA?5?$AAV?$AAi?$AAs?$AAu?$AAa?$AAl?$AA?5?$AAS?$AAt?$AAu?$AAd?$AAi?$AAo?$AA?5?$AA1?$AA4?$AA?4?$AA0?$AA?2@
	push	2
	call	__CrtDbgReportW
	add	esp, 24					; 00000018H
	cmp	eax, 1
	jne	SHORT $LN19@Deallocate
	int	3
$LN19@Deallocate:
	push	0
	push	124					; 0000007cH
	push	OFFSET ??_C@_1GI@MOGLCDAO@?$AAD?$AA?3?$AA?2?$AAM?$AAi?$AAc?$AAr?$AAo?$AAs?$AAo?$AAf?$AAt?$AA?5?$AAV?$AAi?$AAs?$AAu?$AAa?$AAl?$AA?5?$AAS?$AAt?$AAu?$AAd?$AAi?$AAo?$AA?5?$AA1?$AA4?$AA?4?$AA0?$AA?2@
	push	OFFSET ??_C@_1CC@LOFJFFDB@?$AAs?$AAt?$AAd?$AA?3?$AA?3?$AA_?$AAD?$AAe?$AAa?$AAl?$AAl?$AAo?$AAc?$AAa?$AAt?$AAe?$AA?$AA@
	push	OFFSET ??_C@_1CG@JNLFBNGN@?$AA?$CC?$AAi?$AAn?$AAv?$AAa?$AAl?$AAi?$AAd?$AA?5?$AAa?$AAr?$AAg?$AAu?$AAm?$AAe?$AAn?$AAt?$AA?$CC?$AA?$AA@
	call	__invalid_parameter
	add	esp, 20					; 00000014H
$LN7@Deallocate:

; 124  : 			<= _Ptr_user - _Ptr_container);
; 125  : 
; 126  :  #else /* _DEBUG */
; 127  : 		_SCL_SECURE_ALWAYS_VALIDATE(sizeof(void *)
; 128  : 			<= _Ptr_user - _Ptr_container);
; 129  :  #endif /* _DEBUG */
; 130  : 
; 131  : 		_SCL_SECURE_ALWAYS_VALIDATE(_Ptr_user - _Ptr_container

	mov	edx, DWORD PTR __Ptr_user$3[ebp]
	sub	edx, DWORD PTR __Ptr_container$1[ebp]
	cmp	edx, 39					; 00000027H
	jbe	SHORT $LN8@Deallocate
	mov	eax, OFFSET ??_C@_0CN@BLHJCAL@_Ptr_user?5?9?5_Ptr_container?5?$DM?$DN?5_N@
	test	eax, eax
	je	SHORT $LN20@Deallocate
	xor	ecx, ecx
	jne	SHORT $LN21@Deallocate
$LN20@Deallocate:
	push	OFFSET ??_C@_1GI@DHJGPFNI@?$AA?$CC?$AA_?$AAP?$AAt?$AAr?$AA_?$AAu?$AAs?$AAe?$AAr?$AA?5?$AA?9?$AA?5?$AA_?$AAP?$AAt?$AAr?$AA_?$AAc?$AAo?$AAn?$AAt?$AAa?$AAi?$AAn?$AAe?$AAr?$AA?5?$AA?$DM?$AA?$DN?$AA?5?$AA_@
	push	OFFSET ??_C@_17CNPHIMPH@?$AA?$CF?$AAl?$AAs?$AA?$AA@
	push	0
	push	132					; 00000084H
	push	OFFSET ??_C@_1GI@MOGLCDAO@?$AAD?$AA?3?$AA?2?$AAM?$AAi?$AAc?$AAr?$AAo?$AAs?$AAo?$AAf?$AAt?$AA?5?$AAV?$AAi?$AAs?$AAu?$AAa?$AAl?$AA?5?$AAS?$AAt?$AAu?$AAd?$AAi?$AAo?$AA?5?$AA1?$AA4?$AA?4?$AA0?$AA?2@
	push	2
	call	__CrtDbgReportW
	add	esp, 24					; 00000018H
	cmp	eax, 1
	jne	SHORT $LN21@Deallocate
	int	3
$LN21@Deallocate:
	push	0
	push	132					; 00000084H
	push	OFFSET ??_C@_1GI@MOGLCDAO@?$AAD?$AA?3?$AA?2?$AAM?$AAi?$AAc?$AAr?$AAo?$AAs?$AAo?$AAf?$AAt?$AA?5?$AAV?$AAi?$AAs?$AAu?$AAa?$AAl?$AA?5?$AAS?$AAt?$AAu?$AAd?$AAi?$AAo?$AA?5?$AA1?$AA4?$AA?4?$AA0?$AA?2@
	push	OFFSET ??_C@_1CC@LOFJFFDB@?$AAs?$AAt?$AAd?$AA?3?$AA?3?$AA_?$AAD?$AAe?$AAa?$AAl?$AAl?$AAo?$AAc?$AAa?$AAt?$AAe?$AA?$AA@
	push	OFFSET ??_C@_1CG@JNLFBNGN@?$AA?$CC?$AAi?$AAn?$AAv?$AAa?$AAl?$AAi?$AAd?$AA?5?$AAa?$AAr?$AAg?$AAu?$AAm?$AAe?$AAn?$AAt?$AA?$CC?$AA?$AA@
	call	__invalid_parameter
	add	esp, 20					; 00000014H
$LN8@Deallocate:

; 132  : 			<= _NON_USER_SIZE);
; 133  : 
; 134  : 		_Ptr = reinterpret_cast<_Ty *>(_Ptr_container);

	mov	eax, DWORD PTR __Ptr_container$1[ebp]
	mov	DWORD PTR __Ptr$[ebp], eax
$LN3@Deallocate:

; 135  : 		}
; 136  :  #endif /* defined(_M_IX86) || defined(_M_X64) */
; 137  : 
; 138  : 	::operator delete(_Ptr);

	mov	ecx, DWORD PTR __Ptr$[ebp]
	push	ecx
	call	??3@YAXPAX@Z				; operator delete
	add	esp, 4

; 139  : 	}

	add	esp, 16					; 00000010H
	cmp	ebp, esp
	call	__RTC_CheckEsp
	mov	esp, ebp
	pop	ebp
	ret	0
??$_Deallocate@U_Container_proxy@std@@@std@@YAXPAU_Container_proxy@0@I@Z ENDP ; std::_Deallocate<std::_Container_proxy>
_TEXT	ENDS
; Function compile flags: /Odtp /RTCsu
; File d:\microsoft visual studio 14.0\vc\include\xmemory0
;	COMDAT ??$_Allocate@U_Container_proxy@std@@@std@@YAPAU_Container_proxy@0@IPAU10@_N@Z
_TEXT	SEGMENT
__Ptr_container$1 = -16					; size = 4
__Block_size$2 = -12					; size = 4
__User_size$ = -8					; size = 4
__Ptr$ = -4						; size = 4
__Count$ = 8						; size = 4
___formal$ = 12						; size = 4
__Try_aligned_allocation$ = 16				; size = 1
??$_Allocate@U_Container_proxy@std@@@std@@YAPAU_Container_proxy@0@IPAU10@_N@Z PROC ; std::_Allocate<std::_Container_proxy>, COMDAT

; 54   : 	{	// allocate storage for _Count elements of type _Ty

	push	ebp
	mov	ebp, esp
	sub	esp, 16					; 00000010H
	mov	eax, -858993460				; ccccccccH
	mov	DWORD PTR [ebp-16], eax
	mov	DWORD PTR [ebp-12], eax
	mov	DWORD PTR [ebp-8], eax
	mov	DWORD PTR [ebp-4], eax

; 55   : 	void *_Ptr = 0;

	mov	DWORD PTR __Ptr$[ebp], 0

; 56   : 
; 57   : 	if (_Count == 0)

	cmp	DWORD PTR __Count$[ebp], 0
	jne	SHORT $LN2@Allocate

; 58   : 		return (static_cast<_Ty *>(_Ptr));

	mov	eax, DWORD PTR __Ptr$[ebp]
	jmp	$LN9@Allocate
$LN2@Allocate:

; 59   : 
; 60   : 	// check overflow of multiply
; 61   : 	if ((size_t)(-1) / sizeof (_Ty) < _Count)

	cmp	DWORD PTR __Count$[ebp], 536870911	; 1fffffffH
	jbe	SHORT $LN3@Allocate

; 62   : 		_Xbad_alloc();	// report no memory

	call	?_Xbad_alloc@std@@YAXXZ			; std::_Xbad_alloc
$LN3@Allocate:

; 63   : 	const size_t _User_size = _Count * sizeof (_Ty);

	mov	eax, DWORD PTR __Count$[ebp]
	shl	eax, 3
	mov	DWORD PTR __User_size$[ebp], eax

; 64   : 
; 65   :  #if defined(_M_IX86) || defined(_M_X64)
; 66   : 	if (_Try_aligned_allocation
; 67   : 		&& _BIG_ALLOCATION_THRESHOLD <= _User_size)

	movzx	ecx, BYTE PTR __Try_aligned_allocation$[ebp]
	test	ecx, ecx
	je	$LN4@Allocate
	cmp	DWORD PTR __User_size$[ebp], 4096	; 00001000H
	jb	$LN4@Allocate

; 68   : 		{	// allocate large block
; 69   : 		static_assert(sizeof (void *) < _BIG_ALLOCATION_ALIGNMENT,
; 70   : 			"Big allocations should at least match vector register size");
; 71   : 		const size_t _Block_size = _NON_USER_SIZE + _User_size;

	mov	edx, DWORD PTR __User_size$[ebp]
	add	edx, 39					; 00000027H
	mov	DWORD PTR __Block_size$2[ebp], edx

; 72   : 		if (_Block_size <= _User_size)

	mov	eax, DWORD PTR __Block_size$2[ebp]
	cmp	eax, DWORD PTR __User_size$[ebp]
	ja	SHORT $LN6@Allocate

; 73   : 			_Xbad_alloc();	// report no memory

	call	?_Xbad_alloc@std@@YAXXZ			; std::_Xbad_alloc
$LN6@Allocate:

; 74   : 		const uintptr_t _Ptr_container =
; 75   : 			reinterpret_cast<uintptr_t>(::operator new(_Block_size));

	mov	ecx, DWORD PTR __Block_size$2[ebp]
	push	ecx
	call	??2@YAPAXI@Z				; operator new
	add	esp, 4
	mov	DWORD PTR __Ptr_container$1[ebp], eax

; 76   : 		_SCL_SECURE_ALWAYS_VALIDATE(_Ptr_container != 0);

	cmp	DWORD PTR __Ptr_container$1[ebp], 0
	jne	SHORT $LN7@Allocate
	mov	edx, OFFSET ??_C@_0BE@LMNLACIC@_Ptr_container?5?$CB?$DN?50?$AA@
	test	edx, edx
	je	SHORT $LN10@Allocate
	xor	eax, eax
	jne	SHORT $LN11@Allocate
$LN10@Allocate:
	push	OFFSET ??_C@_1DG@HGDKEBPG@?$AA?$CC?$AA_?$AAP?$AAt?$AAr?$AA_?$AAc?$AAo?$AAn?$AAt?$AAa?$AAi?$AAn?$AAe?$AAr?$AA?5?$AA?$CB?$AA?$DN?$AA?5?$AA0?$AA?$CC?$AA?5?$AA?$CG?$AA?$CG?$AA?5?$AA0?$AA?$AA@
	push	OFFSET ??_C@_17CNPHIMPH@?$AA?$CF?$AAl?$AAs?$AA?$AA@
	push	0
	push	76					; 0000004cH
	push	OFFSET ??_C@_1GI@MOGLCDAO@?$AAD?$AA?3?$AA?2?$AAM?$AAi?$AAc?$AAr?$AAo?$AAs?$AAo?$AAf?$AAt?$AA?5?$AAV?$AAi?$AAs?$AAu?$AAa?$AAl?$AA?5?$AAS?$AAt?$AAu?$AAd?$AAi?$AAo?$AA?5?$AA1?$AA4?$AA?4?$AA0?$AA?2@
	push	2
	call	__CrtDbgReportW
	add	esp, 24					; 00000018H
	cmp	eax, 1
	jne	SHORT $LN11@Allocate
	int	3
$LN11@Allocate:
	push	0
	push	76					; 0000004cH
	push	OFFSET ??_C@_1GI@MOGLCDAO@?$AAD?$AA?3?$AA?2?$AAM?$AAi?$AAc?$AAr?$AAo?$AAs?$AAo?$AAf?$AAt?$AA?5?$AAV?$AAi?$AAs?$AAu?$AAa?$AAl?$AA?5?$AAS?$AAt?$AAu?$AAd?$AAi?$AAo?$AA?5?$AA1?$AA4?$AA?4?$AA0?$AA?2@
	push	OFFSET ??_C@_1BO@NKFMJPA@?$AAs?$AAt?$AAd?$AA?3?$AA?3?$AA_?$AAA?$AAl?$AAl?$AAo?$AAc?$AAa?$AAt?$AAe?$AA?$AA@
	push	OFFSET ??_C@_1CG@JNLFBNGN@?$AA?$CC?$AAi?$AAn?$AAv?$AAa?$AAl?$AAi?$AAd?$AA?5?$AAa?$AAr?$AAg?$AAu?$AAm?$AAe?$AAn?$AAt?$AA?$CC?$AA?$AA@
	call	__invalid_parameter
	add	esp, 20					; 00000014H
$LN7@Allocate:

; 77   : 		_Ptr = reinterpret_cast<void *>((_Ptr_container + _NON_USER_SIZE)

	mov	edx, DWORD PTR __Ptr_container$1[ebp]
	add	edx, 39					; 00000027H
	and	edx, -32				; ffffffe0H
	mov	DWORD PTR __Ptr$[ebp], edx

; 78   : 			& ~(_BIG_ALLOCATION_ALIGNMENT - 1));
; 79   : 		static_cast<uintptr_t *>(_Ptr)[-1] = _Ptr_container;

	mov	eax, 4
	imul	ecx, eax, -1
	mov	edx, DWORD PTR __Ptr$[ebp]
	mov	eax, DWORD PTR __Ptr_container$1[ebp]
	mov	DWORD PTR [edx+ecx], eax

; 80   : 
; 81   :  #ifdef _DEBUG
; 82   : 		static_cast<uintptr_t *>(_Ptr)[-2] = _BIG_ALLOCATION_SENTINEL;

	mov	ecx, 4
	imul	edx, ecx, -2
	mov	eax, DWORD PTR __Ptr$[ebp]
	mov	DWORD PTR [eax+edx], -84215046		; fafafafaH

; 83   :  #endif /* _DEBUG */
; 84   : 		}
; 85   : 	else

	jmp	SHORT $LN5@Allocate
$LN4@Allocate:

; 86   :  #endif /* defined(_M_IX86) || defined(_M_X64) */
; 87   : 
; 88   : 		{	// allocate normal block
; 89   : 		_Ptr = ::operator new(_User_size);

	mov	ecx, DWORD PTR __User_size$[ebp]
	push	ecx
	call	??2@YAPAXI@Z				; operator new
	add	esp, 4
	mov	DWORD PTR __Ptr$[ebp], eax

; 90   : 		_SCL_SECURE_ALWAYS_VALIDATE(_Ptr != 0);

	cmp	DWORD PTR __Ptr$[ebp], 0
	jne	SHORT $LN5@Allocate
	mov	edx, OFFSET ??_C@_09GLJCAGLP@_Ptr?5?$CB?$DN?50?$AA@
	test	edx, edx
	je	SHORT $LN12@Allocate
	xor	eax, eax
	jne	SHORT $LN13@Allocate
$LN12@Allocate:
	push	OFFSET ??_C@_1CC@GKJLLHIM@?$AA?$CC?$AA_?$AAP?$AAt?$AAr?$AA?5?$AA?$CB?$AA?$DN?$AA?5?$AA0?$AA?$CC?$AA?5?$AA?$CG?$AA?$CG?$AA?5?$AA0?$AA?$AA@
	push	OFFSET ??_C@_17CNPHIMPH@?$AA?$CF?$AAl?$AAs?$AA?$AA@
	push	0
	push	90					; 0000005aH
	push	OFFSET ??_C@_1GI@MOGLCDAO@?$AAD?$AA?3?$AA?2?$AAM?$AAi?$AAc?$AAr?$AAo?$AAs?$AAo?$AAf?$AAt?$AA?5?$AAV?$AAi?$AAs?$AAu?$AAa?$AAl?$AA?5?$AAS?$AAt?$AAu?$AAd?$AAi?$AAo?$AA?5?$AA1?$AA4?$AA?4?$AA0?$AA?2@
	push	2
	call	__CrtDbgReportW
	add	esp, 24					; 00000018H
	cmp	eax, 1
	jne	SHORT $LN13@Allocate
	int	3
$LN13@Allocate:
	push	0
	push	90					; 0000005aH
	push	OFFSET ??_C@_1GI@MOGLCDAO@?$AAD?$AA?3?$AA?2?$AAM?$AAi?$AAc?$AAr?$AAo?$AAs?$AAo?$AAf?$AAt?$AA?5?$AAV?$AAi?$AAs?$AAu?$AAa?$AAl?$AA?5?$AAS?$AAt?$AAu?$AAd?$AAi?$AAo?$AA?5?$AA1?$AA4?$AA?4?$AA0?$AA?2@
	push	OFFSET ??_C@_1BO@NKFMJPA@?$AAs?$AAt?$AAd?$AA?3?$AA?3?$AA_?$AAA?$AAl?$AAl?$AAo?$AAc?$AAa?$AAt?$AAe?$AA?$AA@
	push	OFFSET ??_C@_1CG@JNLFBNGN@?$AA?$CC?$AAi?$AAn?$AAv?$AAa?$AAl?$AAi?$AAd?$AA?5?$AAa?$AAr?$AAg?$AAu?$AAm?$AAe?$AAn?$AAt?$AA?$CC?$AA?$AA@
	call	__invalid_parameter
	add	esp, 20					; 00000014H
$LN5@Allocate:

; 91   : 		}
; 92   : 	return (static_cast<_Ty *>(_Ptr));

	mov	eax, DWORD PTR __Ptr$[ebp]
$LN9@Allocate:

; 93   : 	}

	add	esp, 16					; 00000010H
	cmp	ebp, esp
	call	__RTC_CheckEsp
	mov	esp, ebp
	pop	ebp
	ret	0
??$_Allocate@U_Container_proxy@std@@@std@@YAPAU_Container_proxy@0@IPAU10@_N@Z ENDP ; std::_Allocate<std::_Container_proxy>
_TEXT	ENDS
; Function compile flags: /Odtp /RTCsu
; File d:\microsoft visual studio 14.0\vc\include\xmemory0
;	COMDAT ??$_Deallocate@D@std@@YAXPADI@Z
_TEXT	SEGMENT
__Ptr_container$1 = -16					; size = 4
__Ptr_ptr$2 = -12					; size = 4
__Ptr_user$3 = -8					; size = 4
__User_size$ = -4					; size = 4
__Ptr$ = 8						; size = 4
__Count$ = 12						; size = 4
??$_Deallocate@D@std@@YAXPADI@Z PROC			; std::_Deallocate<char>, COMDAT

; 98   : 	{	// deallocate storage for _Count elements of type _Ty

	push	ebp
	mov	ebp, esp
	sub	esp, 16					; 00000010H
	mov	eax, -858993460				; ccccccccH
	mov	DWORD PTR [ebp-16], eax
	mov	DWORD PTR [ebp-12], eax
	mov	DWORD PTR [ebp-8], eax
	mov	DWORD PTR [ebp-4], eax

; 99   :  #if defined(_M_IX86) || defined(_M_X64)
; 100  : 	_SCL_SECURE_ALWAYS_VALIDATE(_Count <= (size_t)(-1) / sizeof (_Ty));

	cmp	DWORD PTR __Count$[ebp], -1
	jbe	SHORT $LN2@Deallocate
	mov	eax, OFFSET ??_C@_0CG@FHBDFCGK@_Count?5?$DM?$DN?5?$CIsize_t?$CJ?$CI?91?$CJ?5?1?5sizeof?5@
	test	eax, eax
	je	SHORT $LN10@Deallocate
	xor	ecx, ecx
	jne	SHORT $LN11@Deallocate
$LN10@Deallocate:
	push	OFFSET ??_C@_1FK@EJGLHMGC@?$AA?$CC?$AA_?$AAC?$AAo?$AAu?$AAn?$AAt?$AA?5?$AA?$DM?$AA?$DN?$AA?5?$AA?$CI?$AAs?$AAi?$AAz?$AAe?$AA_?$AAt?$AA?$CJ?$AA?$CI?$AA?9?$AA1?$AA?$CJ?$AA?5?$AA?1?$AA?5?$AAs?$AAi?$AAz?$AAe?$AAo?$AAf@
	push	OFFSET ??_C@_17CNPHIMPH@?$AA?$CF?$AAl?$AAs?$AA?$AA@
	push	0
	push	100					; 00000064H
	push	OFFSET ??_C@_1GI@MOGLCDAO@?$AAD?$AA?3?$AA?2?$AAM?$AAi?$AAc?$AAr?$AAo?$AAs?$AAo?$AAf?$AAt?$AA?5?$AAV?$AAi?$AAs?$AAu?$AAa?$AAl?$AA?5?$AAS?$AAt?$AAu?$AAd?$AAi?$AAo?$AA?5?$AA1?$AA4?$AA?4?$AA0?$AA?2@
	push	2
	call	__CrtDbgReportW
	add	esp, 24					; 00000018H
	cmp	eax, 1
	jne	SHORT $LN11@Deallocate
	int	3
$LN11@Deallocate:
	push	0
	push	100					; 00000064H
	push	OFFSET ??_C@_1GI@MOGLCDAO@?$AAD?$AA?3?$AA?2?$AAM?$AAi?$AAc?$AAr?$AAo?$AAs?$AAo?$AAf?$AAt?$AA?5?$AAV?$AAi?$AAs?$AAu?$AAa?$AAl?$AA?5?$AAS?$AAt?$AAu?$AAd?$AAi?$AAo?$AA?5?$AA1?$AA4?$AA?4?$AA0?$AA?2@
	push	OFFSET ??_C@_1CC@LOFJFFDB@?$AAs?$AAt?$AAd?$AA?3?$AA?3?$AA_?$AAD?$AAe?$AAa?$AAl?$AAl?$AAo?$AAc?$AAa?$AAt?$AAe?$AA?$AA@
	push	OFFSET ??_C@_1CG@JNLFBNGN@?$AA?$CC?$AAi?$AAn?$AAv?$AAa?$AAl?$AAi?$AAd?$AA?5?$AAa?$AAr?$AAg?$AAu?$AAm?$AAe?$AAn?$AAt?$AA?$CC?$AA?$AA@
	call	__invalid_parameter
	add	esp, 20					; 00000014H
$LN2@Deallocate:

; 101  : 	const size_t _User_size = _Count * sizeof (_Ty);

	mov	eax, DWORD PTR __Count$[ebp]
	mov	DWORD PTR __User_size$[ebp], eax

; 102  : 	if (_BIG_ALLOCATION_THRESHOLD <= _User_size)

	cmp	DWORD PTR __User_size$[ebp], 4096	; 00001000H
	jb	$LN3@Deallocate

; 103  : 		{	// deallocate large block
; 104  : 		const uintptr_t _Ptr_user = reinterpret_cast<uintptr_t>(_Ptr);

	mov	ecx, DWORD PTR __Ptr$[ebp]
	mov	DWORD PTR __Ptr_user$3[ebp], ecx

; 105  : 		_SCL_SECURE_ALWAYS_VALIDATE(

	mov	edx, DWORD PTR __Ptr_user$3[ebp]
	and	edx, 31					; 0000001fH
	je	SHORT $LN4@Deallocate
	mov	eax, OFFSET ??_C@_0DD@GBGGGKGG@?$CI_Ptr_user?5?$CG?5?$CI_BIG_ALLOCATION_AL@
	test	eax, eax
	je	SHORT $LN12@Deallocate
	xor	ecx, ecx
	jne	SHORT $LN13@Deallocate
$LN12@Deallocate:
	push	OFFSET ??_C@_1HE@CDMBFOKC@?$AA?$CC?$AA?$CI?$AA_?$AAP?$AAt?$AAr?$AA_?$AAu?$AAs?$AAe?$AAr?$AA?5?$AA?$CG?$AA?5?$AA?$CI?$AA_?$AAB?$AAI?$AAG?$AA_?$AAA?$AAL?$AAL?$AAO?$AAC?$AAA?$AAT?$AAI?$AAO?$AAN?$AA_?$AAA@
	push	OFFSET ??_C@_17CNPHIMPH@?$AA?$CF?$AAl?$AAs?$AA?$AA@
	push	0
	push	106					; 0000006aH
	push	OFFSET ??_C@_1GI@MOGLCDAO@?$AAD?$AA?3?$AA?2?$AAM?$AAi?$AAc?$AAr?$AAo?$AAs?$AAo?$AAf?$AAt?$AA?5?$AAV?$AAi?$AAs?$AAu?$AAa?$AAl?$AA?5?$AAS?$AAt?$AAu?$AAd?$AAi?$AAo?$AA?5?$AA1?$AA4?$AA?4?$AA0?$AA?2@
	push	2
	call	__CrtDbgReportW
	add	esp, 24					; 00000018H
	cmp	eax, 1
	jne	SHORT $LN13@Deallocate
	int	3
$LN13@Deallocate:
	push	0
	push	106					; 0000006aH
	push	OFFSET ??_C@_1GI@MOGLCDAO@?$AAD?$AA?3?$AA?2?$AAM?$AAi?$AAc?$AAr?$AAo?$AAs?$AAo?$AAf?$AAt?$AA?5?$AAV?$AAi?$AAs?$AAu?$AAa?$AAl?$AA?5?$AAS?$AAt?$AAu?$AAd?$AAi?$AAo?$AA?5?$AA1?$AA4?$AA?4?$AA0?$AA?2@
	push	OFFSET ??_C@_1CC@LOFJFFDB@?$AAs?$AAt?$AAd?$AA?3?$AA?3?$AA_?$AAD?$AAe?$AAa?$AAl?$AAl?$AAo?$AAc?$AAa?$AAt?$AAe?$AA?$AA@
	push	OFFSET ??_C@_1CG@JNLFBNGN@?$AA?$CC?$AAi?$AAn?$AAv?$AAa?$AAl?$AAi?$AAd?$AA?5?$AAa?$AAr?$AAg?$AAu?$AAm?$AAe?$AAn?$AAt?$AA?$CC?$AA?$AA@
	call	__invalid_parameter
	add	esp, 20					; 00000014H
$LN4@Deallocate:

; 106  : 			(_Ptr_user & (_BIG_ALLOCATION_ALIGNMENT - 1)) == 0);
; 107  : 		const uintptr_t _Ptr_ptr = _Ptr_user - sizeof(void *);

	mov	eax, DWORD PTR __Ptr_user$3[ebp]
	sub	eax, 4
	mov	DWORD PTR __Ptr_ptr$2[ebp], eax

; 108  : 		const uintptr_t _Ptr_container =
; 109  : 			*reinterpret_cast<uintptr_t *>(_Ptr_ptr);

	mov	ecx, DWORD PTR __Ptr_ptr$2[ebp]
	mov	edx, DWORD PTR [ecx]
	mov	DWORD PTR __Ptr_container$1[ebp], edx

; 110  : 
; 111  :  #ifdef _DEBUG
; 112  : 		// If the following asserts, it likely means that we are performing
; 113  : 		// an aligned delete on memory coming from an unaligned allocation.
; 114  : 		_SCL_SECURE_ALWAYS_VALIDATE(

	mov	eax, 4
	imul	ecx, eax, -1
	mov	edx, DWORD PTR __Ptr_ptr$2[ebp]
	cmp	DWORD PTR [edx+ecx], -84215046		; fafafafaH
	je	SHORT $LN5@Deallocate
	mov	eax, OFFSET ??_C@_0EI@NOJHEJCJ@reinterpret_cast?$DMuintptr_t?5?$CK?$DO?$CI_P@
	test	eax, eax
	je	SHORT $LN14@Deallocate
	xor	ecx, ecx
	jne	SHORT $LN15@Deallocate
$LN14@Deallocate:
	push	OFFSET ??_C@_1JO@EKLKIEHP@?$AA?$CC?$AAr?$AAe?$AAi?$AAn?$AAt?$AAe?$AAr?$AAp?$AAr?$AAe?$AAt?$AA_?$AAc?$AAa?$AAs?$AAt?$AA?$DM?$AAu?$AAi?$AAn?$AAt?$AAp?$AAt?$AAr?$AA_?$AAt?$AA?5?$AA?$CK?$AA?$DO?$AA?$CI?$AA_@
	push	OFFSET ??_C@_17CNPHIMPH@?$AA?$CF?$AAl?$AAs?$AA?$AA@
	push	0
	push	116					; 00000074H
	push	OFFSET ??_C@_1GI@MOGLCDAO@?$AAD?$AA?3?$AA?2?$AAM?$AAi?$AAc?$AAr?$AAo?$AAs?$AAo?$AAf?$AAt?$AA?5?$AAV?$AAi?$AAs?$AAu?$AAa?$AAl?$AA?5?$AAS?$AAt?$AAu?$AAd?$AAi?$AAo?$AA?5?$AA1?$AA4?$AA?4?$AA0?$AA?2@
	push	2
	call	__CrtDbgReportW
	add	esp, 24					; 00000018H
	cmp	eax, 1
	jne	SHORT $LN15@Deallocate
	int	3
$LN15@Deallocate:
	push	0
	push	116					; 00000074H
	push	OFFSET ??_C@_1GI@MOGLCDAO@?$AAD?$AA?3?$AA?2?$AAM?$AAi?$AAc?$AAr?$AAo?$AAs?$AAo?$AAf?$AAt?$AA?5?$AAV?$AAi?$AAs?$AAu?$AAa?$AAl?$AA?5?$AAS?$AAt?$AAu?$AAd?$AAi?$AAo?$AA?5?$AA1?$AA4?$AA?4?$AA0?$AA?2@
	push	OFFSET ??_C@_1CC@LOFJFFDB@?$AAs?$AAt?$AAd?$AA?3?$AA?3?$AA_?$AAD?$AAe?$AAa?$AAl?$AAl?$AAo?$AAc?$AAa?$AAt?$AAe?$AA?$AA@
	push	OFFSET ??_C@_1CG@JNLFBNGN@?$AA?$CC?$AAi?$AAn?$AAv?$AAa?$AAl?$AAi?$AAd?$AA?5?$AAa?$AAr?$AAg?$AAu?$AAm?$AAe?$AAn?$AAt?$AA?$CC?$AA?$AA@
	call	__invalid_parameter
	add	esp, 20					; 00000014H
$LN5@Deallocate:

; 115  : 			reinterpret_cast<uintptr_t *>(_Ptr_ptr)[-1] ==
; 116  : 				_BIG_ALLOCATION_SENTINEL);
; 117  :  #endif /* _DEBUG */
; 118  : 
; 119  : 		// Extra paranoia on aligned allocation/deallocation
; 120  : 		_SCL_SECURE_ALWAYS_VALIDATE(_Ptr_container < _Ptr_user);

	mov	eax, DWORD PTR __Ptr_container$1[ebp]
	cmp	eax, DWORD PTR __Ptr_user$3[ebp]
	jb	SHORT $LN6@Deallocate
	mov	ecx, OFFSET ??_C@_0BL@OCKMEJON@_Ptr_container?5?$DM?5_Ptr_user?$AA@
	test	ecx, ecx
	je	SHORT $LN16@Deallocate
	xor	edx, edx
	jne	SHORT $LN17@Deallocate
$LN16@Deallocate:
	push	OFFSET ??_C@_1EE@PDHAHDDC@?$AA?$CC?$AA_?$AAP?$AAt?$AAr?$AA_?$AAc?$AAo?$AAn?$AAt?$AAa?$AAi?$AAn?$AAe?$AAr?$AA?5?$AA?$DM?$AA?5?$AA_?$AAP?$AAt?$AAr?$AA_?$AAu?$AAs?$AAe?$AAr?$AA?$CC?$AA?5?$AA?$CG?$AA?$CG?$AA?5@
	push	OFFSET ??_C@_17CNPHIMPH@?$AA?$CF?$AAl?$AAs?$AA?$AA@
	push	0
	push	120					; 00000078H
	push	OFFSET ??_C@_1GI@MOGLCDAO@?$AAD?$AA?3?$AA?2?$AAM?$AAi?$AAc?$AAr?$AAo?$AAs?$AAo?$AAf?$AAt?$AA?5?$AAV?$AAi?$AAs?$AAu?$AAa?$AAl?$AA?5?$AAS?$AAt?$AAu?$AAd?$AAi?$AAo?$AA?5?$AA1?$AA4?$AA?4?$AA0?$AA?2@
	push	2
	call	__CrtDbgReportW
	add	esp, 24					; 00000018H
	cmp	eax, 1
	jne	SHORT $LN17@Deallocate
	int	3
$LN17@Deallocate:
	push	0
	push	120					; 00000078H
	push	OFFSET ??_C@_1GI@MOGLCDAO@?$AAD?$AA?3?$AA?2?$AAM?$AAi?$AAc?$AAr?$AAo?$AAs?$AAo?$AAf?$AAt?$AA?5?$AAV?$AAi?$AAs?$AAu?$AAa?$AAl?$AA?5?$AAS?$AAt?$AAu?$AAd?$AAi?$AAo?$AA?5?$AA1?$AA4?$AA?4?$AA0?$AA?2@
	push	OFFSET ??_C@_1CC@LOFJFFDB@?$AAs?$AAt?$AAd?$AA?3?$AA?3?$AA_?$AAD?$AAe?$AAa?$AAl?$AAl?$AAo?$AAc?$AAa?$AAt?$AAe?$AA?$AA@
	push	OFFSET ??_C@_1CG@JNLFBNGN@?$AA?$CC?$AAi?$AAn?$AAv?$AAa?$AAl?$AAi?$AAd?$AA?5?$AAa?$AAr?$AAg?$AAu?$AAm?$AAe?$AAn?$AAt?$AA?$CC?$AA?$AA@
	call	__invalid_parameter
	add	esp, 20					; 00000014H
$LN6@Deallocate:

; 121  : 
; 122  :  #ifdef _DEBUG
; 123  : 		_SCL_SECURE_ALWAYS_VALIDATE(2 * sizeof(void *)

	mov	ecx, DWORD PTR __Ptr_user$3[ebp]
	sub	ecx, DWORD PTR __Ptr_container$1[ebp]
	cmp	ecx, 8
	jae	SHORT $LN7@Deallocate
	mov	edx, OFFSET ??_C@_0DB@GLFJLNCE@2?5?$CK?5sizeof?$CIvoid?5?$CK?$CJ?5?$DM?$DN?5_Ptr_user?5@
	test	edx, edx
	je	SHORT $LN18@Deallocate
	xor	eax, eax
	jne	SHORT $LN19@Deallocate
$LN18@Deallocate:
	push	OFFSET ??_C@_1HA@NAPGMHAO@?$AA?$CC?$AA2?$AA?5?$AA?$CK?$AA?5?$AAs?$AAi?$AAz?$AAe?$AAo?$AAf?$AA?$CI?$AAv?$AAo?$AAi?$AAd?$AA?5?$AA?$CK?$AA?$CJ?$AA?5?$AA?$DM?$AA?$DN?$AA?5?$AA_?$AAP?$AAt?$AAr?$AA_?$AAu?$AAs?$AAe?$AAr@
	push	OFFSET ??_C@_17CNPHIMPH@?$AA?$CF?$AAl?$AAs?$AA?$AA@
	push	0
	push	124					; 0000007cH
	push	OFFSET ??_C@_1GI@MOGLCDAO@?$AAD?$AA?3?$AA?2?$AAM?$AAi?$AAc?$AAr?$AAo?$AAs?$AAo?$AAf?$AAt?$AA?5?$AAV?$AAi?$AAs?$AAu?$AAa?$AAl?$AA?5?$AAS?$AAt?$AAu?$AAd?$AAi?$AAo?$AA?5?$AA1?$AA4?$AA?4?$AA0?$AA?2@
	push	2
	call	__CrtDbgReportW
	add	esp, 24					; 00000018H
	cmp	eax, 1
	jne	SHORT $LN19@Deallocate
	int	3
$LN19@Deallocate:
	push	0
	push	124					; 0000007cH
	push	OFFSET ??_C@_1GI@MOGLCDAO@?$AAD?$AA?3?$AA?2?$AAM?$AAi?$AAc?$AAr?$AAo?$AAs?$AAo?$AAf?$AAt?$AA?5?$AAV?$AAi?$AAs?$AAu?$AAa?$AAl?$AA?5?$AAS?$AAt?$AAu?$AAd?$AAi?$AAo?$AA?5?$AA1?$AA4?$AA?4?$AA0?$AA?2@
	push	OFFSET ??_C@_1CC@LOFJFFDB@?$AAs?$AAt?$AAd?$AA?3?$AA?3?$AA_?$AAD?$AAe?$AAa?$AAl?$AAl?$AAo?$AAc?$AAa?$AAt?$AAe?$AA?$AA@
	push	OFFSET ??_C@_1CG@JNLFBNGN@?$AA?$CC?$AAi?$AAn?$AAv?$AAa?$AAl?$AAi?$AAd?$AA?5?$AAa?$AAr?$AAg?$AAu?$AAm?$AAe?$AAn?$AAt?$AA?$CC?$AA?$AA@
	call	__invalid_parameter
	add	esp, 20					; 00000014H
$LN7@Deallocate:

; 124  : 			<= _Ptr_user - _Ptr_container);
; 125  : 
; 126  :  #else /* _DEBUG */
; 127  : 		_SCL_SECURE_ALWAYS_VALIDATE(sizeof(void *)
; 128  : 			<= _Ptr_user - _Ptr_container);
; 129  :  #endif /* _DEBUG */
; 130  : 
; 131  : 		_SCL_SECURE_ALWAYS_VALIDATE(_Ptr_user - _Ptr_container

	mov	edx, DWORD PTR __Ptr_user$3[ebp]
	sub	edx, DWORD PTR __Ptr_container$1[ebp]
	cmp	edx, 39					; 00000027H
	jbe	SHORT $LN8@Deallocate
	mov	eax, OFFSET ??_C@_0CN@BLHJCAL@_Ptr_user?5?9?5_Ptr_container?5?$DM?$DN?5_N@
	test	eax, eax
	je	SHORT $LN20@Deallocate
	xor	ecx, ecx
	jne	SHORT $LN21@Deallocate
$LN20@Deallocate:
	push	OFFSET ??_C@_1GI@DHJGPFNI@?$AA?$CC?$AA_?$AAP?$AAt?$AAr?$AA_?$AAu?$AAs?$AAe?$AAr?$AA?5?$AA?9?$AA?5?$AA_?$AAP?$AAt?$AAr?$AA_?$AAc?$AAo?$AAn?$AAt?$AAa?$AAi?$AAn?$AAe?$AAr?$AA?5?$AA?$DM?$AA?$DN?$AA?5?$AA_@
	push	OFFSET ??_C@_17CNPHIMPH@?$AA?$CF?$AAl?$AAs?$AA?$AA@
	push	0
	push	132					; 00000084H
	push	OFFSET ??_C@_1GI@MOGLCDAO@?$AAD?$AA?3?$AA?2?$AAM?$AAi?$AAc?$AAr?$AAo?$AAs?$AAo?$AAf?$AAt?$AA?5?$AAV?$AAi?$AAs?$AAu?$AAa?$AAl?$AA?5?$AAS?$AAt?$AAu?$AAd?$AAi?$AAo?$AA?5?$AA1?$AA4?$AA?4?$AA0?$AA?2@
	push	2
	call	__CrtDbgReportW
	add	esp, 24					; 00000018H
	cmp	eax, 1
	jne	SHORT $LN21@Deallocate
	int	3
$LN21@Deallocate:
	push	0
	push	132					; 00000084H
	push	OFFSET ??_C@_1GI@MOGLCDAO@?$AAD?$AA?3?$AA?2?$AAM?$AAi?$AAc?$AAr?$AAo?$AAs?$AAo?$AAf?$AAt?$AA?5?$AAV?$AAi?$AAs?$AAu?$AAa?$AAl?$AA?5?$AAS?$AAt?$AAu?$AAd?$AAi?$AAo?$AA?5?$AA1?$AA4?$AA?4?$AA0?$AA?2@
	push	OFFSET ??_C@_1CC@LOFJFFDB@?$AAs?$AAt?$AAd?$AA?3?$AA?3?$AA_?$AAD?$AAe?$AAa?$AAl?$AAl?$AAo?$AAc?$AAa?$AAt?$AAe?$AA?$AA@
	push	OFFSET ??_C@_1CG@JNLFBNGN@?$AA?$CC?$AAi?$AAn?$AAv?$AAa?$AAl?$AAi?$AAd?$AA?5?$AAa?$AAr?$AAg?$AAu?$AAm?$AAe?$AAn?$AAt?$AA?$CC?$AA?$AA@
	call	__invalid_parameter
	add	esp, 20					; 00000014H
$LN8@Deallocate:

; 132  : 			<= _NON_USER_SIZE);
; 133  : 
; 134  : 		_Ptr = reinterpret_cast<_Ty *>(_Ptr_container);

	mov	eax, DWORD PTR __Ptr_container$1[ebp]
	mov	DWORD PTR __Ptr$[ebp], eax
$LN3@Deallocate:

; 135  : 		}
; 136  :  #endif /* defined(_M_IX86) || defined(_M_X64) */
; 137  : 
; 138  : 	::operator delete(_Ptr);

	mov	ecx, DWORD PTR __Ptr$[ebp]
	push	ecx
	call	??3@YAXPAX@Z				; operator delete
	add	esp, 4

; 139  : 	}

	add	esp, 16					; 00000010H
	cmp	ebp, esp
	call	__RTC_CheckEsp
	mov	esp, ebp
	pop	ebp
	ret	0
??$_Deallocate@D@std@@YAXPADI@Z ENDP			; std::_Deallocate<char>
_TEXT	ENDS
; Function compile flags: /Odtp /RTCsu
; File d:\microsoft visual studio 14.0\vc\include\xmemory0
;	COMDAT ??$_Deallocate@UVector2D@@@std@@YAXPAUVector2D@@I@Z
_TEXT	SEGMENT
__Ptr_container$1 = -16					; size = 4
__Ptr_ptr$2 = -12					; size = 4
__Ptr_user$3 = -8					; size = 4
__User_size$ = -4					; size = 4
__Ptr$ = 8						; size = 4
__Count$ = 12						; size = 4
??$_Deallocate@UVector2D@@@std@@YAXPAUVector2D@@I@Z PROC ; std::_Deallocate<Vector2D>, COMDAT

; 98   : 	{	// deallocate storage for _Count elements of type _Ty

	push	ebp
	mov	ebp, esp
	sub	esp, 16					; 00000010H
	mov	eax, -858993460				; ccccccccH
	mov	DWORD PTR [ebp-16], eax
	mov	DWORD PTR [ebp-12], eax
	mov	DWORD PTR [ebp-8], eax
	mov	DWORD PTR [ebp-4], eax

; 99   :  #if defined(_M_IX86) || defined(_M_X64)
; 100  : 	_SCL_SECURE_ALWAYS_VALIDATE(_Count <= (size_t)(-1) / sizeof (_Ty));

	cmp	DWORD PTR __Count$[ebp], 268435455	; 0fffffffH
	jbe	SHORT $LN2@Deallocate
	mov	eax, OFFSET ??_C@_0CG@FHBDFCGK@_Count?5?$DM?$DN?5?$CIsize_t?$CJ?$CI?91?$CJ?5?1?5sizeof?5@
	test	eax, eax
	je	SHORT $LN10@Deallocate
	xor	ecx, ecx
	jne	SHORT $LN11@Deallocate
$LN10@Deallocate:
	push	OFFSET ??_C@_1FK@EJGLHMGC@?$AA?$CC?$AA_?$AAC?$AAo?$AAu?$AAn?$AAt?$AA?5?$AA?$DM?$AA?$DN?$AA?5?$AA?$CI?$AAs?$AAi?$AAz?$AAe?$AA_?$AAt?$AA?$CJ?$AA?$CI?$AA?9?$AA1?$AA?$CJ?$AA?5?$AA?1?$AA?5?$AAs?$AAi?$AAz?$AAe?$AAo?$AAf@
	push	OFFSET ??_C@_17CNPHIMPH@?$AA?$CF?$AAl?$AAs?$AA?$AA@
	push	0
	push	100					; 00000064H
	push	OFFSET ??_C@_1GI@MOGLCDAO@?$AAD?$AA?3?$AA?2?$AAM?$AAi?$AAc?$AAr?$AAo?$AAs?$AAo?$AAf?$AAt?$AA?5?$AAV?$AAi?$AAs?$AAu?$AAa?$AAl?$AA?5?$AAS?$AAt?$AAu?$AAd?$AAi?$AAo?$AA?5?$AA1?$AA4?$AA?4?$AA0?$AA?2@
	push	2
	call	__CrtDbgReportW
	add	esp, 24					; 00000018H
	cmp	eax, 1
	jne	SHORT $LN11@Deallocate
	int	3
$LN11@Deallocate:
	push	0
	push	100					; 00000064H
	push	OFFSET ??_C@_1GI@MOGLCDAO@?$AAD?$AA?3?$AA?2?$AAM?$AAi?$AAc?$AAr?$AAo?$AAs?$AAo?$AAf?$AAt?$AA?5?$AAV?$AAi?$AAs?$AAu?$AAa?$AAl?$AA?5?$AAS?$AAt?$AAu?$AAd?$AAi?$AAo?$AA?5?$AA1?$AA4?$AA?4?$AA0?$AA?2@
	push	OFFSET ??_C@_1CC@LOFJFFDB@?$AAs?$AAt?$AAd?$AA?3?$AA?3?$AA_?$AAD?$AAe?$AAa?$AAl?$AAl?$AAo?$AAc?$AAa?$AAt?$AAe?$AA?$AA@
	push	OFFSET ??_C@_1CG@JNLFBNGN@?$AA?$CC?$AAi?$AAn?$AAv?$AAa?$AAl?$AAi?$AAd?$AA?5?$AAa?$AAr?$AAg?$AAu?$AAm?$AAe?$AAn?$AAt?$AA?$CC?$AA?$AA@
	call	__invalid_parameter
	add	esp, 20					; 00000014H
$LN2@Deallocate:

; 101  : 	const size_t _User_size = _Count * sizeof (_Ty);

	mov	eax, DWORD PTR __Count$[ebp]
	shl	eax, 4
	mov	DWORD PTR __User_size$[ebp], eax

; 102  : 	if (_BIG_ALLOCATION_THRESHOLD <= _User_size)

	cmp	DWORD PTR __User_size$[ebp], 4096	; 00001000H
	jb	$LN3@Deallocate

; 103  : 		{	// deallocate large block
; 104  : 		const uintptr_t _Ptr_user = reinterpret_cast<uintptr_t>(_Ptr);

	mov	ecx, DWORD PTR __Ptr$[ebp]
	mov	DWORD PTR __Ptr_user$3[ebp], ecx

; 105  : 		_SCL_SECURE_ALWAYS_VALIDATE(

	mov	edx, DWORD PTR __Ptr_user$3[ebp]
	and	edx, 31					; 0000001fH
	je	SHORT $LN4@Deallocate
	mov	eax, OFFSET ??_C@_0DD@GBGGGKGG@?$CI_Ptr_user?5?$CG?5?$CI_BIG_ALLOCATION_AL@
	test	eax, eax
	je	SHORT $LN12@Deallocate
	xor	ecx, ecx
	jne	SHORT $LN13@Deallocate
$LN12@Deallocate:
	push	OFFSET ??_C@_1HE@CDMBFOKC@?$AA?$CC?$AA?$CI?$AA_?$AAP?$AAt?$AAr?$AA_?$AAu?$AAs?$AAe?$AAr?$AA?5?$AA?$CG?$AA?5?$AA?$CI?$AA_?$AAB?$AAI?$AAG?$AA_?$AAA?$AAL?$AAL?$AAO?$AAC?$AAA?$AAT?$AAI?$AAO?$AAN?$AA_?$AAA@
	push	OFFSET ??_C@_17CNPHIMPH@?$AA?$CF?$AAl?$AAs?$AA?$AA@
	push	0
	push	106					; 0000006aH
	push	OFFSET ??_C@_1GI@MOGLCDAO@?$AAD?$AA?3?$AA?2?$AAM?$AAi?$AAc?$AAr?$AAo?$AAs?$AAo?$AAf?$AAt?$AA?5?$AAV?$AAi?$AAs?$AAu?$AAa?$AAl?$AA?5?$AAS?$AAt?$AAu?$AAd?$AAi?$AAo?$AA?5?$AA1?$AA4?$AA?4?$AA0?$AA?2@
	push	2
	call	__CrtDbgReportW
	add	esp, 24					; 00000018H
	cmp	eax, 1
	jne	SHORT $LN13@Deallocate
	int	3
$LN13@Deallocate:
	push	0
	push	106					; 0000006aH
	push	OFFSET ??_C@_1GI@MOGLCDAO@?$AAD?$AA?3?$AA?2?$AAM?$AAi?$AAc?$AAr?$AAo?$AAs?$AAo?$AAf?$AAt?$AA?5?$AAV?$AAi?$AAs?$AAu?$AAa?$AAl?$AA?5?$AAS?$AAt?$AAu?$AAd?$AAi?$AAo?$AA?5?$AA1?$AA4?$AA?4?$AA0?$AA?2@
	push	OFFSET ??_C@_1CC@LOFJFFDB@?$AAs?$AAt?$AAd?$AA?3?$AA?3?$AA_?$AAD?$AAe?$AAa?$AAl?$AAl?$AAo?$AAc?$AAa?$AAt?$AAe?$AA?$AA@
	push	OFFSET ??_C@_1CG@JNLFBNGN@?$AA?$CC?$AAi?$AAn?$AAv?$AAa?$AAl?$AAi?$AAd?$AA?5?$AAa?$AAr?$AAg?$AAu?$AAm?$AAe?$AAn?$AAt?$AA?$CC?$AA?$AA@
	call	__invalid_parameter
	add	esp, 20					; 00000014H
$LN4@Deallocate:

; 106  : 			(_Ptr_user & (_BIG_ALLOCATION_ALIGNMENT - 1)) == 0);
; 107  : 		const uintptr_t _Ptr_ptr = _Ptr_user - sizeof(void *);

	mov	eax, DWORD PTR __Ptr_user$3[ebp]
	sub	eax, 4
	mov	DWORD PTR __Ptr_ptr$2[ebp], eax

; 108  : 		const uintptr_t _Ptr_container =
; 109  : 			*reinterpret_cast<uintptr_t *>(_Ptr_ptr);

	mov	ecx, DWORD PTR __Ptr_ptr$2[ebp]
	mov	edx, DWORD PTR [ecx]
	mov	DWORD PTR __Ptr_container$1[ebp], edx

; 110  : 
; 111  :  #ifdef _DEBUG
; 112  : 		// If the following asserts, it likely means that we are performing
; 113  : 		// an aligned delete on memory coming from an unaligned allocation.
; 114  : 		_SCL_SECURE_ALWAYS_VALIDATE(

	mov	eax, 4
	imul	ecx, eax, -1
	mov	edx, DWORD PTR __Ptr_ptr$2[ebp]
	cmp	DWORD PTR [edx+ecx], -84215046		; fafafafaH
	je	SHORT $LN5@Deallocate
	mov	eax, OFFSET ??_C@_0EI@NOJHEJCJ@reinterpret_cast?$DMuintptr_t?5?$CK?$DO?$CI_P@
	test	eax, eax
	je	SHORT $LN14@Deallocate
	xor	ecx, ecx
	jne	SHORT $LN15@Deallocate
$LN14@Deallocate:
	push	OFFSET ??_C@_1JO@EKLKIEHP@?$AA?$CC?$AAr?$AAe?$AAi?$AAn?$AAt?$AAe?$AAr?$AAp?$AAr?$AAe?$AAt?$AA_?$AAc?$AAa?$AAs?$AAt?$AA?$DM?$AAu?$AAi?$AAn?$AAt?$AAp?$AAt?$AAr?$AA_?$AAt?$AA?5?$AA?$CK?$AA?$DO?$AA?$CI?$AA_@
	push	OFFSET ??_C@_17CNPHIMPH@?$AA?$CF?$AAl?$AAs?$AA?$AA@
	push	0
	push	116					; 00000074H
	push	OFFSET ??_C@_1GI@MOGLCDAO@?$AAD?$AA?3?$AA?2?$AAM?$AAi?$AAc?$AAr?$AAo?$AAs?$AAo?$AAf?$AAt?$AA?5?$AAV?$AAi?$AAs?$AAu?$AAa?$AAl?$AA?5?$AAS?$AAt?$AAu?$AAd?$AAi?$AAo?$AA?5?$AA1?$AA4?$AA?4?$AA0?$AA?2@
	push	2
	call	__CrtDbgReportW
	add	esp, 24					; 00000018H
	cmp	eax, 1
	jne	SHORT $LN15@Deallocate
	int	3
$LN15@Deallocate:
	push	0
	push	116					; 00000074H
	push	OFFSET ??_C@_1GI@MOGLCDAO@?$AAD?$AA?3?$AA?2?$AAM?$AAi?$AAc?$AAr?$AAo?$AAs?$AAo?$AAf?$AAt?$AA?5?$AAV?$AAi?$AAs?$AAu?$AAa?$AAl?$AA?5?$AAS?$AAt?$AAu?$AAd?$AAi?$AAo?$AA?5?$AA1?$AA4?$AA?4?$AA0?$AA?2@
	push	OFFSET ??_C@_1CC@LOFJFFDB@?$AAs?$AAt?$AAd?$AA?3?$AA?3?$AA_?$AAD?$AAe?$AAa?$AAl?$AAl?$AAo?$AAc?$AAa?$AAt?$AAe?$AA?$AA@
	push	OFFSET ??_C@_1CG@JNLFBNGN@?$AA?$CC?$AAi?$AAn?$AAv?$AAa?$AAl?$AAi?$AAd?$AA?5?$AAa?$AAr?$AAg?$AAu?$AAm?$AAe?$AAn?$AAt?$AA?$CC?$AA?$AA@
	call	__invalid_parameter
	add	esp, 20					; 00000014H
$LN5@Deallocate:

; 115  : 			reinterpret_cast<uintptr_t *>(_Ptr_ptr)[-1] ==
; 116  : 				_BIG_ALLOCATION_SENTINEL);
; 117  :  #endif /* _DEBUG */
; 118  : 
; 119  : 		// Extra paranoia on aligned allocation/deallocation
; 120  : 		_SCL_SECURE_ALWAYS_VALIDATE(_Ptr_container < _Ptr_user);

	mov	eax, DWORD PTR __Ptr_container$1[ebp]
	cmp	eax, DWORD PTR __Ptr_user$3[ebp]
	jb	SHORT $LN6@Deallocate
	mov	ecx, OFFSET ??_C@_0BL@OCKMEJON@_Ptr_container?5?$DM?5_Ptr_user?$AA@
	test	ecx, ecx
	je	SHORT $LN16@Deallocate
	xor	edx, edx
	jne	SHORT $LN17@Deallocate
$LN16@Deallocate:
	push	OFFSET ??_C@_1EE@PDHAHDDC@?$AA?$CC?$AA_?$AAP?$AAt?$AAr?$AA_?$AAc?$AAo?$AAn?$AAt?$AAa?$AAi?$AAn?$AAe?$AAr?$AA?5?$AA?$DM?$AA?5?$AA_?$AAP?$AAt?$AAr?$AA_?$AAu?$AAs?$AAe?$AAr?$AA?$CC?$AA?5?$AA?$CG?$AA?$CG?$AA?5@
	push	OFFSET ??_C@_17CNPHIMPH@?$AA?$CF?$AAl?$AAs?$AA?$AA@
	push	0
	push	120					; 00000078H
	push	OFFSET ??_C@_1GI@MOGLCDAO@?$AAD?$AA?3?$AA?2?$AAM?$AAi?$AAc?$AAr?$AAo?$AAs?$AAo?$AAf?$AAt?$AA?5?$AAV?$AAi?$AAs?$AAu?$AAa?$AAl?$AA?5?$AAS?$AAt?$AAu?$AAd?$AAi?$AAo?$AA?5?$AA1?$AA4?$AA?4?$AA0?$AA?2@
	push	2
	call	__CrtDbgReportW
	add	esp, 24					; 00000018H
	cmp	eax, 1
	jne	SHORT $LN17@Deallocate
	int	3
$LN17@Deallocate:
	push	0
	push	120					; 00000078H
	push	OFFSET ??_C@_1GI@MOGLCDAO@?$AAD?$AA?3?$AA?2?$AAM?$AAi?$AAc?$AAr?$AAo?$AAs?$AAo?$AAf?$AAt?$AA?5?$AAV?$AAi?$AAs?$AAu?$AAa?$AAl?$AA?5?$AAS?$AAt?$AAu?$AAd?$AAi?$AAo?$AA?5?$AA1?$AA4?$AA?4?$AA0?$AA?2@
	push	OFFSET ??_C@_1CC@LOFJFFDB@?$AAs?$AAt?$AAd?$AA?3?$AA?3?$AA_?$AAD?$AAe?$AAa?$AAl?$AAl?$AAo?$AAc?$AAa?$AAt?$AAe?$AA?$AA@
	push	OFFSET ??_C@_1CG@JNLFBNGN@?$AA?$CC?$AAi?$AAn?$AAv?$AAa?$AAl?$AAi?$AAd?$AA?5?$AAa?$AAr?$AAg?$AAu?$AAm?$AAe?$AAn?$AAt?$AA?$CC?$AA?$AA@
	call	__invalid_parameter
	add	esp, 20					; 00000014H
$LN6@Deallocate:

; 121  : 
; 122  :  #ifdef _DEBUG
; 123  : 		_SCL_SECURE_ALWAYS_VALIDATE(2 * sizeof(void *)

	mov	ecx, DWORD PTR __Ptr_user$3[ebp]
	sub	ecx, DWORD PTR __Ptr_container$1[ebp]
	cmp	ecx, 8
	jae	SHORT $LN7@Deallocate
	mov	edx, OFFSET ??_C@_0DB@GLFJLNCE@2?5?$CK?5sizeof?$CIvoid?5?$CK?$CJ?5?$DM?$DN?5_Ptr_user?5@
	test	edx, edx
	je	SHORT $LN18@Deallocate
	xor	eax, eax
	jne	SHORT $LN19@Deallocate
$LN18@Deallocate:
	push	OFFSET ??_C@_1HA@NAPGMHAO@?$AA?$CC?$AA2?$AA?5?$AA?$CK?$AA?5?$AAs?$AAi?$AAz?$AAe?$AAo?$AAf?$AA?$CI?$AAv?$AAo?$AAi?$AAd?$AA?5?$AA?$CK?$AA?$CJ?$AA?5?$AA?$DM?$AA?$DN?$AA?5?$AA_?$AAP?$AAt?$AAr?$AA_?$AAu?$AAs?$AAe?$AAr@
	push	OFFSET ??_C@_17CNPHIMPH@?$AA?$CF?$AAl?$AAs?$AA?$AA@
	push	0
	push	124					; 0000007cH
	push	OFFSET ??_C@_1GI@MOGLCDAO@?$AAD?$AA?3?$AA?2?$AAM?$AAi?$AAc?$AAr?$AAo?$AAs?$AAo?$AAf?$AAt?$AA?5?$AAV?$AAi?$AAs?$AAu?$AAa?$AAl?$AA?5?$AAS?$AAt?$AAu?$AAd?$AAi?$AAo?$AA?5?$AA1?$AA4?$AA?4?$AA0?$AA?2@
	push	2
	call	__CrtDbgReportW
	add	esp, 24					; 00000018H
	cmp	eax, 1
	jne	SHORT $LN19@Deallocate
	int	3
$LN19@Deallocate:
	push	0
	push	124					; 0000007cH
	push	OFFSET ??_C@_1GI@MOGLCDAO@?$AAD?$AA?3?$AA?2?$AAM?$AAi?$AAc?$AAr?$AAo?$AAs?$AAo?$AAf?$AAt?$AA?5?$AAV?$AAi?$AAs?$AAu?$AAa?$AAl?$AA?5?$AAS?$AAt?$AAu?$AAd?$AAi?$AAo?$AA?5?$AA1?$AA4?$AA?4?$AA0?$AA?2@
	push	OFFSET ??_C@_1CC@LOFJFFDB@?$AAs?$AAt?$AAd?$AA?3?$AA?3?$AA_?$AAD?$AAe?$AAa?$AAl?$AAl?$AAo?$AAc?$AAa?$AAt?$AAe?$AA?$AA@
	push	OFFSET ??_C@_1CG@JNLFBNGN@?$AA?$CC?$AAi?$AAn?$AAv?$AAa?$AAl?$AAi?$AAd?$AA?5?$AAa?$AAr?$AAg?$AAu?$AAm?$AAe?$AAn?$AAt?$AA?$CC?$AA?$AA@
	call	__invalid_parameter
	add	esp, 20					; 00000014H
$LN7@Deallocate:

; 124  : 			<= _Ptr_user - _Ptr_container);
; 125  : 
; 126  :  #else /* _DEBUG */
; 127  : 		_SCL_SECURE_ALWAYS_VALIDATE(sizeof(void *)
; 128  : 			<= _Ptr_user - _Ptr_container);
; 129  :  #endif /* _DEBUG */
; 130  : 
; 131  : 		_SCL_SECURE_ALWAYS_VALIDATE(_Ptr_user - _Ptr_container

	mov	edx, DWORD PTR __Ptr_user$3[ebp]
	sub	edx, DWORD PTR __Ptr_container$1[ebp]
	cmp	edx, 39					; 00000027H
	jbe	SHORT $LN8@Deallocate
	mov	eax, OFFSET ??_C@_0CN@BLHJCAL@_Ptr_user?5?9?5_Ptr_container?5?$DM?$DN?5_N@
	test	eax, eax
	je	SHORT $LN20@Deallocate
	xor	ecx, ecx
	jne	SHORT $LN21@Deallocate
$LN20@Deallocate:
	push	OFFSET ??_C@_1GI@DHJGPFNI@?$AA?$CC?$AA_?$AAP?$AAt?$AAr?$AA_?$AAu?$AAs?$AAe?$AAr?$AA?5?$AA?9?$AA?5?$AA_?$AAP?$AAt?$AAr?$AA_?$AAc?$AAo?$AAn?$AAt?$AAa?$AAi?$AAn?$AAe?$AAr?$AA?5?$AA?$DM?$AA?$DN?$AA?5?$AA_@
	push	OFFSET ??_C@_17CNPHIMPH@?$AA?$CF?$AAl?$AAs?$AA?$AA@
	push	0
	push	132					; 00000084H
	push	OFFSET ??_C@_1GI@MOGLCDAO@?$AAD?$AA?3?$AA?2?$AAM?$AAi?$AAc?$AAr?$AAo?$AAs?$AAo?$AAf?$AAt?$AA?5?$AAV?$AAi?$AAs?$AAu?$AAa?$AAl?$AA?5?$AAS?$AAt?$AAu?$AAd?$AAi?$AAo?$AA?5?$AA1?$AA4?$AA?4?$AA0?$AA?2@
	push	2
	call	__CrtDbgReportW
	add	esp, 24					; 00000018H
	cmp	eax, 1
	jne	SHORT $LN21@Deallocate
	int	3
$LN21@Deallocate:
	push	0
	push	132					; 00000084H
	push	OFFSET ??_C@_1GI@MOGLCDAO@?$AAD?$AA?3?$AA?2?$AAM?$AAi?$AAc?$AAr?$AAo?$AAs?$AAo?$AAf?$AAt?$AA?5?$AAV?$AAi?$AAs?$AAu?$AAa?$AAl?$AA?5?$AAS?$AAt?$AAu?$AAd?$AAi?$AAo?$AA?5?$AA1?$AA4?$AA?4?$AA0?$AA?2@
	push	OFFSET ??_C@_1CC@LOFJFFDB@?$AAs?$AAt?$AAd?$AA?3?$AA?3?$AA_?$AAD?$AAe?$AAa?$AAl?$AAl?$AAo?$AAc?$AAa?$AAt?$AAe?$AA?$AA@
	push	OFFSET ??_C@_1CG@JNLFBNGN@?$AA?$CC?$AAi?$AAn?$AAv?$AAa?$AAl?$AAi?$AAd?$AA?5?$AAa?$AAr?$AAg?$AAu?$AAm?$AAe?$AAn?$AAt?$AA?$CC?$AA?$AA@
	call	__invalid_parameter
	add	esp, 20					; 00000014H
$LN8@Deallocate:

; 132  : 			<= _NON_USER_SIZE);
; 133  : 
; 134  : 		_Ptr = reinterpret_cast<_Ty *>(_Ptr_container);

	mov	eax, DWORD PTR __Ptr_container$1[ebp]
	mov	DWORD PTR __Ptr$[ebp], eax
$LN3@Deallocate:

; 135  : 		}
; 136  :  #endif /* defined(_M_IX86) || defined(_M_X64) */
; 137  : 
; 138  : 	::operator delete(_Ptr);

	mov	ecx, DWORD PTR __Ptr$[ebp]
	push	ecx
	call	??3@YAXPAX@Z				; operator delete
	add	esp, 4

; 139  : 	}

	add	esp, 16					; 00000010H
	cmp	ebp, esp
	call	__RTC_CheckEsp
	mov	esp, ebp
	pop	ebp
	ret	0
??$_Deallocate@UVector2D@@@std@@YAXPAUVector2D@@I@Z ENDP ; std::_Deallocate<Vector2D>
_TEXT	ENDS
; Function compile flags: /Odtp /RTCsu
; File d:\microsoft visual studio 14.0\vc\include\xmemory0
;	COMDAT ??$_Allocate@UVector2D@@@std@@YAPAUVector2D@@IPAU1@_N@Z
_TEXT	SEGMENT
__Ptr_container$1 = -16					; size = 4
__Block_size$2 = -12					; size = 4
__User_size$ = -8					; size = 4
__Ptr$ = -4						; size = 4
__Count$ = 8						; size = 4
___formal$ = 12						; size = 4
__Try_aligned_allocation$ = 16				; size = 1
??$_Allocate@UVector2D@@@std@@YAPAUVector2D@@IPAU1@_N@Z PROC ; std::_Allocate<Vector2D>, COMDAT

; 54   : 	{	// allocate storage for _Count elements of type _Ty

	push	ebp
	mov	ebp, esp
	sub	esp, 16					; 00000010H
	mov	eax, -858993460				; ccccccccH
	mov	DWORD PTR [ebp-16], eax
	mov	DWORD PTR [ebp-12], eax
	mov	DWORD PTR [ebp-8], eax
	mov	DWORD PTR [ebp-4], eax

; 55   : 	void *_Ptr = 0;

	mov	DWORD PTR __Ptr$[ebp], 0

; 56   : 
; 57   : 	if (_Count == 0)

	cmp	DWORD PTR __Count$[ebp], 0
	jne	SHORT $LN2@Allocate

; 58   : 		return (static_cast<_Ty *>(_Ptr));

	mov	eax, DWORD PTR __Ptr$[ebp]
	jmp	$LN9@Allocate
$LN2@Allocate:

; 59   : 
; 60   : 	// check overflow of multiply
; 61   : 	if ((size_t)(-1) / sizeof (_Ty) < _Count)

	cmp	DWORD PTR __Count$[ebp], 268435455	; 0fffffffH
	jbe	SHORT $LN3@Allocate

; 62   : 		_Xbad_alloc();	// report no memory

	call	?_Xbad_alloc@std@@YAXXZ			; std::_Xbad_alloc
$LN3@Allocate:

; 63   : 	const size_t _User_size = _Count * sizeof (_Ty);

	mov	eax, DWORD PTR __Count$[ebp]
	shl	eax, 4
	mov	DWORD PTR __User_size$[ebp], eax

; 64   : 
; 65   :  #if defined(_M_IX86) || defined(_M_X64)
; 66   : 	if (_Try_aligned_allocation
; 67   : 		&& _BIG_ALLOCATION_THRESHOLD <= _User_size)

	movzx	ecx, BYTE PTR __Try_aligned_allocation$[ebp]
	test	ecx, ecx
	je	$LN4@Allocate
	cmp	DWORD PTR __User_size$[ebp], 4096	; 00001000H
	jb	$LN4@Allocate

; 68   : 		{	// allocate large block
; 69   : 		static_assert(sizeof (void *) < _BIG_ALLOCATION_ALIGNMENT,
; 70   : 			"Big allocations should at least match vector register size");
; 71   : 		const size_t _Block_size = _NON_USER_SIZE + _User_size;

	mov	edx, DWORD PTR __User_size$[ebp]
	add	edx, 39					; 00000027H
	mov	DWORD PTR __Block_size$2[ebp], edx

; 72   : 		if (_Block_size <= _User_size)

	mov	eax, DWORD PTR __Block_size$2[ebp]
	cmp	eax, DWORD PTR __User_size$[ebp]
	ja	SHORT $LN6@Allocate

; 73   : 			_Xbad_alloc();	// report no memory

	call	?_Xbad_alloc@std@@YAXXZ			; std::_Xbad_alloc
$LN6@Allocate:

; 74   : 		const uintptr_t _Ptr_container =
; 75   : 			reinterpret_cast<uintptr_t>(::operator new(_Block_size));

	mov	ecx, DWORD PTR __Block_size$2[ebp]
	push	ecx
	call	??2@YAPAXI@Z				; operator new
	add	esp, 4
	mov	DWORD PTR __Ptr_container$1[ebp], eax

; 76   : 		_SCL_SECURE_ALWAYS_VALIDATE(_Ptr_container != 0);

	cmp	DWORD PTR __Ptr_container$1[ebp], 0
	jne	SHORT $LN7@Allocate
	mov	edx, OFFSET ??_C@_0BE@LMNLACIC@_Ptr_container?5?$CB?$DN?50?$AA@
	test	edx, edx
	je	SHORT $LN10@Allocate
	xor	eax, eax
	jne	SHORT $LN11@Allocate
$LN10@Allocate:
	push	OFFSET ??_C@_1DG@HGDKEBPG@?$AA?$CC?$AA_?$AAP?$AAt?$AAr?$AA_?$AAc?$AAo?$AAn?$AAt?$AAa?$AAi?$AAn?$AAe?$AAr?$AA?5?$AA?$CB?$AA?$DN?$AA?5?$AA0?$AA?$CC?$AA?5?$AA?$CG?$AA?$CG?$AA?5?$AA0?$AA?$AA@
	push	OFFSET ??_C@_17CNPHIMPH@?$AA?$CF?$AAl?$AAs?$AA?$AA@
	push	0
	push	76					; 0000004cH
	push	OFFSET ??_C@_1GI@MOGLCDAO@?$AAD?$AA?3?$AA?2?$AAM?$AAi?$AAc?$AAr?$AAo?$AAs?$AAo?$AAf?$AAt?$AA?5?$AAV?$AAi?$AAs?$AAu?$AAa?$AAl?$AA?5?$AAS?$AAt?$AAu?$AAd?$AAi?$AAo?$AA?5?$AA1?$AA4?$AA?4?$AA0?$AA?2@
	push	2
	call	__CrtDbgReportW
	add	esp, 24					; 00000018H
	cmp	eax, 1
	jne	SHORT $LN11@Allocate
	int	3
$LN11@Allocate:
	push	0
	push	76					; 0000004cH
	push	OFFSET ??_C@_1GI@MOGLCDAO@?$AAD?$AA?3?$AA?2?$AAM?$AAi?$AAc?$AAr?$AAo?$AAs?$AAo?$AAf?$AAt?$AA?5?$AAV?$AAi?$AAs?$AAu?$AAa?$AAl?$AA?5?$AAS?$AAt?$AAu?$AAd?$AAi?$AAo?$AA?5?$AA1?$AA4?$AA?4?$AA0?$AA?2@
	push	OFFSET ??_C@_1BO@NKFMJPA@?$AAs?$AAt?$AAd?$AA?3?$AA?3?$AA_?$AAA?$AAl?$AAl?$AAo?$AAc?$AAa?$AAt?$AAe?$AA?$AA@
	push	OFFSET ??_C@_1CG@JNLFBNGN@?$AA?$CC?$AAi?$AAn?$AAv?$AAa?$AAl?$AAi?$AAd?$AA?5?$AAa?$AAr?$AAg?$AAu?$AAm?$AAe?$AAn?$AAt?$AA?$CC?$AA?$AA@
	call	__invalid_parameter
	add	esp, 20					; 00000014H
$LN7@Allocate:

; 77   : 		_Ptr = reinterpret_cast<void *>((_Ptr_container + _NON_USER_SIZE)

	mov	edx, DWORD PTR __Ptr_container$1[ebp]
	add	edx, 39					; 00000027H
	and	edx, -32				; ffffffe0H
	mov	DWORD PTR __Ptr$[ebp], edx

; 78   : 			& ~(_BIG_ALLOCATION_ALIGNMENT - 1));
; 79   : 		static_cast<uintptr_t *>(_Ptr)[-1] = _Ptr_container;

	mov	eax, 4
	imul	ecx, eax, -1
	mov	edx, DWORD PTR __Ptr$[ebp]
	mov	eax, DWORD PTR __Ptr_container$1[ebp]
	mov	DWORD PTR [edx+ecx], eax

; 80   : 
; 81   :  #ifdef _DEBUG
; 82   : 		static_cast<uintptr_t *>(_Ptr)[-2] = _BIG_ALLOCATION_SENTINEL;

	mov	ecx, 4
	imul	edx, ecx, -2
	mov	eax, DWORD PTR __Ptr$[ebp]
	mov	DWORD PTR [eax+edx], -84215046		; fafafafaH

; 83   :  #endif /* _DEBUG */
; 84   : 		}
; 85   : 	else

	jmp	SHORT $LN5@Allocate
$LN4@Allocate:

; 86   :  #endif /* defined(_M_IX86) || defined(_M_X64) */
; 87   : 
; 88   : 		{	// allocate normal block
; 89   : 		_Ptr = ::operator new(_User_size);

	mov	ecx, DWORD PTR __User_size$[ebp]
	push	ecx
	call	??2@YAPAXI@Z				; operator new
	add	esp, 4
	mov	DWORD PTR __Ptr$[ebp], eax

; 90   : 		_SCL_SECURE_ALWAYS_VALIDATE(_Ptr != 0);

	cmp	DWORD PTR __Ptr$[ebp], 0
	jne	SHORT $LN5@Allocate
	mov	edx, OFFSET ??_C@_09GLJCAGLP@_Ptr?5?$CB?$DN?50?$AA@
	test	edx, edx
	je	SHORT $LN12@Allocate
	xor	eax, eax
	jne	SHORT $LN13@Allocate
$LN12@Allocate:
	push	OFFSET ??_C@_1CC@GKJLLHIM@?$AA?$CC?$AA_?$AAP?$AAt?$AAr?$AA?5?$AA?$CB?$AA?$DN?$AA?5?$AA0?$AA?$CC?$AA?5?$AA?$CG?$AA?$CG?$AA?5?$AA0?$AA?$AA@
	push	OFFSET ??_C@_17CNPHIMPH@?$AA?$CF?$AAl?$AAs?$AA?$AA@
	push	0
	push	90					; 0000005aH
	push	OFFSET ??_C@_1GI@MOGLCDAO@?$AAD?$AA?3?$AA?2?$AAM?$AAi?$AAc?$AAr?$AAo?$AAs?$AAo?$AAf?$AAt?$AA?5?$AAV?$AAi?$AAs?$AAu?$AAa?$AAl?$AA?5?$AAS?$AAt?$AAu?$AAd?$AAi?$AAo?$AA?5?$AA1?$AA4?$AA?4?$AA0?$AA?2@
	push	2
	call	__CrtDbgReportW
	add	esp, 24					; 00000018H
	cmp	eax, 1
	jne	SHORT $LN13@Allocate
	int	3
$LN13@Allocate:
	push	0
	push	90					; 0000005aH
	push	OFFSET ??_C@_1GI@MOGLCDAO@?$AAD?$AA?3?$AA?2?$AAM?$AAi?$AAc?$AAr?$AAo?$AAs?$AAo?$AAf?$AAt?$AA?5?$AAV?$AAi?$AAs?$AAu?$AAa?$AAl?$AA?5?$AAS?$AAt?$AAu?$AAd?$AAi?$AAo?$AA?5?$AA1?$AA4?$AA?4?$AA0?$AA?2@
	push	OFFSET ??_C@_1BO@NKFMJPA@?$AAs?$AAt?$AAd?$AA?3?$AA?3?$AA_?$AAA?$AAl?$AAl?$AAo?$AAc?$AAa?$AAt?$AAe?$AA?$AA@
	push	OFFSET ??_C@_1CG@JNLFBNGN@?$AA?$CC?$AAi?$AAn?$AAv?$AAa?$AAl?$AAi?$AAd?$AA?5?$AAa?$AAr?$AAg?$AAu?$AAm?$AAe?$AAn?$AAt?$AA?$CC?$AA?$AA@
	call	__invalid_parameter
	add	esp, 20					; 00000014H
$LN5@Allocate:

; 91   : 		}
; 92   : 	return (static_cast<_Ty *>(_Ptr));

	mov	eax, DWORD PTR __Ptr$[ebp]
$LN9@Allocate:

; 93   : 	}

	add	esp, 16					; 00000010H
	cmp	ebp, esp
	call	__RTC_CheckEsp
	mov	esp, ebp
	pop	ebp
	ret	0
??$_Allocate@UVector2D@@@std@@YAPAUVector2D@@IPAU1@_N@Z ENDP ; std::_Allocate<Vector2D>
_TEXT	ENDS
; Function compile flags: /Odtp /RTCsu
; File d:\microsoft visual studio 14.0\vc\include\xmemory0
;	COMDAT ??$_Deallocate@U?$_List_node@UGraveRecord@GraveMarkers@@PAX@std@@@std@@YAXPAU?$_List_node@UGraveRecord@GraveMarkers@@PAX@0@I@Z
_TEXT	SEGMENT
__Ptr_container$1 = -16					; size = 4
__Ptr_ptr$2 = -12					; size = 4
__Ptr_user$3 = -8					; size = 4
__User_size$ = -4					; size = 4
__Ptr$ = 8						; size = 4
__Count$ = 12						; size = 4
??$_Deallocate@U?$_List_node@UGraveRecord@GraveMarkers@@PAX@std@@@std@@YAXPAU?$_List_node@UGraveRecord@GraveMarkers@@PAX@0@I@Z PROC ; std::_Deallocate<std::_List_node<GraveMarkers::GraveRecord,void *> >, COMDAT

; 98   : 	{	// deallocate storage for _Count elements of type _Ty

	push	ebp
	mov	ebp, esp
	sub	esp, 16					; 00000010H
	mov	eax, -858993460				; ccccccccH
	mov	DWORD PTR [ebp-16], eax
	mov	DWORD PTR [ebp-12], eax
	mov	DWORD PTR [ebp-8], eax
	mov	DWORD PTR [ebp-4], eax

; 99   :  #if defined(_M_IX86) || defined(_M_X64)
; 100  : 	_SCL_SECURE_ALWAYS_VALIDATE(_Count <= (size_t)(-1) / sizeof (_Ty));

	cmp	DWORD PTR __Count$[ebp], 134217727	; 07ffffffH
	jbe	SHORT $LN2@Deallocate
	mov	eax, OFFSET ??_C@_0CG@FHBDFCGK@_Count?5?$DM?$DN?5?$CIsize_t?$CJ?$CI?91?$CJ?5?1?5sizeof?5@
	test	eax, eax
	je	SHORT $LN10@Deallocate
	xor	ecx, ecx
	jne	SHORT $LN11@Deallocate
$LN10@Deallocate:
	push	OFFSET ??_C@_1FK@EJGLHMGC@?$AA?$CC?$AA_?$AAC?$AAo?$AAu?$AAn?$AAt?$AA?5?$AA?$DM?$AA?$DN?$AA?5?$AA?$CI?$AAs?$AAi?$AAz?$AAe?$AA_?$AAt?$AA?$CJ?$AA?$CI?$AA?9?$AA1?$AA?$CJ?$AA?5?$AA?1?$AA?5?$AAs?$AAi?$AAz?$AAe?$AAo?$AAf@
	push	OFFSET ??_C@_17CNPHIMPH@?$AA?$CF?$AAl?$AAs?$AA?$AA@
	push	0
	push	100					; 00000064H
	push	OFFSET ??_C@_1GI@MOGLCDAO@?$AAD?$AA?3?$AA?2?$AAM?$AAi?$AAc?$AAr?$AAo?$AAs?$AAo?$AAf?$AAt?$AA?5?$AAV?$AAi?$AAs?$AAu?$AAa?$AAl?$AA?5?$AAS?$AAt?$AAu?$AAd?$AAi?$AAo?$AA?5?$AA1?$AA4?$AA?4?$AA0?$AA?2@
	push	2
	call	__CrtDbgReportW
	add	esp, 24					; 00000018H
	cmp	eax, 1
	jne	SHORT $LN11@Deallocate
	int	3
$LN11@Deallocate:
	push	0
	push	100					; 00000064H
	push	OFFSET ??_C@_1GI@MOGLCDAO@?$AAD?$AA?3?$AA?2?$AAM?$AAi?$AAc?$AAr?$AAo?$AAs?$AAo?$AAf?$AAt?$AA?5?$AAV?$AAi?$AAs?$AAu?$AAa?$AAl?$AA?5?$AAS?$AAt?$AAu?$AAd?$AAi?$AAo?$AA?5?$AA1?$AA4?$AA?4?$AA0?$AA?2@
	push	OFFSET ??_C@_1CC@LOFJFFDB@?$AAs?$AAt?$AAd?$AA?3?$AA?3?$AA_?$AAD?$AAe?$AAa?$AAl?$AAl?$AAo?$AAc?$AAa?$AAt?$AAe?$AA?$AA@
	push	OFFSET ??_C@_1CG@JNLFBNGN@?$AA?$CC?$AAi?$AAn?$AAv?$AAa?$AAl?$AAi?$AAd?$AA?5?$AAa?$AAr?$AAg?$AAu?$AAm?$AAe?$AAn?$AAt?$AA?$CC?$AA?$AA@
	call	__invalid_parameter
	add	esp, 20					; 00000014H
$LN2@Deallocate:

; 101  : 	const size_t _User_size = _Count * sizeof (_Ty);

	mov	eax, DWORD PTR __Count$[ebp]
	shl	eax, 5
	mov	DWORD PTR __User_size$[ebp], eax

; 102  : 	if (_BIG_ALLOCATION_THRESHOLD <= _User_size)

	cmp	DWORD PTR __User_size$[ebp], 4096	; 00001000H
	jb	$LN3@Deallocate

; 103  : 		{	// deallocate large block
; 104  : 		const uintptr_t _Ptr_user = reinterpret_cast<uintptr_t>(_Ptr);

	mov	ecx, DWORD PTR __Ptr$[ebp]
	mov	DWORD PTR __Ptr_user$3[ebp], ecx

; 105  : 		_SCL_SECURE_ALWAYS_VALIDATE(

	mov	edx, DWORD PTR __Ptr_user$3[ebp]
	and	edx, 31					; 0000001fH
	je	SHORT $LN4@Deallocate
	mov	eax, OFFSET ??_C@_0DD@GBGGGKGG@?$CI_Ptr_user?5?$CG?5?$CI_BIG_ALLOCATION_AL@
	test	eax, eax
	je	SHORT $LN12@Deallocate
	xor	ecx, ecx
	jne	SHORT $LN13@Deallocate
$LN12@Deallocate:
	push	OFFSET ??_C@_1HE@CDMBFOKC@?$AA?$CC?$AA?$CI?$AA_?$AAP?$AAt?$AAr?$AA_?$AAu?$AAs?$AAe?$AAr?$AA?5?$AA?$CG?$AA?5?$AA?$CI?$AA_?$AAB?$AAI?$AAG?$AA_?$AAA?$AAL?$AAL?$AAO?$AAC?$AAA?$AAT?$AAI?$AAO?$AAN?$AA_?$AAA@
	push	OFFSET ??_C@_17CNPHIMPH@?$AA?$CF?$AAl?$AAs?$AA?$AA@
	push	0
	push	106					; 0000006aH
	push	OFFSET ??_C@_1GI@MOGLCDAO@?$AAD?$AA?3?$AA?2?$AAM?$AAi?$AAc?$AAr?$AAo?$AAs?$AAo?$AAf?$AAt?$AA?5?$AAV?$AAi?$AAs?$AAu?$AAa?$AAl?$AA?5?$AAS?$AAt?$AAu?$AAd?$AAi?$AAo?$AA?5?$AA1?$AA4?$AA?4?$AA0?$AA?2@
	push	2
	call	__CrtDbgReportW
	add	esp, 24					; 00000018H
	cmp	eax, 1
	jne	SHORT $LN13@Deallocate
	int	3
$LN13@Deallocate:
	push	0
	push	106					; 0000006aH
	push	OFFSET ??_C@_1GI@MOGLCDAO@?$AAD?$AA?3?$AA?2?$AAM?$AAi?$AAc?$AAr?$AAo?$AAs?$AAo?$AAf?$AAt?$AA?5?$AAV?$AAi?$AAs?$AAu?$AAa?$AAl?$AA?5?$AAS?$AAt?$AAu?$AAd?$AAi?$AAo?$AA?5?$AA1?$AA4?$AA?4?$AA0?$AA?2@
	push	OFFSET ??_C@_1CC@LOFJFFDB@?$AAs?$AAt?$AAd?$AA?3?$AA?3?$AA_?$AAD?$AAe?$AAa?$AAl?$AAl?$AAo?$AAc?$AAa?$AAt?$AAe?$AA?$AA@
	push	OFFSET ??_C@_1CG@JNLFBNGN@?$AA?$CC?$AAi?$AAn?$AAv?$AAa?$AAl?$AAi?$AAd?$AA?5?$AAa?$AAr?$AAg?$AAu?$AAm?$AAe?$AAn?$AAt?$AA?$CC?$AA?$AA@
	call	__invalid_parameter
	add	esp, 20					; 00000014H
$LN4@Deallocate:

; 106  : 			(_Ptr_user & (_BIG_ALLOCATION_ALIGNMENT - 1)) == 0);
; 107  : 		const uintptr_t _Ptr_ptr = _Ptr_user - sizeof(void *);

	mov	eax, DWORD PTR __Ptr_user$3[ebp]
	sub	eax, 4
	mov	DWORD PTR __Ptr_ptr$2[ebp], eax

; 108  : 		const uintptr_t _Ptr_container =
; 109  : 			*reinterpret_cast<uintptr_t *>(_Ptr_ptr);

	mov	ecx, DWORD PTR __Ptr_ptr$2[ebp]
	mov	edx, DWORD PTR [ecx]
	mov	DWORD PTR __Ptr_container$1[ebp], edx

; 110  : 
; 111  :  #ifdef _DEBUG
; 112  : 		// If the following asserts, it likely means that we are performing
; 113  : 		// an aligned delete on memory coming from an unaligned allocation.
; 114  : 		_SCL_SECURE_ALWAYS_VALIDATE(

	mov	eax, 4
	imul	ecx, eax, -1
	mov	edx, DWORD PTR __Ptr_ptr$2[ebp]
	cmp	DWORD PTR [edx+ecx], -84215046		; fafafafaH
	je	SHORT $LN5@Deallocate
	mov	eax, OFFSET ??_C@_0EI@NOJHEJCJ@reinterpret_cast?$DMuintptr_t?5?$CK?$DO?$CI_P@
	test	eax, eax
	je	SHORT $LN14@Deallocate
	xor	ecx, ecx
	jne	SHORT $LN15@Deallocate
$LN14@Deallocate:
	push	OFFSET ??_C@_1JO@EKLKIEHP@?$AA?$CC?$AAr?$AAe?$AAi?$AAn?$AAt?$AAe?$AAr?$AAp?$AAr?$AAe?$AAt?$AA_?$AAc?$AAa?$AAs?$AAt?$AA?$DM?$AAu?$AAi?$AAn?$AAt?$AAp?$AAt?$AAr?$AA_?$AAt?$AA?5?$AA?$CK?$AA?$DO?$AA?$CI?$AA_@
	push	OFFSET ??_C@_17CNPHIMPH@?$AA?$CF?$AAl?$AAs?$AA?$AA@
	push	0
	push	116					; 00000074H
	push	OFFSET ??_C@_1GI@MOGLCDAO@?$AAD?$AA?3?$AA?2?$AAM?$AAi?$AAc?$AAr?$AAo?$AAs?$AAo?$AAf?$AAt?$AA?5?$AAV?$AAi?$AAs?$AAu?$AAa?$AAl?$AA?5?$AAS?$AAt?$AAu?$AAd?$AAi?$AAo?$AA?5?$AA1?$AA4?$AA?4?$AA0?$AA?2@
	push	2
	call	__CrtDbgReportW
	add	esp, 24					; 00000018H
	cmp	eax, 1
	jne	SHORT $LN15@Deallocate
	int	3
$LN15@Deallocate:
	push	0
	push	116					; 00000074H
	push	OFFSET ??_C@_1GI@MOGLCDAO@?$AAD?$AA?3?$AA?2?$AAM?$AAi?$AAc?$AAr?$AAo?$AAs?$AAo?$AAf?$AAt?$AA?5?$AAV?$AAi?$AAs?$AAu?$AAa?$AAl?$AA?5?$AAS?$AAt?$AAu?$AAd?$AAi?$AAo?$AA?5?$AA1?$AA4?$AA?4?$AA0?$AA?2@
	push	OFFSET ??_C@_1CC@LOFJFFDB@?$AAs?$AAt?$AAd?$AA?3?$AA?3?$AA_?$AAD?$AAe?$AAa?$AAl?$AAl?$AAo?$AAc?$AAa?$AAt?$AAe?$AA?$AA@
	push	OFFSET ??_C@_1CG@JNLFBNGN@?$AA?$CC?$AAi?$AAn?$AAv?$AAa?$AAl?$AAi?$AAd?$AA?5?$AAa?$AAr?$AAg?$AAu?$AAm?$AAe?$AAn?$AAt?$AA?$CC?$AA?$AA@
	call	__invalid_parameter
	add	esp, 20					; 00000014H
$LN5@Deallocate:

; 115  : 			reinterpret_cast<uintptr_t *>(_Ptr_ptr)[-1] ==
; 116  : 				_BIG_ALLOCATION_SENTINEL);
; 117  :  #endif /* _DEBUG */
; 118  : 
; 119  : 		// Extra paranoia on aligned allocation/deallocation
; 120  : 		_SCL_SECURE_ALWAYS_VALIDATE(_Ptr_container < _Ptr_user);

	mov	eax, DWORD PTR __Ptr_container$1[ebp]
	cmp	eax, DWORD PTR __Ptr_user$3[ebp]
	jb	SHORT $LN6@Deallocate
	mov	ecx, OFFSET ??_C@_0BL@OCKMEJON@_Ptr_container?5?$DM?5_Ptr_user?$AA@
	test	ecx, ecx
	je	SHORT $LN16@Deallocate
	xor	edx, edx
	jne	SHORT $LN17@Deallocate
$LN16@Deallocate:
	push	OFFSET ??_C@_1EE@PDHAHDDC@?$AA?$CC?$AA_?$AAP?$AAt?$AAr?$AA_?$AAc?$AAo?$AAn?$AAt?$AAa?$AAi?$AAn?$AAe?$AAr?$AA?5?$AA?$DM?$AA?5?$AA_?$AAP?$AAt?$AAr?$AA_?$AAu?$AAs?$AAe?$AAr?$AA?$CC?$AA?5?$AA?$CG?$AA?$CG?$AA?5@
	push	OFFSET ??_C@_17CNPHIMPH@?$AA?$CF?$AAl?$AAs?$AA?$AA@
	push	0
	push	120					; 00000078H
	push	OFFSET ??_C@_1GI@MOGLCDAO@?$AAD?$AA?3?$AA?2?$AAM?$AAi?$AAc?$AAr?$AAo?$AAs?$AAo?$AAf?$AAt?$AA?5?$AAV?$AAi?$AAs?$AAu?$AAa?$AAl?$AA?5?$AAS?$AAt?$AAu?$AAd?$AAi?$AAo?$AA?5?$AA1?$AA4?$AA?4?$AA0?$AA?2@
	push	2
	call	__CrtDbgReportW
	add	esp, 24					; 00000018H
	cmp	eax, 1
	jne	SHORT $LN17@Deallocate
	int	3
$LN17@Deallocate:
	push	0
	push	120					; 00000078H
	push	OFFSET ??_C@_1GI@MOGLCDAO@?$AAD?$AA?3?$AA?2?$AAM?$AAi?$AAc?$AAr?$AAo?$AAs?$AAo?$AAf?$AAt?$AA?5?$AAV?$AAi?$AAs?$AAu?$AAa?$AAl?$AA?5?$AAS?$AAt?$AAu?$AAd?$AAi?$AAo?$AA?5?$AA1?$AA4?$AA?4?$AA0?$AA?2@
	push	OFFSET ??_C@_1CC@LOFJFFDB@?$AAs?$AAt?$AAd?$AA?3?$AA?3?$AA_?$AAD?$AAe?$AAa?$AAl?$AAl?$AAo?$AAc?$AAa?$AAt?$AAe?$AA?$AA@
	push	OFFSET ??_C@_1CG@JNLFBNGN@?$AA?$CC?$AAi?$AAn?$AAv?$AAa?$AAl?$AAi?$AAd?$AA?5?$AAa?$AAr?$AAg?$AAu?$AAm?$AAe?$AAn?$AAt?$AA?$CC?$AA?$AA@
	call	__invalid_parameter
	add	esp, 20					; 00000014H
$LN6@Deallocate:

; 121  : 
; 122  :  #ifdef _DEBUG
; 123  : 		_SCL_SECURE_ALWAYS_VALIDATE(2 * sizeof(void *)

	mov	ecx, DWORD PTR __Ptr_user$3[ebp]
	sub	ecx, DWORD PTR __Ptr_container$1[ebp]
	cmp	ecx, 8
	jae	SHORT $LN7@Deallocate
	mov	edx, OFFSET ??_C@_0DB@GLFJLNCE@2?5?$CK?5sizeof?$CIvoid?5?$CK?$CJ?5?$DM?$DN?5_Ptr_user?5@
	test	edx, edx
	je	SHORT $LN18@Deallocate
	xor	eax, eax
	jne	SHORT $LN19@Deallocate
$LN18@Deallocate:
	push	OFFSET ??_C@_1HA@NAPGMHAO@?$AA?$CC?$AA2?$AA?5?$AA?$CK?$AA?5?$AAs?$AAi?$AAz?$AAe?$AAo?$AAf?$AA?$CI?$AAv?$AAo?$AAi?$AAd?$AA?5?$AA?$CK?$AA?$CJ?$AA?5?$AA?$DM?$AA?$DN?$AA?5?$AA_?$AAP?$AAt?$AAr?$AA_?$AAu?$AAs?$AAe?$AAr@
	push	OFFSET ??_C@_17CNPHIMPH@?$AA?$CF?$AAl?$AAs?$AA?$AA@
	push	0
	push	124					; 0000007cH
	push	OFFSET ??_C@_1GI@MOGLCDAO@?$AAD?$AA?3?$AA?2?$AAM?$AAi?$AAc?$AAr?$AAo?$AAs?$AAo?$AAf?$AAt?$AA?5?$AAV?$AAi?$AAs?$AAu?$AAa?$AAl?$AA?5?$AAS?$AAt?$AAu?$AAd?$AAi?$AAo?$AA?5?$AA1?$AA4?$AA?4?$AA0?$AA?2@
	push	2
	call	__CrtDbgReportW
	add	esp, 24					; 00000018H
	cmp	eax, 1
	jne	SHORT $LN19@Deallocate
	int	3
$LN19@Deallocate:
	push	0
	push	124					; 0000007cH
	push	OFFSET ??_C@_1GI@MOGLCDAO@?$AAD?$AA?3?$AA?2?$AAM?$AAi?$AAc?$AAr?$AAo?$AAs?$AAo?$AAf?$AAt?$AA?5?$AAV?$AAi?$AAs?$AAu?$AAa?$AAl?$AA?5?$AAS?$AAt?$AAu?$AAd?$AAi?$AAo?$AA?5?$AA1?$AA4?$AA?4?$AA0?$AA?2@
	push	OFFSET ??_C@_1CC@LOFJFFDB@?$AAs?$AAt?$AAd?$AA?3?$AA?3?$AA_?$AAD?$AAe?$AAa?$AAl?$AAl?$AAo?$AAc?$AAa?$AAt?$AAe?$AA?$AA@
	push	OFFSET ??_C@_1CG@JNLFBNGN@?$AA?$CC?$AAi?$AAn?$AAv?$AAa?$AAl?$AAi?$AAd?$AA?5?$AAa?$AAr?$AAg?$AAu?$AAm?$AAe?$AAn?$AAt?$AA?$CC?$AA?$AA@
	call	__invalid_parameter
	add	esp, 20					; 00000014H
$LN7@Deallocate:

; 124  : 			<= _Ptr_user - _Ptr_container);
; 125  : 
; 126  :  #else /* _DEBUG */
; 127  : 		_SCL_SECURE_ALWAYS_VALIDATE(sizeof(void *)
; 128  : 			<= _Ptr_user - _Ptr_container);
; 129  :  #endif /* _DEBUG */
; 130  : 
; 131  : 		_SCL_SECURE_ALWAYS_VALIDATE(_Ptr_user - _Ptr_container

	mov	edx, DWORD PTR __Ptr_user$3[ebp]
	sub	edx, DWORD PTR __Ptr_container$1[ebp]
	cmp	edx, 39					; 00000027H
	jbe	SHORT $LN8@Deallocate
	mov	eax, OFFSET ??_C@_0CN@BLHJCAL@_Ptr_user?5?9?5_Ptr_container?5?$DM?$DN?5_N@
	test	eax, eax
	je	SHORT $LN20@Deallocate
	xor	ecx, ecx
	jne	SHORT $LN21@Deallocate
$LN20@Deallocate:
	push	OFFSET ??_C@_1GI@DHJGPFNI@?$AA?$CC?$AA_?$AAP?$AAt?$AAr?$AA_?$AAu?$AAs?$AAe?$AAr?$AA?5?$AA?9?$AA?5?$AA_?$AAP?$AAt?$AAr?$AA_?$AAc?$AAo?$AAn?$AAt?$AAa?$AAi?$AAn?$AAe?$AAr?$AA?5?$AA?$DM?$AA?$DN?$AA?5?$AA_@
	push	OFFSET ??_C@_17CNPHIMPH@?$AA?$CF?$AAl?$AAs?$AA?$AA@
	push	0
	push	132					; 00000084H
	push	OFFSET ??_C@_1GI@MOGLCDAO@?$AAD?$AA?3?$AA?2?$AAM?$AAi?$AAc?$AAr?$AAo?$AAs?$AAo?$AAf?$AAt?$AA?5?$AAV?$AAi?$AAs?$AAu?$AAa?$AAl?$AA?5?$AAS?$AAt?$AAu?$AAd?$AAi?$AAo?$AA?5?$AA1?$AA4?$AA?4?$AA0?$AA?2@
	push	2
	call	__CrtDbgReportW
	add	esp, 24					; 00000018H
	cmp	eax, 1
	jne	SHORT $LN21@Deallocate
	int	3
$LN21@Deallocate:
	push	0
	push	132					; 00000084H
	push	OFFSET ??_C@_1GI@MOGLCDAO@?$AAD?$AA?3?$AA?2?$AAM?$AAi?$AAc?$AAr?$AAo?$AAs?$AAo?$AAf?$AAt?$AA?5?$AAV?$AAi?$AAs?$AAu?$AAa?$AAl?$AA?5?$AAS?$AAt?$AAu?$AAd?$AAi?$AAo?$AA?5?$AA1?$AA4?$AA?4?$AA0?$AA?2@
	push	OFFSET ??_C@_1CC@LOFJFFDB@?$AAs?$AAt?$AAd?$AA?3?$AA?3?$AA_?$AAD?$AAe?$AAa?$AAl?$AAl?$AAo?$AAc?$AAa?$AAt?$AAe?$AA?$AA@
	push	OFFSET ??_C@_1CG@JNLFBNGN@?$AA?$CC?$AAi?$AAn?$AAv?$AAa?$AAl?$AAi?$AAd?$AA?5?$AAa?$AAr?$AAg?$AAu?$AAm?$AAe?$AAn?$AAt?$AA?$CC?$AA?$AA@
	call	__invalid_parameter
	add	esp, 20					; 00000014H
$LN8@Deallocate:

; 132  : 			<= _NON_USER_SIZE);
; 133  : 
; 134  : 		_Ptr = reinterpret_cast<_Ty *>(_Ptr_container);

	mov	eax, DWORD PTR __Ptr_container$1[ebp]
	mov	DWORD PTR __Ptr$[ebp], eax
$LN3@Deallocate:

; 135  : 		}
; 136  :  #endif /* defined(_M_IX86) || defined(_M_X64) */
; 137  : 
; 138  : 	::operator delete(_Ptr);

	mov	ecx, DWORD PTR __Ptr$[ebp]
	push	ecx
	call	??3@YAXPAX@Z				; operator delete
	add	esp, 4

; 139  : 	}

	add	esp, 16					; 00000010H
	cmp	ebp, esp
	call	__RTC_CheckEsp
	mov	esp, ebp
	pop	ebp
	ret	0
??$_Deallocate@U?$_List_node@UGraveRecord@GraveMarkers@@PAX@std@@@std@@YAXPAU?$_List_node@UGraveRecord@GraveMarkers@@PAX@0@I@Z ENDP ; std::_Deallocate<std::_List_node<GraveMarkers::GraveRecord,void *> >
_TEXT	ENDS
; Function compile flags: /Odtp /RTCsu
; File d:\microsoft visual studio 14.0\vc\include\xmemory0
;	COMDAT ??$?0D@?$allocator@U_Container_proxy@std@@@std@@QAE@ABV?$allocator@D@1@@Z
_TEXT	SEGMENT
_this$ = -4						; size = 4
___formal$ = 8						; size = 4
??$?0D@?$allocator@U_Container_proxy@std@@@std@@QAE@ABV?$allocator@D@1@@Z PROC ; std::allocator<std::_Container_proxy>::allocator<std::_Container_proxy><char>, COMDAT
; _this$ = ecx

; 629  : 		{	// construct from a related allocator (do nothing)

	push	ebp
	mov	ebp, esp
	push	ecx
	mov	DWORD PTR [ebp-4], -858993460		; ccccccccH
	mov	DWORD PTR _this$[ebp], ecx

; 630  : 		}

	mov	eax, DWORD PTR _this$[ebp]
	mov	esp, ebp
	pop	ebp
	ret	4
??$?0D@?$allocator@U_Container_proxy@std@@@std@@QAE@ABV?$allocator@D@1@@Z ENDP ; std::allocator<std::_Container_proxy>::allocator<std::_Container_proxy><char>
_TEXT	ENDS
; Function compile flags: /Odtp /RTCsu
; File d:\microsoft visual studio 14.0\vc\include\xmemory0
;	COMDAT ??$?0U?$_Wrap_alloc@V?$allocator@D@std@@@std@@@?$_Wrap_alloc@V?$allocator@U_Container_proxy@std@@@std@@@std@@QAE@AAU?$_Wrap_alloc@V?$allocator@D@std@@@1@@Z
_TEXT	SEGMENT
_this$ = -4						; size = 4
__Right$ = 8						; size = 4
??$?0U?$_Wrap_alloc@V?$allocator@D@std@@@std@@@?$_Wrap_alloc@V?$allocator@U_Container_proxy@std@@@std@@@std@@QAE@AAU?$_Wrap_alloc@V?$allocator@D@std@@@1@@Z PROC ; std::_Wrap_alloc<std::allocator<std::_Container_proxy> >::_Wrap_alloc<std::allocator<std::_Container_proxy> ><std::_Wrap_alloc<std::allocator<char> > >, COMDAT
; _this$ = ecx

; 876  : 		{	// construct from a related allocator

	push	ebp
	mov	ebp, esp
	push	ecx
	mov	DWORD PTR [ebp-4], -858993460		; ccccccccH
	mov	DWORD PTR _this$[ebp], ecx

; 875  : 		: _Mybase(_Right)

	mov	eax, DWORD PTR __Right$[ebp]
	push	eax
	mov	ecx, DWORD PTR _this$[ebp]
	call	??$?0D@?$allocator@U_Container_proxy@std@@@std@@QAE@ABV?$allocator@D@1@@Z ; std::allocator<std::_Container_proxy>::allocator<std::_Container_proxy><char>

; 877  : 		}

	mov	eax, DWORD PTR _this$[ebp]
	add	esp, 4
	cmp	ebp, esp
	call	__RTC_CheckEsp
	mov	esp, ebp
	pop	ebp
	ret	4
??$?0U?$_Wrap_alloc@V?$allocator@D@std@@@std@@@?$_Wrap_alloc@V?$allocator@U_Container_proxy@std@@@std@@@std@@QAE@AAU?$_Wrap_alloc@V?$allocator@D@std@@@1@@Z ENDP ; std::_Wrap_alloc<std::allocator<std::_Container_proxy> >::_Wrap_alloc<std::allocator<std::_Container_proxy> ><std::_Wrap_alloc<std::allocator<char> > >
_TEXT	ENDS
; Function compile flags: /Odtp /RTCsu
; File d:\microsoft visual studio 14.0\vc\include\xmemory0
;	COMDAT ??$_Destroy_range@U?$_Wrap_alloc@V?$allocator@UVector2D@@@std@@@std@@@std@@YAXPAUVector2D@@0AAU?$_Wrap_alloc@V?$allocator@UVector2D@@@std@@@0@@Z
_TEXT	SEGMENT
$T1 = -1						; size = 1
__First$ = 8						; size = 4
__Last$ = 12						; size = 4
__Al$ = 16						; size = 4
??$_Destroy_range@U?$_Wrap_alloc@V?$allocator@UVector2D@@@std@@@std@@@std@@YAXPAUVector2D@@0AAU?$_Wrap_alloc@V?$allocator@UVector2D@@@std@@@0@@Z PROC ; std::_Destroy_range<std::_Wrap_alloc<std::allocator<Vector2D> > >, COMDAT

; 185  : 	{	// destroy [_First, _Last)

	push	ebp
	mov	ebp, esp
	push	ecx
	mov	DWORD PTR [ebp-4], -858993460		; ccccccccH

; 186  : 	_Destroy_range(_First, _Last, _Al, _Ptr_cat(_First, _Last));

	mov	eax, DWORD PTR __Last$[ebp]
	push	eax
	mov	ecx, DWORD PTR __First$[ebp]
	push	ecx
	call	??$_Ptr_cat@UVector2D@@U1@@std@@YA?AU_Nonscalar_ptr_iterator_tag@0@PAUVector2D@@0@Z ; std::_Ptr_cat<Vector2D,Vector2D>
	add	esp, 8
	mov	BYTE PTR $T1[ebp], al
	movzx	edx, BYTE PTR $T1[ebp]
	push	edx
	mov	eax, DWORD PTR __Al$[ebp]
	push	eax
	mov	ecx, DWORD PTR __Last$[ebp]
	push	ecx
	mov	edx, DWORD PTR __First$[ebp]
	push	edx
	call	??$_Destroy_range@U?$_Wrap_alloc@V?$allocator@UVector2D@@@std@@@std@@@std@@YAXPAUVector2D@@0AAU?$_Wrap_alloc@V?$allocator@UVector2D@@@std@@@0@U_Nonscalar_ptr_iterator_tag@0@@Z ; std::_Destroy_range<std::_Wrap_alloc<std::allocator<Vector2D> > >
	add	esp, 16					; 00000010H

; 187  : 	}

	add	esp, 4
	cmp	ebp, esp
	call	__RTC_CheckEsp
	mov	esp, ebp
	pop	ebp
	ret	0
??$_Destroy_range@U?$_Wrap_alloc@V?$allocator@UVector2D@@@std@@@std@@@std@@YAXPAUVector2D@@0AAU?$_Wrap_alloc@V?$allocator@UVector2D@@@std@@@0@@Z ENDP ; std::_Destroy_range<std::_Wrap_alloc<std::allocator<Vector2D> > >
_TEXT	ENDS
; Function compile flags: /Odtp /RTCsu
; File d:\microsoft visual studio 14.0\vc\include\vector
;	COMDAT ??$_Umove@PAUVector2D@@@?$vector@UVector2D@@V?$allocator@UVector2D@@@std@@@std@@IAEPAUVector2D@@PAU2@00@Z
_TEXT	SEGMENT
_this$ = -4						; size = 4
__First$ = 8						; size = 4
__Last$ = 12						; size = 4
__Ptr$ = 16						; size = 4
??$_Umove@PAUVector2D@@@?$vector@UVector2D@@V?$allocator@UVector2D@@@std@@@std@@IAEPAUVector2D@@PAU2@00@Z PROC ; std::vector<Vector2D,std::allocator<Vector2D> >::_Umove<Vector2D *>, COMDAT
; _this$ = ecx

; 1677 : 		{	// move initializing [_First, _Last), using allocator

	push	ebp
	mov	ebp, esp
	push	ecx
	mov	DWORD PTR [ebp-4], -858993460		; ccccccccH
	mov	DWORD PTR _this$[ebp], ecx

; 1678 : 		return (_Uninitialized_move(_First, _Last,

	mov	ecx, DWORD PTR _this$[ebp]
	call	?_Getal@?$_Vector_alloc@U?$_Vec_base_types@UVector2D@@V?$allocator@UVector2D@@@std@@@std@@@std@@QAEAAU?$_Wrap_alloc@V?$allocator@UVector2D@@@std@@@2@XZ ; std::_Vector_alloc<std::_Vec_base_types<Vector2D,std::allocator<Vector2D> > >::_Getal
	push	eax
	mov	eax, DWORD PTR __Ptr$[ebp]
	push	eax
	mov	ecx, DWORD PTR __Last$[ebp]
	push	ecx
	mov	edx, DWORD PTR __First$[ebp]
	push	edx
	call	??$_Uninitialized_move@PAUVector2D@@PAU1@U?$_Wrap_alloc@V?$allocator@UVector2D@@@std@@@std@@@std@@YAPAUVector2D@@PAU1@00AAU?$_Wrap_alloc@V?$allocator@UVector2D@@@std@@@0@@Z ; std::_Uninitialized_move<Vector2D *,Vector2D *,std::_Wrap_alloc<std::allocator<Vector2D> > >
	add	esp, 16					; 00000010H

; 1679 : 			_Ptr, this->_Getal()));
; 1680 : 		}

	add	esp, 4
	cmp	ebp, esp
	call	__RTC_CheckEsp
	mov	esp, ebp
	pop	ebp
	ret	12					; 0000000cH
??$_Umove@PAUVector2D@@@?$vector@UVector2D@@V?$allocator@UVector2D@@@std@@@std@@IAEPAUVector2D@@PAU2@00@Z ENDP ; std::vector<Vector2D,std::allocator<Vector2D> >::_Umove<Vector2D *>
_TEXT	ENDS
; Function compile flags: /Odtp /RTCsu
; File d:\microsoft visual studio 14.0\vc\include\xmemory0
;	COMDAT ??$construct@U_Container_proxy@std@@U12@@?$_Wrap_alloc@V?$allocator@U_Container_proxy@std@@@std@@@std@@QAEXPAU_Container_proxy@1@$$QAU21@@Z
_TEXT	SEGMENT
_this$ = -4						; size = 4
__Ptr$ = 8						; size = 4
_<_Args_0>$ = 12					; size = 4
??$construct@U_Container_proxy@std@@U12@@?$_Wrap_alloc@V?$allocator@U_Container_proxy@std@@@std@@@std@@QAEXPAU_Container_proxy@1@$$QAU21@@Z PROC ; std::_Wrap_alloc<std::allocator<std::_Container_proxy> >::construct<std::_Container_proxy,std::_Container_proxy>, COMDAT
; _this$ = ecx

; 918  : 		{	// construct _Ty(_Types...) at _Ptr

	push	ebp
	mov	ebp, esp
	push	ecx
	mov	DWORD PTR [ebp-4], -858993460		; ccccccccH
	mov	DWORD PTR _this$[ebp], ecx

; 919  : 		_Mytraits::construct(*this, _Ptr,

	mov	eax, DWORD PTR _<_Args_0>$[ebp]
	push	eax
	call	??$forward@U_Container_proxy@std@@@std@@YA$$QAU_Container_proxy@0@AAU10@@Z ; std::forward<std::_Container_proxy>
	add	esp, 4
	push	eax
	mov	ecx, DWORD PTR __Ptr$[ebp]
	push	ecx
	mov	edx, DWORD PTR _this$[ebp]
	push	edx
	call	??$construct@U_Container_proxy@std@@U12@@?$allocator_traits@V?$allocator@U_Container_proxy@std@@@std@@@std@@SAXAAV?$allocator@U_Container_proxy@std@@@1@PAU_Container_proxy@1@$$QAU31@@Z ; std::allocator_traits<std::allocator<std::_Container_proxy> >::construct<std::_Container_proxy,std::_Container_proxy>
	add	esp, 12					; 0000000cH

; 920  : 			_STD forward<_Types>(_Args)...);
; 921  : 		}

	add	esp, 4
	cmp	ebp, esp
	call	__RTC_CheckEsp
	mov	esp, ebp
	pop	ebp
	ret	8
??$construct@U_Container_proxy@std@@U12@@?$_Wrap_alloc@V?$allocator@U_Container_proxy@std@@@std@@@std@@QAEXPAU_Container_proxy@1@$$QAU21@@Z ENDP ; std::_Wrap_alloc<std::allocator<std::_Container_proxy> >::construct<std::_Container_proxy,std::_Container_proxy>
_TEXT	ENDS
; Function compile flags: /Odtp /RTCsu
; File d:\microsoft visual studio 14.0\vc\include\xmemory0
;	COMDAT ??$?0UVector2D@@@?$allocator@U_Container_proxy@std@@@std@@QAE@ABV?$allocator@UVector2D@@@1@@Z
_TEXT	SEGMENT
_this$ = -4						; size = 4
___formal$ = 8						; size = 4
??$?0UVector2D@@@?$allocator@U_Container_proxy@std@@@std@@QAE@ABV?$allocator@UVector2D@@@1@@Z PROC ; std::allocator<std::_Container_proxy>::allocator<std::_Container_proxy><Vector2D>, COMDAT
; _this$ = ecx

; 629  : 		{	// construct from a related allocator (do nothing)

	push	ebp
	mov	ebp, esp
	push	ecx
	mov	DWORD PTR [ebp-4], -858993460		; ccccccccH
	mov	DWORD PTR _this$[ebp], ecx

; 630  : 		}

	mov	eax, DWORD PTR _this$[ebp]
	mov	esp, ebp
	pop	ebp
	ret	4
??$?0UVector2D@@@?$allocator@U_Container_proxy@std@@@std@@QAE@ABV?$allocator@UVector2D@@@1@@Z ENDP ; std::allocator<std::_Container_proxy>::allocator<std::_Container_proxy><Vector2D>
_TEXT	ENDS
; Function compile flags: /Odtp /RTCsu
; File d:\microsoft visual studio 14.0\vc\include\xmemory0
;	COMDAT ??$?0U?$_Wrap_alloc@V?$allocator@UVector2D@@@std@@@std@@@?$_Wrap_alloc@V?$allocator@U_Container_proxy@std@@@std@@@std@@QAE@AAU?$_Wrap_alloc@V?$allocator@UVector2D@@@std@@@1@@Z
_TEXT	SEGMENT
_this$ = -4						; size = 4
__Right$ = 8						; size = 4
??$?0U?$_Wrap_alloc@V?$allocator@UVector2D@@@std@@@std@@@?$_Wrap_alloc@V?$allocator@U_Container_proxy@std@@@std@@@std@@QAE@AAU?$_Wrap_alloc@V?$allocator@UVector2D@@@std@@@1@@Z PROC ; std::_Wrap_alloc<std::allocator<std::_Container_proxy> >::_Wrap_alloc<std::allocator<std::_Container_proxy> ><std::_Wrap_alloc<std::allocator<Vector2D> > >, COMDAT
; _this$ = ecx

; 876  : 		{	// construct from a related allocator

	push	ebp
	mov	ebp, esp
	push	ecx
	mov	DWORD PTR [ebp-4], -858993460		; ccccccccH
	mov	DWORD PTR _this$[ebp], ecx

; 875  : 		: _Mybase(_Right)

	mov	eax, DWORD PTR __Right$[ebp]
	push	eax
	mov	ecx, DWORD PTR _this$[ebp]
	call	??$?0UVector2D@@@?$allocator@U_Container_proxy@std@@@std@@QAE@ABV?$allocator@UVector2D@@@1@@Z ; std::allocator<std::_Container_proxy>::allocator<std::_Container_proxy><Vector2D>

; 877  : 		}

	mov	eax, DWORD PTR _this$[ebp]
	add	esp, 4
	cmp	ebp, esp
	call	__RTC_CheckEsp
	mov	esp, ebp
	pop	ebp
	ret	4
??$?0U?$_Wrap_alloc@V?$allocator@UVector2D@@@std@@@std@@@?$_Wrap_alloc@V?$allocator@U_Container_proxy@std@@@std@@@std@@QAE@AAU?$_Wrap_alloc@V?$allocator@UVector2D@@@std@@@1@@Z ENDP ; std::_Wrap_alloc<std::allocator<std::_Container_proxy> >::_Wrap_alloc<std::allocator<std::_Container_proxy> ><std::_Wrap_alloc<std::allocator<Vector2D> > >
_TEXT	ENDS
; Function compile flags: /Odtp /RTCsu
; File d:\microsoft visual studio 14.0\vc\include\xutility
;	COMDAT ??$?0ABV?$allocator@UGraveRecord@GraveMarkers@@@std@@$$V@?$_Compressed_pair@U?$_Wrap_alloc@V?$allocator@U?$_List_node@UGraveRecord@GraveMarkers@@PAX@std@@@std@@@std@@V?$_List_val@U?$_List_simple_types@UGraveRecord@GraveMarkers@@@std@@@2@$00@std@@QAE@U_One_then_variadic_args_t@1@ABV?$allocator@UGraveRecord@GraveMarkers@@@1@@Z
_TEXT	SEGMENT
_this$ = -4						; size = 4
___formal$ = 8						; size = 1
__Val1$ = 12						; size = 4
??$?0ABV?$allocator@UGraveRecord@GraveMarkers@@@std@@$$V@?$_Compressed_pair@U?$_Wrap_alloc@V?$allocator@U?$_List_node@UGraveRecord@GraveMarkers@@PAX@std@@@std@@@std@@V?$_List_val@U?$_List_simple_types@UGraveRecord@GraveMarkers@@@std@@@2@$00@std@@QAE@U_One_then_variadic_args_t@1@ABV?$allocator@UGraveRecord@GraveMarkers@@@1@@Z PROC ; std::_Compressed_pair<std::_Wrap_alloc<std::allocator<std::_List_node<GraveMarkers::GraveRecord,void *> > >,std::_List_val<std::_List_simple_types<GraveMarkers::GraveRecord> >,1>::_Compressed_pair<std::_Wrap_alloc<std::allocator<std::_List_node<GraveMarkers::GraveRecord,void *> > >,std::_List_val<std::_List_simple_types<GraveMarkers::GraveRecord> >,1><std::allocator<GraveMarkers::GraveRecord> const &>, COMDAT
; _this$ = ecx

; 288  : 		{	// construct from forwarded values

	push	ebp
	mov	ebp, esp
	push	ecx
	mov	DWORD PTR [ebp-4], -858993460		; ccccccccH
	mov	DWORD PTR _this$[ebp], ecx

; 286  : 		: _Ty1(_STD forward<_Other1>(_Val1)),

	mov	eax, DWORD PTR __Val1$[ebp]
	push	eax
	call	??$forward@ABV?$allocator@UGraveRecord@GraveMarkers@@@std@@@std@@YAABV?$allocator@UGraveRecord@GraveMarkers@@@0@ABV10@@Z ; std::forward<std::allocator<GraveMarkers::GraveRecord> const &>
	add	esp, 4
	push	eax
	mov	ecx, DWORD PTR _this$[ebp]
	call	??$?0V?$allocator@UGraveRecord@GraveMarkers@@@std@@@?$_Wrap_alloc@V?$allocator@U?$_List_node@UGraveRecord@GraveMarkers@@PAX@std@@@std@@@std@@QAE@ABV?$allocator@UGraveRecord@GraveMarkers@@@1@@Z ; std::_Wrap_alloc<std::allocator<std::_List_node<GraveMarkers::GraveRecord,void *> > >::_Wrap_alloc<std::allocator<std::_List_node<GraveMarkers::GraveRecord,void *> > ><std::allocator<GraveMarkers::GraveRecord> >

; 287  : 			_Myval2(_STD forward<_Other2>(_Val2)...)

	mov	ecx, DWORD PTR _this$[ebp]
	call	??0?$_List_val@U?$_List_simple_types@UGraveRecord@GraveMarkers@@@std@@@std@@QAE@XZ ; std::_List_val<std::_List_simple_types<GraveMarkers::GraveRecord> >::_List_val<std::_List_simple_types<GraveMarkers::GraveRecord> >

; 289  : 		}

	mov	eax, DWORD PTR _this$[ebp]
	add	esp, 4
	cmp	ebp, esp
	call	__RTC_CheckEsp
	mov	esp, ebp
	pop	ebp
	ret	8
??$?0ABV?$allocator@UGraveRecord@GraveMarkers@@@std@@$$V@?$_Compressed_pair@U?$_Wrap_alloc@V?$allocator@U?$_List_node@UGraveRecord@GraveMarkers@@PAX@std@@@std@@@std@@V?$_List_val@U?$_List_simple_types@UGraveRecord@GraveMarkers@@@std@@@2@$00@std@@QAE@U_One_then_variadic_args_t@1@ABV?$allocator@UGraveRecord@GraveMarkers@@@1@@Z ENDP ; std::_Compressed_pair<std::_Wrap_alloc<std::allocator<std::_List_node<GraveMarkers::GraveRecord,void *> > >,std::_List_val<std::_List_simple_types<GraveMarkers::GraveRecord> >,1>::_Compressed_pair<std::_Wrap_alloc<std::allocator<std::_List_node<GraveMarkers::GraveRecord,void *> > >,std::_List_val<std::_List_simple_types<GraveMarkers::GraveRecord> >,1><std::allocator<GraveMarkers::GraveRecord> const &>
_TEXT	ENDS
; Function compile flags: /Odtp /RTCsu
; File d:\microsoft visual studio 14.0\vc\include\xmemory0
;	COMDAT ??$destroy@U_Container_proxy@std@@@?$_Wrap_alloc@V?$allocator@U_Container_proxy@std@@@std@@@std@@QAEXPAU_Container_proxy@1@@Z
_TEXT	SEGMENT
_this$ = -4						; size = 4
__Ptr$ = 8						; size = 4
??$destroy@U_Container_proxy@std@@@?$_Wrap_alloc@V?$allocator@U_Container_proxy@std@@@std@@@std@@QAEXPAU_Container_proxy@1@@Z PROC ; std::_Wrap_alloc<std::allocator<std::_Container_proxy> >::destroy<std::_Container_proxy>, COMDAT
; _this$ = ecx

; 926  : 		{	// destroy object at _Ptr

	push	ebp
	mov	ebp, esp
	push	ecx
	mov	DWORD PTR [ebp-4], -858993460		; ccccccccH
	mov	DWORD PTR _this$[ebp], ecx

; 927  : 		_Mytraits::destroy(*this, _Ptr);

	mov	eax, DWORD PTR __Ptr$[ebp]
	push	eax
	mov	ecx, DWORD PTR _this$[ebp]
	push	ecx
	call	??$destroy@U_Container_proxy@std@@@?$allocator_traits@V?$allocator@U_Container_proxy@std@@@std@@@std@@SAXAAV?$allocator@U_Container_proxy@std@@@1@PAU_Container_proxy@1@@Z ; std::allocator_traits<std::allocator<std::_Container_proxy> >::destroy<std::_Container_proxy>
	add	esp, 8

; 928  : 		}

	add	esp, 4
	cmp	ebp, esp
	call	__RTC_CheckEsp
	mov	esp, ebp
	pop	ebp
	ret	4
??$destroy@U_Container_proxy@std@@@?$_Wrap_alloc@V?$allocator@U_Container_proxy@std@@@std@@@std@@QAEXPAU_Container_proxy@1@@Z ENDP ; std::_Wrap_alloc<std::allocator<std::_Container_proxy> >::destroy<std::_Container_proxy>
_TEXT	ENDS
; Function compile flags: /Odtp /RTCsu
; File d:\microsoft visual studio 14.0\vc\include\xmemory0
;	COMDAT ??$?0U?$_List_node@UGraveRecord@GraveMarkers@@PAX@std@@@?$allocator@U_Container_proxy@std@@@std@@QAE@ABV?$allocator@U?$_List_node@UGraveRecord@GraveMarkers@@PAX@std@@@1@@Z
_TEXT	SEGMENT
_this$ = -4						; size = 4
___formal$ = 8						; size = 4
??$?0U?$_List_node@UGraveRecord@GraveMarkers@@PAX@std@@@?$allocator@U_Container_proxy@std@@@std@@QAE@ABV?$allocator@U?$_List_node@UGraveRecord@GraveMarkers@@PAX@std@@@1@@Z PROC ; std::allocator<std::_Container_proxy>::allocator<std::_Container_proxy><std::_List_node<GraveMarkers::GraveRecord,void *> >, COMDAT
; _this$ = ecx

; 629  : 		{	// construct from a related allocator (do nothing)

	push	ebp
	mov	ebp, esp
	push	ecx
	mov	DWORD PTR [ebp-4], -858993460		; ccccccccH
	mov	DWORD PTR _this$[ebp], ecx

; 630  : 		}

	mov	eax, DWORD PTR _this$[ebp]
	mov	esp, ebp
	pop	ebp
	ret	4
??$?0U?$_List_node@UGraveRecord@GraveMarkers@@PAX@std@@@?$allocator@U_Container_proxy@std@@@std@@QAE@ABV?$allocator@U?$_List_node@UGraveRecord@GraveMarkers@@PAX@std@@@1@@Z ENDP ; std::allocator<std::_Container_proxy>::allocator<std::_Container_proxy><std::_List_node<GraveMarkers::GraveRecord,void *> >
_TEXT	ENDS
; Function compile flags: /Odtp /RTCsu
; File d:\microsoft visual studio 14.0\vc\include\xmemory0
;	COMDAT ??$?0U?$_Wrap_alloc@V?$allocator@U?$_List_node@UGraveRecord@GraveMarkers@@PAX@std@@@std@@@std@@@?$_Wrap_alloc@V?$allocator@U_Container_proxy@std@@@std@@@std@@QAE@AAU?$_Wrap_alloc@V?$allocator@U?$_List_node@UGraveRecord@GraveMarkers@@PAX@std@@@std@@@1@@Z
_TEXT	SEGMENT
_this$ = -4						; size = 4
__Right$ = 8						; size = 4
??$?0U?$_Wrap_alloc@V?$allocator@U?$_List_node@UGraveRecord@GraveMarkers@@PAX@std@@@std@@@std@@@?$_Wrap_alloc@V?$allocator@U_Container_proxy@std@@@std@@@std@@QAE@AAU?$_Wrap_alloc@V?$allocator@U?$_List_node@UGraveRecord@GraveMarkers@@PAX@std@@@std@@@1@@Z PROC ; std::_Wrap_alloc<std::allocator<std::_Container_proxy> >::_Wrap_alloc<std::allocator<std::_Container_proxy> ><std::_Wrap_alloc<std::allocator<std::_List_node<GraveMarkers::GraveRecord,void *> > > >, COMDAT
; _this$ = ecx

; 876  : 		{	// construct from a related allocator

	push	ebp
	mov	ebp, esp
	push	ecx
	mov	DWORD PTR [ebp-4], -858993460		; ccccccccH
	mov	DWORD PTR _this$[ebp], ecx

; 875  : 		: _Mybase(_Right)

	mov	eax, DWORD PTR __Right$[ebp]
	push	eax
	mov	ecx, DWORD PTR _this$[ebp]
	call	??$?0U?$_List_node@UGraveRecord@GraveMarkers@@PAX@std@@@?$allocator@U_Container_proxy@std@@@std@@QAE@ABV?$allocator@U?$_List_node@UGraveRecord@GraveMarkers@@PAX@std@@@1@@Z ; std::allocator<std::_Container_proxy>::allocator<std::_Container_proxy><std::_List_node<GraveMarkers::GraveRecord,void *> >

; 877  : 		}

	mov	eax, DWORD PTR _this$[ebp]
	add	esp, 4
	cmp	ebp, esp
	call	__RTC_CheckEsp
	mov	esp, ebp
	pop	ebp
	ret	4
??$?0U?$_Wrap_alloc@V?$allocator@U?$_List_node@UGraveRecord@GraveMarkers@@PAX@std@@@std@@@std@@@?$_Wrap_alloc@V?$allocator@U_Container_proxy@std@@@std@@@std@@QAE@AAU?$_Wrap_alloc@V?$allocator@U?$_List_node@UGraveRecord@GraveMarkers@@PAX@std@@@std@@@1@@Z ENDP ; std::_Wrap_alloc<std::allocator<std::_Container_proxy> >::_Wrap_alloc<std::allocator<std::_Container_proxy> ><std::_Wrap_alloc<std::allocator<std::_List_node<GraveMarkers::GraveRecord,void *> > > >
_TEXT	ENDS
; Function compile flags: /Odtp /RTCsu
; File d:\microsoft visual studio 14.0\vc\include\xmemory0
;	COMDAT ?deallocate@?$_Wrap_alloc@V?$allocator@U_Container_proxy@std@@@std@@@std@@QAEXPAU_Container_proxy@2@I@Z
_TEXT	SEGMENT
_this$ = -4						; size = 4
__Ptr$ = 8						; size = 4
__Count$ = 12						; size = 4
?deallocate@?$_Wrap_alloc@V?$allocator@U_Container_proxy@std@@@std@@@std@@QAEXPAU_Container_proxy@2@I@Z PROC ; std::_Wrap_alloc<std::allocator<std::_Container_proxy> >::deallocate, COMDAT
; _this$ = ecx

; 910  : 		{	// deallocate object at _Ptr, ignore size

	push	ebp
	mov	ebp, esp
	push	ecx
	mov	DWORD PTR [ebp-4], -858993460		; ccccccccH
	mov	DWORD PTR _this$[ebp], ecx

; 911  : 		_Mybase::deallocate(_Ptr, _Count);

	mov	eax, DWORD PTR __Count$[ebp]
	push	eax
	mov	ecx, DWORD PTR __Ptr$[ebp]
	push	ecx
	mov	ecx, DWORD PTR _this$[ebp]
	call	?deallocate@?$allocator@U_Container_proxy@std@@@std@@QAEXPAU_Container_proxy@2@I@Z ; std::allocator<std::_Container_proxy>::deallocate

; 912  : 		}

	add	esp, 4
	cmp	ebp, esp
	call	__RTC_CheckEsp
	mov	esp, ebp
	pop	ebp
	ret	8
?deallocate@?$_Wrap_alloc@V?$allocator@U_Container_proxy@std@@@std@@@std@@QAEXPAU_Container_proxy@2@I@Z ENDP ; std::_Wrap_alloc<std::allocator<std::_Container_proxy> >::deallocate
_TEXT	ENDS
; Function compile flags: /Odtp /RTCsu
; File d:\microsoft visual studio 14.0\vc\include\xmemory0
;	COMDAT ?allocate@?$_Wrap_alloc@V?$allocator@U_Container_proxy@std@@@std@@@std@@QAEPAU_Container_proxy@2@I@Z
_TEXT	SEGMENT
_this$ = -4						; size = 4
__Count$ = 8						; size = 4
?allocate@?$_Wrap_alloc@V?$allocator@U_Container_proxy@std@@@std@@@std@@QAEPAU_Container_proxy@2@I@Z PROC ; std::_Wrap_alloc<std::allocator<std::_Container_proxy> >::allocate, COMDAT
; _this$ = ecx

; 899  : 		{	// allocate array of _Count elements

	push	ebp
	mov	ebp, esp
	push	ecx
	mov	DWORD PTR [ebp-4], -858993460		; ccccccccH
	mov	DWORD PTR _this$[ebp], ecx

; 900  : 		return (_Mybase::allocate(_Count));

	mov	eax, DWORD PTR __Count$[ebp]
	push	eax
	mov	ecx, DWORD PTR _this$[ebp]
	call	?allocate@?$allocator@U_Container_proxy@std@@@std@@QAEPAU_Container_proxy@2@I@Z ; std::allocator<std::_Container_proxy>::allocate

; 901  : 		}

	add	esp, 4
	cmp	ebp, esp
	call	__RTC_CheckEsp
	mov	esp, ebp
	pop	ebp
	ret	4
?allocate@?$_Wrap_alloc@V?$allocator@U_Container_proxy@std@@@std@@@std@@QAEPAU_Container_proxy@2@I@Z ENDP ; std::_Wrap_alloc<std::allocator<std::_Container_proxy> >::allocate
_TEXT	ENDS
; Function compile flags: /Odtp /RTCsu
; File d:\microsoft visual studio 14.0\vc\include\xmemory0
;	COMDAT ?allocate@?$allocator@U_Container_proxy@std@@@std@@QAEPAU_Container_proxy@2@I@Z
_TEXT	SEGMENT
_this$ = -4						; size = 4
__Count$ = 8						; size = 4
?allocate@?$allocator@U_Container_proxy@std@@@std@@QAEPAU_Container_proxy@2@I@Z PROC ; std::allocator<std::_Container_proxy>::allocate, COMDAT
; _this$ = ecx

; 644  : 		{	// allocate array of _Count elements

	push	ebp
	mov	ebp, esp
	push	ecx
	mov	DWORD PTR [ebp-4], -858993460		; ccccccccH
	mov	DWORD PTR _this$[ebp], ecx

; 645  : 		return (_Allocate(_Count, (pointer)0));

	push	1
	push	0
	mov	eax, DWORD PTR __Count$[ebp]
	push	eax
	call	??$_Allocate@U_Container_proxy@std@@@std@@YAPAU_Container_proxy@0@IPAU10@_N@Z ; std::_Allocate<std::_Container_proxy>
	add	esp, 12					; 0000000cH

; 646  : 		}

	add	esp, 4
	cmp	ebp, esp
	call	__RTC_CheckEsp
	mov	esp, ebp
	pop	ebp
	ret	4
?allocate@?$allocator@U_Container_proxy@std@@@std@@QAEPAU_Container_proxy@2@I@Z ENDP ; std::allocator<std::_Container_proxy>::allocate
_TEXT	ENDS
; Function compile flags: /Odtp /RTCsu
; File d:\microsoft visual studio 14.0\vc\include\xmemory0
;	COMDAT ?deallocate@?$allocator@U_Container_proxy@std@@@std@@QAEXPAU_Container_proxy@2@I@Z
_TEXT	SEGMENT
_this$ = -4						; size = 4
__Ptr$ = 8						; size = 4
__Count$ = 12						; size = 4
?deallocate@?$allocator@U_Container_proxy@std@@@std@@QAEXPAU_Container_proxy@2@I@Z PROC ; std::allocator<std::_Container_proxy>::deallocate, COMDAT
; _this$ = ecx

; 639  : 		{	// deallocate object at _Ptr

	push	ebp
	mov	ebp, esp
	push	ecx
	mov	DWORD PTR [ebp-4], -858993460		; ccccccccH
	mov	DWORD PTR _this$[ebp], ecx

; 640  : 		_Deallocate(_Ptr, _Count);

	mov	eax, DWORD PTR __Count$[ebp]
	push	eax
	mov	ecx, DWORD PTR __Ptr$[ebp]
	push	ecx
	call	??$_Deallocate@U_Container_proxy@std@@@std@@YAXPAU_Container_proxy@0@I@Z ; std::_Deallocate<std::_Container_proxy>
	add	esp, 8

; 641  : 		}

	add	esp, 4
	cmp	ebp, esp
	call	__RTC_CheckEsp
	mov	esp, ebp
	pop	ebp
	ret	8
?deallocate@?$allocator@U_Container_proxy@std@@@std@@QAEXPAU_Container_proxy@2@I@Z ENDP ; std::allocator<std::_Container_proxy>::deallocate
_TEXT	ENDS
; Function compile flags: /Odtp /RTCsu
; File d:\microsoft visual studio 14.0\vc\include\xmemory0
;	COMDAT ??$construct@PADAAPAD@?$_Wrap_alloc@V?$allocator@D@std@@@std@@QAEXPAPADAAPAD@Z
_TEXT	SEGMENT
_this$ = -4						; size = 4
__Ptr$ = 8						; size = 4
_<_Args_0>$ = 12					; size = 4
??$construct@PADAAPAD@?$_Wrap_alloc@V?$allocator@D@std@@@std@@QAEXPAPADAAPAD@Z PROC ; std::_Wrap_alloc<std::allocator<char> >::construct<char *,char * &>, COMDAT
; _this$ = ecx

; 918  : 		{	// construct _Ty(_Types...) at _Ptr

	push	ebp
	mov	ebp, esp
	push	ecx
	mov	DWORD PTR [ebp-4], -858993460		; ccccccccH
	mov	DWORD PTR _this$[ebp], ecx

; 919  : 		_Mytraits::construct(*this, _Ptr,

	mov	eax, DWORD PTR _<_Args_0>$[ebp]
	push	eax
	call	??$forward@AAPAD@std@@YAAAPADAAPAD@Z	; std::forward<char * &>
	add	esp, 4
	push	eax
	mov	ecx, DWORD PTR __Ptr$[ebp]
	push	ecx
	mov	edx, DWORD PTR _this$[ebp]
	push	edx
	call	??$construct@PADAAPAD@?$allocator_traits@V?$allocator@D@std@@@std@@SAXAAV?$allocator@D@1@PAPADAAPAD@Z ; std::allocator_traits<std::allocator<char> >::construct<char *,char * &>
	add	esp, 12					; 0000000cH

; 920  : 			_STD forward<_Types>(_Args)...);
; 921  : 		}

	add	esp, 4
	cmp	ebp, esp
	call	__RTC_CheckEsp
	mov	esp, ebp
	pop	ebp
	ret	8
??$construct@PADAAPAD@?$_Wrap_alloc@V?$allocator@D@std@@@std@@QAEXPAPADAAPAD@Z ENDP ; std::_Wrap_alloc<std::allocator<char> >::construct<char *,char * &>
_TEXT	ENDS
; Function compile flags: /Odtp /RTCsu
; File d:\microsoft visual studio 14.0\vc\include\xutility
;	COMDAT ??$_Debug_pointer_if@$$CBD@std@@YAX_NPBDPB_WI@Z
_TEXT	SEGMENT
__Test$ = 8						; size = 1
__Ptr$ = 12						; size = 4
__File$ = 16						; size = 4
__Line$ = 20						; size = 4
??$_Debug_pointer_if@$$CBD@std@@YAX_NPBDPB_WI@Z PROC	; std::_Debug_pointer_if<char const >, COMDAT

; 774  : 	{	// conditionally test pointer for non-singularity, pointers

	push	ebp
	mov	ebp, esp

; 775  : 	if (_Test && _Ptr == 0)

	movzx	eax, BYTE PTR __Test$[ebp]
	test	eax, eax
	je	SHORT $LN1@Debug_poin
	cmp	DWORD PTR __Ptr$[ebp], 0
	jne	SHORT $LN1@Debug_poin

; 776  : 		_DEBUG_ERROR2("invalid null pointer", _File, _Line);

	mov	ecx, DWORD PTR __Line$[ebp]
	push	ecx
	mov	edx, DWORD PTR __File$[ebp]
	push	edx
	push	OFFSET ??_C@_1CK@EOPGIILJ@?$AAi?$AAn?$AAv?$AAa?$AAl?$AAi?$AAd?$AA?5?$AAn?$AAu?$AAl?$AAl?$AA?5?$AAp?$AAo?$AAi?$AAn?$AAt?$AAe?$AAr?$AA?$AA@
	call	?_Debug_message@std@@YAXPB_W0I@Z	; std::_Debug_message
	add	esp, 12					; 0000000cH
$LN1@Debug_poin:

; 777  : 	}

	cmp	ebp, esp
	call	__RTC_CheckEsp
	pop	ebp
	ret	0
??$_Debug_pointer_if@$$CBD@std@@YAX_NPBDPB_WI@Z ENDP	; std::_Debug_pointer_if<char const >
_TEXT	ENDS
; Function compile flags: /Odtp /RTCsu
; File d:\microsoft visual studio 14.0\vc\include\xstddef
;	COMDAT ??$addressof@D@std@@YAPADAAD@Z
_TEXT	SEGMENT
$T1 = -2						; size = 1
__Val$ = 8						; size = 4
??$addressof@D@std@@YAPADAAD@Z PROC			; std::addressof<char>, COMDAT

; 699  : 	{	// return address of _Val

	push	ebp
	mov	ebp, esp
	push	ecx
	mov	DWORD PTR [ebp-4], -858993460		; ccccccccH

; 700  : 	return (_Addressof(_Val, is_function<_Ty>()));

	movzx	eax, BYTE PTR $T1[ebp]
	push	eax
	mov	ecx, DWORD PTR __Val$[ebp]
	push	ecx
	call	??$_Addressof@D@std@@YAPADAADU?$integral_constant@_N$0A@@0@@Z ; std::_Addressof<char>
	add	esp, 8

; 701  : 	}

	add	esp, 4
	cmp	ebp, esp
	call	__RTC_CheckEsp
	mov	esp, ebp
	pop	ebp
	ret	0
??$addressof@D@std@@YAPADAAD@Z ENDP			; std::addressof<char>
_TEXT	ENDS
; Function compile flags: /Odtp /RTCsu
; File d:\microsoft visual studio 14.0\vc\include\xmemory0
;	COMDAT ??$destroy@PAD@?$_Wrap_alloc@V?$allocator@D@std@@@std@@QAEXPAPAD@Z
_TEXT	SEGMENT
_this$ = -4						; size = 4
__Ptr$ = 8						; size = 4
??$destroy@PAD@?$_Wrap_alloc@V?$allocator@D@std@@@std@@QAEXPAPAD@Z PROC ; std::_Wrap_alloc<std::allocator<char> >::destroy<char *>, COMDAT
; _this$ = ecx

; 926  : 		{	// destroy object at _Ptr

	push	ebp
	mov	ebp, esp
	push	ecx
	mov	DWORD PTR [ebp-4], -858993460		; ccccccccH
	mov	DWORD PTR _this$[ebp], ecx

; 927  : 		_Mytraits::destroy(*this, _Ptr);

	mov	eax, DWORD PTR __Ptr$[ebp]
	push	eax
	mov	ecx, DWORD PTR _this$[ebp]
	push	ecx
	call	??$destroy@PAD@?$allocator_traits@V?$allocator@D@std@@@std@@SAXAAV?$allocator@D@1@PAPAD@Z ; std::allocator_traits<std::allocator<char> >::destroy<char *>
	add	esp, 8

; 928  : 		}

	add	esp, 4
	cmp	ebp, esp
	call	__RTC_CheckEsp
	mov	esp, ebp
	pop	ebp
	ret	4
??$destroy@PAD@?$_Wrap_alloc@V?$allocator@D@std@@@std@@QAEXPAPAD@Z ENDP ; std::_Wrap_alloc<std::allocator<char> >::destroy<char *>
_TEXT	ENDS
; Function compile flags: /Odtp /RTCsu
; File d:\microsoft visual studio 14.0\vc\include\xutility
;	COMDAT ??$?0ABV?$allocator@D@std@@$$V@?$_Compressed_pair@U?$_Wrap_alloc@V?$allocator@D@std@@@std@@V?$_String_val@U?$_Simple_types@D@std@@@2@$00@std@@QAE@U_One_then_variadic_args_t@1@ABV?$allocator@D@1@@Z
_TEXT	SEGMENT
_this$ = -4						; size = 4
___formal$ = 8						; size = 1
__Val1$ = 12						; size = 4
??$?0ABV?$allocator@D@std@@$$V@?$_Compressed_pair@U?$_Wrap_alloc@V?$allocator@D@std@@@std@@V?$_String_val@U?$_Simple_types@D@std@@@2@$00@std@@QAE@U_One_then_variadic_args_t@1@ABV?$allocator@D@1@@Z PROC ; std::_Compressed_pair<std::_Wrap_alloc<std::allocator<char> >,std::_String_val<std::_Simple_types<char> >,1>::_Compressed_pair<std::_Wrap_alloc<std::allocator<char> >,std::_String_val<std::_Simple_types<char> >,1><std::allocator<char> const &>, COMDAT
; _this$ = ecx

; 288  : 		{	// construct from forwarded values

	push	ebp
	mov	ebp, esp
	push	ecx
	mov	DWORD PTR [ebp-4], -858993460		; ccccccccH
	mov	DWORD PTR _this$[ebp], ecx

; 286  : 		: _Ty1(_STD forward<_Other1>(_Val1)),

	mov	eax, DWORD PTR __Val1$[ebp]
	push	eax
	call	??$forward@ABV?$allocator@D@std@@@std@@YAABV?$allocator@D@0@ABV10@@Z ; std::forward<std::allocator<char> const &>
	add	esp, 4
	push	eax
	mov	ecx, DWORD PTR _this$[ebp]
	call	??0?$_Wrap_alloc@V?$allocator@D@std@@@std@@QAE@ABV?$allocator@D@1@@Z ; std::_Wrap_alloc<std::allocator<char> >::_Wrap_alloc<std::allocator<char> >

; 287  : 			_Myval2(_STD forward<_Other2>(_Val2)...)

	mov	ecx, DWORD PTR _this$[ebp]
	call	??0?$_String_val@U?$_Simple_types@D@std@@@std@@QAE@XZ ; std::_String_val<std::_Simple_types<char> >::_String_val<std::_Simple_types<char> >

; 289  : 		}

	mov	eax, DWORD PTR _this$[ebp]
	add	esp, 4
	cmp	ebp, esp
	call	__RTC_CheckEsp
	mov	esp, ebp
	pop	ebp
	ret	8
??$?0ABV?$allocator@D@std@@$$V@?$_Compressed_pair@U?$_Wrap_alloc@V?$allocator@D@std@@@std@@V?$_String_val@U?$_Simple_types@D@std@@@2@$00@std@@QAE@U_One_then_variadic_args_t@1@ABV?$allocator@D@1@@Z ENDP ; std::_Compressed_pair<std::_Wrap_alloc<std::allocator<char> >,std::_String_val<std::_Simple_types<char> >,1>::_Compressed_pair<std::_Wrap_alloc<std::allocator<char> >,std::_String_val<std::_Simple_types<char> >,1><std::allocator<char> const &>
_TEXT	ENDS
; Function compile flags: /Odtp /RTCsu
; File d:\microsoft visual studio 14.0\vc\include\xutility
;	COMDAT ??$?0ABV?$allocator@UVector2D@@@std@@$$V@?$_Compressed_pair@U?$_Wrap_alloc@V?$allocator@UVector2D@@@std@@@std@@V?$_Vector_val@U?$_Simple_types@UVector2D@@@std@@@2@$00@std@@QAE@U_One_then_variadic_args_t@1@ABV?$allocator@UVector2D@@@1@@Z
_TEXT	SEGMENT
_this$ = -4						; size = 4
___formal$ = 8						; size = 1
__Val1$ = 12						; size = 4
??$?0ABV?$allocator@UVector2D@@@std@@$$V@?$_Compressed_pair@U?$_Wrap_alloc@V?$allocator@UVector2D@@@std@@@std@@V?$_Vector_val@U?$_Simple_types@UVector2D@@@std@@@2@$00@std@@QAE@U_One_then_variadic_args_t@1@ABV?$allocator@UVector2D@@@1@@Z PROC ; std::_Compressed_pair<std::_Wrap_alloc<std::allocator<Vector2D> >,std::_Vector_val<std::_Simple_types<Vector2D> >,1>::_Compressed_pair<std::_Wrap_alloc<std::allocator<Vector2D> >,std::_Vector_val<std::_Simple_types<Vector2D> >,1><std::allocator<Vector2D> const &>, COMDAT
; _this$ = ecx

; 288  : 		{	// construct from forwarded values

	push	ebp
	mov	ebp, esp
	push	ecx
	mov	DWORD PTR [ebp-4], -858993460		; ccccccccH
	mov	DWORD PTR _this$[ebp], ecx

; 286  : 		: _Ty1(_STD forward<_Other1>(_Val1)),

	mov	eax, DWORD PTR __Val1$[ebp]
	push	eax
	call	??$forward@ABV?$allocator@UVector2D@@@std@@@std@@YAABV?$allocator@UVector2D@@@0@ABV10@@Z ; std::forward<std::allocator<Vector2D> const &>
	add	esp, 4
	push	eax
	mov	ecx, DWORD PTR _this$[ebp]
	call	??0?$_Wrap_alloc@V?$allocator@UVector2D@@@std@@@std@@QAE@ABV?$allocator@UVector2D@@@1@@Z ; std::_Wrap_alloc<std::allocator<Vector2D> >::_Wrap_alloc<std::allocator<Vector2D> >

; 287  : 			_Myval2(_STD forward<_Other2>(_Val2)...)

	mov	ecx, DWORD PTR _this$[ebp]
	call	??0?$_Vector_val@U?$_Simple_types@UVector2D@@@std@@@std@@QAE@XZ ; std::_Vector_val<std::_Simple_types<Vector2D> >::_Vector_val<std::_Simple_types<Vector2D> >

; 289  : 		}

	mov	eax, DWORD PTR _this$[ebp]
	add	esp, 4
	cmp	ebp, esp
	call	__RTC_CheckEsp
	mov	esp, ebp
	pop	ebp
	ret	8
??$?0ABV?$allocator@UVector2D@@@std@@$$V@?$_Compressed_pair@U?$_Wrap_alloc@V?$allocator@UVector2D@@@std@@@std@@V?$_Vector_val@U?$_Simple_types@UVector2D@@@std@@@2@$00@std@@QAE@U_One_then_variadic_args_t@1@ABV?$allocator@UVector2D@@@1@@Z ENDP ; std::_Compressed_pair<std::_Wrap_alloc<std::allocator<Vector2D> >,std::_Vector_val<std::_Simple_types<Vector2D> >,1>::_Compressed_pair<std::_Wrap_alloc<std::allocator<Vector2D> >,std::_Vector_val<std::_Simple_types<Vector2D> >,1><std::allocator<Vector2D> const &>
_TEXT	ENDS
; Function compile flags: /Odtp /RTCsu
; File d:\microsoft visual studio 14.0\vc\include\xutility
;	COMDAT ??$?0V?$allocator@UVector2D@@@std@@$$V@?$_Compressed_pair@U?$_Wrap_alloc@V?$allocator@UVector2D@@@std@@@std@@V?$_Vector_val@U?$_Simple_types@UVector2D@@@std@@@2@$00@std@@QAE@U_One_then_variadic_args_t@1@$$QAV?$allocator@UVector2D@@@1@@Z
_TEXT	SEGMENT
_this$ = -4						; size = 4
___formal$ = 8						; size = 1
__Val1$ = 12						; size = 4
??$?0V?$allocator@UVector2D@@@std@@$$V@?$_Compressed_pair@U?$_Wrap_alloc@V?$allocator@UVector2D@@@std@@@std@@V?$_Vector_val@U?$_Simple_types@UVector2D@@@std@@@2@$00@std@@QAE@U_One_then_variadic_args_t@1@$$QAV?$allocator@UVector2D@@@1@@Z PROC ; std::_Compressed_pair<std::_Wrap_alloc<std::allocator<Vector2D> >,std::_Vector_val<std::_Simple_types<Vector2D> >,1>::_Compressed_pair<std::_Wrap_alloc<std::allocator<Vector2D> >,std::_Vector_val<std::_Simple_types<Vector2D> >,1><std::allocator<Vector2D> >, COMDAT
; _this$ = ecx

; 288  : 		{	// construct from forwarded values

	push	ebp
	mov	ebp, esp
	push	ecx
	mov	DWORD PTR [ebp-4], -858993460		; ccccccccH
	mov	DWORD PTR _this$[ebp], ecx

; 286  : 		: _Ty1(_STD forward<_Other1>(_Val1)),

	mov	eax, DWORD PTR __Val1$[ebp]
	push	eax
	call	??$forward@V?$allocator@UVector2D@@@std@@@std@@YA$$QAV?$allocator@UVector2D@@@0@AAV10@@Z ; std::forward<std::allocator<Vector2D> >
	add	esp, 4
	push	eax
	mov	ecx, DWORD PTR _this$[ebp]
	call	??0?$_Wrap_alloc@V?$allocator@UVector2D@@@std@@@std@@QAE@ABV?$allocator@UVector2D@@@1@@Z ; std::_Wrap_alloc<std::allocator<Vector2D> >::_Wrap_alloc<std::allocator<Vector2D> >

; 287  : 			_Myval2(_STD forward<_Other2>(_Val2)...)

	mov	ecx, DWORD PTR _this$[ebp]
	call	??0?$_Vector_val@U?$_Simple_types@UVector2D@@@std@@@std@@QAE@XZ ; std::_Vector_val<std::_Simple_types<Vector2D> >::_Vector_val<std::_Simple_types<Vector2D> >

; 289  : 		}

	mov	eax, DWORD PTR _this$[ebp]
	add	esp, 4
	cmp	ebp, esp
	call	__RTC_CheckEsp
	mov	esp, ebp
	pop	ebp
	ret	8
??$?0V?$allocator@UVector2D@@@std@@$$V@?$_Compressed_pair@U?$_Wrap_alloc@V?$allocator@UVector2D@@@std@@@std@@V?$_Vector_val@U?$_Simple_types@UVector2D@@@std@@@2@$00@std@@QAE@U_One_then_variadic_args_t@1@$$QAV?$allocator@UVector2D@@@1@@Z ENDP ; std::_Compressed_pair<std::_Wrap_alloc<std::allocator<Vector2D> >,std::_Vector_val<std::_Simple_types<Vector2D> >,1>::_Compressed_pair<std::_Wrap_alloc<std::allocator<Vector2D> >,std::_Vector_val<std::_Simple_types<Vector2D> >,1><std::allocator<Vector2D> >
_TEXT	ENDS
; Function compile flags: /Odtp /RTCsu
; File d:\microsoft visual studio 14.0\vc\include\type_traits
;	COMDAT ??$move@AAV?$allocator@UVector2D@@@std@@@std@@YA$$QAV?$allocator@UVector2D@@@0@AAV10@@Z
_TEXT	SEGMENT
__Arg$ = 8						; size = 4
??$move@AAV?$allocator@UVector2D@@@std@@@std@@YA$$QAV?$allocator@UVector2D@@@0@AAV10@@Z PROC ; std::move<std::allocator<Vector2D> &>, COMDAT

; 1309 : 	{	// forward _Arg as movable

	push	ebp
	mov	ebp, esp

; 1310 : 	return (static_cast<typename remove_reference<_Ty>::type&&>(_Arg));

	mov	eax, DWORD PTR __Arg$[ebp]

; 1311 : 	}

	pop	ebp
	ret	0
??$move@AAV?$allocator@UVector2D@@@std@@@std@@YA$$QAV?$allocator@UVector2D@@@0@AAV10@@Z ENDP ; std::move<std::allocator<Vector2D> &>
_TEXT	ENDS
; Function compile flags: /Odtp /RTCsu
; File d:\microsoft visual studio 14.0\vc\include\xmemory0
;	COMDAT ??$_Pocma@U?$_Wrap_alloc@V?$allocator@UVector2D@@@std@@@std@@@std@@YAXAAU?$_Wrap_alloc@V?$allocator@UVector2D@@@std@@@0@0@Z
_TEXT	SEGMENT
__Tag$ = -5						; size = 1
__Left$ = 8						; size = 4
__Right$ = 12						; size = 4
??$_Pocma@U?$_Wrap_alloc@V?$allocator@UVector2D@@@std@@@std@@@std@@YAXAAU?$_Wrap_alloc@V?$allocator@UVector2D@@@std@@@0@0@Z PROC ; std::_Pocma<std::_Wrap_alloc<std::allocator<Vector2D> > >, COMDAT

; 986  : 	{	// (maybe) propagate on container move assignment

	push	ebp
	mov	ebp, esp
	sub	esp, 12					; 0000000cH
	mov	DWORD PTR [ebp-12], -858993460		; ccccccccH
	mov	DWORD PTR [ebp-8], -858993460		; ccccccccH
	mov	DWORD PTR [ebp-4], -858993460		; ccccccccH

; 987  : 	typename _Alty::propagate_on_container_move_assignment _Tag;
; 988  : 	_Pocma(_Left, _Right, _Tag);

	movzx	eax, BYTE PTR __Tag$[ebp]
	push	eax
	mov	ecx, DWORD PTR __Right$[ebp]
	push	ecx
	mov	edx, DWORD PTR __Left$[ebp]
	push	edx
	call	??$_Pocma@U?$_Wrap_alloc@V?$allocator@UVector2D@@@std@@@std@@@std@@YAXAAU?$_Wrap_alloc@V?$allocator@UVector2D@@@std@@@0@0U?$integral_constant@_N$00@0@@Z ; std::_Pocma<std::_Wrap_alloc<std::allocator<Vector2D> > >
	add	esp, 12					; 0000000cH

; 989  : 	}

	push	edx
	mov	ecx, ebp
	push	eax
	lea	edx, DWORD PTR $LN5@Pocma
	call	@_RTC_CheckStackVars@8
	pop	eax
	pop	edx
	add	esp, 12					; 0000000cH
	cmp	ebp, esp
	call	__RTC_CheckEsp
	mov	esp, ebp
	pop	ebp
	ret	0
	npad	1
$LN5@Pocma:
	DD	1
	DD	$LN4@Pocma
$LN4@Pocma:
	DD	-5					; fffffffbH
	DD	1
	DD	$LN3@Pocma
$LN3@Pocma:
	DB	95					; 0000005fH
	DB	84					; 00000054H
	DB	97					; 00000061H
	DB	103					; 00000067H
	DB	0
??$_Pocma@U?$_Wrap_alloc@V?$allocator@UVector2D@@@std@@@std@@@std@@YAXAAU?$_Wrap_alloc@V?$allocator@UVector2D@@@std@@@0@0@Z ENDP ; std::_Pocma<std::_Wrap_alloc<std::allocator<Vector2D> > >
_TEXT	ENDS
; Function compile flags: /Odtp /RTCsu
; File d:\microsoft visual studio 14.0\vc\include\xmemory0
;	COMDAT ??$destroy@UGraveRecord@GraveMarkers@@@?$_Wrap_alloc@V?$allocator@U?$_List_node@UGraveRecord@GraveMarkers@@PAX@std@@@std@@@std@@QAEXPAUGraveRecord@GraveMarkers@@@Z
_TEXT	SEGMENT
_this$ = -4						; size = 4
__Ptr$ = 8						; size = 4
??$destroy@UGraveRecord@GraveMarkers@@@?$_Wrap_alloc@V?$allocator@U?$_List_node@UGraveRecord@GraveMarkers@@PAX@std@@@std@@@std@@QAEXPAUGraveRecord@GraveMarkers@@@Z PROC ; std::_Wrap_alloc<std::allocator<std::_List_node<GraveMarkers::GraveRecord,void *> > >::destroy<GraveMarkers::GraveRecord>, COMDAT
; _this$ = ecx

; 926  : 		{	// destroy object at _Ptr

	push	ebp
	mov	ebp, esp
	push	ecx
	mov	DWORD PTR [ebp-4], -858993460		; ccccccccH
	mov	DWORD PTR _this$[ebp], ecx

; 927  : 		_Mytraits::destroy(*this, _Ptr);

	mov	eax, DWORD PTR __Ptr$[ebp]
	push	eax
	mov	ecx, DWORD PTR _this$[ebp]
	push	ecx
	call	??$destroy@UGraveRecord@GraveMarkers@@@?$allocator_traits@V?$allocator@U?$_List_node@UGraveRecord@GraveMarkers@@PAX@std@@@std@@@std@@SAXAAV?$allocator@U?$_List_node@UGraveRecord@GraveMarkers@@PAX@std@@@1@PAUGraveRecord@GraveMarkers@@@Z ; std::allocator_traits<std::allocator<std::_List_node<GraveMarkers::GraveRecord,void *> > >::destroy<GraveMarkers::GraveRecord>
	add	esp, 8

; 928  : 		}

	add	esp, 4
	cmp	ebp, esp
	call	__RTC_CheckEsp
	mov	esp, ebp
	pop	ebp
	ret	4
??$destroy@UGraveRecord@GraveMarkers@@@?$_Wrap_alloc@V?$allocator@U?$_List_node@UGraveRecord@GraveMarkers@@PAX@std@@@std@@@std@@QAEXPAUGraveRecord@GraveMarkers@@@Z ENDP ; std::_Wrap_alloc<std::allocator<std::_List_node<GraveMarkers::GraveRecord,void *> > >::destroy<GraveMarkers::GraveRecord>
_TEXT	ENDS
; Function compile flags: /Odtp /RTCsu
; File d:\microsoft visual studio 14.0\vc\include\xmemory0
;	COMDAT ??$destroy@PAU?$_List_node@UGraveRecord@GraveMarkers@@PAX@std@@@?$_Wrap_alloc@V?$allocator@U?$_List_node@UGraveRecord@GraveMarkers@@PAX@std@@@std@@@std@@QAEXPAPAU?$_List_node@UGraveRecord@GraveMarkers@@PAX@1@@Z
_TEXT	SEGMENT
_this$ = -4						; size = 4
__Ptr$ = 8						; size = 4
??$destroy@PAU?$_List_node@UGraveRecord@GraveMarkers@@PAX@std@@@?$_Wrap_alloc@V?$allocator@U?$_List_node@UGraveRecord@GraveMarkers@@PAX@std@@@std@@@std@@QAEXPAPAU?$_List_node@UGraveRecord@GraveMarkers@@PAX@1@@Z PROC ; std::_Wrap_alloc<std::allocator<std::_List_node<GraveMarkers::GraveRecord,void *> > >::destroy<std::_List_node<GraveMarkers::GraveRecord,void *> *>, COMDAT
; _this$ = ecx

; 926  : 		{	// destroy object at _Ptr

	push	ebp
	mov	ebp, esp
	push	ecx
	mov	DWORD PTR [ebp-4], -858993460		; ccccccccH
	mov	DWORD PTR _this$[ebp], ecx

; 927  : 		_Mytraits::destroy(*this, _Ptr);

	mov	eax, DWORD PTR __Ptr$[ebp]
	push	eax
	mov	ecx, DWORD PTR _this$[ebp]
	push	ecx
	call	??$destroy@PAU?$_List_node@UGraveRecord@GraveMarkers@@PAX@std@@@?$allocator_traits@V?$allocator@U?$_List_node@UGraveRecord@GraveMarkers@@PAX@std@@@std@@@std@@SAXAAV?$allocator@U?$_List_node@UGraveRecord@GraveMarkers@@PAX@std@@@1@PAPAU?$_List_node@UGraveRecord@GraveMarkers@@PAX@1@@Z ; std::allocator_traits<std::allocator<std::_List_node<GraveMarkers::GraveRecord,void *> > >::destroy<std::_List_node<GraveMarkers::GraveRecord,void *> *>
	add	esp, 8

; 928  : 		}

	add	esp, 4
	cmp	ebp, esp
	call	__RTC_CheckEsp
	mov	esp, ebp
	pop	ebp
	ret	4
??$destroy@PAU?$_List_node@UGraveRecord@GraveMarkers@@PAX@std@@@?$_Wrap_alloc@V?$allocator@U?$_List_node@UGraveRecord@GraveMarkers@@PAX@std@@@std@@@std@@QAEXPAPAU?$_List_node@UGraveRecord@GraveMarkers@@PAX@1@@Z ENDP ; std::_Wrap_alloc<std::allocator<std::_List_node<GraveMarkers::GraveRecord,void *> > >::destroy<std::_List_node<GraveMarkers::GraveRecord,void *> *>
_TEXT	ENDS
; Function compile flags: /Odtp /RTCsu
; File d:\microsoft visual studio 14.0\vc\include\xstddef
;	COMDAT ??$addressof@PAU?$_List_node@UGraveRecord@GraveMarkers@@PAX@std@@@std@@YAPAPAU?$_List_node@UGraveRecord@GraveMarkers@@PAX@0@AAPAU10@@Z
_TEXT	SEGMENT
$T1 = -2						; size = 1
__Val$ = 8						; size = 4
??$addressof@PAU?$_List_node@UGraveRecord@GraveMarkers@@PAX@std@@@std@@YAPAPAU?$_List_node@UGraveRecord@GraveMarkers@@PAX@0@AAPAU10@@Z PROC ; std::addressof<std::_List_node<GraveMarkers::GraveRecord,void *> *>, COMDAT

; 699  : 	{	// return address of _Val

	push	ebp
	mov	ebp, esp
	push	ecx
	mov	DWORD PTR [ebp-4], -858993460		; ccccccccH

; 700  : 	return (_Addressof(_Val, is_function<_Ty>()));

	movzx	eax, BYTE PTR $T1[ebp]
	push	eax
	mov	ecx, DWORD PTR __Val$[ebp]
	push	ecx
	call	??$_Addressof@PAU?$_List_node@UGraveRecord@GraveMarkers@@PAX@std@@@std@@YAPAPAU?$_List_node@UGraveRecord@GraveMarkers@@PAX@0@AAPAU10@U?$integral_constant@_N$0A@@0@@Z ; std::_Addressof<std::_List_node<GraveMarkers::GraveRecord,void *> *>
	add	esp, 8

; 701  : 	}

	add	esp, 4
	cmp	ebp, esp
	call	__RTC_CheckEsp
	mov	esp, ebp
	pop	ebp
	ret	0
??$addressof@PAU?$_List_node@UGraveRecord@GraveMarkers@@PAX@std@@@std@@YAPAPAU?$_List_node@UGraveRecord@GraveMarkers@@PAX@0@AAPAU10@@Z ENDP ; std::addressof<std::_List_node<GraveMarkers::GraveRecord,void *> *>
_TEXT	ENDS
; Function compile flags: /Odtp /RTCsu
; File d:\microsoft visual studio 14.0\vc\include\xstddef
;	COMDAT ??$addressof@UGraveRecord@GraveMarkers@@@std@@YAPAUGraveRecord@GraveMarkers@@AAU12@@Z
_TEXT	SEGMENT
$T1 = -2						; size = 1
__Val$ = 8						; size = 4
??$addressof@UGraveRecord@GraveMarkers@@@std@@YAPAUGraveRecord@GraveMarkers@@AAU12@@Z PROC ; std::addressof<GraveMarkers::GraveRecord>, COMDAT

; 699  : 	{	// return address of _Val

	push	ebp
	mov	ebp, esp
	push	ecx
	mov	DWORD PTR [ebp-4], -858993460		; ccccccccH

; 700  : 	return (_Addressof(_Val, is_function<_Ty>()));

	movzx	eax, BYTE PTR $T1[ebp]
	push	eax
	mov	ecx, DWORD PTR __Val$[ebp]
	push	ecx
	call	??$_Addressof@UGraveRecord@GraveMarkers@@@std@@YAPAUGraveRecord@GraveMarkers@@AAU12@U?$integral_constant@_N$0A@@0@@Z ; std::_Addressof<GraveMarkers::GraveRecord>
	add	esp, 8

; 701  : 	}

	add	esp, 4
	cmp	ebp, esp
	call	__RTC_CheckEsp
	mov	esp, ebp
	pop	ebp
	ret	0
??$addressof@UGraveRecord@GraveMarkers@@@std@@YAPAUGraveRecord@GraveMarkers@@AAU12@@Z ENDP ; std::addressof<GraveMarkers::GraveRecord>
_TEXT	ENDS
; Function compile flags: /Odtp /RTCsu
; File d:\microsoft visual studio 14.0\vc\include\xutility
;	COMDAT ??$_Debug_pointer@$$CBD@std@@YAXPBDPB_WI@Z
_TEXT	SEGMENT
__Ptr$ = 8						; size = 4
__File$ = 12						; size = 4
__Line$ = 16						; size = 4
??$_Debug_pointer@$$CBD@std@@YAXPBDPB_WI@Z PROC		; std::_Debug_pointer<char const >, COMDAT

; 760  : 	{	// test pointer for non-singularity, pointers

	push	ebp
	mov	ebp, esp

; 761  : 	if (_Ptr == 0)

	cmp	DWORD PTR __Ptr$[ebp], 0
	jne	SHORT $LN1@Debug_poin

; 762  : 		_DEBUG_ERROR2("invalid null pointer", _File, _Line);

	mov	eax, DWORD PTR __Line$[ebp]
	push	eax
	mov	ecx, DWORD PTR __File$[ebp]
	push	ecx
	push	OFFSET ??_C@_1CK@EOPGIILJ@?$AAi?$AAn?$AAv?$AAa?$AAl?$AAi?$AAd?$AA?5?$AAn?$AAu?$AAl?$AAl?$AA?5?$AAp?$AAo?$AAi?$AAn?$AAt?$AAe?$AAr?$AA?$AA@
	call	?_Debug_message@std@@YAXPB_W0I@Z	; std::_Debug_message
	add	esp, 12					; 0000000cH
$LN1@Debug_poin:

; 763  : 	}

	cmp	ebp, esp
	call	__RTC_CheckEsp
	pop	ebp
	ret	0
??$_Debug_pointer@$$CBD@std@@YAXPBDPB_WI@Z ENDP		; std::_Debug_pointer<char const >
_TEXT	ENDS
; Function compile flags: /Odtp /RTCsu
; File d:\microsoft visual studio 14.0\vc\include\list
;	COMDAT ??$_Insert@UGraveRecord@GraveMarkers@@@?$list@UGraveRecord@GraveMarkers@@V?$allocator@UGraveRecord@GraveMarkers@@@std@@@std@@QAEXV?$_List_unchecked_const_iterator@V?$_List_val@U?$_List_simple_types@UGraveRecord@GraveMarkers@@@std@@@std@@U_Iterator_base0@2@@1@$$QAUGraveRecord@GraveMarkers@@@Z
_TEXT	SEGMENT
__Newnode$ = -12					; size = 4
__Pnode$ = -8						; size = 4
_this$ = -4						; size = 4
__Where$ = 8						; size = 4
_<_Val_0>$ = 12						; size = 4
??$_Insert@UGraveRecord@GraveMarkers@@@?$list@UGraveRecord@GraveMarkers@@V?$allocator@UGraveRecord@GraveMarkers@@@std@@@std@@QAEXV?$_List_unchecked_const_iterator@V?$_List_val@U?$_List_simple_types@UGraveRecord@GraveMarkers@@@std@@@std@@U_Iterator_base0@2@@1@$$QAUGraveRecord@GraveMarkers@@@Z PROC ; std::list<GraveMarkers::GraveRecord,std::allocator<GraveMarkers::GraveRecord> >::_Insert<GraveMarkers::GraveRecord>, COMDAT
; _this$ = ecx

; 1058 : 		{	// insert element at _Where

	push	ebp
	mov	ebp, esp
	sub	esp, 12					; 0000000cH
	mov	DWORD PTR [ebp-12], -858993460		; ccccccccH
	mov	DWORD PTR [ebp-8], -858993460		; ccccccccH
	mov	DWORD PTR [ebp-4], -858993460		; ccccccccH
	mov	DWORD PTR _this$[ebp], ecx

; 1059 : 		_Nodeptr _Pnode = _Where._Mynode();

	lea	ecx, DWORD PTR __Where$[ebp]
	call	?_Mynode@?$_List_unchecked_const_iterator@V?$_List_val@U?$_List_simple_types@UGraveRecord@GraveMarkers@@@std@@@std@@U_Iterator_base0@2@@std@@QBEPAU?$_List_node@UGraveRecord@GraveMarkers@@PAX@2@XZ ; std::_List_unchecked_const_iterator<std::_List_val<std::_List_simple_types<GraveMarkers::GraveRecord> >,std::_Iterator_base0>::_Mynode
	mov	DWORD PTR __Pnode$[ebp], eax

; 1060 : 		_Nodeptr _Newnode =
; 1061 : 			this->_Buynode(_Pnode, this->_Prevnode(_Pnode),

	mov	eax, DWORD PTR _<_Val_0>$[ebp]
	push	eax
	call	??$forward@UGraveRecord@GraveMarkers@@@std@@YA$$QAUGraveRecord@GraveMarkers@@AAU12@@Z ; std::forward<GraveMarkers::GraveRecord>
	add	esp, 4
	push	eax
	mov	ecx, DWORD PTR __Pnode$[ebp]
	push	ecx
	call	?_Prevnode@?$_List_alloc@U?$_List_base_types@UGraveRecord@GraveMarkers@@V?$allocator@UGraveRecord@GraveMarkers@@@std@@@std@@@std@@SAAAPAU?$_List_node@UGraveRecord@GraveMarkers@@PAX@2@PAU32@@Z ; std::_List_alloc<std::_List_base_types<GraveMarkers::GraveRecord,std::allocator<GraveMarkers::GraveRecord> > >::_Prevnode
	add	esp, 4
	mov	edx, DWORD PTR [eax]
	push	edx
	mov	eax, DWORD PTR __Pnode$[ebp]
	push	eax
	mov	ecx, DWORD PTR _this$[ebp]
	call	??$_Buynode@UGraveRecord@GraveMarkers@@@?$_List_buy@UGraveRecord@GraveMarkers@@V?$allocator@UGraveRecord@GraveMarkers@@@std@@@std@@QAEPAU?$_List_node@UGraveRecord@GraveMarkers@@PAX@1@PAU21@0$$QAUGraveRecord@GraveMarkers@@@Z ; std::_List_buy<GraveMarkers::GraveRecord,std::allocator<GraveMarkers::GraveRecord> >::_Buynode<GraveMarkers::GraveRecord>
	mov	DWORD PTR __Newnode$[ebp], eax

; 1062 : 				_STD forward<_Valty>(_Val)...);
; 1063 : 		_Incsize(1);

	push	1
	mov	ecx, DWORD PTR _this$[ebp]
	call	?_Incsize@?$list@UGraveRecord@GraveMarkers@@V?$allocator@UGraveRecord@GraveMarkers@@@std@@@std@@QAEXI@Z ; std::list<GraveMarkers::GraveRecord,std::allocator<GraveMarkers::GraveRecord> >::_Incsize

; 1064 : 		this->_Prevnode(_Pnode) = _Newnode;

	mov	ecx, DWORD PTR __Pnode$[ebp]
	push	ecx
	call	?_Prevnode@?$_List_alloc@U?$_List_base_types@UGraveRecord@GraveMarkers@@V?$allocator@UGraveRecord@GraveMarkers@@@std@@@std@@@std@@SAAAPAU?$_List_node@UGraveRecord@GraveMarkers@@PAX@2@PAU32@@Z ; std::_List_alloc<std::_List_base_types<GraveMarkers::GraveRecord,std::allocator<GraveMarkers::GraveRecord> > >::_Prevnode
	add	esp, 4
	mov	edx, DWORD PTR __Newnode$[ebp]
	mov	DWORD PTR [eax], edx

; 1065 : 		this->_Nextnode(this->_Prevnode(_Newnode)) = _Newnode;

	mov	eax, DWORD PTR __Newnode$[ebp]
	push	eax
	call	?_Prevnode@?$_List_alloc@U?$_List_base_types@UGraveRecord@GraveMarkers@@V?$allocator@UGraveRecord@GraveMarkers@@@std@@@std@@@std@@SAAAPAU?$_List_node@UGraveRecord@GraveMarkers@@PAX@2@PAU32@@Z ; std::_List_alloc<std::_List_base_types<GraveMarkers::GraveRecord,std::allocator<GraveMarkers::GraveRecord> > >::_Prevnode
	add	esp, 4
	mov	ecx, DWORD PTR [eax]
	push	ecx
	call	?_Nextnode@?$_List_alloc@U?$_List_base_types@UGraveRecord@GraveMarkers@@V?$allocator@UGraveRecord@GraveMarkers@@@std@@@std@@@std@@SAAAPAU?$_List_node@UGraveRecord@GraveMarkers@@PAX@2@PAU32@@Z ; std::_List_alloc<std::_List_base_types<GraveMarkers::GraveRecord,std::allocator<GraveMarkers::GraveRecord> > >::_Nextnode
	add	esp, 4
	mov	edx, DWORD PTR __Newnode$[ebp]
	mov	DWORD PTR [eax], edx

; 1066 : 		}

	add	esp, 12					; 0000000cH
	cmp	ebp, esp
	call	__RTC_CheckEsp
	mov	esp, ebp
	pop	ebp
	ret	8
??$_Insert@UGraveRecord@GraveMarkers@@@?$list@UGraveRecord@GraveMarkers@@V?$allocator@UGraveRecord@GraveMarkers@@@std@@@std@@QAEXV?$_List_unchecked_const_iterator@V?$_List_val@U?$_List_simple_types@UGraveRecord@GraveMarkers@@@std@@@std@@U_Iterator_base0@2@@1@$$QAUGraveRecord@GraveMarkers@@@Z ENDP ; std::list<GraveMarkers::GraveRecord,std::allocator<GraveMarkers::GraveRecord> >::_Insert<GraveMarkers::GraveRecord>
_TEXT	ENDS
; Function compile flags: /Odtp /RTCsu
; File d:\microsoft visual studio 14.0\vc\include\type_traits
;	COMDAT ??$forward@UGraveRecord@GraveMarkers@@@std@@YA$$QAUGraveRecord@GraveMarkers@@AAU12@@Z
_TEXT	SEGMENT
__Arg$ = 8						; size = 4
??$forward@UGraveRecord@GraveMarkers@@@std@@YA$$QAUGraveRecord@GraveMarkers@@AAU12@@Z PROC ; std::forward<GraveMarkers::GraveRecord>, COMDAT

; 1293 : 	{	// forward an lvalue as either an lvalue or an rvalue

	push	ebp
	mov	ebp, esp

; 1294 : 	return (static_cast<_Ty&&>(_Arg));

	mov	eax, DWORD PTR __Arg$[ebp]

; 1295 : 	}

	pop	ebp
	ret	0
??$forward@UGraveRecord@GraveMarkers@@@std@@YA$$QAUGraveRecord@GraveMarkers@@AAU12@@Z ENDP ; std::forward<GraveMarkers::GraveRecord>
_TEXT	ENDS
; Function compile flags: /Odtp /RTCsu
; File d:\microsoft visual studio 14.0\vc\include\list
;	COMDAT ??0?$_List_unchecked_iterator@V?$_List_val@U?$_List_simple_types@UGraveRecord@GraveMarkers@@@std@@@std@@@std@@QAE@PAU?$_List_node@UGraveRecord@GraveMarkers@@PAX@1@PBV?$_List_val@U?$_List_simple_types@UGraveRecord@GraveMarkers@@@std@@@1@@Z
_TEXT	SEGMENT
_this$ = -4						; size = 4
__Pnode$ = 8						; size = 4
__Plist$ = 12						; size = 4
??0?$_List_unchecked_iterator@V?$_List_val@U?$_List_simple_types@UGraveRecord@GraveMarkers@@@std@@@std@@@std@@QAE@PAU?$_List_node@UGraveRecord@GraveMarkers@@PAX@1@PBV?$_List_val@U?$_List_simple_types@UGraveRecord@GraveMarkers@@@std@@@1@@Z PROC ; std::_List_unchecked_iterator<std::_List_val<std::_List_simple_types<GraveMarkers::GraveRecord> > >::_List_unchecked_iterator<std::_List_val<std::_List_simple_types<GraveMarkers::GraveRecord> > >, COMDAT
; _this$ = ecx

; 124  : 		{	// construct with node pointer _Pnode

	push	ebp
	mov	ebp, esp
	push	ecx
	mov	DWORD PTR [ebp-4], -858993460		; ccccccccH
	mov	DWORD PTR _this$[ebp], ecx

; 123  : 		: _Mybase(_Pnode, _Plist)

	mov	eax, DWORD PTR __Plist$[ebp]
	push	eax
	mov	ecx, DWORD PTR __Pnode$[ebp]
	push	ecx
	mov	ecx, DWORD PTR _this$[ebp]
	call	??0?$_List_unchecked_const_iterator@V?$_List_val@U?$_List_simple_types@UGraveRecord@GraveMarkers@@@std@@@std@@U_Iterator_base0@2@@std@@QAE@PAU?$_List_node@UGraveRecord@GraveMarkers@@PAX@1@PBV?$_List_val@U?$_List_simple_types@UGraveRecord@GraveMarkers@@@std@@@1@@Z ; std::_List_unchecked_const_iterator<std::_List_val<std::_List_simple_types<GraveMarkers::GraveRecord> >,std::_Iterator_base0>::_List_unchecked_const_iterator<std::_List_val<std::_List_simple_types<GraveMarkers::GraveRecord> >,std::_Iterator_base0>

; 125  : 		}

	mov	eax, DWORD PTR _this$[ebp]
	add	esp, 4
	cmp	ebp, esp
	call	__RTC_CheckEsp
	mov	esp, ebp
	pop	ebp
	ret	8
??0?$_List_unchecked_iterator@V?$_List_val@U?$_List_simple_types@UGraveRecord@GraveMarkers@@@std@@@std@@@std@@QAE@PAU?$_List_node@UGraveRecord@GraveMarkers@@PAX@1@PBV?$_List_val@U?$_List_simple_types@UGraveRecord@GraveMarkers@@@std@@@1@@Z ENDP ; std::_List_unchecked_iterator<std::_List_val<std::_List_simple_types<GraveMarkers::GraveRecord> > >::_List_unchecked_iterator<std::_List_val<std::_List_simple_types<GraveMarkers::GraveRecord> > >
_TEXT	ENDS
; Function compile flags: /Odtp /RTCsu
; File d:\microsoft visual studio 14.0\vc\include\list
;	COMDAT ?_Mynode@?$_List_unchecked_const_iterator@V?$_List_val@U?$_List_simple_types@UGraveRecord@GraveMarkers@@@std@@@std@@U_Iterator_base0@2@@std@@QBEPAU?$_List_node@UGraveRecord@GraveMarkers@@PAX@2@XZ
_TEXT	SEGMENT
_this$ = -4						; size = 4
?_Mynode@?$_List_unchecked_const_iterator@V?$_List_val@U?$_List_simple_types@UGraveRecord@GraveMarkers@@@std@@@std@@U_Iterator_base0@2@@std@@QBEPAU?$_List_node@UGraveRecord@GraveMarkers@@PAX@2@XZ PROC ; std::_List_unchecked_const_iterator<std::_List_val<std::_List_simple_types<GraveMarkers::GraveRecord> >,std::_Iterator_base0>::_Mynode, COMDAT
; _this$ = ecx

; 95   : 		{	// return node pointer

	push	ebp
	mov	ebp, esp
	push	ecx
	mov	DWORD PTR [ebp-4], -858993460		; ccccccccH
	mov	DWORD PTR _this$[ebp], ecx

; 96   : 		return (_Ptr);

	mov	eax, DWORD PTR _this$[ebp]
	mov	eax, DWORD PTR [eax]

; 97   : 		}

	mov	esp, ebp
	pop	ebp
	ret	0
?_Mynode@?$_List_unchecked_const_iterator@V?$_List_val@U?$_List_simple_types@UGraveRecord@GraveMarkers@@@std@@@std@@U_Iterator_base0@2@@std@@QBEPAU?$_List_node@UGraveRecord@GraveMarkers@@PAX@2@XZ ENDP ; std::_List_unchecked_const_iterator<std::_List_val<std::_List_simple_types<GraveMarkers::GraveRecord> >,std::_Iterator_base0>::_Mynode
_TEXT	ENDS
; Function compile flags: /Odtp /RTCsu
; File d:\microsoft visual studio 14.0\vc\include\list
;	COMDAT ??0?$_List_unchecked_const_iterator@V?$_List_val@U?$_List_simple_types@UGraveRecord@GraveMarkers@@@std@@@std@@U_Iterator_base0@2@@std@@QAE@PAU?$_List_node@UGraveRecord@GraveMarkers@@PAX@1@PBV?$_List_val@U?$_List_simple_types@UGraveRecord@GraveMarkers@@@std@@@1@@Z
_TEXT	SEGMENT
_this$ = -4						; size = 4
__Pnode$ = 8						; size = 4
__Plist$ = 12						; size = 4
??0?$_List_unchecked_const_iterator@V?$_List_val@U?$_List_simple_types@UGraveRecord@GraveMarkers@@@std@@@std@@U_Iterator_base0@2@@std@@QAE@PAU?$_List_node@UGraveRecord@GraveMarkers@@PAX@1@PBV?$_List_val@U?$_List_simple_types@UGraveRecord@GraveMarkers@@@std@@@1@@Z PROC ; std::_List_unchecked_const_iterator<std::_List_val<std::_List_simple_types<GraveMarkers::GraveRecord> >,std::_Iterator_base0>::_List_unchecked_const_iterator<std::_List_val<std::_List_simple_types<GraveMarkers::GraveRecord> >,std::_Iterator_base0>, COMDAT
; _this$ = ecx

; 44   : 		{	// construct with node pointer _Pnode

	push	ebp
	mov	ebp, esp
	push	ecx
	mov	DWORD PTR [ebp-4], -858993460		; ccccccccH
	mov	DWORD PTR _this$[ebp], ecx

; 43   : 		: _Ptr(_Pnode)

	mov	eax, DWORD PTR _this$[ebp]
	mov	ecx, DWORD PTR __Pnode$[ebp]
	mov	DWORD PTR [eax], ecx

; 45   : 		this->_Adopt(_Plist);

	mov	edx, DWORD PTR __Plist$[ebp]
	push	edx
	mov	ecx, DWORD PTR _this$[ebp]
	call	?_Adopt@_Iterator_base0@std@@QAEXPBX@Z	; std::_Iterator_base0::_Adopt

; 46   : 		}

	mov	eax, DWORD PTR _this$[ebp]
	add	esp, 4
	cmp	ebp, esp
	call	__RTC_CheckEsp
	mov	esp, ebp
	pop	ebp
	ret	8
??0?$_List_unchecked_const_iterator@V?$_List_val@U?$_List_simple_types@UGraveRecord@GraveMarkers@@@std@@@std@@U_Iterator_base0@2@@std@@QAE@PAU?$_List_node@UGraveRecord@GraveMarkers@@PAX@1@PBV?$_List_val@U?$_List_simple_types@UGraveRecord@GraveMarkers@@@std@@@1@@Z ENDP ; std::_List_unchecked_const_iterator<std::_List_val<std::_List_simple_types<GraveMarkers::GraveRecord> >,std::_Iterator_base0>::_List_unchecked_const_iterator<std::_List_val<std::_List_simple_types<GraveMarkers::GraveRecord> >,std::_Iterator_base0>
_TEXT	ENDS
; Function compile flags: /Odtp /RTCsu
; File d:\microsoft visual studio 14.0\vc\include\vector
;	COMDAT ??$_Ucopy@V?$_Vector_const_iterator@V?$_Vector_val@U?$_Simple_types@UVector2D@@@std@@@std@@@std@@@?$vector@UVector2D@@V?$allocator@UVector2D@@@std@@@std@@IAEPAUVector2D@@V?$_Vector_const_iterator@V?$_Vector_val@U?$_Simple_types@UVector2D@@@std@@@std@@@1@0PAU2@@Z
_TEXT	SEGMENT
tv66 = -44						; size = 4
tv142 = -40						; size = 4
tv139 = -36						; size = 4
tv145 = -32						; size = 4
$T2 = -28						; size = 4
$T3 = -24						; size = 4
$T4 = -20						; size = 4
_this$ = -16						; size = 4
__$EHRec$ = -12						; size = 12
__First$ = 8						; size = 12
__Last$ = 20						; size = 12
__Ptr$ = 32						; size = 4
??$_Ucopy@V?$_Vector_const_iterator@V?$_Vector_val@U?$_Simple_types@UVector2D@@@std@@@std@@@std@@@?$vector@UVector2D@@V?$allocator@UVector2D@@@std@@@std@@IAEPAUVector2D@@V?$_Vector_const_iterator@V?$_Vector_val@U?$_Simple_types@UVector2D@@@std@@@std@@@1@0PAU2@@Z PROC ; std::vector<Vector2D,std::allocator<Vector2D> >::_Ucopy<std::_Vector_const_iterator<std::_Vector_val<std::_Simple_types<Vector2D> > > >, COMDAT
; _this$ = ecx

; 1670 : 		{	// copy initializing [_First, _Last), using allocator

	push	ebp
	mov	ebp, esp
	push	-1
	push	__ehhandler$??$_Ucopy@V?$_Vector_const_iterator@V?$_Vector_val@U?$_Simple_types@UVector2D@@@std@@@std@@@std@@@?$vector@UVector2D@@V?$allocator@UVector2D@@@std@@@std@@IAEPAUVector2D@@V?$_Vector_const_iterator@V?$_Vector_val@U?$_Simple_types@UVector2D@@@std@@@std@@@1@0PAU2@@Z
	mov	eax, DWORD PTR fs:0
	push	eax
	sub	esp, 32					; 00000020H
	mov	eax, -858993460				; ccccccccH
	mov	DWORD PTR [ebp-44], eax
	mov	DWORD PTR [ebp-40], eax
	mov	DWORD PTR [ebp-36], eax
	mov	DWORD PTR [ebp-32], eax
	mov	DWORD PTR [ebp-28], eax
	mov	DWORD PTR [ebp-24], eax
	mov	DWORD PTR [ebp-20], eax
	mov	DWORD PTR [ebp-16], eax
	mov	eax, DWORD PTR ___security_cookie
	xor	eax, ebp
	push	eax
	lea	eax, DWORD PTR __$EHRec$[ebp]
	mov	DWORD PTR fs:0, eax
	mov	DWORD PTR _this$[ebp], ecx
	mov	DWORD PTR __$EHRec$[ebp+8], 1

; 1671 : 		return (_Uninitialized_copy(_First, _Last,

	mov	ecx, DWORD PTR _this$[ebp]
	call	?_Getal@?$_Vector_alloc@U?$_Vec_base_types@UVector2D@@V?$allocator@UVector2D@@@std@@@std@@@std@@QAEAAU?$_Wrap_alloc@V?$allocator@UVector2D@@@std@@@2@XZ ; std::_Vector_alloc<std::_Vec_base_types<Vector2D,std::allocator<Vector2D> > >::_Getal
	push	eax
	mov	eax, DWORD PTR __Ptr$[ebp]
	push	eax
	sub	esp, 12					; 0000000cH
	mov	ecx, esp
	mov	DWORD PTR $T3[ebp], esp
	lea	edx, DWORD PTR __Last$[ebp]
	push	edx
	call	??0?$_Vector_const_iterator@V?$_Vector_val@U?$_Simple_types@UVector2D@@@std@@@std@@@std@@QAE@ABV01@@Z
	mov	DWORD PTR tv145[ebp], eax
	mov	eax, DWORD PTR tv145[ebp]
	mov	DWORD PTR tv139[ebp], eax
	mov	BYTE PTR __$EHRec$[ebp+8], 2
	sub	esp, 12					; 0000000cH
	mov	ecx, esp
	mov	DWORD PTR $T2[ebp], esp
	lea	edx, DWORD PTR __First$[ebp]
	push	edx
	call	??0?$_Vector_const_iterator@V?$_Vector_val@U?$_Simple_types@UVector2D@@@std@@@std@@@std@@QAE@ABV01@@Z
	mov	DWORD PTR tv142[ebp], eax
	mov	BYTE PTR __$EHRec$[ebp+8], 1
	call	??$_Uninitialized_copy@V?$_Vector_const_iterator@V?$_Vector_val@U?$_Simple_types@UVector2D@@@std@@@std@@@std@@PAUVector2D@@U?$_Wrap_alloc@V?$allocator@UVector2D@@@std@@@2@@std@@YAPAUVector2D@@V?$_Vector_const_iterator@V?$_Vector_val@U?$_Simple_types@UVector2D@@@std@@@std@@@0@0PAU1@AAU?$_Wrap_alloc@V?$allocator@UVector2D@@@std@@@0@@Z ; std::_Uninitialized_copy<std::_Vector_const_iterator<std::_Vector_val<std::_Simple_types<Vector2D> > >,Vector2D *,std::_Wrap_alloc<std::allocator<Vector2D> > >
	add	esp, 32					; 00000020H
	mov	DWORD PTR tv66[ebp], eax
	mov	eax, DWORD PTR tv66[ebp]
	mov	DWORD PTR $T4[ebp], eax
	mov	BYTE PTR __$EHRec$[ebp+8], 0
	lea	ecx, DWORD PTR __First$[ebp]
	call	??1?$_Vector_const_iterator@V?$_Vector_val@U?$_Simple_types@UVector2D@@@std@@@std@@@std@@QAE@XZ
	mov	DWORD PTR __$EHRec$[ebp+8], -1
	lea	ecx, DWORD PTR __Last$[ebp]
	call	??1?$_Vector_const_iterator@V?$_Vector_val@U?$_Simple_types@UVector2D@@@std@@@std@@@std@@QAE@XZ
	mov	eax, DWORD PTR $T4[ebp]

; 1672 : 			_Ptr, this->_Getal()));
; 1673 : 		}

	mov	ecx, DWORD PTR __$EHRec$[ebp]
	mov	DWORD PTR fs:0, ecx
	pop	ecx
	add	esp, 44					; 0000002cH
	cmp	ebp, esp
	call	__RTC_CheckEsp
	mov	esp, ebp
	pop	ebp
	ret	28					; 0000001cH
_TEXT	ENDS
;	COMDAT text$x
text$x	SEGMENT
__unwindfunclet$??$_Ucopy@V?$_Vector_const_iterator@V?$_Vector_val@U?$_Simple_types@UVector2D@@@std@@@std@@@std@@@?$vector@UVector2D@@V?$allocator@UVector2D@@@std@@@std@@IAEPAUVector2D@@V?$_Vector_const_iterator@V?$_Vector_val@U?$_Simple_types@UVector2D@@@std@@@std@@@1@0PAU2@@Z$0:
	lea	ecx, DWORD PTR __Last$[ebp]
	jmp	??1?$_Vector_const_iterator@V?$_Vector_val@U?$_Simple_types@UVector2D@@@std@@@std@@@std@@QAE@XZ
__unwindfunclet$??$_Ucopy@V?$_Vector_const_iterator@V?$_Vector_val@U?$_Simple_types@UVector2D@@@std@@@std@@@std@@@?$vector@UVector2D@@V?$allocator@UVector2D@@@std@@@std@@IAEPAUVector2D@@V?$_Vector_const_iterator@V?$_Vector_val@U?$_Simple_types@UVector2D@@@std@@@std@@@1@0PAU2@@Z$1:
	lea	ecx, DWORD PTR __First$[ebp]
	jmp	??1?$_Vector_const_iterator@V?$_Vector_val@U?$_Simple_types@UVector2D@@@std@@@std@@@std@@QAE@XZ
__unwindfunclet$??$_Ucopy@V?$_Vector_const_iterator@V?$_Vector_val@U?$_Simple_types@UVector2D@@@std@@@std@@@std@@@?$vector@UVector2D@@V?$allocator@UVector2D@@@std@@@std@@IAEPAUVector2D@@V?$_Vector_const_iterator@V?$_Vector_val@U?$_Simple_types@UVector2D@@@std@@@std@@@1@0PAU2@@Z$2:
	mov	ecx, DWORD PTR $T3[ebp]
	jmp	??1?$_Vector_const_iterator@V?$_Vector_val@U?$_Simple_types@UVector2D@@@std@@@std@@@std@@QAE@XZ
__ehhandler$??$_Ucopy@V?$_Vector_const_iterator@V?$_Vector_val@U?$_Simple_types@UVector2D@@@std@@@std@@@std@@@?$vector@UVector2D@@V?$allocator@UVector2D@@@std@@@std@@IAEPAUVector2D@@V?$_Vector_const_iterator@V?$_Vector_val@U?$_Simple_types@UVector2D@@@std@@@std@@@1@0PAU2@@Z:
	mov	edx, DWORD PTR [esp+8]
	lea	eax, DWORD PTR [edx+12]
	mov	ecx, DWORD PTR [edx-36]
	xor	ecx, eax
	call	@__security_check_cookie@4
	mov	eax, OFFSET __ehfuncinfo$??$_Ucopy@V?$_Vector_const_iterator@V?$_Vector_val@U?$_Simple_types@UVector2D@@@std@@@std@@@std@@@?$vector@UVector2D@@V?$allocator@UVector2D@@@std@@@std@@IAEPAUVector2D@@V?$_Vector_const_iterator@V?$_Vector_val@U?$_Simple_types@UVector2D@@@std@@@std@@@1@0PAU2@@Z
	jmp	___CxxFrameHandler3
text$x	ENDS
??$_Ucopy@V?$_Vector_const_iterator@V?$_Vector_val@U?$_Simple_types@UVector2D@@@std@@@std@@@std@@@?$vector@UVector2D@@V?$allocator@UVector2D@@@std@@@std@@IAEPAUVector2D@@V?$_Vector_const_iterator@V?$_Vector_val@U?$_Simple_types@UVector2D@@@std@@@std@@@1@0PAU2@@Z ENDP ; std::vector<Vector2D,std::allocator<Vector2D> >::_Ucopy<std::_Vector_const_iterator<std::_Vector_val<std::_Simple_types<Vector2D> > > >
; Function compile flags: /Odtp /RTCsu
;	COMDAT ??0?$_Vector_const_iterator@V?$_Vector_val@U?$_Simple_types@UVector2D@@@std@@@std@@@std@@QAE@ABV01@@Z
_TEXT	SEGMENT
_this$ = -4						; size = 4
___that$ = 8						; size = 4
??0?$_Vector_const_iterator@V?$_Vector_val@U?$_Simple_types@UVector2D@@@std@@@std@@@std@@QAE@ABV01@@Z PROC ; std::_Vector_const_iterator<std::_Vector_val<std::_Simple_types<Vector2D> > >::_Vector_const_iterator<std::_Vector_val<std::_Simple_types<Vector2D> > >, COMDAT
; _this$ = ecx
	push	ebp
	mov	ebp, esp
	push	ecx
	mov	DWORD PTR [ebp-4], -858993460		; ccccccccH
	mov	DWORD PTR _this$[ebp], ecx
	mov	eax, DWORD PTR ___that$[ebp]
	push	eax
	mov	ecx, DWORD PTR _this$[ebp]
	call	??0?$_Iterator012@Urandom_access_iterator_tag@std@@UVector2D@@HPBU3@ABU3@U_Iterator_base12@2@@std@@QAE@ABU01@@Z
	mov	ecx, DWORD PTR _this$[ebp]
	mov	edx, DWORD PTR ___that$[ebp]
	mov	eax, DWORD PTR [edx+8]
	mov	DWORD PTR [ecx+8], eax
	mov	eax, DWORD PTR _this$[ebp]
	add	esp, 4
	cmp	ebp, esp
	call	__RTC_CheckEsp
	mov	esp, ebp
	pop	ebp
	ret	4
??0?$_Vector_const_iterator@V?$_Vector_val@U?$_Simple_types@UVector2D@@@std@@@std@@@std@@QAE@ABV01@@Z ENDP ; std::_Vector_const_iterator<std::_Vector_val<std::_Simple_types<Vector2D> > >::_Vector_const_iterator<std::_Vector_val<std::_Simple_types<Vector2D> > >
_TEXT	ENDS
; Function compile flags: /Odtp /RTCsu
;	COMDAT ??1?$_Vector_const_iterator@V?$_Vector_val@U?$_Simple_types@UVector2D@@@std@@@std@@@std@@QAE@XZ
_TEXT	SEGMENT
_this$ = -4						; size = 4
??1?$_Vector_const_iterator@V?$_Vector_val@U?$_Simple_types@UVector2D@@@std@@@std@@@std@@QAE@XZ PROC ; std::_Vector_const_iterator<std::_Vector_val<std::_Simple_types<Vector2D> > >::~_Vector_const_iterator<std::_Vector_val<std::_Simple_types<Vector2D> > >, COMDAT
; _this$ = ecx
	push	ebp
	mov	ebp, esp
	push	ecx
	mov	DWORD PTR [ebp-4], -858993460		; ccccccccH
	mov	DWORD PTR _this$[ebp], ecx
	mov	ecx, DWORD PTR _this$[ebp]
	call	??1?$_Iterator012@Urandom_access_iterator_tag@std@@UVector2D@@HPBU3@ABU3@U_Iterator_base12@2@@std@@QAE@XZ
	add	esp, 4
	cmp	ebp, esp
	call	__RTC_CheckEsp
	mov	esp, ebp
	pop	ebp
	ret	0
??1?$_Vector_const_iterator@V?$_Vector_val@U?$_Simple_types@UVector2D@@@std@@@std@@@std@@QAE@XZ ENDP ; std::_Vector_const_iterator<std::_Vector_val<std::_Simple_types<Vector2D> > >::~_Vector_const_iterator<std::_Vector_val<std::_Simple_types<Vector2D> > >
_TEXT	ENDS
; Function compile flags: /Odtp /RTCsu
; File d:\microsoft visual studio 14.0\vc\include\vector
;	COMDAT ?_Unchecked@?$_Vector_const_iterator@V?$_Vector_val@U?$_Simple_types@UVector2D@@@std@@@std@@@std@@QBEPBUVector2D@@XZ
_TEXT	SEGMENT
_this$ = -4						; size = 4
?_Unchecked@?$_Vector_const_iterator@V?$_Vector_val@U?$_Simple_types@UVector2D@@@std@@@std@@@std@@QBEPBUVector2D@@XZ PROC ; std::_Vector_const_iterator<std::_Vector_val<std::_Simple_types<Vector2D> > >::_Unchecked, COMDAT
; _this$ = ecx

; 60   : 		{	// make an unchecked iterator

	push	ebp
	mov	ebp, esp
	push	ecx
	mov	DWORD PTR [ebp-4], -858993460		; ccccccccH
	mov	DWORD PTR _this$[ebp], ecx

; 61   : 		return (_Unchecked_type(this->_Ptr));

	mov	eax, DWORD PTR _this$[ebp]
	mov	eax, DWORD PTR [eax+8]

; 62   : 		}

	mov	esp, ebp
	pop	ebp
	ret	0
?_Unchecked@?$_Vector_const_iterator@V?$_Vector_val@U?$_Simple_types@UVector2D@@@std@@@std@@@std@@QBEPBUVector2D@@XZ ENDP ; std::_Vector_const_iterator<std::_Vector_val<std::_Simple_types<Vector2D> > >::_Unchecked
_TEXT	ENDS
; Function compile flags: /Odtp /RTCsu
; File d:\microsoft visual studio 14.0\vc\include\vector
;	COMDAT ??0?$_Vector_const_iterator@V?$_Vector_val@U?$_Simple_types@UVector2D@@@std@@@std@@@std@@QAE@PAUVector2D@@PBU_Container_base12@1@@Z
_TEXT	SEGMENT
_this$ = -16						; size = 4
__$EHRec$ = -12						; size = 12
__Parg$ = 8						; size = 4
__Pvector$ = 12						; size = 4
??0?$_Vector_const_iterator@V?$_Vector_val@U?$_Simple_types@UVector2D@@@std@@@std@@@std@@QAE@PAUVector2D@@PBU_Container_base12@1@@Z PROC ; std::_Vector_const_iterator<std::_Vector_val<std::_Simple_types<Vector2D> > >::_Vector_const_iterator<std::_Vector_val<std::_Simple_types<Vector2D> > >, COMDAT
; _this$ = ecx

; 47   : 		{	// construct with pointer _Parg

	push	ebp
	mov	ebp, esp
	push	-1
	push	__ehhandler$??0?$_Vector_const_iterator@V?$_Vector_val@U?$_Simple_types@UVector2D@@@std@@@std@@@std@@QAE@PAUVector2D@@PBU_Container_base12@1@@Z
	mov	eax, DWORD PTR fs:0
	push	eax
	push	ecx
	mov	DWORD PTR [ebp-16], -858993460		; ccccccccH
	mov	eax, DWORD PTR ___security_cookie
	xor	eax, ebp
	push	eax
	lea	eax, DWORD PTR __$EHRec$[ebp]
	mov	DWORD PTR fs:0, eax
	mov	DWORD PTR _this$[ebp], ecx
	mov	ecx, DWORD PTR _this$[ebp]
	call	??0?$_Iterator012@Urandom_access_iterator_tag@std@@UVector2D@@HPBU3@ABU3@U_Iterator_base12@2@@std@@QAE@XZ
	mov	DWORD PTR __$EHRec$[ebp+8], 0

; 46   : 		: _Ptr(_Parg)

	mov	eax, DWORD PTR _this$[ebp]
	mov	ecx, DWORD PTR __Parg$[ebp]
	mov	DWORD PTR [eax+8], ecx

; 48   : 		this->_Adopt(_Pvector);

	mov	edx, DWORD PTR __Pvector$[ebp]
	push	edx
	mov	ecx, DWORD PTR _this$[ebp]
	call	?_Adopt@_Iterator_base12@std@@QAEXPBU_Container_base12@2@@Z ; std::_Iterator_base12::_Adopt

; 49   : 		}

	mov	DWORD PTR __$EHRec$[ebp+8], -1
	mov	eax, DWORD PTR _this$[ebp]
	mov	ecx, DWORD PTR __$EHRec$[ebp]
	mov	DWORD PTR fs:0, ecx
	pop	ecx
	add	esp, 16					; 00000010H
	cmp	ebp, esp
	call	__RTC_CheckEsp
	mov	esp, ebp
	pop	ebp
	ret	8
_TEXT	ENDS
;	COMDAT text$x
text$x	SEGMENT
__unwindfunclet$??0?$_Vector_const_iterator@V?$_Vector_val@U?$_Simple_types@UVector2D@@@std@@@std@@@std@@QAE@PAUVector2D@@PBU_Container_base12@1@@Z$0:
	mov	ecx, DWORD PTR _this$[ebp]
	jmp	??1?$_Iterator012@Urandom_access_iterator_tag@std@@UVector2D@@HPBU3@ABU3@U_Iterator_base12@2@@std@@QAE@XZ
__ehhandler$??0?$_Vector_const_iterator@V?$_Vector_val@U?$_Simple_types@UVector2D@@@std@@@std@@@std@@QAE@PAUVector2D@@PBU_Container_base12@1@@Z:
	mov	edx, DWORD PTR [esp+8]
	lea	eax, DWORD PTR [edx+12]
	mov	ecx, DWORD PTR [edx-8]
	xor	ecx, eax
	call	@__security_check_cookie@4
	mov	eax, OFFSET __ehfuncinfo$??0?$_Vector_const_iterator@V?$_Vector_val@U?$_Simple_types@UVector2D@@@std@@@std@@@std@@QAE@PAUVector2D@@PBU_Container_base12@1@@Z
	jmp	___CxxFrameHandler3
text$x	ENDS
??0?$_Vector_const_iterator@V?$_Vector_val@U?$_Simple_types@UVector2D@@@std@@@std@@@std@@QAE@PAUVector2D@@PBU_Container_base12@1@@Z ENDP ; std::_Vector_const_iterator<std::_Vector_val<std::_Simple_types<Vector2D> > >::_Vector_const_iterator<std::_Vector_val<std::_Simple_types<Vector2D> > >
; Function compile flags: /Odtp /RTCsu
;	COMDAT ??0?$_Iterator012@Urandom_access_iterator_tag@std@@UVector2D@@HPBU3@ABU3@U_Iterator_base12@2@@std@@QAE@ABU01@@Z
_TEXT	SEGMENT
_this$ = -4						; size = 4
___that$ = 8						; size = 4
??0?$_Iterator012@Urandom_access_iterator_tag@std@@UVector2D@@HPBU3@ABU3@U_Iterator_base12@2@@std@@QAE@ABU01@@Z PROC ; std::_Iterator012<std::random_access_iterator_tag,Vector2D,int,Vector2D const *,Vector2D const &,std::_Iterator_base12>::_Iterator012<std::random_access_iterator_tag,Vector2D,int,Vector2D const *,Vector2D const &,std::_Iterator_base12>, COMDAT
; _this$ = ecx
	push	ebp
	mov	ebp, esp
	push	ecx
	mov	DWORD PTR [ebp-4], -858993460		; ccccccccH
	mov	DWORD PTR _this$[ebp], ecx
	mov	eax, DWORD PTR ___that$[ebp]
	push	eax
	mov	ecx, DWORD PTR _this$[ebp]
	call	??0_Iterator_base12@std@@QAE@ABU01@@Z	; std::_Iterator_base12::_Iterator_base12
	mov	eax, DWORD PTR _this$[ebp]
	add	esp, 4
	cmp	ebp, esp
	call	__RTC_CheckEsp
	mov	esp, ebp
	pop	ebp
	ret	4
??0?$_Iterator012@Urandom_access_iterator_tag@std@@UVector2D@@HPBU3@ABU3@U_Iterator_base12@2@@std@@QAE@ABU01@@Z ENDP ; std::_Iterator012<std::random_access_iterator_tag,Vector2D,int,Vector2D const *,Vector2D const &,std::_Iterator_base12>::_Iterator012<std::random_access_iterator_tag,Vector2D,int,Vector2D const *,Vector2D const &,std::_Iterator_base12>
_TEXT	ENDS
; Function compile flags: /Odtp /RTCsu
;	COMDAT ??1?$_Iterator012@Urandom_access_iterator_tag@std@@UVector2D@@HPBU3@ABU3@U_Iterator_base12@2@@std@@QAE@XZ
_TEXT	SEGMENT
_this$ = -4						; size = 4
??1?$_Iterator012@Urandom_access_iterator_tag@std@@UVector2D@@HPBU3@ABU3@U_Iterator_base12@2@@std@@QAE@XZ PROC ; std::_Iterator012<std::random_access_iterator_tag,Vector2D,int,Vector2D const *,Vector2D const &,std::_Iterator_base12>::~_Iterator012<std::random_access_iterator_tag,Vector2D,int,Vector2D const *,Vector2D const &,std::_Iterator_base12>, COMDAT
; _this$ = ecx
	push	ebp
	mov	ebp, esp
	push	ecx
	mov	DWORD PTR [ebp-4], -858993460		; ccccccccH
	mov	DWORD PTR _this$[ebp], ecx
	mov	ecx, DWORD PTR _this$[ebp]
	call	??1_Iterator_base12@std@@QAE@XZ		; std::_Iterator_base12::~_Iterator_base12
	add	esp, 4
	cmp	ebp, esp
	call	__RTC_CheckEsp
	mov	esp, ebp
	pop	ebp
	ret	0
??1?$_Iterator012@Urandom_access_iterator_tag@std@@UVector2D@@HPBU3@ABU3@U_Iterator_base12@2@@std@@QAE@XZ ENDP ; std::_Iterator012<std::random_access_iterator_tag,Vector2D,int,Vector2D const *,Vector2D const &,std::_Iterator_base12>::~_Iterator012<std::random_access_iterator_tag,Vector2D,int,Vector2D const *,Vector2D const &,std::_Iterator_base12>
_TEXT	ENDS
; Function compile flags: /Odtp /RTCsu
;	COMDAT ??0?$_Iterator012@Urandom_access_iterator_tag@std@@UVector2D@@HPBU3@ABU3@U_Iterator_base12@2@@std@@QAE@XZ
_TEXT	SEGMENT
_this$ = -4						; size = 4
??0?$_Iterator012@Urandom_access_iterator_tag@std@@UVector2D@@HPBU3@ABU3@U_Iterator_base12@2@@std@@QAE@XZ PROC ; std::_Iterator012<std::random_access_iterator_tag,Vector2D,int,Vector2D const *,Vector2D const &,std::_Iterator_base12>::_Iterator012<std::random_access_iterator_tag,Vector2D,int,Vector2D const *,Vector2D const &,std::_Iterator_base12>, COMDAT
; _this$ = ecx
	push	ebp
	mov	ebp, esp
	push	ecx
	mov	DWORD PTR [ebp-4], -858993460		; ccccccccH
	mov	DWORD PTR _this$[ebp], ecx
	mov	ecx, DWORD PTR _this$[ebp]
	call	??0_Iterator_base12@std@@QAE@XZ		; std::_Iterator_base12::_Iterator_base12
	mov	eax, DWORD PTR _this$[ebp]
	add	esp, 4
	cmp	ebp, esp
	call	__RTC_CheckEsp
	mov	esp, ebp
	pop	ebp
	ret	0
??0?$_Iterator012@Urandom_access_iterator_tag@std@@UVector2D@@HPBU3@ABU3@U_Iterator_base12@2@@std@@QAE@XZ ENDP ; std::_Iterator012<std::random_access_iterator_tag,Vector2D,int,Vector2D const *,Vector2D const &,std::_Iterator_base12>::_Iterator012<std::random_access_iterator_tag,Vector2D,int,Vector2D const *,Vector2D const &,std::_Iterator_base12>
_TEXT	ENDS
; Function compile flags: /Odtp /RTCsu
; File d:\microsoft visual studio 14.0\vc\include\type_traits
;	COMDAT ??$move@AAU?$_Wrap_alloc@V?$allocator@UVector2D@@@std@@@std@@@std@@YA$$QAU?$_Wrap_alloc@V?$allocator@UVector2D@@@std@@@0@AAU10@@Z
_TEXT	SEGMENT
__Arg$ = 8						; size = 4
??$move@AAU?$_Wrap_alloc@V?$allocator@UVector2D@@@std@@@std@@@std@@YA$$QAU?$_Wrap_alloc@V?$allocator@UVector2D@@@std@@@0@AAU10@@Z PROC ; std::move<std::_Wrap_alloc<std::allocator<Vector2D> > &>, COMDAT

; 1309 : 	{	// forward _Arg as movable

	push	ebp
	mov	ebp, esp

; 1310 : 	return (static_cast<typename remove_reference<_Ty>::type&&>(_Arg));

	mov	eax, DWORD PTR __Arg$[ebp]

; 1311 : 	}

	pop	ebp
	ret	0
??$move@AAU?$_Wrap_alloc@V?$allocator@UVector2D@@@std@@@std@@@std@@YA$$QAU?$_Wrap_alloc@V?$allocator@UVector2D@@@std@@@0@AAU10@@Z ENDP ; std::move<std::_Wrap_alloc<std::allocator<Vector2D> > &>
_TEXT	ENDS
; Function compile flags: /Odtp /RTCsu
; File d:\microsoft visual studio 14.0\vc\include\type_traits
;	COMDAT ??$forward@V?$vector@UVector2D@@V?$allocator@UVector2D@@@std@@@std@@@std@@YA$$QAV?$vector@UVector2D@@V?$allocator@UVector2D@@@std@@@0@AAV10@@Z
_TEXT	SEGMENT
__Arg$ = 8						; size = 4
??$forward@V?$vector@UVector2D@@V?$allocator@UVector2D@@@std@@@std@@@std@@YA$$QAV?$vector@UVector2D@@V?$allocator@UVector2D@@@std@@@0@AAV10@@Z PROC ; std::forward<std::vector<Vector2D,std::allocator<Vector2D> > >, COMDAT

; 1293 : 	{	// forward an lvalue as either an lvalue or an rvalue

	push	ebp
	mov	ebp, esp

; 1294 : 	return (static_cast<_Ty&&>(_Arg));

	mov	eax, DWORD PTR __Arg$[ebp]

; 1295 : 	}

	pop	ebp
	ret	0
??$forward@V?$vector@UVector2D@@V?$allocator@UVector2D@@@std@@@std@@@std@@YA$$QAV?$vector@UVector2D@@V?$allocator@UVector2D@@@std@@@0@AAV10@@Z ENDP ; std::forward<std::vector<Vector2D,std::allocator<Vector2D> > >
_TEXT	ENDS
; Function compile flags: /Odtp /RTCsu
; File d:\microsoft visual studio 14.0\vc\include\xmemory0
;	COMDAT ??$?9V?$allocator@UVector2D@@@std@@V01@@std@@YA_NABU?$_Wrap_alloc@V?$allocator@UVector2D@@@std@@@0@0@Z
_TEXT	SEGMENT
tv69 = -4						; size = 4
__Left$ = 8						; size = 4
__Right$ = 12						; size = 4
??$?9V?$allocator@UVector2D@@@std@@V01@@std@@YA_NABU?$_Wrap_alloc@V?$allocator@UVector2D@@@std@@@0@0@Z PROC ; std::operator!=<std::allocator<Vector2D>,std::allocator<Vector2D> >, COMDAT

; 949  : 	{	// test for allocator inequality

	push	ebp
	mov	ebp, esp
	push	ecx
	mov	DWORD PTR [ebp-4], -858993460		; ccccccccH

; 950  : 	return (!(_Left == _Right));

	mov	eax, DWORD PTR __Right$[ebp]
	push	eax
	mov	ecx, DWORD PTR __Left$[ebp]
	push	ecx
	call	??$?8V?$allocator@UVector2D@@@std@@V01@@std@@YA_NABU?$_Wrap_alloc@V?$allocator@UVector2D@@@std@@@0@0@Z ; std::operator==<std::allocator<Vector2D>,std::allocator<Vector2D> >
	add	esp, 8
	movzx	edx, al
	test	edx, edx
	jne	SHORT $LN3@operator
	mov	DWORD PTR tv69[ebp], 1
	jmp	SHORT $LN4@operator
$LN3@operator:
	mov	DWORD PTR tv69[ebp], 0
$LN4@operator:
	mov	al, BYTE PTR tv69[ebp]

; 951  : 	}

	add	esp, 4
	cmp	ebp, esp
	call	__RTC_CheckEsp
	mov	esp, ebp
	pop	ebp
	ret	0
??$?9V?$allocator@UVector2D@@@std@@V01@@std@@YA_NABU?$_Wrap_alloc@V?$allocator@UVector2D@@@std@@@0@0@Z ENDP ; std::operator!=<std::allocator<Vector2D>,std::allocator<Vector2D> >
_TEXT	ENDS
; Function compile flags: /Odtp /RTCsu
; File d:\microsoft visual studio 14.0\vc\include\xmemory0
;	COMDAT ??$construct@UVector2D@@U1@@?$_Wrap_alloc@V?$allocator@UVector2D@@@std@@@std@@QAEXPAUVector2D@@$$QAU2@@Z
_TEXT	SEGMENT
_this$ = -4						; size = 4
__Ptr$ = 8						; size = 4
_<_Args_0>$ = 12					; size = 4
??$construct@UVector2D@@U1@@?$_Wrap_alloc@V?$allocator@UVector2D@@@std@@@std@@QAEXPAUVector2D@@$$QAU2@@Z PROC ; std::_Wrap_alloc<std::allocator<Vector2D> >::construct<Vector2D,Vector2D>, COMDAT
; _this$ = ecx

; 918  : 		{	// construct _Ty(_Types...) at _Ptr

	push	ebp
	mov	ebp, esp
	push	ecx
	mov	DWORD PTR [ebp-4], -858993460		; ccccccccH
	mov	DWORD PTR _this$[ebp], ecx

; 919  : 		_Mytraits::construct(*this, _Ptr,

	mov	eax, DWORD PTR _<_Args_0>$[ebp]
	push	eax
	call	??$forward@UVector2D@@@std@@YA$$QAUVector2D@@AAU1@@Z ; std::forward<Vector2D>
	add	esp, 4
	push	eax
	mov	ecx, DWORD PTR __Ptr$[ebp]
	push	ecx
	mov	edx, DWORD PTR _this$[ebp]
	push	edx
	call	??$construct@UVector2D@@U1@@?$allocator_traits@V?$allocator@UVector2D@@@std@@@std@@SAXAAV?$allocator@UVector2D@@@1@PAUVector2D@@$$QAU3@@Z ; std::allocator_traits<std::allocator<Vector2D> >::construct<Vector2D,Vector2D>
	add	esp, 12					; 0000000cH

; 920  : 			_STD forward<_Types>(_Args)...);
; 921  : 		}

	add	esp, 4
	cmp	ebp, esp
	call	__RTC_CheckEsp
	mov	esp, ebp
	pop	ebp
	ret	8
??$construct@UVector2D@@U1@@?$_Wrap_alloc@V?$allocator@UVector2D@@@std@@@std@@QAEXPAUVector2D@@$$QAU2@@Z ENDP ; std::_Wrap_alloc<std::allocator<Vector2D> >::construct<Vector2D,Vector2D>
_TEXT	ENDS
; Function compile flags: /Odtp /RTCsu
; File d:\microsoft visual studio 14.0\vc\include\type_traits
;	COMDAT ??$forward@UVector2D@@@std@@YA$$QAUVector2D@@AAU1@@Z
_TEXT	SEGMENT
__Arg$ = 8						; size = 4
??$forward@UVector2D@@@std@@YA$$QAUVector2D@@AAU1@@Z PROC ; std::forward<Vector2D>, COMDAT

; 1293 : 	{	// forward an lvalue as either an lvalue or an rvalue

	push	ebp
	mov	ebp, esp

; 1294 : 	return (static_cast<_Ty&&>(_Arg));

	mov	eax, DWORD PTR __Arg$[ebp]

; 1295 : 	}

	pop	ebp
	ret	0
??$forward@UVector2D@@@std@@YA$$QAUVector2D@@AAU1@@Z ENDP ; std::forward<Vector2D>
_TEXT	ENDS
; Function compile flags: /Odtp /RTCsu
; File d:\microsoft visual studio 14.0\vc\include\xstddef
;	COMDAT ??$addressof@UVector2D@@@std@@YAPAUVector2D@@AAU1@@Z
_TEXT	SEGMENT
$T1 = -2						; size = 1
__Val$ = 8						; size = 4
??$addressof@UVector2D@@@std@@YAPAUVector2D@@AAU1@@Z PROC ; std::addressof<Vector2D>, COMDAT

; 699  : 	{	// return address of _Val

	push	ebp
	mov	ebp, esp
	push	ecx
	mov	DWORD PTR [ebp-4], -858993460		; ccccccccH

; 700  : 	return (_Addressof(_Val, is_function<_Ty>()));

	movzx	eax, BYTE PTR $T1[ebp]
	push	eax
	mov	ecx, DWORD PTR __Val$[ebp]
	push	ecx
	call	??$_Addressof@UVector2D@@@std@@YAPAUVector2D@@AAU1@U?$integral_constant@_N$0A@@0@@Z ; std::_Addressof<Vector2D>
	add	esp, 8

; 701  : 	}

	add	esp, 4
	cmp	ebp, esp
	call	__RTC_CheckEsp
	mov	esp, ebp
	pop	ebp
	ret	0
??$addressof@UVector2D@@@std@@YAPAUVector2D@@AAU1@@Z ENDP ; std::addressof<Vector2D>
_TEXT	ENDS
; Function compile flags: /Odtp /RTCsu
; File d:\microsoft visual studio 14.0\vc\include\xmemory0
;	COMDAT ??$construct@UVector2D@@ABU1@@?$_Wrap_alloc@V?$allocator@UVector2D@@@std@@@std@@QAEXPAUVector2D@@ABU2@@Z
_TEXT	SEGMENT
_this$ = -4						; size = 4
__Ptr$ = 8						; size = 4
_<_Args_0>$ = 12					; size = 4
??$construct@UVector2D@@ABU1@@?$_Wrap_alloc@V?$allocator@UVector2D@@@std@@@std@@QAEXPAUVector2D@@ABU2@@Z PROC ; std::_Wrap_alloc<std::allocator<Vector2D> >::construct<Vector2D,Vector2D const &>, COMDAT
; _this$ = ecx

; 918  : 		{	// construct _Ty(_Types...) at _Ptr

	push	ebp
	mov	ebp, esp
	push	ecx
	mov	DWORD PTR [ebp-4], -858993460		; ccccccccH
	mov	DWORD PTR _this$[ebp], ecx

; 919  : 		_Mytraits::construct(*this, _Ptr,

	mov	eax, DWORD PTR _<_Args_0>$[ebp]
	push	eax
	call	??$forward@ABUVector2D@@@std@@YAABUVector2D@@ABU1@@Z ; std::forward<Vector2D const &>
	add	esp, 4
	push	eax
	mov	ecx, DWORD PTR __Ptr$[ebp]
	push	ecx
	mov	edx, DWORD PTR _this$[ebp]
	push	edx
	call	??$construct@UVector2D@@ABU1@@?$allocator_traits@V?$allocator@UVector2D@@@std@@@std@@SAXAAV?$allocator@UVector2D@@@1@PAUVector2D@@ABU3@@Z ; std::allocator_traits<std::allocator<Vector2D> >::construct<Vector2D,Vector2D const &>
	add	esp, 12					; 0000000cH

; 920  : 			_STD forward<_Types>(_Args)...);
; 921  : 		}

	add	esp, 4
	cmp	ebp, esp
	call	__RTC_CheckEsp
	mov	esp, ebp
	pop	ebp
	ret	8
??$construct@UVector2D@@ABU1@@?$_Wrap_alloc@V?$allocator@UVector2D@@@std@@@std@@QAEXPAUVector2D@@ABU2@@Z ENDP ; std::_Wrap_alloc<std::allocator<Vector2D> >::construct<Vector2D,Vector2D const &>
_TEXT	ENDS
; Function compile flags: /Odtp /RTCsu
; File d:\microsoft visual studio 14.0\vc\include\xmemory0
;	COMDAT ??$construct@UVector2D@@AAU1@@?$_Wrap_alloc@V?$allocator@UVector2D@@@std@@@std@@QAEXPAUVector2D@@AAU2@@Z
_TEXT	SEGMENT
_this$ = -4						; size = 4
__Ptr$ = 8						; size = 4
_<_Args_0>$ = 12					; size = 4
??$construct@UVector2D@@AAU1@@?$_Wrap_alloc@V?$allocator@UVector2D@@@std@@@std@@QAEXPAUVector2D@@AAU2@@Z PROC ; std::_Wrap_alloc<std::allocator<Vector2D> >::construct<Vector2D,Vector2D &>, COMDAT
; _this$ = ecx

; 918  : 		{	// construct _Ty(_Types...) at _Ptr

	push	ebp
	mov	ebp, esp
	push	ecx
	mov	DWORD PTR [ebp-4], -858993460		; ccccccccH
	mov	DWORD PTR _this$[ebp], ecx

; 919  : 		_Mytraits::construct(*this, _Ptr,

	mov	eax, DWORD PTR _<_Args_0>$[ebp]
	push	eax
	call	??$forward@AAUVector2D@@@std@@YAAAUVector2D@@AAU1@@Z ; std::forward<Vector2D &>
	add	esp, 4
	push	eax
	mov	ecx, DWORD PTR __Ptr$[ebp]
	push	ecx
	mov	edx, DWORD PTR _this$[ebp]
	push	edx
	call	??$construct@UVector2D@@AAU1@@?$allocator_traits@V?$allocator@UVector2D@@@std@@@std@@SAXAAV?$allocator@UVector2D@@@1@PAUVector2D@@AAU3@@Z ; std::allocator_traits<std::allocator<Vector2D> >::construct<Vector2D,Vector2D &>
	add	esp, 12					; 0000000cH

; 920  : 			_STD forward<_Types>(_Args)...);
; 921  : 		}

	add	esp, 4
	cmp	ebp, esp
	call	__RTC_CheckEsp
	mov	esp, ebp
	pop	ebp
	ret	8
??$construct@UVector2D@@AAU1@@?$_Wrap_alloc@V?$allocator@UVector2D@@@std@@@std@@QAEXPAUVector2D@@AAU2@@Z ENDP ; std::_Wrap_alloc<std::allocator<Vector2D> >::construct<Vector2D,Vector2D &>
_TEXT	ENDS
; Function compile flags: /Odtp /RTCsu
; File d:\microsoft visual studio 14.0\vc\include\xstddef
;	COMDAT ??$addressof@$$CBUVector2D@@@std@@YAPBUVector2D@@ABU1@@Z
_TEXT	SEGMENT
$T1 = -2						; size = 1
__Val$ = 8						; size = 4
??$addressof@$$CBUVector2D@@@std@@YAPBUVector2D@@ABU1@@Z PROC ; std::addressof<Vector2D const >, COMDAT

; 699  : 	{	// return address of _Val

	push	ebp
	mov	ebp, esp
	push	ecx
	mov	DWORD PTR [ebp-4], -858993460		; ccccccccH

; 700  : 	return (_Addressof(_Val, is_function<_Ty>()));

	movzx	eax, BYTE PTR $T1[ebp]
	push	eax
	mov	ecx, DWORD PTR __Val$[ebp]
	push	ecx
	call	??$_Addressof@$$CBUVector2D@@@std@@YAPBUVector2D@@ABU1@U?$integral_constant@_N$0A@@0@@Z ; std::_Addressof<Vector2D const >
	add	esp, 8

; 701  : 	}

	add	esp, 4
	cmp	ebp, esp
	call	__RTC_CheckEsp
	mov	esp, ebp
	pop	ebp
	ret	0
??$addressof@$$CBUVector2D@@@std@@YAPBUVector2D@@ABU1@@Z ENDP ; std::addressof<Vector2D const >
_TEXT	ENDS
; Function compile flags: /Odtp /RTCsu
; File d:\microsoft visual studio 14.0\vc\include\xmemory0
;	COMDAT ?pointer_to@?$pointer_traits@PAUGraveRecord@GraveMarkers@@@std@@SAPAUGraveRecord@GraveMarkers@@AAU34@@Z
_TEXT	SEGMENT
__Val$ = 8						; size = 4
?pointer_to@?$pointer_traits@PAUGraveRecord@GraveMarkers@@@std@@SAPAUGraveRecord@GraveMarkers@@AAU34@@Z PROC ; std::pointer_traits<GraveMarkers::GraveRecord *>::pointer_to, COMDAT

; 316  : 		{	// convert raw reference to pointer

	push	ebp
	mov	ebp, esp

; 317  : 		return (_STD addressof(_Val));

	mov	eax, DWORD PTR __Val$[ebp]
	push	eax
	call	??$addressof@UGraveRecord@GraveMarkers@@@std@@YAPAUGraveRecord@GraveMarkers@@AAU12@@Z ; std::addressof<GraveMarkers::GraveRecord>
	add	esp, 4

; 318  : 		}

	cmp	ebp, esp
	call	__RTC_CheckEsp
	pop	ebp
	ret	0
?pointer_to@?$pointer_traits@PAUGraveRecord@GraveMarkers@@@std@@SAPAUGraveRecord@GraveMarkers@@AAU34@@Z ENDP ; std::pointer_traits<GraveMarkers::GraveRecord *>::pointer_to
_TEXT	ENDS
; Function compile flags: /Odtp /RTCsu
;	COMDAT ??4?$_List_iterator@V?$_List_val@U?$_List_simple_types@UGraveRecord@GraveMarkers@@@std@@@std@@@std@@QAEAAV01@$$QAV01@@Z
_TEXT	SEGMENT
_this$ = -4						; size = 4
___that$ = 8						; size = 4
??4?$_List_iterator@V?$_List_val@U?$_List_simple_types@UGraveRecord@GraveMarkers@@@std@@@std@@@std@@QAEAAV01@$$QAV01@@Z PROC ; std::_List_iterator<std::_List_val<std::_List_simple_types<GraveMarkers::GraveRecord> > >::operator=, COMDAT
; _this$ = ecx
	push	ebp
	mov	ebp, esp
	push	ecx
	mov	DWORD PTR [ebp-4], -858993460		; ccccccccH
	mov	DWORD PTR _this$[ebp], ecx
	mov	eax, DWORD PTR ___that$[ebp]
	push	eax
	mov	ecx, DWORD PTR _this$[ebp]
	call	??4?$_List_const_iterator@V?$_List_val@U?$_List_simple_types@UGraveRecord@GraveMarkers@@@std@@@std@@@std@@QAEAAV01@$$QAV01@@Z
	mov	eax, DWORD PTR _this$[ebp]
	add	esp, 4
	cmp	ebp, esp
	call	__RTC_CheckEsp
	mov	esp, ebp
	pop	ebp
	ret	4
??4?$_List_iterator@V?$_List_val@U?$_List_simple_types@UGraveRecord@GraveMarkers@@@std@@@std@@@std@@QAEAAV01@$$QAV01@@Z ENDP ; std::_List_iterator<std::_List_val<std::_List_simple_types<GraveMarkers::GraveRecord> > >::operator=
_TEXT	ENDS
; Function compile flags: /Odtp /RTCsu
;	COMDAT ??1?$_List_iterator@V?$_List_val@U?$_List_simple_types@UGraveRecord@GraveMarkers@@@std@@@std@@@std@@QAE@XZ
_TEXT	SEGMENT
_this$ = -4						; size = 4
??1?$_List_iterator@V?$_List_val@U?$_List_simple_types@UGraveRecord@GraveMarkers@@@std@@@std@@@std@@QAE@XZ PROC ; std::_List_iterator<std::_List_val<std::_List_simple_types<GraveMarkers::GraveRecord> > >::~_List_iterator<std::_List_val<std::_List_simple_types<GraveMarkers::GraveRecord> > >, COMDAT
; _this$ = ecx
	push	ebp
	mov	ebp, esp
	push	ecx
	mov	DWORD PTR [ebp-4], -858993460		; ccccccccH
	mov	DWORD PTR _this$[ebp], ecx
	mov	ecx, DWORD PTR _this$[ebp]
	call	??1?$_List_const_iterator@V?$_List_val@U?$_List_simple_types@UGraveRecord@GraveMarkers@@@std@@@std@@@std@@QAE@XZ
	add	esp, 4
	cmp	ebp, esp
	call	__RTC_CheckEsp
	mov	esp, ebp
	pop	ebp
	ret	0
??1?$_List_iterator@V?$_List_val@U?$_List_simple_types@UGraveRecord@GraveMarkers@@@std@@@std@@@std@@QAE@XZ ENDP ; std::_List_iterator<std::_List_val<std::_List_simple_types<GraveMarkers::GraveRecord> > >::~_List_iterator<std::_List_val<std::_List_simple_types<GraveMarkers::GraveRecord> > >
_TEXT	ENDS
; Function compile flags: /Odtp /RTCsu
; File d:\microsoft visual studio 14.0\vc\include\list
;	COMDAT ??E?$_List_iterator@V?$_List_val@U?$_List_simple_types@UGraveRecord@GraveMarkers@@@std@@@std@@@std@@QAEAAV01@XZ
_TEXT	SEGMENT
_this$ = -4						; size = 4
??E?$_List_iterator@V?$_List_val@U?$_List_simple_types@UGraveRecord@GraveMarkers@@@std@@@std@@@std@@QAEAAV01@XZ PROC ; std::_List_iterator<std::_List_val<std::_List_simple_types<GraveMarkers::GraveRecord> > >::operator++, COMDAT
; _this$ = ecx

; 370  : 		{	// preincrement

	push	ebp
	mov	ebp, esp
	push	ecx
	mov	DWORD PTR [ebp-4], -858993460		; ccccccccH
	mov	DWORD PTR _this$[ebp], ecx

; 371  : 		++(*(_Mybase *)this);

	mov	ecx, DWORD PTR _this$[ebp]
	call	??E?$_List_const_iterator@V?$_List_val@U?$_List_simple_types@UGraveRecord@GraveMarkers@@@std@@@std@@@std@@QAEAAV01@XZ ; std::_List_const_iterator<std::_List_val<std::_List_simple_types<GraveMarkers::GraveRecord> > >::operator++

; 372  : 		return (*this);

	mov	eax, DWORD PTR _this$[ebp]

; 373  : 		}

	add	esp, 4
	cmp	ebp, esp
	call	__RTC_CheckEsp
	mov	esp, ebp
	pop	ebp
	ret	0
??E?$_List_iterator@V?$_List_val@U?$_List_simple_types@UGraveRecord@GraveMarkers@@@std@@@std@@@std@@QAEAAV01@XZ ENDP ; std::_List_iterator<std::_List_val<std::_List_simple_types<GraveMarkers::GraveRecord> > >::operator++
_TEXT	ENDS
; Function compile flags: /Odtp /RTCsu
; File d:\microsoft visual studio 14.0\vc\include\list
;	COMDAT ??C?$_List_iterator@V?$_List_val@U?$_List_simple_types@UGraveRecord@GraveMarkers@@@std@@@std@@@std@@QBEPAUGraveRecord@GraveMarkers@@XZ
_TEXT	SEGMENT
_this$ = -4						; size = 4
??C?$_List_iterator@V?$_List_val@U?$_List_simple_types@UGraveRecord@GraveMarkers@@@std@@@std@@@std@@QBEPAUGraveRecord@GraveMarkers@@XZ PROC ; std::_List_iterator<std::_List_val<std::_List_simple_types<GraveMarkers::GraveRecord> > >::operator->, COMDAT
; _this$ = ecx

; 365  : 		{	// return pointer to class object

	push	ebp
	mov	ebp, esp
	push	ecx
	mov	DWORD PTR [ebp-4], -858993460		; ccccccccH
	mov	DWORD PTR _this$[ebp], ecx

; 366  : 		return (_STD pointer_traits<pointer>::pointer_to(**this));

	mov	ecx, DWORD PTR _this$[ebp]
	call	??D?$_List_iterator@V?$_List_val@U?$_List_simple_types@UGraveRecord@GraveMarkers@@@std@@@std@@@std@@QBEAAUGraveRecord@GraveMarkers@@XZ ; std::_List_iterator<std::_List_val<std::_List_simple_types<GraveMarkers::GraveRecord> > >::operator*
	push	eax
	call	?pointer_to@?$pointer_traits@PAUGraveRecord@GraveMarkers@@@std@@SAPAUGraveRecord@GraveMarkers@@AAU34@@Z ; std::pointer_traits<GraveMarkers::GraveRecord *>::pointer_to
	add	esp, 4

; 367  : 		}

	add	esp, 4
	cmp	ebp, esp
	call	__RTC_CheckEsp
	mov	esp, ebp
	pop	ebp
	ret	0
??C?$_List_iterator@V?$_List_val@U?$_List_simple_types@UGraveRecord@GraveMarkers@@@std@@@std@@@std@@QBEPAUGraveRecord@GraveMarkers@@XZ ENDP ; std::_List_iterator<std::_List_val<std::_List_simple_types<GraveMarkers::GraveRecord> > >::operator->
_TEXT	ENDS
; Function compile flags: /Odtp /RTCsu
; File d:\microsoft visual studio 14.0\vc\include\list
;	COMDAT ??D?$_List_iterator@V?$_List_val@U?$_List_simple_types@UGraveRecord@GraveMarkers@@@std@@@std@@@std@@QBEAAUGraveRecord@GraveMarkers@@XZ
_TEXT	SEGMENT
_this$ = -4						; size = 4
??D?$_List_iterator@V?$_List_val@U?$_List_simple_types@UGraveRecord@GraveMarkers@@@std@@@std@@@std@@QBEAAUGraveRecord@GraveMarkers@@XZ PROC ; std::_List_iterator<std::_List_val<std::_List_simple_types<GraveMarkers::GraveRecord> > >::operator*, COMDAT
; _this$ = ecx

; 360  : 		{	// return designated value

	push	ebp
	mov	ebp, esp
	push	ecx
	mov	DWORD PTR [ebp-4], -858993460		; ccccccccH
	mov	DWORD PTR _this$[ebp], ecx

; 361  : 		return ((reference)**(_Mybase *)this);

	mov	ecx, DWORD PTR _this$[ebp]
	call	??D?$_List_const_iterator@V?$_List_val@U?$_List_simple_types@UGraveRecord@GraveMarkers@@@std@@@std@@@std@@QBEABUGraveRecord@GraveMarkers@@XZ ; std::_List_const_iterator<std::_List_val<std::_List_simple_types<GraveMarkers::GraveRecord> > >::operator*

; 362  : 		}

	add	esp, 4
	cmp	ebp, esp
	call	__RTC_CheckEsp
	mov	esp, ebp
	pop	ebp
	ret	0
??D?$_List_iterator@V?$_List_val@U?$_List_simple_types@UGraveRecord@GraveMarkers@@@std@@@std@@@std@@QBEAAUGraveRecord@GraveMarkers@@XZ ENDP ; std::_List_iterator<std::_List_val<std::_List_simple_types<GraveMarkers::GraveRecord> > >::operator*
_TEXT	ENDS
; Function compile flags: /Odtp /RTCsu
; File d:\microsoft visual studio 14.0\vc\include\list
;	COMDAT ??0?$_List_iterator@V?$_List_val@U?$_List_simple_types@UGraveRecord@GraveMarkers@@@std@@@std@@@std@@QAE@PAU?$_List_node@UGraveRecord@GraveMarkers@@PAX@1@PBV?$_List_val@U?$_List_simple_types@UGraveRecord@GraveMarkers@@@std@@@1@@Z
_TEXT	SEGMENT
_this$ = -4						; size = 4
__Pnode$ = 8						; size = 4
__Plist$ = 12						; size = 4
??0?$_List_iterator@V?$_List_val@U?$_List_simple_types@UGraveRecord@GraveMarkers@@@std@@@std@@@std@@QAE@PAU?$_List_node@UGraveRecord@GraveMarkers@@PAX@1@PBV?$_List_val@U?$_List_simple_types@UGraveRecord@GraveMarkers@@@std@@@1@@Z PROC ; std::_List_iterator<std::_List_val<std::_List_simple_types<GraveMarkers::GraveRecord> > >::_List_iterator<std::_List_val<std::_List_simple_types<GraveMarkers::GraveRecord> > >, COMDAT
; _this$ = ecx

; 343  : 		{	// construct with node pointer _Pnode

	push	ebp
	mov	ebp, esp
	push	ecx
	mov	DWORD PTR [ebp-4], -858993460		; ccccccccH
	mov	DWORD PTR _this$[ebp], ecx

; 342  : 		: _Mybase(_Pnode, _Plist)

	mov	eax, DWORD PTR __Plist$[ebp]
	push	eax
	mov	ecx, DWORD PTR __Pnode$[ebp]
	push	ecx
	mov	ecx, DWORD PTR _this$[ebp]
	call	??0?$_List_const_iterator@V?$_List_val@U?$_List_simple_types@UGraveRecord@GraveMarkers@@@std@@@std@@@std@@QAE@PAU?$_List_node@UGraveRecord@GraveMarkers@@PAX@1@PBV?$_List_val@U?$_List_simple_types@UGraveRecord@GraveMarkers@@@std@@@1@@Z ; std::_List_const_iterator<std::_List_val<std::_List_simple_types<GraveMarkers::GraveRecord> > >::_List_const_iterator<std::_List_val<std::_List_simple_types<GraveMarkers::GraveRecord> > >

; 344  : 		}

	mov	eax, DWORD PTR _this$[ebp]
	add	esp, 4
	cmp	ebp, esp
	call	__RTC_CheckEsp
	mov	esp, ebp
	pop	ebp
	ret	8
??0?$_List_iterator@V?$_List_val@U?$_List_simple_types@UGraveRecord@GraveMarkers@@@std@@@std@@@std@@QAE@PAU?$_List_node@UGraveRecord@GraveMarkers@@PAX@1@PBV?$_List_val@U?$_List_simple_types@UGraveRecord@GraveMarkers@@@std@@@1@@Z ENDP ; std::_List_iterator<std::_List_val<std::_List_simple_types<GraveMarkers::GraveRecord> > >::_List_iterator<std::_List_val<std::_List_simple_types<GraveMarkers::GraveRecord> > >
_TEXT	ENDS
; Function compile flags: /Odtp /RTCsu
;	COMDAT ??4?$_List_const_iterator@V?$_List_val@U?$_List_simple_types@UGraveRecord@GraveMarkers@@@std@@@std@@@std@@QAEAAV01@$$QAV01@@Z
_TEXT	SEGMENT
_this$ = -4						; size = 4
___that$ = 8						; size = 4
??4?$_List_const_iterator@V?$_List_val@U?$_List_simple_types@UGraveRecord@GraveMarkers@@@std@@@std@@@std@@QAEAAV01@$$QAV01@@Z PROC ; std::_List_const_iterator<std::_List_val<std::_List_simple_types<GraveMarkers::GraveRecord> > >::operator=, COMDAT
; _this$ = ecx
	push	ebp
	mov	ebp, esp
	push	ecx
	mov	DWORD PTR [ebp-4], -858993460		; ccccccccH
	mov	DWORD PTR _this$[ebp], ecx
	mov	eax, DWORD PTR ___that$[ebp]
	push	eax
	mov	ecx, DWORD PTR _this$[ebp]
	call	??4?$_List_unchecked_const_iterator@V?$_List_val@U?$_List_simple_types@UGraveRecord@GraveMarkers@@@std@@@std@@U_Iterator_base12@2@@std@@QAEAAV01@$$QAV01@@Z
	mov	eax, DWORD PTR _this$[ebp]
	add	esp, 4
	cmp	ebp, esp
	call	__RTC_CheckEsp
	mov	esp, ebp
	pop	ebp
	ret	4
??4?$_List_const_iterator@V?$_List_val@U?$_List_simple_types@UGraveRecord@GraveMarkers@@@std@@@std@@@std@@QAEAAV01@$$QAV01@@Z ENDP ; std::_List_const_iterator<std::_List_val<std::_List_simple_types<GraveMarkers::GraveRecord> > >::operator=
_TEXT	ENDS
; Function compile flags: /Odtp /RTCsu
;	COMDAT ??0?$_List_const_iterator@V?$_List_val@U?$_List_simple_types@UGraveRecord@GraveMarkers@@@std@@@std@@@std@@QAE@$$QAV01@@Z
_TEXT	SEGMENT
_this$ = -4						; size = 4
___that$ = 8						; size = 4
??0?$_List_const_iterator@V?$_List_val@U?$_List_simple_types@UGraveRecord@GraveMarkers@@@std@@@std@@@std@@QAE@$$QAV01@@Z PROC ; std::_List_const_iterator<std::_List_val<std::_List_simple_types<GraveMarkers::GraveRecord> > >::_List_const_iterator<std::_List_val<std::_List_simple_types<GraveMarkers::GraveRecord> > >, COMDAT
; _this$ = ecx
	push	ebp
	mov	ebp, esp
	push	ecx
	mov	DWORD PTR [ebp-4], -858993460		; ccccccccH
	mov	DWORD PTR _this$[ebp], ecx
	mov	eax, DWORD PTR ___that$[ebp]
	push	eax
	mov	ecx, DWORD PTR _this$[ebp]
	call	??0?$_List_unchecked_const_iterator@V?$_List_val@U?$_List_simple_types@UGraveRecord@GraveMarkers@@@std@@@std@@U_Iterator_base12@2@@std@@QAE@$$QAV01@@Z
	mov	eax, DWORD PTR _this$[ebp]
	add	esp, 4
	cmp	ebp, esp
	call	__RTC_CheckEsp
	mov	esp, ebp
	pop	ebp
	ret	4
??0?$_List_const_iterator@V?$_List_val@U?$_List_simple_types@UGraveRecord@GraveMarkers@@@std@@@std@@@std@@QAE@$$QAV01@@Z ENDP ; std::_List_const_iterator<std::_List_val<std::_List_simple_types<GraveMarkers::GraveRecord> > >::_List_const_iterator<std::_List_val<std::_List_simple_types<GraveMarkers::GraveRecord> > >
_TEXT	ENDS
; Function compile flags: /Odtp /RTCsu
;	COMDAT ??0?$_List_const_iterator@V?$_List_val@U?$_List_simple_types@UGraveRecord@GraveMarkers@@@std@@@std@@@std@@QAE@ABV01@@Z
_TEXT	SEGMENT
_this$ = -4						; size = 4
___that$ = 8						; size = 4
??0?$_List_const_iterator@V?$_List_val@U?$_List_simple_types@UGraveRecord@GraveMarkers@@@std@@@std@@@std@@QAE@ABV01@@Z PROC ; std::_List_const_iterator<std::_List_val<std::_List_simple_types<GraveMarkers::GraveRecord> > >::_List_const_iterator<std::_List_val<std::_List_simple_types<GraveMarkers::GraveRecord> > >, COMDAT
; _this$ = ecx
	push	ebp
	mov	ebp, esp
	push	ecx
	mov	DWORD PTR [ebp-4], -858993460		; ccccccccH
	mov	DWORD PTR _this$[ebp], ecx
	mov	eax, DWORD PTR ___that$[ebp]
	push	eax
	mov	ecx, DWORD PTR _this$[ebp]
	call	??0?$_List_unchecked_const_iterator@V?$_List_val@U?$_List_simple_types@UGraveRecord@GraveMarkers@@@std@@@std@@U_Iterator_base12@2@@std@@QAE@ABV01@@Z
	mov	eax, DWORD PTR _this$[ebp]
	add	esp, 4
	cmp	ebp, esp
	call	__RTC_CheckEsp
	mov	esp, ebp
	pop	ebp
	ret	4
??0?$_List_const_iterator@V?$_List_val@U?$_List_simple_types@UGraveRecord@GraveMarkers@@@std@@@std@@@std@@QAE@ABV01@@Z ENDP ; std::_List_const_iterator<std::_List_val<std::_List_simple_types<GraveMarkers::GraveRecord> > >::_List_const_iterator<std::_List_val<std::_List_simple_types<GraveMarkers::GraveRecord> > >
_TEXT	ENDS
; Function compile flags: /Odtp /RTCsu
;	COMDAT ??1?$_List_const_iterator@V?$_List_val@U?$_List_simple_types@UGraveRecord@GraveMarkers@@@std@@@std@@@std@@QAE@XZ
_TEXT	SEGMENT
_this$ = -4						; size = 4
??1?$_List_const_iterator@V?$_List_val@U?$_List_simple_types@UGraveRecord@GraveMarkers@@@std@@@std@@@std@@QAE@XZ PROC ; std::_List_const_iterator<std::_List_val<std::_List_simple_types<GraveMarkers::GraveRecord> > >::~_List_const_iterator<std::_List_val<std::_List_simple_types<GraveMarkers::GraveRecord> > >, COMDAT
; _this$ = ecx
	push	ebp
	mov	ebp, esp
	push	ecx
	mov	DWORD PTR [ebp-4], -858993460		; ccccccccH
	mov	DWORD PTR _this$[ebp], ecx
	mov	ecx, DWORD PTR _this$[ebp]
	call	??1?$_List_unchecked_const_iterator@V?$_List_val@U?$_List_simple_types@UGraveRecord@GraveMarkers@@@std@@@std@@U_Iterator_base12@2@@std@@QAE@XZ
	add	esp, 4
	cmp	ebp, esp
	call	__RTC_CheckEsp
	mov	esp, ebp
	pop	ebp
	ret	0
??1?$_List_const_iterator@V?$_List_val@U?$_List_simple_types@UGraveRecord@GraveMarkers@@@std@@@std@@@std@@QAE@XZ ENDP ; std::_List_const_iterator<std::_List_val<std::_List_simple_types<GraveMarkers::GraveRecord> > >::~_List_const_iterator<std::_List_val<std::_List_simple_types<GraveMarkers::GraveRecord> > >
_TEXT	ENDS
; Function compile flags: /Odtp /RTCsu
; File d:\microsoft visual studio 14.0\vc\include\list
;	COMDAT ??9?$_List_const_iterator@V?$_List_val@U?$_List_simple_types@UGraveRecord@GraveMarkers@@@std@@@std@@@std@@QBE_NABV01@@Z
_TEXT	SEGMENT
tv69 = -8						; size = 4
_this$ = -4						; size = 4
__Right$ = 8						; size = 4
??9?$_List_const_iterator@V?$_List_val@U?$_List_simple_types@UGraveRecord@GraveMarkers@@@std@@@std@@@std@@QBE_NABV01@@Z PROC ; std::_List_const_iterator<std::_List_val<std::_List_simple_types<GraveMarkers::GraveRecord> > >::operator!=, COMDAT
; _this$ = ecx

; 300  : 		{	// test for iterator inequality

	push	ebp
	mov	ebp, esp
	sub	esp, 8
	mov	DWORD PTR [ebp-8], -858993460		; ccccccccH
	mov	DWORD PTR [ebp-4], -858993460		; ccccccccH
	mov	DWORD PTR _this$[ebp], ecx

; 301  : 		return (!(*this == _Right));

	mov	eax, DWORD PTR __Right$[ebp]
	push	eax
	mov	ecx, DWORD PTR _this$[ebp]
	call	??8?$_List_const_iterator@V?$_List_val@U?$_List_simple_types@UGraveRecord@GraveMarkers@@@std@@@std@@@std@@QBE_NABV01@@Z ; std::_List_const_iterator<std::_List_val<std::_List_simple_types<GraveMarkers::GraveRecord> > >::operator==
	movzx	ecx, al
	test	ecx, ecx
	jne	SHORT $LN3@operator
	mov	DWORD PTR tv69[ebp], 1
	jmp	SHORT $LN4@operator
$LN3@operator:
	mov	DWORD PTR tv69[ebp], 0
$LN4@operator:
	mov	al, BYTE PTR tv69[ebp]

; 302  : 		}

	add	esp, 8
	cmp	ebp, esp
	call	__RTC_CheckEsp
	mov	esp, ebp
	pop	ebp
	ret	4
??9?$_List_const_iterator@V?$_List_val@U?$_List_simple_types@UGraveRecord@GraveMarkers@@@std@@@std@@@std@@QBE_NABV01@@Z ENDP ; std::_List_const_iterator<std::_List_val<std::_List_simple_types<GraveMarkers::GraveRecord> > >::operator!=
_TEXT	ENDS
; Function compile flags: /Odtp /RTCsu
; File d:\microsoft visual studio 14.0\vc\include\list
;	COMDAT ??8?$_List_const_iterator@V?$_List_val@U?$_List_simple_types@UGraveRecord@GraveMarkers@@@std@@@std@@@std@@QBE_NABV01@@Z
_TEXT	SEGMENT
tv139 = -8						; size = 4
_this$ = -4						; size = 4
__Right$ = 8						; size = 4
??8?$_List_const_iterator@V?$_List_val@U?$_List_simple_types@UGraveRecord@GraveMarkers@@@std@@@std@@@std@@QBE_NABV01@@Z PROC ; std::_List_const_iterator<std::_List_val<std::_List_simple_types<GraveMarkers::GraveRecord> > >::operator==, COMDAT
; _this$ = ecx

; 284  : 		{	// test for iterator equality

	push	ebp
	mov	ebp, esp
	sub	esp, 8
	push	esi
	mov	DWORD PTR [ebp-8], -858993460		; ccccccccH
	mov	DWORD PTR [ebp-4], -858993460		; ccccccccH
	mov	DWORD PTR _this$[ebp], ecx

; 285  :  #if _ITERATOR_DEBUG_LEVEL == 2
; 286  : 		if (this->_Getcont() != _Right._Getcont())

	mov	ecx, DWORD PTR _this$[ebp]
	call	?_Getcont@_Iterator_base12@std@@QBEPBU_Container_base12@2@XZ ; std::_Iterator_base12::_Getcont
	mov	esi, eax
	mov	ecx, DWORD PTR __Right$[ebp]
	call	?_Getcont@_Iterator_base12@std@@QBEPBU_Container_base12@2@XZ ; std::_Iterator_base12::_Getcont
	cmp	esi, eax
	je	SHORT $LN2@operator

; 287  : 			{	// report error
; 288  : 			_DEBUG_ERROR("list iterators incompatible");

	push	288					; 00000120H
	push	OFFSET ??_C@_1GA@IINJPBGE@?$AAD?$AA?3?$AA?2?$AAM?$AAi?$AAc?$AAr?$AAo?$AAs?$AAo?$AAf?$AAt?$AA?5?$AAV?$AAi?$AAs?$AAu?$AAa?$AAl?$AA?5?$AAS?$AAt?$AAu?$AAd?$AAi?$AAo?$AA?5?$AA1?$AA4?$AA?4?$AA0?$AA?2@
	push	OFFSET ??_C@_1DI@MDELDGPI@?$AAl?$AAi?$AAs?$AAt?$AA?5?$AAi?$AAt?$AAe?$AAr?$AAa?$AAt?$AAo?$AAr?$AAs?$AA?5?$AAi?$AAn?$AAc?$AAo?$AAm?$AAp?$AAa?$AAt?$AAi?$AAb?$AAl?$AAe?$AA?$AA@
	call	?_Debug_message@std@@YAXPB_W0I@Z	; std::_Debug_message
	add	esp, 12					; 0000000cH

; 289  : 			_SCL_SECURE_INVALID_ARGUMENT;

	mov	eax, OFFSET ??_C@_0CI@FNPHFCCM@Standard?5C?$CL?$CL?5Libraries?5Invalid?5A@
	test	eax, eax
	je	SHORT $LN4@operator
	xor	ecx, ecx
	jne	SHORT $LN5@operator
$LN4@operator:
	push	OFFSET ??_C@_1FO@GJIHNDLM@?$AA?$CC?$AAS?$AAt?$AAa?$AAn?$AAd?$AAa?$AAr?$AAd?$AA?5?$AAC?$AA?$CL?$AA?$CL?$AA?5?$AAL?$AAi?$AAb?$AAr?$AAa?$AAr?$AAi?$AAe?$AAs?$AA?5?$AAI?$AAn?$AAv?$AAa?$AAl?$AAi?$AAd?$AA?5@
	push	OFFSET ??_C@_17CNPHIMPH@?$AA?$CF?$AAl?$AAs?$AA?$AA@
	push	0
	push	289					; 00000121H
	push	OFFSET ??_C@_1GA@IINJPBGE@?$AAD?$AA?3?$AA?2?$AAM?$AAi?$AAc?$AAr?$AAo?$AAs?$AAo?$AAf?$AAt?$AA?5?$AAV?$AAi?$AAs?$AAu?$AAa?$AAl?$AA?5?$AAS?$AAt?$AAu?$AAd?$AAi?$AAo?$AA?5?$AA1?$AA4?$AA?4?$AA0?$AA?2@
	push	2
	call	__CrtDbgReportW
	add	esp, 24					; 00000018H
	cmp	eax, 1
	jne	SHORT $LN5@operator
	int	3
$LN5@operator:
	push	0
	push	289					; 00000121H
	push	OFFSET ??_C@_1GA@IINJPBGE@?$AAD?$AA?3?$AA?2?$AAM?$AAi?$AAc?$AAr?$AAo?$AAs?$AAo?$AAf?$AAt?$AA?5?$AAV?$AAi?$AAs?$AAu?$AAa?$AAl?$AA?5?$AAS?$AAt?$AAu?$AAd?$AAi?$AAo?$AA?5?$AA1?$AA4?$AA?4?$AA0?$AA?2@
	push	OFFSET ??_C@_1BAC@GABKONCL@?$AAs?$AAt?$AAd?$AA?3?$AA?3?$AA_?$AAL?$AAi?$AAs?$AAt?$AA_?$AAc?$AAo?$AAn?$AAs?$AAt?$AA_?$AAi?$AAt?$AAe?$AAr?$AAa?$AAt?$AAo?$AAr?$AA?$DM?$AAc?$AAl?$AAa?$AAs?$AAs?$AA?5@
	push	OFFSET ??_C@_1CG@JNLFBNGN@?$AA?$CC?$AAi?$AAn?$AAv?$AAa?$AAl?$AAi?$AAd?$AA?5?$AAa?$AAr?$AAg?$AAu?$AAm?$AAe?$AAn?$AAt?$AA?$CC?$AA?$AA@
	call	__invalid_parameter
	add	esp, 20					; 00000014H
$LN2@operator:

; 290  : 			}
; 291  : 
; 292  :  #elif _ITERATOR_DEBUG_LEVEL == 1
; 293  : 		_SCL_SECURE_VALIDATE(this->_Getcont() == _Right._Getcont());
; 294  :  #endif /* _ITERATOR_DEBUG_LEVEL */
; 295  : 
; 296  : 		return (this->_Ptr == _Right._Ptr);

	mov	eax, DWORD PTR _this$[ebp]
	mov	ecx, DWORD PTR __Right$[ebp]
	mov	edx, DWORD PTR [eax+8]
	cmp	edx, DWORD PTR [ecx+8]
	jne	SHORT $LN6@operator
	mov	DWORD PTR tv139[ebp], 1
	jmp	SHORT $LN7@operator
$LN6@operator:
	mov	DWORD PTR tv139[ebp], 0
$LN7@operator:
	mov	al, BYTE PTR tv139[ebp]

; 297  : 		}

	pop	esi
	add	esp, 8
	cmp	ebp, esp
	call	__RTC_CheckEsp
	mov	esp, ebp
	pop	ebp
	ret	4
??8?$_List_const_iterator@V?$_List_val@U?$_List_simple_types@UGraveRecord@GraveMarkers@@@std@@@std@@@std@@QBE_NABV01@@Z ENDP ; std::_List_const_iterator<std::_List_val<std::_List_simple_types<GraveMarkers::GraveRecord> > >::operator==
_TEXT	ENDS
; Function compile flags: /Odtp /RTCsu
; File d:\microsoft visual studio 14.0\vc\include\list
;	COMDAT ??E?$_List_const_iterator@V?$_List_val@U?$_List_simple_types@UGraveRecord@GraveMarkers@@@std@@@std@@@std@@QAE?AV01@H@Z
_TEXT	SEGMENT
$T2 = -40						; size = 4
__Tmp$ = -32						; size = 12
_this$ = -16						; size = 4
__$EHRec$ = -12						; size = 12
___$ReturnUdt$ = 8					; size = 4
___formal$ = 12						; size = 4
??E?$_List_const_iterator@V?$_List_val@U?$_List_simple_types@UGraveRecord@GraveMarkers@@@std@@@std@@@std@@QAE?AV01@H@Z PROC ; std::_List_const_iterator<std::_List_val<std::_List_simple_types<GraveMarkers::GraveRecord> > >::operator++, COMDAT
; _this$ = ecx

; 245  : 		{	// postincrement

	push	ebp
	mov	ebp, esp
	push	-1
	push	__ehhandler$??E?$_List_const_iterator@V?$_List_val@U?$_List_simple_types@UGraveRecord@GraveMarkers@@@std@@@std@@@std@@QAE?AV01@H@Z
	mov	eax, DWORD PTR fs:0
	push	eax
	sub	esp, 28					; 0000001cH
	mov	eax, -858993460				; ccccccccH
	mov	DWORD PTR [ebp-40], eax
	mov	DWORD PTR [ebp-36], eax
	mov	DWORD PTR [ebp-32], eax
	mov	DWORD PTR [ebp-28], eax
	mov	DWORD PTR [ebp-24], eax
	mov	DWORD PTR [ebp-20], eax
	mov	DWORD PTR [ebp-16], eax
	mov	eax, DWORD PTR ___security_cookie
	xor	eax, ebp
	push	eax
	lea	eax, DWORD PTR __$EHRec$[ebp]
	mov	DWORD PTR fs:0, eax
	mov	DWORD PTR _this$[ebp], ecx
	mov	DWORD PTR $T2[ebp], 0

; 246  : 		_Myiter _Tmp = *this;

	mov	eax, DWORD PTR _this$[ebp]
	push	eax
	lea	ecx, DWORD PTR __Tmp$[ebp]
	call	??0?$_List_const_iterator@V?$_List_val@U?$_List_simple_types@UGraveRecord@GraveMarkers@@@std@@@std@@@std@@QAE@ABV01@@Z
	mov	DWORD PTR __$EHRec$[ebp+8], 0

; 247  : 		++*this;

	mov	ecx, DWORD PTR _this$[ebp]
	call	??E?$_List_const_iterator@V?$_List_val@U?$_List_simple_types@UGraveRecord@GraveMarkers@@@std@@@std@@@std@@QAEAAV01@XZ ; std::_List_const_iterator<std::_List_val<std::_List_simple_types<GraveMarkers::GraveRecord> > >::operator++

; 248  : 		return (_Tmp);

	lea	ecx, DWORD PTR __Tmp$[ebp]
	push	ecx
	mov	ecx, DWORD PTR ___$ReturnUdt$[ebp]
	call	??0?$_List_const_iterator@V?$_List_val@U?$_List_simple_types@UGraveRecord@GraveMarkers@@@std@@@std@@@std@@QAE@$$QAV01@@Z
	mov	edx, DWORD PTR $T2[ebp]
	or	edx, 1
	mov	DWORD PTR $T2[ebp], edx
	mov	DWORD PTR __$EHRec$[ebp+8], -1
	lea	ecx, DWORD PTR __Tmp$[ebp]
	call	??1?$_List_const_iterator@V?$_List_val@U?$_List_simple_types@UGraveRecord@GraveMarkers@@@std@@@std@@@std@@QAE@XZ
	mov	eax, DWORD PTR ___$ReturnUdt$[ebp]

; 249  : 		}

	push	edx
	mov	ecx, ebp
	push	eax
	lea	edx, DWORD PTR $LN9@operator
	call	@_RTC_CheckStackVars@8
	pop	eax
	pop	edx
	mov	ecx, DWORD PTR __$EHRec$[ebp]
	mov	DWORD PTR fs:0, ecx
	pop	ecx
	add	esp, 40					; 00000028H
	cmp	ebp, esp
	call	__RTC_CheckEsp
	mov	esp, ebp
	pop	ebp
	ret	8
	npad	1
$LN9@operator:
	DD	1
	DD	$LN8@operator
$LN8@operator:
	DD	-32					; ffffffe0H
	DD	12					; 0000000cH
	DD	$LN6@operator
$LN6@operator:
	DB	95					; 0000005fH
	DB	84					; 00000054H
	DB	109					; 0000006dH
	DB	112					; 00000070H
	DB	0
_TEXT	ENDS
;	COMDAT text$x
text$x	SEGMENT
__unwindfunclet$??E?$_List_const_iterator@V?$_List_val@U?$_List_simple_types@UGraveRecord@GraveMarkers@@@std@@@std@@@std@@QAE?AV01@H@Z$0:
	lea	ecx, DWORD PTR __Tmp$[ebp]
	jmp	??1?$_List_const_iterator@V?$_List_val@U?$_List_simple_types@UGraveRecord@GraveMarkers@@@std@@@std@@@std@@QAE@XZ
__ehhandler$??E?$_List_const_iterator@V?$_List_val@U?$_List_simple_types@UGraveRecord@GraveMarkers@@@std@@@std@@@std@@QAE?AV01@H@Z:
	mov	edx, DWORD PTR [esp+8]
	lea	eax, DWORD PTR [edx+12]
	mov	ecx, DWORD PTR [edx-32]
	xor	ecx, eax
	call	@__security_check_cookie@4
	mov	eax, OFFSET __ehfuncinfo$??E?$_List_const_iterator@V?$_List_val@U?$_List_simple_types@UGraveRecord@GraveMarkers@@@std@@@std@@@std@@QAE?AV01@H@Z
	jmp	___CxxFrameHandler3
text$x	ENDS
??E?$_List_const_iterator@V?$_List_val@U?$_List_simple_types@UGraveRecord@GraveMarkers@@@std@@@std@@@std@@QAE?AV01@H@Z ENDP ; std::_List_const_iterator<std::_List_val<std::_List_simple_types<GraveMarkers::GraveRecord> > >::operator++
; Function compile flags: /Odtp /RTCsu
; File d:\microsoft visual studio 14.0\vc\include\list
;	COMDAT ??E?$_List_const_iterator@V?$_List_val@U?$_List_simple_types@UGraveRecord@GraveMarkers@@@std@@@std@@@std@@QAEAAV01@XZ
_TEXT	SEGMENT
_this$ = -4						; size = 4
??E?$_List_const_iterator@V?$_List_val@U?$_List_simple_types@UGraveRecord@GraveMarkers@@@std@@@std@@@std@@QAEAAV01@XZ PROC ; std::_List_const_iterator<std::_List_val<std::_List_simple_types<GraveMarkers::GraveRecord> > >::operator++, COMDAT
; _this$ = ecx

; 224  : 		{	// preincrement

	push	ebp
	mov	ebp, esp
	push	ecx
	mov	DWORD PTR [ebp-4], -858993460		; ccccccccH
	mov	DWORD PTR _this$[ebp], ecx

; 225  :  #if _ITERATOR_DEBUG_LEVEL == 2
; 226  : 		if (this->_Getcont() == 0
; 227  : 			|| this->_Ptr == 0
; 228  : 			|| this->_Ptr == ((_Mylist *)this->_Getcont())->_Myhead)

	mov	ecx, DWORD PTR _this$[ebp]
	call	?_Getcont@_Iterator_base12@std@@QBEPBU_Container_base12@2@XZ ; std::_Iterator_base12::_Getcont
	test	eax, eax
	je	SHORT $LN3@operator
	mov	eax, DWORD PTR _this$[ebp]
	cmp	DWORD PTR [eax+8], 0
	je	SHORT $LN3@operator
	mov	ecx, DWORD PTR _this$[ebp]
	call	?_Getcont@_Iterator_base12@std@@QBEPBU_Container_base12@2@XZ ; std::_Iterator_base12::_Getcont
	mov	ecx, DWORD PTR _this$[ebp]
	mov	edx, DWORD PTR [ecx+8]
	cmp	edx, DWORD PTR [eax+4]
	jne	SHORT $LN2@operator
$LN3@operator:

; 229  : 			{	// report error
; 230  : 			_DEBUG_ERROR("list iterator not incrementable");

	push	230					; 000000e6H
	push	OFFSET ??_C@_1GA@IINJPBGE@?$AAD?$AA?3?$AA?2?$AAM?$AAi?$AAc?$AAr?$AAo?$AAs?$AAo?$AAf?$AAt?$AA?5?$AAV?$AAi?$AAs?$AAu?$AAa?$AAl?$AA?5?$AAS?$AAt?$AAu?$AAd?$AAi?$AAo?$AA?5?$AA1?$AA4?$AA?4?$AA0?$AA?2@
	push	OFFSET ??_C@_1EA@DOGAGKDH@?$AAl?$AAi?$AAs?$AAt?$AA?5?$AAi?$AAt?$AAe?$AAr?$AAa?$AAt?$AAo?$AAr?$AA?5?$AAn?$AAo?$AAt?$AA?5?$AAi?$AAn?$AAc?$AAr?$AAe?$AAm?$AAe?$AAn?$AAt?$AAa?$AAb?$AAl?$AAe?$AA?$AA@
	call	?_Debug_message@std@@YAXPB_W0I@Z	; std::_Debug_message
	add	esp, 12					; 0000000cH

; 231  : 			_SCL_SECURE_OUT_OF_RANGE;

	mov	eax, OFFSET ??_C@_0CE@OFMIGAMM@Standard?5C?$CL?$CL?5Libraries?5Out?5of?5Ra@
	test	eax, eax
	je	SHORT $LN5@operator
	xor	ecx, ecx
	jne	SHORT $LN6@operator
$LN5@operator:
	push	OFFSET ??_C@_1FG@IBPIFFN@?$AA?$CC?$AAS?$AAt?$AAa?$AAn?$AAd?$AAa?$AAr?$AAd?$AA?5?$AAC?$AA?$CL?$AA?$CL?$AA?5?$AAL?$AAi?$AAb?$AAr?$AAa?$AAr?$AAi?$AAe?$AAs?$AA?5?$AAO?$AAu?$AAt?$AA?5?$AAo?$AAf?$AA?5?$AAR@
	push	OFFSET ??_C@_17CNPHIMPH@?$AA?$CF?$AAl?$AAs?$AA?$AA@
	push	0
	push	231					; 000000e7H
	push	OFFSET ??_C@_1GA@IINJPBGE@?$AAD?$AA?3?$AA?2?$AAM?$AAi?$AAc?$AAr?$AAo?$AAs?$AAo?$AAf?$AAt?$AA?5?$AAV?$AAi?$AAs?$AAu?$AAa?$AAl?$AA?5?$AAS?$AAt?$AAu?$AAd?$AAi?$AAo?$AA?5?$AA1?$AA4?$AA?4?$AA0?$AA?2@
	push	2
	call	__CrtDbgReportW
	add	esp, 24					; 00000018H
	cmp	eax, 1
	jne	SHORT $LN6@operator
	int	3
$LN6@operator:
	push	0
	push	231					; 000000e7H
	push	OFFSET ??_C@_1GA@IINJPBGE@?$AAD?$AA?3?$AA?2?$AAM?$AAi?$AAc?$AAr?$AAo?$AAs?$AAo?$AAf?$AAt?$AA?5?$AAV?$AAi?$AAs?$AAu?$AAa?$AAl?$AA?5?$AAS?$AAt?$AAu?$AAd?$AAi?$AAo?$AA?5?$AA1?$AA4?$AA?4?$AA0?$AA?2@
	push	OFFSET ??_C@_1BAC@MAOHAEOO@?$AAs?$AAt?$AAd?$AA?3?$AA?3?$AA_?$AAL?$AAi?$AAs?$AAt?$AA_?$AAc?$AAo?$AAn?$AAs?$AAt?$AA_?$AAi?$AAt?$AAe?$AAr?$AAa?$AAt?$AAo?$AAr?$AA?$DM?$AAc?$AAl?$AAa?$AAs?$AAs?$AA?5@
	push	OFFSET ??_C@_1BO@MEPPHOO@?$AA?$CC?$AAo?$AAu?$AAt?$AA?5?$AAo?$AAf?$AA?5?$AAr?$AAa?$AAn?$AAg?$AAe?$AA?$CC?$AA?$AA@
	call	__invalid_parameter
	add	esp, 20					; 00000014H
$LN2@operator:

; 232  : 			}
; 233  : 
; 234  :  #elif _ITERATOR_DEBUG_LEVEL == 1
; 235  : 		_SCL_SECURE_VALIDATE(this->_Getcont() != 0 && this->_Ptr != 0);
; 236  : 		_SCL_SECURE_VALIDATE_RANGE(this->_Ptr !=
; 237  : 			((_Mylist *)this->_Getcont())->_Myhead);
; 238  :  #endif /* _ITERATOR_DEBUG_LEVEL */
; 239  : 
; 240  : 		this->_Ptr = _Mylist::_Nextnode(this->_Ptr);

	mov	eax, DWORD PTR _this$[ebp]
	mov	ecx, DWORD PTR [eax+8]
	push	ecx
	call	?_Nextnode@?$_List_val@U?$_List_simple_types@UGraveRecord@GraveMarkers@@@std@@@std@@SAAAPAU?$_List_node@UGraveRecord@GraveMarkers@@PAX@2@PAU32@@Z ; std::_List_val<std::_List_simple_types<GraveMarkers::GraveRecord> >::_Nextnode
	add	esp, 4
	mov	edx, DWORD PTR _this$[ebp]
	mov	eax, DWORD PTR [eax]
	mov	DWORD PTR [edx+8], eax

; 241  : 		return (*this);

	mov	eax, DWORD PTR _this$[ebp]

; 242  : 		}

	add	esp, 4
	cmp	ebp, esp
	call	__RTC_CheckEsp
	mov	esp, ebp
	pop	ebp
	ret	0
??E?$_List_const_iterator@V?$_List_val@U?$_List_simple_types@UGraveRecord@GraveMarkers@@@std@@@std@@@std@@QAEAAV01@XZ ENDP ; std::_List_const_iterator<std::_List_val<std::_List_simple_types<GraveMarkers::GraveRecord> > >::operator++
_TEXT	ENDS
; Function compile flags: /Odtp /RTCsu
; File d:\microsoft visual studio 14.0\vc\include\list
;	COMDAT ??D?$_List_const_iterator@V?$_List_val@U?$_List_simple_types@UGraveRecord@GraveMarkers@@@std@@@std@@@std@@QBEABUGraveRecord@GraveMarkers@@XZ
_TEXT	SEGMENT
_this$ = -4						; size = 4
??D?$_List_const_iterator@V?$_List_val@U?$_List_simple_types@UGraveRecord@GraveMarkers@@@std@@@std@@@std@@QBEABUGraveRecord@GraveMarkers@@XZ PROC ; std::_List_const_iterator<std::_List_val<std::_List_simple_types<GraveMarkers::GraveRecord> > >::operator*, COMDAT
; _this$ = ecx

; 204  : 		{	// return designated value

	push	ebp
	mov	ebp, esp
	push	ecx
	mov	DWORD PTR [ebp-4], -858993460		; ccccccccH
	mov	DWORD PTR _this$[ebp], ecx

; 205  :  #if _ITERATOR_DEBUG_LEVEL == 2
; 206  : 		if (this->_Getcont() == 0
; 207  : 			|| this->_Ptr == 0
; 208  : 			|| this->_Ptr == ((_Mylist *)this->_Getcont())->_Myhead)

	mov	ecx, DWORD PTR _this$[ebp]
	call	?_Getcont@_Iterator_base12@std@@QBEPBU_Container_base12@2@XZ ; std::_Iterator_base12::_Getcont
	test	eax, eax
	je	SHORT $LN3@operator
	mov	eax, DWORD PTR _this$[ebp]
	cmp	DWORD PTR [eax+8], 0
	je	SHORT $LN3@operator
	mov	ecx, DWORD PTR _this$[ebp]
	call	?_Getcont@_Iterator_base12@std@@QBEPBU_Container_base12@2@XZ ; std::_Iterator_base12::_Getcont
	mov	ecx, DWORD PTR _this$[ebp]
	mov	edx, DWORD PTR [ecx+8]
	cmp	edx, DWORD PTR [eax+4]
	jne	SHORT $LN2@operator
$LN3@operator:

; 209  : 			{	// report error
; 210  : 			_DEBUG_ERROR("list iterator not dereferencable");

	push	210					; 000000d2H
	push	OFFSET ??_C@_1GA@IINJPBGE@?$AAD?$AA?3?$AA?2?$AAM?$AAi?$AAc?$AAr?$AAo?$AAs?$AAo?$AAf?$AAt?$AA?5?$AAV?$AAi?$AAs?$AAu?$AAa?$AAl?$AA?5?$AAS?$AAt?$AAu?$AAd?$AAi?$AAo?$AA?5?$AA1?$AA4?$AA?4?$AA0?$AA?2@
	push	OFFSET ??_C@_1EC@HILJLMMC@?$AAl?$AAi?$AAs?$AAt?$AA?5?$AAi?$AAt?$AAe?$AAr?$AAa?$AAt?$AAo?$AAr?$AA?5?$AAn?$AAo?$AAt?$AA?5?$AAd?$AAe?$AAr?$AAe?$AAf?$AAe?$AAr?$AAe?$AAn?$AAc?$AAa?$AAb?$AAl?$AAe@
	call	?_Debug_message@std@@YAXPB_W0I@Z	; std::_Debug_message
	add	esp, 12					; 0000000cH

; 211  : 			_SCL_SECURE_OUT_OF_RANGE;

	mov	eax, OFFSET ??_C@_0CE@OFMIGAMM@Standard?5C?$CL?$CL?5Libraries?5Out?5of?5Ra@
	test	eax, eax
	je	SHORT $LN5@operator
	xor	ecx, ecx
	jne	SHORT $LN6@operator
$LN5@operator:
	push	OFFSET ??_C@_1FG@IBPIFFN@?$AA?$CC?$AAS?$AAt?$AAa?$AAn?$AAd?$AAa?$AAr?$AAd?$AA?5?$AAC?$AA?$CL?$AA?$CL?$AA?5?$AAL?$AAi?$AAb?$AAr?$AAa?$AAr?$AAi?$AAe?$AAs?$AA?5?$AAO?$AAu?$AAt?$AA?5?$AAo?$AAf?$AA?5?$AAR@
	push	OFFSET ??_C@_17CNPHIMPH@?$AA?$CF?$AAl?$AAs?$AA?$AA@
	push	0
	push	211					; 000000d3H
	push	OFFSET ??_C@_1GA@IINJPBGE@?$AAD?$AA?3?$AA?2?$AAM?$AAi?$AAc?$AAr?$AAo?$AAs?$AAo?$AAf?$AAt?$AA?5?$AAV?$AAi?$AAs?$AAu?$AAa?$AAl?$AA?5?$AAS?$AAt?$AAu?$AAd?$AAi?$AAo?$AA?5?$AA1?$AA4?$AA?4?$AA0?$AA?2@
	push	2
	call	__CrtDbgReportW
	add	esp, 24					; 00000018H
	cmp	eax, 1
	jne	SHORT $LN6@operator
	int	3
$LN6@operator:
	push	0
	push	211					; 000000d3H
	push	OFFSET ??_C@_1GA@IINJPBGE@?$AAD?$AA?3?$AA?2?$AAM?$AAi?$AAc?$AAr?$AAo?$AAs?$AAo?$AAf?$AAt?$AA?5?$AAV?$AAi?$AAs?$AAu?$AAa?$AAl?$AA?5?$AAS?$AAt?$AAu?$AAd?$AAi?$AAo?$AA?5?$AA1?$AA4?$AA?4?$AA0?$AA?2@
	push	OFFSET ??_C@_1BAA@MOJEOHPG@?$AAs?$AAt?$AAd?$AA?3?$AA?3?$AA_?$AAL?$AAi?$AAs?$AAt?$AA_?$AAc?$AAo?$AAn?$AAs?$AAt?$AA_?$AAi?$AAt?$AAe?$AAr?$AAa?$AAt?$AAo?$AAr?$AA?$DM?$AAc?$AAl?$AAa?$AAs?$AAs?$AA?5@
	push	OFFSET ??_C@_1BO@MEPPHOO@?$AA?$CC?$AAo?$AAu?$AAt?$AA?5?$AAo?$AAf?$AA?5?$AAr?$AAa?$AAn?$AAg?$AAe?$AA?$CC?$AA?$AA@
	call	__invalid_parameter
	add	esp, 20					; 00000014H
$LN2@operator:

; 212  : 			}
; 213  : 
; 214  :  #elif _ITERATOR_DEBUG_LEVEL == 1
; 215  : 		_SCL_SECURE_VALIDATE(this->_Getcont() != 0 && this->_Ptr != 0);
; 216  : 		_SCL_SECURE_VALIDATE_RANGE(this->_Ptr !=
; 217  : 			((_Mylist *)this->_Getcont())->_Myhead);
; 218  :  #endif /* _ITERATOR_DEBUG_LEVEL */
; 219  : 
; 220  : 		return (_Mylist::_Myval(this->_Ptr));

	mov	eax, DWORD PTR _this$[ebp]
	mov	ecx, DWORD PTR [eax+8]
	push	ecx
	call	?_Myval@?$_List_val@U?$_List_simple_types@UGraveRecord@GraveMarkers@@@std@@@std@@SAAAUGraveRecord@GraveMarkers@@PAU?$_List_node@UGraveRecord@GraveMarkers@@PAX@2@@Z ; std::_List_val<std::_List_simple_types<GraveMarkers::GraveRecord> >::_Myval
	add	esp, 4

; 221  : 		}

	add	esp, 4
	cmp	ebp, esp
	call	__RTC_CheckEsp
	mov	esp, ebp
	pop	ebp
	ret	0
??D?$_List_const_iterator@V?$_List_val@U?$_List_simple_types@UGraveRecord@GraveMarkers@@@std@@@std@@@std@@QBEABUGraveRecord@GraveMarkers@@XZ ENDP ; std::_List_const_iterator<std::_List_val<std::_List_simple_types<GraveMarkers::GraveRecord> > >::operator*
_TEXT	ENDS
; Function compile flags: /Odtp /RTCsu
; File d:\microsoft visual studio 14.0\vc\include\list
;	COMDAT ??0?$_List_const_iterator@V?$_List_val@U?$_List_simple_types@UGraveRecord@GraveMarkers@@@std@@@std@@@std@@QAE@PAU?$_List_node@UGraveRecord@GraveMarkers@@PAX@1@PBV?$_List_val@U?$_List_simple_types@UGraveRecord@GraveMarkers@@@std@@@1@@Z
_TEXT	SEGMENT
_this$ = -4						; size = 4
__Pnode$ = 8						; size = 4
__Plist$ = 12						; size = 4
??0?$_List_const_iterator@V?$_List_val@U?$_List_simple_types@UGraveRecord@GraveMarkers@@@std@@@std@@@std@@QAE@PAU?$_List_node@UGraveRecord@GraveMarkers@@PAX@1@PBV?$_List_val@U?$_List_simple_types@UGraveRecord@GraveMarkers@@@std@@@1@@Z PROC ; std::_List_const_iterator<std::_List_val<std::_List_simple_types<GraveMarkers::GraveRecord> > >::_List_const_iterator<std::_List_val<std::_List_simple_types<GraveMarkers::GraveRecord> > >, COMDAT
; _this$ = ecx

; 187  : 		{	// construct with node pointer _Pnode

	push	ebp
	mov	ebp, esp
	push	ecx
	mov	DWORD PTR [ebp-4], -858993460		; ccccccccH
	mov	DWORD PTR _this$[ebp], ecx

; 186  : 		: _Mybase(_Pnode, _Plist)

	mov	eax, DWORD PTR __Plist$[ebp]
	push	eax
	mov	ecx, DWORD PTR __Pnode$[ebp]
	push	ecx
	mov	ecx, DWORD PTR _this$[ebp]
	call	??0?$_List_unchecked_const_iterator@V?$_List_val@U?$_List_simple_types@UGraveRecord@GraveMarkers@@@std@@@std@@U_Iterator_base12@2@@std@@QAE@PAU?$_List_node@UGraveRecord@GraveMarkers@@PAX@1@PBV?$_List_val@U?$_List_simple_types@UGraveRecord@GraveMarkers@@@std@@@1@@Z ; std::_List_unchecked_const_iterator<std::_List_val<std::_List_simple_types<GraveMarkers::GraveRecord> >,std::_Iterator_base12>::_List_unchecked_const_iterator<std::_List_val<std::_List_simple_types<GraveMarkers::GraveRecord> >,std::_Iterator_base12>

; 188  : 		}

	mov	eax, DWORD PTR _this$[ebp]
	add	esp, 4
	cmp	ebp, esp
	call	__RTC_CheckEsp
	mov	esp, ebp
	pop	ebp
	ret	8
??0?$_List_const_iterator@V?$_List_val@U?$_List_simple_types@UGraveRecord@GraveMarkers@@@std@@@std@@@std@@QAE@PAU?$_List_node@UGraveRecord@GraveMarkers@@PAX@1@PBV?$_List_val@U?$_List_simple_types@UGraveRecord@GraveMarkers@@@std@@@1@@Z ENDP ; std::_List_const_iterator<std::_List_val<std::_List_simple_types<GraveMarkers::GraveRecord> > >::_List_const_iterator<std::_List_val<std::_List_simple_types<GraveMarkers::GraveRecord> > >
_TEXT	ENDS
; Function compile flags: /Odtp /RTCsu
;	COMDAT ??4?$_List_unchecked_const_iterator@V?$_List_val@U?$_List_simple_types@UGraveRecord@GraveMarkers@@@std@@@std@@U_Iterator_base12@2@@std@@QAEAAV01@$$QAV01@@Z
_TEXT	SEGMENT
_this$ = -4						; size = 4
___that$ = 8						; size = 4
??4?$_List_unchecked_const_iterator@V?$_List_val@U?$_List_simple_types@UGraveRecord@GraveMarkers@@@std@@@std@@U_Iterator_base12@2@@std@@QAEAAV01@$$QAV01@@Z PROC ; std::_List_unchecked_const_iterator<std::_List_val<std::_List_simple_types<GraveMarkers::GraveRecord> >,std::_Iterator_base12>::operator=, COMDAT
; _this$ = ecx
	push	ebp
	mov	ebp, esp
	push	ecx
	mov	DWORD PTR [ebp-4], -858993460		; ccccccccH
	mov	DWORD PTR _this$[ebp], ecx
	mov	eax, DWORD PTR ___that$[ebp]
	push	eax
	mov	ecx, DWORD PTR _this$[ebp]
	call	??4?$_Iterator012@Ubidirectional_iterator_tag@std@@UGraveRecord@GraveMarkers@@HPBU34@ABU34@U_Iterator_base12@2@@std@@QAEAAU01@$$QAU01@@Z
	mov	ecx, DWORD PTR _this$[ebp]
	mov	edx, DWORD PTR ___that$[ebp]
	mov	eax, DWORD PTR [edx+8]
	mov	DWORD PTR [ecx+8], eax
	mov	eax, DWORD PTR _this$[ebp]
	add	esp, 4
	cmp	ebp, esp
	call	__RTC_CheckEsp
	mov	esp, ebp
	pop	ebp
	ret	4
??4?$_List_unchecked_const_iterator@V?$_List_val@U?$_List_simple_types@UGraveRecord@GraveMarkers@@@std@@@std@@U_Iterator_base12@2@@std@@QAEAAV01@$$QAV01@@Z ENDP ; std::_List_unchecked_const_iterator<std::_List_val<std::_List_simple_types<GraveMarkers::GraveRecord> >,std::_Iterator_base12>::operator=
_TEXT	ENDS
; Function compile flags: /Odtp /RTCsu
;	COMDAT ??0?$_List_unchecked_const_iterator@V?$_List_val@U?$_List_simple_types@UGraveRecord@GraveMarkers@@@std@@@std@@U_Iterator_base12@2@@std@@QAE@$$QAV01@@Z
_TEXT	SEGMENT
_this$ = -4						; size = 4
___that$ = 8						; size = 4
??0?$_List_unchecked_const_iterator@V?$_List_val@U?$_List_simple_types@UGraveRecord@GraveMarkers@@@std@@@std@@U_Iterator_base12@2@@std@@QAE@$$QAV01@@Z PROC ; std::_List_unchecked_const_iterator<std::_List_val<std::_List_simple_types<GraveMarkers::GraveRecord> >,std::_Iterator_base12>::_List_unchecked_const_iterator<std::_List_val<std::_List_simple_types<GraveMarkers::GraveRecord> >,std::_Iterator_base12>, COMDAT
; _this$ = ecx
	push	ebp
	mov	ebp, esp
	push	ecx
	mov	DWORD PTR [ebp-4], -858993460		; ccccccccH
	mov	DWORD PTR _this$[ebp], ecx
	mov	eax, DWORD PTR ___that$[ebp]
	push	eax
	mov	ecx, DWORD PTR _this$[ebp]
	call	??0?$_Iterator012@Ubidirectional_iterator_tag@std@@UGraveRecord@GraveMarkers@@HPBU34@ABU34@U_Iterator_base12@2@@std@@QAE@$$QAU01@@Z
	mov	ecx, DWORD PTR _this$[ebp]
	mov	edx, DWORD PTR ___that$[ebp]
	mov	eax, DWORD PTR [edx+8]
	mov	DWORD PTR [ecx+8], eax
	mov	eax, DWORD PTR _this$[ebp]
	add	esp, 4
	cmp	ebp, esp
	call	__RTC_CheckEsp
	mov	esp, ebp
	pop	ebp
	ret	4
??0?$_List_unchecked_const_iterator@V?$_List_val@U?$_List_simple_types@UGraveRecord@GraveMarkers@@@std@@@std@@U_Iterator_base12@2@@std@@QAE@$$QAV01@@Z ENDP ; std::_List_unchecked_const_iterator<std::_List_val<std::_List_simple_types<GraveMarkers::GraveRecord> >,std::_Iterator_base12>::_List_unchecked_const_iterator<std::_List_val<std::_List_simple_types<GraveMarkers::GraveRecord> >,std::_Iterator_base12>
_TEXT	ENDS
; Function compile flags: /Odtp /RTCsu
;	COMDAT ??0?$_List_unchecked_const_iterator@V?$_List_val@U?$_List_simple_types@UGraveRecord@GraveMarkers@@@std@@@std@@U_Iterator_base12@2@@std@@QAE@ABV01@@Z
_TEXT	SEGMENT
_this$ = -4						; size = 4
___that$ = 8						; size = 4
??0?$_List_unchecked_const_iterator@V?$_List_val@U?$_List_simple_types@UGraveRecord@GraveMarkers@@@std@@@std@@U_Iterator_base12@2@@std@@QAE@ABV01@@Z PROC ; std::_List_unchecked_const_iterator<std::_List_val<std::_List_simple_types<GraveMarkers::GraveRecord> >,std::_Iterator_base12>::_List_unchecked_const_iterator<std::_List_val<std::_List_simple_types<GraveMarkers::GraveRecord> >,std::_Iterator_base12>, COMDAT
; _this$ = ecx
	push	ebp
	mov	ebp, esp
	push	ecx
	mov	DWORD PTR [ebp-4], -858993460		; ccccccccH
	mov	DWORD PTR _this$[ebp], ecx
	mov	eax, DWORD PTR ___that$[ebp]
	push	eax
	mov	ecx, DWORD PTR _this$[ebp]
	call	??0?$_Iterator012@Ubidirectional_iterator_tag@std@@UGraveRecord@GraveMarkers@@HPBU34@ABU34@U_Iterator_base12@2@@std@@QAE@ABU01@@Z
	mov	ecx, DWORD PTR _this$[ebp]
	mov	edx, DWORD PTR ___that$[ebp]
	mov	eax, DWORD PTR [edx+8]
	mov	DWORD PTR [ecx+8], eax
	mov	eax, DWORD PTR _this$[ebp]
	add	esp, 4
	cmp	ebp, esp
	call	__RTC_CheckEsp
	mov	esp, ebp
	pop	ebp
	ret	4
??0?$_List_unchecked_const_iterator@V?$_List_val@U?$_List_simple_types@UGraveRecord@GraveMarkers@@@std@@@std@@U_Iterator_base12@2@@std@@QAE@ABV01@@Z ENDP ; std::_List_unchecked_const_iterator<std::_List_val<std::_List_simple_types<GraveMarkers::GraveRecord> >,std::_Iterator_base12>::_List_unchecked_const_iterator<std::_List_val<std::_List_simple_types<GraveMarkers::GraveRecord> >,std::_Iterator_base12>
_TEXT	ENDS
; Function compile flags: /Odtp /RTCsu
;	COMDAT ??1?$_List_unchecked_const_iterator@V?$_List_val@U?$_List_simple_types@UGraveRecord@GraveMarkers@@@std@@@std@@U_Iterator_base12@2@@std@@QAE@XZ
_TEXT	SEGMENT
_this$ = -4						; size = 4
??1?$_List_unchecked_const_iterator@V?$_List_val@U?$_List_simple_types@UGraveRecord@GraveMarkers@@@std@@@std@@U_Iterator_base12@2@@std@@QAE@XZ PROC ; std::_List_unchecked_const_iterator<std::_List_val<std::_List_simple_types<GraveMarkers::GraveRecord> >,std::_Iterator_base12>::~_List_unchecked_const_iterator<std::_List_val<std::_List_simple_types<GraveMarkers::GraveRecord> >,std::_Iterator_base12>, COMDAT
; _this$ = ecx
	push	ebp
	mov	ebp, esp
	push	ecx
	mov	DWORD PTR [ebp-4], -858993460		; ccccccccH
	mov	DWORD PTR _this$[ebp], ecx
	mov	ecx, DWORD PTR _this$[ebp]
	call	??1?$_Iterator012@Ubidirectional_iterator_tag@std@@UGraveRecord@GraveMarkers@@HPBU34@ABU34@U_Iterator_base12@2@@std@@QAE@XZ
	add	esp, 4
	cmp	ebp, esp
	call	__RTC_CheckEsp
	mov	esp, ebp
	pop	ebp
	ret	0
??1?$_List_unchecked_const_iterator@V?$_List_val@U?$_List_simple_types@UGraveRecord@GraveMarkers@@@std@@@std@@U_Iterator_base12@2@@std@@QAE@XZ ENDP ; std::_List_unchecked_const_iterator<std::_List_val<std::_List_simple_types<GraveMarkers::GraveRecord> >,std::_Iterator_base12>::~_List_unchecked_const_iterator<std::_List_val<std::_List_simple_types<GraveMarkers::GraveRecord> >,std::_Iterator_base12>
_TEXT	ENDS
; Function compile flags: /Odtp /RTCsu
; File d:\microsoft visual studio 14.0\vc\include\list
;	COMDAT ?_Mynode@?$_List_unchecked_const_iterator@V?$_List_val@U?$_List_simple_types@UGraveRecord@GraveMarkers@@@std@@@std@@U_Iterator_base12@2@@std@@QBEPAU?$_List_node@UGraveRecord@GraveMarkers@@PAX@2@XZ
_TEXT	SEGMENT
_this$ = -4						; size = 4
?_Mynode@?$_List_unchecked_const_iterator@V?$_List_val@U?$_List_simple_types@UGraveRecord@GraveMarkers@@@std@@@std@@U_Iterator_base12@2@@std@@QBEPAU?$_List_node@UGraveRecord@GraveMarkers@@PAX@2@XZ PROC ; std::_List_unchecked_const_iterator<std::_List_val<std::_List_simple_types<GraveMarkers::GraveRecord> >,std::_Iterator_base12>::_Mynode, COMDAT
; _this$ = ecx

; 95   : 		{	// return node pointer

	push	ebp
	mov	ebp, esp
	push	ecx
	mov	DWORD PTR [ebp-4], -858993460		; ccccccccH
	mov	DWORD PTR _this$[ebp], ecx

; 96   : 		return (_Ptr);

	mov	eax, DWORD PTR _this$[ebp]
	mov	eax, DWORD PTR [eax+8]

; 97   : 		}

	mov	esp, ebp
	pop	ebp
	ret	0
?_Mynode@?$_List_unchecked_const_iterator@V?$_List_val@U?$_List_simple_types@UGraveRecord@GraveMarkers@@@std@@@std@@U_Iterator_base12@2@@std@@QBEPAU?$_List_node@UGraveRecord@GraveMarkers@@PAX@2@XZ ENDP ; std::_List_unchecked_const_iterator<std::_List_val<std::_List_simple_types<GraveMarkers::GraveRecord> >,std::_Iterator_base12>::_Mynode
_TEXT	ENDS
; Function compile flags: /Odtp /RTCsu
; File d:\microsoft visual studio 14.0\vc\include\list
;	COMDAT ??0?$_List_unchecked_const_iterator@V?$_List_val@U?$_List_simple_types@UGraveRecord@GraveMarkers@@@std@@@std@@U_Iterator_base12@2@@std@@QAE@PAU?$_List_node@UGraveRecord@GraveMarkers@@PAX@1@PBV?$_List_val@U?$_List_simple_types@UGraveRecord@GraveMarkers@@@std@@@1@@Z
_TEXT	SEGMENT
_this$ = -16						; size = 4
__$EHRec$ = -12						; size = 12
__Pnode$ = 8						; size = 4
__Plist$ = 12						; size = 4
??0?$_List_unchecked_const_iterator@V?$_List_val@U?$_List_simple_types@UGraveRecord@GraveMarkers@@@std@@@std@@U_Iterator_base12@2@@std@@QAE@PAU?$_List_node@UGraveRecord@GraveMarkers@@PAX@1@PBV?$_List_val@U?$_List_simple_types@UGraveRecord@GraveMarkers@@@std@@@1@@Z PROC ; std::_List_unchecked_const_iterator<std::_List_val<std::_List_simple_types<GraveMarkers::GraveRecord> >,std::_Iterator_base12>::_List_unchecked_const_iterator<std::_List_val<std::_List_simple_types<GraveMarkers::GraveRecord> >,std::_Iterator_base12>, COMDAT
; _this$ = ecx

; 44   : 		{	// construct with node pointer _Pnode

	push	ebp
	mov	ebp, esp
	push	-1
	push	__ehhandler$??0?$_List_unchecked_const_iterator@V?$_List_val@U?$_List_simple_types@UGraveRecord@GraveMarkers@@@std@@@std@@U_Iterator_base12@2@@std@@QAE@PAU?$_List_node@UGraveRecord@GraveMarkers@@PAX@1@PBV?$_List_val@U?$_List_simple_types@UGraveRecord@GraveMarkers@@@std@@@1@@Z
	mov	eax, DWORD PTR fs:0
	push	eax
	push	ecx
	mov	DWORD PTR [ebp-16], -858993460		; ccccccccH
	mov	eax, DWORD PTR ___security_cookie
	xor	eax, ebp
	push	eax
	lea	eax, DWORD PTR __$EHRec$[ebp]
	mov	DWORD PTR fs:0, eax
	mov	DWORD PTR _this$[ebp], ecx
	mov	ecx, DWORD PTR _this$[ebp]
	call	??0?$_Iterator012@Ubidirectional_iterator_tag@std@@UGraveRecord@GraveMarkers@@HPBU34@ABU34@U_Iterator_base12@2@@std@@QAE@XZ
	mov	DWORD PTR __$EHRec$[ebp+8], 0

; 43   : 		: _Ptr(_Pnode)

	mov	eax, DWORD PTR _this$[ebp]
	mov	ecx, DWORD PTR __Pnode$[ebp]
	mov	DWORD PTR [eax+8], ecx

; 45   : 		this->_Adopt(_Plist);

	mov	edx, DWORD PTR __Plist$[ebp]
	push	edx
	mov	ecx, DWORD PTR _this$[ebp]
	call	?_Adopt@_Iterator_base12@std@@QAEXPBU_Container_base12@2@@Z ; std::_Iterator_base12::_Adopt

; 46   : 		}

	mov	DWORD PTR __$EHRec$[ebp+8], -1
	mov	eax, DWORD PTR _this$[ebp]
	mov	ecx, DWORD PTR __$EHRec$[ebp]
	mov	DWORD PTR fs:0, ecx
	pop	ecx
	add	esp, 16					; 00000010H
	cmp	ebp, esp
	call	__RTC_CheckEsp
	mov	esp, ebp
	pop	ebp
	ret	8
_TEXT	ENDS
;	COMDAT text$x
text$x	SEGMENT
__unwindfunclet$??0?$_List_unchecked_const_iterator@V?$_List_val@U?$_List_simple_types@UGraveRecord@GraveMarkers@@@std@@@std@@U_Iterator_base12@2@@std@@QAE@PAU?$_List_node@UGraveRecord@GraveMarkers@@PAX@1@PBV?$_List_val@U?$_List_simple_types@UGraveRecord@GraveMarkers@@@std@@@1@@Z$0:
	mov	ecx, DWORD PTR _this$[ebp]
	jmp	??1?$_Iterator012@Ubidirectional_iterator_tag@std@@UGraveRecord@GraveMarkers@@HPBU34@ABU34@U_Iterator_base12@2@@std@@QAE@XZ
__ehhandler$??0?$_List_unchecked_const_iterator@V?$_List_val@U?$_List_simple_types@UGraveRecord@GraveMarkers@@@std@@@std@@U_Iterator_base12@2@@std@@QAE@PAU?$_List_node@UGraveRecord@GraveMarkers@@PAX@1@PBV?$_List_val@U?$_List_simple_types@UGraveRecord@GraveMarkers@@@std@@@1@@Z:
	mov	edx, DWORD PTR [esp+8]
	lea	eax, DWORD PTR [edx+12]
	mov	ecx, DWORD PTR [edx-8]
	xor	ecx, eax
	call	@__security_check_cookie@4
	mov	eax, OFFSET __ehfuncinfo$??0?$_List_unchecked_const_iterator@V?$_List_val@U?$_List_simple_types@UGraveRecord@GraveMarkers@@@std@@@std@@U_Iterator_base12@2@@std@@QAE@PAU?$_List_node@UGraveRecord@GraveMarkers@@PAX@1@PBV?$_List_val@U?$_List_simple_types@UGraveRecord@GraveMarkers@@@std@@@1@@Z
	jmp	___CxxFrameHandler3
text$x	ENDS
??0?$_List_unchecked_const_iterator@V?$_List_val@U?$_List_simple_types@UGraveRecord@GraveMarkers@@@std@@@std@@U_Iterator_base12@2@@std@@QAE@PAU?$_List_node@UGraveRecord@GraveMarkers@@PAX@1@PBV?$_List_val@U?$_List_simple_types@UGraveRecord@GraveMarkers@@@std@@@1@@Z ENDP ; std::_List_unchecked_const_iterator<std::_List_val<std::_List_simple_types<GraveMarkers::GraveRecord> >,std::_Iterator_base12>::_List_unchecked_const_iterator<std::_List_val<std::_List_simple_types<GraveMarkers::GraveRecord> >,std::_Iterator_base12>
; Function compile flags: /Odtp /RTCsu
;	COMDAT ??4?$_Iterator012@Ubidirectional_iterator_tag@std@@UGraveRecord@GraveMarkers@@HPBU34@ABU34@U_Iterator_base12@2@@std@@QAEAAU01@$$QAU01@@Z
_TEXT	SEGMENT
_this$ = -4						; size = 4
___that$ = 8						; size = 4
??4?$_Iterator012@Ubidirectional_iterator_tag@std@@UGraveRecord@GraveMarkers@@HPBU34@ABU34@U_Iterator_base12@2@@std@@QAEAAU01@$$QAU01@@Z PROC ; std::_Iterator012<std::bidirectional_iterator_tag,GraveMarkers::GraveRecord,int,GraveMarkers::GraveRecord const *,GraveMarkers::GraveRecord const &,std::_Iterator_base12>::operator=, COMDAT
; _this$ = ecx
	push	ebp
	mov	ebp, esp
	push	ecx
	mov	DWORD PTR [ebp-4], -858993460		; ccccccccH
	mov	DWORD PTR _this$[ebp], ecx
	mov	eax, DWORD PTR ___that$[ebp]
	push	eax
	mov	ecx, DWORD PTR _this$[ebp]
	call	??4_Iterator_base12@std@@QAEAAU01@ABU01@@Z ; std::_Iterator_base12::operator=
	mov	eax, DWORD PTR _this$[ebp]
	add	esp, 4
	cmp	ebp, esp
	call	__RTC_CheckEsp
	mov	esp, ebp
	pop	ebp
	ret	4
??4?$_Iterator012@Ubidirectional_iterator_tag@std@@UGraveRecord@GraveMarkers@@HPBU34@ABU34@U_Iterator_base12@2@@std@@QAEAAU01@$$QAU01@@Z ENDP ; std::_Iterator012<std::bidirectional_iterator_tag,GraveMarkers::GraveRecord,int,GraveMarkers::GraveRecord const *,GraveMarkers::GraveRecord const &,std::_Iterator_base12>::operator=
_TEXT	ENDS
; Function compile flags: /Odtp /RTCsu
;	COMDAT ??0?$_Iterator012@Ubidirectional_iterator_tag@std@@UGraveRecord@GraveMarkers@@HPBU34@ABU34@U_Iterator_base12@2@@std@@QAE@$$QAU01@@Z
_TEXT	SEGMENT
_this$ = -4						; size = 4
___that$ = 8						; size = 4
??0?$_Iterator012@Ubidirectional_iterator_tag@std@@UGraveRecord@GraveMarkers@@HPBU34@ABU34@U_Iterator_base12@2@@std@@QAE@$$QAU01@@Z PROC ; std::_Iterator012<std::bidirectional_iterator_tag,GraveMarkers::GraveRecord,int,GraveMarkers::GraveRecord const *,GraveMarkers::GraveRecord const &,std::_Iterator_base12>::_Iterator012<std::bidirectional_iterator_tag,GraveMarkers::GraveRecord,int,GraveMarkers::GraveRecord const *,GraveMarkers::GraveRecord const &,std::_Iterator_base12>, COMDAT
; _this$ = ecx
	push	ebp
	mov	ebp, esp
	push	ecx
	mov	DWORD PTR [ebp-4], -858993460		; ccccccccH
	mov	DWORD PTR _this$[ebp], ecx
	mov	eax, DWORD PTR ___that$[ebp]
	push	eax
	mov	ecx, DWORD PTR _this$[ebp]
	call	??0_Iterator_base12@std@@QAE@ABU01@@Z	; std::_Iterator_base12::_Iterator_base12
	mov	eax, DWORD PTR _this$[ebp]
	add	esp, 4
	cmp	ebp, esp
	call	__RTC_CheckEsp
	mov	esp, ebp
	pop	ebp
	ret	4
??0?$_Iterator012@Ubidirectional_iterator_tag@std@@UGraveRecord@GraveMarkers@@HPBU34@ABU34@U_Iterator_base12@2@@std@@QAE@$$QAU01@@Z ENDP ; std::_Iterator012<std::bidirectional_iterator_tag,GraveMarkers::GraveRecord,int,GraveMarkers::GraveRecord const *,GraveMarkers::GraveRecord const &,std::_Iterator_base12>::_Iterator012<std::bidirectional_iterator_tag,GraveMarkers::GraveRecord,int,GraveMarkers::GraveRecord const *,GraveMarkers::GraveRecord const &,std::_Iterator_base12>
_TEXT	ENDS
; Function compile flags: /Odtp /RTCsu
;	COMDAT ??0?$_Iterator012@Ubidirectional_iterator_tag@std@@UGraveRecord@GraveMarkers@@HPBU34@ABU34@U_Iterator_base12@2@@std@@QAE@ABU01@@Z
_TEXT	SEGMENT
_this$ = -4						; size = 4
___that$ = 8						; size = 4
??0?$_Iterator012@Ubidirectional_iterator_tag@std@@UGraveRecord@GraveMarkers@@HPBU34@ABU34@U_Iterator_base12@2@@std@@QAE@ABU01@@Z PROC ; std::_Iterator012<std::bidirectional_iterator_tag,GraveMarkers::GraveRecord,int,GraveMarkers::GraveRecord const *,GraveMarkers::GraveRecord const &,std::_Iterator_base12>::_Iterator012<std::bidirectional_iterator_tag,GraveMarkers::GraveRecord,int,GraveMarkers::GraveRecord const *,GraveMarkers::GraveRecord const &,std::_Iterator_base12>, COMDAT
; _this$ = ecx
	push	ebp
	mov	ebp, esp
	push	ecx
	mov	DWORD PTR [ebp-4], -858993460		; ccccccccH
	mov	DWORD PTR _this$[ebp], ecx
	mov	eax, DWORD PTR ___that$[ebp]
	push	eax
	mov	ecx, DWORD PTR _this$[ebp]
	call	??0_Iterator_base12@std@@QAE@ABU01@@Z	; std::_Iterator_base12::_Iterator_base12
	mov	eax, DWORD PTR _this$[ebp]
	add	esp, 4
	cmp	ebp, esp
	call	__RTC_CheckEsp
	mov	esp, ebp
	pop	ebp
	ret	4
??0?$_Iterator012@Ubidirectional_iterator_tag@std@@UGraveRecord@GraveMarkers@@HPBU34@ABU34@U_Iterator_base12@2@@std@@QAE@ABU01@@Z ENDP ; std::_Iterator012<std::bidirectional_iterator_tag,GraveMarkers::GraveRecord,int,GraveMarkers::GraveRecord const *,GraveMarkers::GraveRecord const &,std::_Iterator_base12>::_Iterator012<std::bidirectional_iterator_tag,GraveMarkers::GraveRecord,int,GraveMarkers::GraveRecord const *,GraveMarkers::GraveRecord const &,std::_Iterator_base12>
_TEXT	ENDS
; Function compile flags: /Odtp /RTCsu
;	COMDAT ??1?$_Iterator012@Ubidirectional_iterator_tag@std@@UGraveRecord@GraveMarkers@@HPBU34@ABU34@U_Iterator_base12@2@@std@@QAE@XZ
_TEXT	SEGMENT
_this$ = -4						; size = 4
??1?$_Iterator012@Ubidirectional_iterator_tag@std@@UGraveRecord@GraveMarkers@@HPBU34@ABU34@U_Iterator_base12@2@@std@@QAE@XZ PROC ; std::_Iterator012<std::bidirectional_iterator_tag,GraveMarkers::GraveRecord,int,GraveMarkers::GraveRecord const *,GraveMarkers::GraveRecord const &,std::_Iterator_base12>::~_Iterator012<std::bidirectional_iterator_tag,GraveMarkers::GraveRecord,int,GraveMarkers::GraveRecord const *,GraveMarkers::GraveRecord const &,std::_Iterator_base12>, COMDAT
; _this$ = ecx
	push	ebp
	mov	ebp, esp
	push	ecx
	mov	DWORD PTR [ebp-4], -858993460		; ccccccccH
	mov	DWORD PTR _this$[ebp], ecx
	mov	ecx, DWORD PTR _this$[ebp]
	call	??1_Iterator_base12@std@@QAE@XZ		; std::_Iterator_base12::~_Iterator_base12
	add	esp, 4
	cmp	ebp, esp
	call	__RTC_CheckEsp
	mov	esp, ebp
	pop	ebp
	ret	0
??1?$_Iterator012@Ubidirectional_iterator_tag@std@@UGraveRecord@GraveMarkers@@HPBU34@ABU34@U_Iterator_base12@2@@std@@QAE@XZ ENDP ; std::_Iterator012<std::bidirectional_iterator_tag,GraveMarkers::GraveRecord,int,GraveMarkers::GraveRecord const *,GraveMarkers::GraveRecord const &,std::_Iterator_base12>::~_Iterator012<std::bidirectional_iterator_tag,GraveMarkers::GraveRecord,int,GraveMarkers::GraveRecord const *,GraveMarkers::GraveRecord const &,std::_Iterator_base12>
_TEXT	ENDS
; Function compile flags: /Odtp /RTCsu
;	COMDAT ??0?$_Iterator012@Ubidirectional_iterator_tag@std@@UGraveRecord@GraveMarkers@@HPBU34@ABU34@U_Iterator_base12@2@@std@@QAE@XZ
_TEXT	SEGMENT
_this$ = -4						; size = 4
??0?$_Iterator012@Ubidirectional_iterator_tag@std@@UGraveRecord@GraveMarkers@@HPBU34@ABU34@U_Iterator_base12@2@@std@@QAE@XZ PROC ; std::_Iterator012<std::bidirectional_iterator_tag,GraveMarkers::GraveRecord,int,GraveMarkers::GraveRecord const *,GraveMarkers::GraveRecord const &,std::_Iterator_base12>::_Iterator012<std::bidirectional_iterator_tag,GraveMarkers::GraveRecord,int,GraveMarkers::GraveRecord const *,GraveMarkers::GraveRecord const &,std::_Iterator_base12>, COMDAT
; _this$ = ecx
	push	ebp
	mov	ebp, esp
	push	ecx
	mov	DWORD PTR [ebp-4], -858993460		; ccccccccH
	mov	DWORD PTR _this$[ebp], ecx
	mov	ecx, DWORD PTR _this$[ebp]
	call	??0_Iterator_base12@std@@QAE@XZ		; std::_Iterator_base12::_Iterator_base12
	mov	eax, DWORD PTR _this$[ebp]
	add	esp, 4
	cmp	ebp, esp
	call	__RTC_CheckEsp
	mov	esp, ebp
	pop	ebp
	ret	0
??0?$_Iterator012@Ubidirectional_iterator_tag@std@@UGraveRecord@GraveMarkers@@HPBU34@ABU34@U_Iterator_base12@2@@std@@QAE@XZ ENDP ; std::_Iterator012<std::bidirectional_iterator_tag,GraveMarkers::GraveRecord,int,GraveMarkers::GraveRecord const *,GraveMarkers::GraveRecord const &,std::_Iterator_base12>::_Iterator012<std::bidirectional_iterator_tag,GraveMarkers::GraveRecord,int,GraveMarkers::GraveRecord const *,GraveMarkers::GraveRecord const &,std::_Iterator_base12>
_TEXT	ENDS
; Function compile flags: /Odtp /RTCsu
; File d:\cours\uqac\intelligence artificielle - jeux vidéos\buckland_aisource\mini_projet_raven\common\2d\transformations.h
;	COMDAT ?WorldTransform@@YA?AV?$vector@UVector2D@@V?$allocator@UVector2D@@@std@@@std@@AAV12@ABUVector2D@@111@Z
_TEXT	SEGMENT
$T2 = -120						; size = 4
_matTransform$ = -112					; size = 72
_TranVector2Ds$ = -32					; size = 16
__$EHRec$ = -12						; size = 12
___$ReturnUdt$ = 8					; size = 4
_points$ = 12						; size = 4
_pos$ = 16						; size = 4
_forward$ = 20						; size = 4
_side$ = 24						; size = 4
_scale$ = 28						; size = 4
?WorldTransform@@YA?AV?$vector@UVector2D@@V?$allocator@UVector2D@@@std@@@std@@AAV12@ABUVector2D@@111@Z PROC ; WorldTransform, COMDAT

; 34   : {

	push	ebp
	mov	ebp, esp
	push	-1
	push	__ehhandler$?WorldTransform@@YA?AV?$vector@UVector2D@@V?$allocator@UVector2D@@@std@@@std@@AAV12@ABUVector2D@@111@Z
	mov	eax, DWORD PTR fs:0
	push	eax
	sub	esp, 108				; 0000006cH
	push	edi
	lea	edi, DWORD PTR [ebp-120]
	mov	ecx, 27					; 0000001bH
	mov	eax, -858993460				; ccccccccH
	rep stosd
	mov	eax, DWORD PTR ___security_cookie
	xor	eax, ebp
	push	eax
	lea	eax, DWORD PTR __$EHRec$[ebp]
	mov	DWORD PTR fs:0, eax
	mov	DWORD PTR $T2[ebp], 0

; 35   : 	//copy the original vertices into the buffer about to be transformed
; 36   :   std::vector<Vector2D> TranVector2Ds = points;

	mov	eax, DWORD PTR _points$[ebp]
	push	eax
	lea	ecx, DWORD PTR _TranVector2Ds$[ebp]
	call	??0?$vector@UVector2D@@V?$allocator@UVector2D@@@std@@@std@@QAE@ABV01@@Z ; std::vector<Vector2D,std::allocator<Vector2D> >::vector<Vector2D,std::allocator<Vector2D> >
	mov	DWORD PTR __$EHRec$[ebp+8], 0

; 37   :   
; 38   :   //create a transformation matrix
; 39   : 	C2DMatrix matTransform;

	lea	ecx, DWORD PTR _matTransform$[ebp]
	call	??0C2DMatrix@@QAE@XZ			; C2DMatrix::C2DMatrix

; 40   : 	
; 41   : 	//scale
; 42   :   if ( (scale.x != 1.0) || (scale.y != 1.0) )

	mov	ecx, DWORD PTR _scale$[ebp]
	movsd	xmm0, QWORD PTR [ecx]
	ucomisd	xmm0, QWORD PTR __real@3ff0000000000000
	lahf
	test	ah, 68					; 00000044H
	jp	SHORT $LN3@WorldTrans
	mov	edx, DWORD PTR _scale$[ebp]
	movsd	xmm0, QWORD PTR [edx+8]
	ucomisd	xmm0, QWORD PTR __real@3ff0000000000000
	lahf
	test	ah, 68					; 00000044H
	jnp	SHORT $LN2@WorldTrans
$LN3@WorldTrans:

; 43   :   {
; 44   : 	  matTransform.Scale(scale.x, scale.y);

	mov	eax, DWORD PTR _scale$[ebp]
	sub	esp, 8
	movsd	xmm0, QWORD PTR [eax+8]
	movsd	QWORD PTR [esp], xmm0
	mov	ecx, DWORD PTR _scale$[ebp]
	sub	esp, 8
	movsd	xmm0, QWORD PTR [ecx]
	movsd	QWORD PTR [esp], xmm0
	lea	ecx, DWORD PTR _matTransform$[ebp]
	call	?Scale@C2DMatrix@@QAEXNN@Z		; C2DMatrix::Scale
$LN2@WorldTrans:

; 45   :   }
; 46   : 
; 47   : 	//rotate
; 48   : 	matTransform.Rotate(forward, side);

	mov	edx, DWORD PTR _side$[ebp]
	push	edx
	mov	eax, DWORD PTR _forward$[ebp]
	push	eax
	lea	ecx, DWORD PTR _matTransform$[ebp]
	call	?Rotate@C2DMatrix@@QAEXABUVector2D@@0@Z	; C2DMatrix::Rotate

; 49   : 
; 50   : 	//and translate
; 51   : 	matTransform.Translate(pos.x, pos.y);

	mov	ecx, DWORD PTR _pos$[ebp]
	sub	esp, 8
	movsd	xmm0, QWORD PTR [ecx+8]
	movsd	QWORD PTR [esp], xmm0
	mov	edx, DWORD PTR _pos$[ebp]
	sub	esp, 8
	movsd	xmm0, QWORD PTR [edx]
	movsd	QWORD PTR [esp], xmm0
	lea	ecx, DWORD PTR _matTransform$[ebp]
	call	?Translate@C2DMatrix@@QAEXNN@Z		; C2DMatrix::Translate

; 52   : 	
; 53   :   //now transform the object's vertices
; 54   :   matTransform.TransformVector2Ds(TranVector2Ds);

	lea	eax, DWORD PTR _TranVector2Ds$[ebp]
	push	eax
	lea	ecx, DWORD PTR _matTransform$[ebp]
	call	?TransformVector2Ds@C2DMatrix@@QAEXAAV?$vector@UVector2D@@V?$allocator@UVector2D@@@std@@@std@@@Z ; C2DMatrix::TransformVector2Ds

; 55   : 
; 56   :   return TranVector2Ds;

	lea	ecx, DWORD PTR _TranVector2Ds$[ebp]
	push	ecx
	mov	ecx, DWORD PTR ___$ReturnUdt$[ebp]
	call	??0?$vector@UVector2D@@V?$allocator@UVector2D@@@std@@@std@@QAE@$$QAV01@@Z ; std::vector<Vector2D,std::allocator<Vector2D> >::vector<Vector2D,std::allocator<Vector2D> >
	mov	edx, DWORD PTR $T2[ebp]
	or	edx, 1
	mov	DWORD PTR $T2[ebp], edx
	mov	DWORD PTR __$EHRec$[ebp+8], -1
	lea	ecx, DWORD PTR _TranVector2Ds$[ebp]
	call	??1?$vector@UVector2D@@V?$allocator@UVector2D@@@std@@@std@@QAE@XZ ; std::vector<Vector2D,std::allocator<Vector2D> >::~vector<Vector2D,std::allocator<Vector2D> >
	mov	eax, DWORD PTR ___$ReturnUdt$[ebp]

; 57   : }

	push	edx
	mov	ecx, ebp
	push	eax
	lea	edx, DWORD PTR $LN12@WorldTrans
	call	@_RTC_CheckStackVars@8
	pop	eax
	pop	edx
	mov	ecx, DWORD PTR __$EHRec$[ebp]
	mov	DWORD PTR fs:0, ecx
	pop	ecx
	pop	edi
	add	esp, 120				; 00000078H
	cmp	ebp, esp
	call	__RTC_CheckEsp
	mov	esp, ebp
	pop	ebp
	ret	0
	npad	2
$LN12@WorldTrans:
	DD	2
	DD	$LN11@WorldTrans
$LN11@WorldTrans:
	DD	-32					; ffffffe0H
	DD	16					; 00000010H
	DD	$LN8@WorldTrans
	DD	-112					; ffffff90H
	DD	72					; 00000048H
	DD	$LN9@WorldTrans
$LN9@WorldTrans:
	DB	109					; 0000006dH
	DB	97					; 00000061H
	DB	116					; 00000074H
	DB	84					; 00000054H
	DB	114					; 00000072H
	DB	97					; 00000061H
	DB	110					; 0000006eH
	DB	115					; 00000073H
	DB	102					; 00000066H
	DB	111					; 0000006fH
	DB	114					; 00000072H
	DB	109					; 0000006dH
	DB	0
$LN8@WorldTrans:
	DB	84					; 00000054H
	DB	114					; 00000072H
	DB	97					; 00000061H
	DB	110					; 0000006eH
	DB	86					; 00000056H
	DB	101					; 00000065H
	DB	99					; 00000063H
	DB	116					; 00000074H
	DB	111					; 0000006fH
	DB	114					; 00000072H
	DB	50					; 00000032H
	DB	68					; 00000044H
	DB	115					; 00000073H
	DB	0
_TEXT	ENDS
;	COMDAT text$x
text$x	SEGMENT
__unwindfunclet$?WorldTransform@@YA?AV?$vector@UVector2D@@V?$allocator@UVector2D@@@std@@@std@@AAV12@ABUVector2D@@111@Z$0:
	lea	ecx, DWORD PTR _TranVector2Ds$[ebp]
	jmp	??1?$vector@UVector2D@@V?$allocator@UVector2D@@@std@@@std@@QAE@XZ ; std::vector<Vector2D,std::allocator<Vector2D> >::~vector<Vector2D,std::allocator<Vector2D> >
__ehhandler$?WorldTransform@@YA?AV?$vector@UVector2D@@V?$allocator@UVector2D@@@std@@@std@@AAV12@ABUVector2D@@111@Z:
	mov	edx, DWORD PTR [esp+8]
	lea	eax, DWORD PTR [edx+12]
	mov	ecx, DWORD PTR [edx-116]
	xor	ecx, eax
	call	@__security_check_cookie@4
	mov	eax, OFFSET __ehfuncinfo$?WorldTransform@@YA?AV?$vector@UVector2D@@V?$allocator@UVector2D@@@std@@@std@@AAV12@ABUVector2D@@111@Z
	jmp	___CxxFrameHandler3
text$x	ENDS
?WorldTransform@@YA?AV?$vector@UVector2D@@V?$allocator@UVector2D@@@std@@@std@@AAV12@ABUVector2D@@111@Z ENDP ; WorldTransform
; Function compile flags: /Odtp /RTCsu
; File d:\cours\uqac\intelligence artificielle - jeux vidéos\buckland_aisource\mini_projet_raven\common\2d\c2dmatrix.h
;	COMDAT ?TransformVector2Ds@C2DMatrix@@QAEXAAV?$vector@UVector2D@@V?$allocator@UVector2D@@@std@@@std@@@Z
_TEXT	SEGMENT
tv173 = -40						; size = 8
tv171 = -32						; size = 8
_tempY$1 = -24						; size = 8
_tempX$2 = -16						; size = 8
_i$3 = -8						; size = 4
_this$ = -4						; size = 4
_vPoint$ = 8						; size = 4
?TransformVector2Ds@C2DMatrix@@QAEXAAV?$vector@UVector2D@@V?$allocator@UVector2D@@@std@@@std@@@Z PROC ; C2DMatrix::TransformVector2Ds, COMDAT
; _this$ = ecx

; 118  : {

	push	ebp
	mov	ebp, esp
	sub	esp, 40					; 00000028H
	push	edi
	push	ecx
	lea	edi, DWORD PTR [ebp-40]
	mov	ecx, 10					; 0000000aH
	mov	eax, -858993460				; ccccccccH
	rep stosd
	pop	ecx
	mov	DWORD PTR _this$[ebp], ecx

; 119  :   for (unsigned int i=0; i<vPoint.size(); ++i)

	mov	DWORD PTR _i$3[ebp], 0
	jmp	SHORT $LN4@TransformV
$LN2@TransformV:
	mov	eax, DWORD PTR _i$3[ebp]
	add	eax, 1
	mov	DWORD PTR _i$3[ebp], eax
$LN4@TransformV:
	mov	ecx, DWORD PTR _vPoint$[ebp]
	call	?size@?$vector@UVector2D@@V?$allocator@UVector2D@@@std@@@std@@QBEIXZ ; std::vector<Vector2D,std::allocator<Vector2D> >::size
	cmp	DWORD PTR _i$3[ebp], eax
	jae	$LN3@TransformV

; 120  :   {
; 121  :     double tempX =(m_Matrix._11*vPoint[i].x) + (m_Matrix._21*vPoint[i].y) + (m_Matrix._31);

	mov	ecx, DWORD PTR _i$3[ebp]
	push	ecx
	mov	ecx, DWORD PTR _vPoint$[ebp]
	call	??A?$vector@UVector2D@@V?$allocator@UVector2D@@@std@@@std@@QAEAAUVector2D@@I@Z ; std::vector<Vector2D,std::allocator<Vector2D> >::operator[]
	mov	edx, DWORD PTR _this$[ebp]
	movsd	xmm0, QWORD PTR [edx]
	mulsd	xmm0, QWORD PTR [eax]
	mov	eax, DWORD PTR _i$3[ebp]
	push	eax
	mov	ecx, DWORD PTR _vPoint$[ebp]
	movsd	QWORD PTR tv171[ebp], xmm0
	call	??A?$vector@UVector2D@@V?$allocator@UVector2D@@@std@@@std@@QAEAAUVector2D@@I@Z ; std::vector<Vector2D,std::allocator<Vector2D> >::operator[]
	mov	ecx, DWORD PTR _this$[ebp]
	movsd	xmm0, QWORD PTR [ecx+24]
	mulsd	xmm0, QWORD PTR [eax+8]
	movsd	xmm1, QWORD PTR tv171[ebp]
	addsd	xmm1, xmm0
	mov	edx, DWORD PTR _this$[ebp]
	addsd	xmm1, QWORD PTR [edx+48]
	movsd	QWORD PTR _tempX$2[ebp], xmm1

; 122  : 
; 123  :     double tempY = (m_Matrix._12*vPoint[i].x) + (m_Matrix._22*vPoint[i].y) + (m_Matrix._32);

	mov	eax, DWORD PTR _i$3[ebp]
	push	eax
	mov	ecx, DWORD PTR _vPoint$[ebp]
	call	??A?$vector@UVector2D@@V?$allocator@UVector2D@@@std@@@std@@QAEAAUVector2D@@I@Z ; std::vector<Vector2D,std::allocator<Vector2D> >::operator[]
	mov	ecx, DWORD PTR _this$[ebp]
	movsd	xmm0, QWORD PTR [ecx+8]
	mulsd	xmm0, QWORD PTR [eax]
	mov	edx, DWORD PTR _i$3[ebp]
	push	edx
	mov	ecx, DWORD PTR _vPoint$[ebp]
	movsd	QWORD PTR tv173[ebp], xmm0
	call	??A?$vector@UVector2D@@V?$allocator@UVector2D@@@std@@@std@@QAEAAUVector2D@@I@Z ; std::vector<Vector2D,std::allocator<Vector2D> >::operator[]
	mov	ecx, DWORD PTR _this$[ebp]
	movsd	xmm0, QWORD PTR [ecx+32]
	mulsd	xmm0, QWORD PTR [eax+8]
	movsd	xmm1, QWORD PTR tv173[ebp]
	addsd	xmm1, xmm0
	mov	edx, DWORD PTR _this$[ebp]
	addsd	xmm1, QWORD PTR [edx+56]
	movsd	QWORD PTR _tempY$1[ebp], xmm1

; 124  :   
; 125  :     vPoint[i].x = tempX;

	mov	eax, DWORD PTR _i$3[ebp]
	push	eax
	mov	ecx, DWORD PTR _vPoint$[ebp]
	call	??A?$vector@UVector2D@@V?$allocator@UVector2D@@@std@@@std@@QAEAAUVector2D@@I@Z ; std::vector<Vector2D,std::allocator<Vector2D> >::operator[]
	movsd	xmm0, QWORD PTR _tempX$2[ebp]
	movsd	QWORD PTR [eax], xmm0

; 126  : 
; 127  :     vPoint[i].y = tempY;

	mov	ecx, DWORD PTR _i$3[ebp]
	push	ecx
	mov	ecx, DWORD PTR _vPoint$[ebp]
	call	??A?$vector@UVector2D@@V?$allocator@UVector2D@@@std@@@std@@QAEAAUVector2D@@I@Z ; std::vector<Vector2D,std::allocator<Vector2D> >::operator[]
	movsd	xmm0, QWORD PTR _tempY$1[ebp]
	movsd	QWORD PTR [eax+8], xmm0

; 128  : 
; 129  :   }

	jmp	$LN2@TransformV
$LN3@TransformV:

; 130  : }

	pop	edi
	add	esp, 40					; 00000028H
	cmp	ebp, esp
	call	__RTC_CheckEsp
	mov	esp, ebp
	pop	ebp
	ret	4
?TransformVector2Ds@C2DMatrix@@QAEXAAV?$vector@UVector2D@@V?$allocator@UVector2D@@@std@@@std@@@Z ENDP ; C2DMatrix::TransformVector2Ds
_TEXT	ENDS
; Function compile flags: /Odtp /RTCsu
; File d:\cours\uqac\intelligence artificielle - jeux vidéos\buckland_aisource\mini_projet_raven\common\2d\c2dmatrix.h
;	COMDAT ?Rotate@C2DMatrix@@QAEXABUVector2D@@0@Z
_TEXT	SEGMENT
_mat$ = -80						; size = 72
_this$ = -4						; size = 4
_fwd$ = 8						; size = 4
_side$ = 12						; size = 4
?Rotate@C2DMatrix@@QAEXABUVector2D@@0@Z PROC		; C2DMatrix::Rotate, COMDAT
; _this$ = ecx

; 210  : {

	push	ebp
	mov	ebp, esp
	sub	esp, 84					; 00000054H
	push	edi
	push	ecx
	lea	edi, DWORD PTR [ebp-84]
	mov	ecx, 21					; 00000015H
	mov	eax, -858993460				; ccccccccH
	rep stosd
	pop	ecx
	mov	DWORD PTR _this$[ebp], ecx

; 211  :   C2DMatrix::Matrix mat;

	lea	ecx, DWORD PTR _mat$[ebp]
	call	??0Matrix@C2DMatrix@@QAE@XZ		; C2DMatrix::Matrix::Matrix

; 212  :   
; 213  :   mat._11 = fwd.x;  mat._12 = fwd.y; mat._13 = 0;

	mov	eax, DWORD PTR _fwd$[ebp]
	movsd	xmm0, QWORD PTR [eax]
	movsd	QWORD PTR _mat$[ebp], xmm0
	mov	ecx, DWORD PTR _fwd$[ebp]
	movsd	xmm0, QWORD PTR [ecx+8]
	movsd	QWORD PTR _mat$[ebp+8], xmm0
	movsd	xmm0, QWORD PTR __real@0000000000000000
	movsd	QWORD PTR _mat$[ebp+16], xmm0

; 214  :   
; 215  :   mat._21 = side.x; mat._22 = side.y; mat._23 = 0;

	mov	edx, DWORD PTR _side$[ebp]
	movsd	xmm0, QWORD PTR [edx]
	movsd	QWORD PTR _mat$[ebp+24], xmm0
	mov	eax, DWORD PTR _side$[ebp]
	movsd	xmm0, QWORD PTR [eax+8]
	movsd	QWORD PTR _mat$[ebp+32], xmm0
	movsd	xmm0, QWORD PTR __real@0000000000000000
	movsd	QWORD PTR _mat$[ebp+40], xmm0

; 216  :   
; 217  :   mat._31 = 0; mat._32 = 0;mat._33 = 1;

	movsd	xmm0, QWORD PTR __real@0000000000000000
	movsd	QWORD PTR _mat$[ebp+48], xmm0
	movsd	xmm0, QWORD PTR __real@0000000000000000
	movsd	QWORD PTR _mat$[ebp+56], xmm0
	movsd	xmm0, QWORD PTR __real@3ff0000000000000
	movsd	QWORD PTR _mat$[ebp+64], xmm0

; 218  :   
; 219  :   //and multiply
; 220  :   MatrixMultiply(mat);

	lea	ecx, DWORD PTR _mat$[ebp]
	push	ecx
	mov	ecx, DWORD PTR _this$[ebp]
	call	?MatrixMultiply@C2DMatrix@@AAEXAAUMatrix@1@@Z ; C2DMatrix::MatrixMultiply

; 221  : }

	push	edx
	mov	ecx, ebp
	push	eax
	lea	edx, DWORD PTR $LN5@Rotate
	call	@_RTC_CheckStackVars@8
	pop	eax
	pop	edx
	pop	edi
	add	esp, 84					; 00000054H
	cmp	ebp, esp
	call	__RTC_CheckEsp
	mov	esp, ebp
	pop	ebp
	ret	8
$LN5@Rotate:
	DD	1
	DD	$LN4@Rotate
$LN4@Rotate:
	DD	-80					; ffffffb0H
	DD	72					; 00000048H
	DD	$LN3@Rotate
$LN3@Rotate:
	DB	109					; 0000006dH
	DB	97					; 00000061H
	DB	116					; 00000074H
	DB	0
?Rotate@C2DMatrix@@QAEXABUVector2D@@0@Z ENDP		; C2DMatrix::Rotate
_TEXT	ENDS
; Function compile flags: /Odtp /RTCsu
; File d:\cours\uqac\intelligence artificielle - jeux vidéos\buckland_aisource\mini_projet_raven\common\2d\c2dmatrix.h
;	COMDAT ?Scale@C2DMatrix@@QAEXNN@Z
_TEXT	SEGMENT
_mat$ = -80						; size = 72
_this$ = -4						; size = 4
_xScale$ = 8						; size = 8
_yScale$ = 16						; size = 8
?Scale@C2DMatrix@@QAEXNN@Z PROC				; C2DMatrix::Scale, COMDAT
; _this$ = ecx

; 175  : {

	push	ebp
	mov	ebp, esp
	sub	esp, 84					; 00000054H
	push	edi
	push	ecx
	lea	edi, DWORD PTR [ebp-84]
	mov	ecx, 21					; 00000015H
	mov	eax, -858993460				; ccccccccH
	rep stosd
	pop	ecx
	mov	DWORD PTR _this$[ebp], ecx

; 176  :   C2DMatrix::Matrix mat;

	lea	ecx, DWORD PTR _mat$[ebp]
	call	??0Matrix@C2DMatrix@@QAE@XZ		; C2DMatrix::Matrix::Matrix

; 177  :   
; 178  :   mat._11 = xScale; mat._12 = 0; mat._13 = 0;

	movsd	xmm0, QWORD PTR _xScale$[ebp]
	movsd	QWORD PTR _mat$[ebp], xmm0
	movsd	xmm0, QWORD PTR __real@0000000000000000
	movsd	QWORD PTR _mat$[ebp+8], xmm0
	movsd	xmm0, QWORD PTR __real@0000000000000000
	movsd	QWORD PTR _mat$[ebp+16], xmm0

; 179  :   
; 180  :   mat._21 = 0; mat._22 = yScale; mat._23 = 0;

	movsd	xmm0, QWORD PTR __real@0000000000000000
	movsd	QWORD PTR _mat$[ebp+24], xmm0
	movsd	xmm0, QWORD PTR _yScale$[ebp]
	movsd	QWORD PTR _mat$[ebp+32], xmm0
	movsd	xmm0, QWORD PTR __real@0000000000000000
	movsd	QWORD PTR _mat$[ebp+40], xmm0

; 181  :   
; 182  :   mat._31 = 0; mat._32 = 0; mat._33 = 1;

	movsd	xmm0, QWORD PTR __real@0000000000000000
	movsd	QWORD PTR _mat$[ebp+48], xmm0
	movsd	xmm0, QWORD PTR __real@0000000000000000
	movsd	QWORD PTR _mat$[ebp+56], xmm0
	movsd	xmm0, QWORD PTR __real@3ff0000000000000
	movsd	QWORD PTR _mat$[ebp+64], xmm0

; 183  :   
; 184  :   //and multiply
; 185  :   MatrixMultiply(mat);

	lea	eax, DWORD PTR _mat$[ebp]
	push	eax
	mov	ecx, DWORD PTR _this$[ebp]
	call	?MatrixMultiply@C2DMatrix@@AAEXAAUMatrix@1@@Z ; C2DMatrix::MatrixMultiply

; 186  : }

	push	edx
	mov	ecx, ebp
	push	eax
	lea	edx, DWORD PTR $LN5@Scale
	call	@_RTC_CheckStackVars@8
	pop	eax
	pop	edx
	pop	edi
	add	esp, 84					; 00000054H
	cmp	ebp, esp
	call	__RTC_CheckEsp
	mov	esp, ebp
	pop	ebp
	ret	16					; 00000010H
$LN5@Scale:
	DD	1
	DD	$LN4@Scale
$LN4@Scale:
	DD	-80					; ffffffb0H
	DD	72					; 00000048H
	DD	$LN3@Scale
$LN3@Scale:
	DB	109					; 0000006dH
	DB	97					; 00000061H
	DB	116					; 00000074H
	DB	0
?Scale@C2DMatrix@@QAEXNN@Z ENDP				; C2DMatrix::Scale
_TEXT	ENDS
; Function compile flags: /Odtp /RTCsu
; File d:\cours\uqac\intelligence artificielle - jeux vidéos\buckland_aisource\mini_projet_raven\common\2d\c2dmatrix.h
;	COMDAT ?Translate@C2DMatrix@@QAEXNN@Z
_TEXT	SEGMENT
_mat$ = -80						; size = 72
_this$ = -4						; size = 4
_x$ = 8							; size = 8
_y$ = 16						; size = 8
?Translate@C2DMatrix@@QAEXNN@Z PROC			; C2DMatrix::Translate, COMDAT
; _this$ = ecx

; 160  : {

	push	ebp
	mov	ebp, esp
	sub	esp, 84					; 00000054H
	push	edi
	push	ecx
	lea	edi, DWORD PTR [ebp-84]
	mov	ecx, 21					; 00000015H
	mov	eax, -858993460				; ccccccccH
	rep stosd
	pop	ecx
	mov	DWORD PTR _this$[ebp], ecx

; 161  :   Matrix mat;

	lea	ecx, DWORD PTR _mat$[ebp]
	call	??0Matrix@C2DMatrix@@QAE@XZ		; C2DMatrix::Matrix::Matrix

; 162  :   
; 163  :   mat._11 = 1; mat._12 = 0; mat._13 = 0;

	movsd	xmm0, QWORD PTR __real@3ff0000000000000
	movsd	QWORD PTR _mat$[ebp], xmm0
	movsd	xmm0, QWORD PTR __real@0000000000000000
	movsd	QWORD PTR _mat$[ebp+8], xmm0
	movsd	xmm0, QWORD PTR __real@0000000000000000
	movsd	QWORD PTR _mat$[ebp+16], xmm0

; 164  :   
; 165  :   mat._21 = 0; mat._22 = 1; mat._23 = 0;

	movsd	xmm0, QWORD PTR __real@0000000000000000
	movsd	QWORD PTR _mat$[ebp+24], xmm0
	movsd	xmm0, QWORD PTR __real@3ff0000000000000
	movsd	QWORD PTR _mat$[ebp+32], xmm0
	movsd	xmm0, QWORD PTR __real@0000000000000000
	movsd	QWORD PTR _mat$[ebp+40], xmm0

; 166  :   
; 167  :   mat._31 = x;    mat._32 = y;    mat._33 = 1;

	movsd	xmm0, QWORD PTR _x$[ebp]
	movsd	QWORD PTR _mat$[ebp+48], xmm0
	movsd	xmm0, QWORD PTR _y$[ebp]
	movsd	QWORD PTR _mat$[ebp+56], xmm0
	movsd	xmm0, QWORD PTR __real@3ff0000000000000
	movsd	QWORD PTR _mat$[ebp+64], xmm0

; 168  :   
; 169  :   //and multiply
; 170  :   MatrixMultiply(mat);

	lea	eax, DWORD PTR _mat$[ebp]
	push	eax
	mov	ecx, DWORD PTR _this$[ebp]
	call	?MatrixMultiply@C2DMatrix@@AAEXAAUMatrix@1@@Z ; C2DMatrix::MatrixMultiply

; 171  : }

	push	edx
	mov	ecx, ebp
	push	eax
	lea	edx, DWORD PTR $LN5@Translate
	call	@_RTC_CheckStackVars@8
	pop	eax
	pop	edx
	pop	edi
	add	esp, 84					; 00000054H
	cmp	ebp, esp
	call	__RTC_CheckEsp
	mov	esp, ebp
	pop	ebp
	ret	16					; 00000010H
$LN5@Translate:
	DD	1
	DD	$LN4@Translate
$LN4@Translate:
	DD	-80					; ffffffb0H
	DD	72					; 00000048H
	DD	$LN3@Translate
$LN3@Translate:
	DB	109					; 0000006dH
	DB	97					; 00000061H
	DB	116					; 00000074H
	DB	0
?Translate@C2DMatrix@@QAEXNN@Z ENDP			; C2DMatrix::Translate
_TEXT	ENDS
; Function compile flags: /Odtp /RTCsu
; File d:\cours\uqac\intelligence artificielle - jeux vidéos\buckland_aisource\mini_projet_raven\common\2d\c2dmatrix.h
;	COMDAT ?Identity@C2DMatrix@@QAEXXZ
_TEXT	SEGMENT
_this$ = -4						; size = 4
?Identity@C2DMatrix@@QAEXXZ PROC			; C2DMatrix::Identity, COMDAT
; _this$ = ecx

; 149  : {

	push	ebp
	mov	ebp, esp
	push	ecx
	mov	DWORD PTR [ebp-4], -858993460		; ccccccccH
	mov	DWORD PTR _this$[ebp], ecx

; 150  :   m_Matrix._11 = 1; m_Matrix._12 = 0; m_Matrix._13 = 0;

	mov	eax, DWORD PTR _this$[ebp]
	movsd	xmm0, QWORD PTR __real@3ff0000000000000
	movsd	QWORD PTR [eax], xmm0
	mov	ecx, DWORD PTR _this$[ebp]
	movsd	xmm0, QWORD PTR __real@0000000000000000
	movsd	QWORD PTR [ecx+8], xmm0
	mov	edx, DWORD PTR _this$[ebp]
	movsd	xmm0, QWORD PTR __real@0000000000000000
	movsd	QWORD PTR [edx+16], xmm0

; 151  : 
; 152  :   m_Matrix._21 = 0; m_Matrix._22 = 1; m_Matrix._23 = 0;

	mov	eax, DWORD PTR _this$[ebp]
	movsd	xmm0, QWORD PTR __real@0000000000000000
	movsd	QWORD PTR [eax+24], xmm0
	mov	ecx, DWORD PTR _this$[ebp]
	movsd	xmm0, QWORD PTR __real@3ff0000000000000
	movsd	QWORD PTR [ecx+32], xmm0
	mov	edx, DWORD PTR _this$[ebp]
	movsd	xmm0, QWORD PTR __real@0000000000000000
	movsd	QWORD PTR [edx+40], xmm0

; 153  : 
; 154  :   m_Matrix._31 = 0; m_Matrix._32 = 0; m_Matrix._33 = 1;

	mov	eax, DWORD PTR _this$[ebp]
	movsd	xmm0, QWORD PTR __real@0000000000000000
	movsd	QWORD PTR [eax+48], xmm0
	mov	ecx, DWORD PTR _this$[ebp]
	movsd	xmm0, QWORD PTR __real@0000000000000000
	movsd	QWORD PTR [ecx+56], xmm0
	mov	edx, DWORD PTR _this$[ebp]
	movsd	xmm0, QWORD PTR __real@3ff0000000000000
	movsd	QWORD PTR [edx+64], xmm0

; 155  : 
; 156  :   }

	mov	esp, ebp
	pop	ebp
	ret	0
?Identity@C2DMatrix@@QAEXXZ ENDP			; C2DMatrix::Identity
_TEXT	ENDS
; Function compile flags: /Odtp /RTCsu
; File d:\cours\uqac\intelligence artificielle - jeux vidéos\buckland_aisource\mini_projet_raven\common\2d\c2dmatrix.h
;	COMDAT ??0C2DMatrix@@QAE@XZ
_TEXT	SEGMENT
_this$ = -4						; size = 4
??0C2DMatrix@@QAE@XZ PROC				; C2DMatrix::C2DMatrix, COMDAT
; _this$ = ecx

; 49   :   C2DMatrix()

	push	ebp
	mov	ebp, esp
	push	ecx
	mov	DWORD PTR [ebp-4], -858993460		; ccccccccH
	mov	DWORD PTR _this$[ebp], ecx

; 50   :   {

	mov	ecx, DWORD PTR _this$[ebp]
	call	??0Matrix@C2DMatrix@@QAE@XZ		; C2DMatrix::Matrix::Matrix

; 51   :     //initialize the matrix to an identity matrix
; 52   :     Identity();

	mov	ecx, DWORD PTR _this$[ebp]
	call	?Identity@C2DMatrix@@QAEXXZ		; C2DMatrix::Identity

; 53   :   }

	mov	eax, DWORD PTR _this$[ebp]
	add	esp, 4
	cmp	ebp, esp
	call	__RTC_CheckEsp
	mov	esp, ebp
	pop	ebp
	ret	0
??0C2DMatrix@@QAE@XZ ENDP				; C2DMatrix::C2DMatrix
_TEXT	ENDS
; Function compile flags: /Odtp /RTCsu
; File d:\cours\uqac\intelligence artificielle - jeux vidéos\buckland_aisource\mini_projet_raven\common\2d\c2dmatrix.h
;	COMDAT ?MatrixMultiply@C2DMatrix@@AAEXAAUMatrix@1@@Z
_TEXT	SEGMENT
_mat_temp$ = -80					; size = 72
_this$ = -4						; size = 4
_mIn$ = 8						; size = 4
?MatrixMultiply@C2DMatrix@@AAEXAAUMatrix@1@@Z PROC	; C2DMatrix::MatrixMultiply, COMDAT
; _this$ = ecx

; 95   : {

	push	ebp
	mov	ebp, esp
	sub	esp, 84					; 00000054H
	push	esi
	push	edi
	push	ecx
	lea	edi, DWORD PTR [ebp-84]
	mov	ecx, 21					; 00000015H
	mov	eax, -858993460				; ccccccccH
	rep stosd
	pop	ecx
	mov	DWORD PTR _this$[ebp], ecx

; 96   :   C2DMatrix::Matrix mat_temp;

	lea	ecx, DWORD PTR _mat_temp$[ebp]
	call	??0Matrix@C2DMatrix@@QAE@XZ		; C2DMatrix::Matrix::Matrix

; 97   :   
; 98   :   //first row
; 99   :   mat_temp._11 = (m_Matrix._11*mIn._11) + (m_Matrix._12*mIn._21) + (m_Matrix._13*mIn._31);

	mov	eax, DWORD PTR _this$[ebp]
	mov	ecx, DWORD PTR _mIn$[ebp]
	movsd	xmm0, QWORD PTR [eax]
	mulsd	xmm0, QWORD PTR [ecx]
	mov	edx, DWORD PTR _this$[ebp]
	mov	eax, DWORD PTR _mIn$[ebp]
	movsd	xmm1, QWORD PTR [edx+8]
	mulsd	xmm1, QWORD PTR [eax+24]
	addsd	xmm0, xmm1
	mov	ecx, DWORD PTR _this$[ebp]
	mov	edx, DWORD PTR _mIn$[ebp]
	movsd	xmm1, QWORD PTR [ecx+16]
	mulsd	xmm1, QWORD PTR [edx+48]
	addsd	xmm0, xmm1
	movsd	QWORD PTR _mat_temp$[ebp], xmm0

; 100  :   mat_temp._12 = (m_Matrix._11*mIn._12) + (m_Matrix._12*mIn._22) + (m_Matrix._13*mIn._32);

	mov	eax, DWORD PTR _this$[ebp]
	mov	ecx, DWORD PTR _mIn$[ebp]
	movsd	xmm0, QWORD PTR [eax]
	mulsd	xmm0, QWORD PTR [ecx+8]
	mov	edx, DWORD PTR _this$[ebp]
	mov	eax, DWORD PTR _mIn$[ebp]
	movsd	xmm1, QWORD PTR [edx+8]
	mulsd	xmm1, QWORD PTR [eax+32]
	addsd	xmm0, xmm1
	mov	ecx, DWORD PTR _this$[ebp]
	mov	edx, DWORD PTR _mIn$[ebp]
	movsd	xmm1, QWORD PTR [ecx+16]
	mulsd	xmm1, QWORD PTR [edx+56]
	addsd	xmm0, xmm1
	movsd	QWORD PTR _mat_temp$[ebp+8], xmm0

; 101  :   mat_temp._13 = (m_Matrix._11*mIn._13) + (m_Matrix._12*mIn._23) + (m_Matrix._13*mIn._33);

	mov	eax, DWORD PTR _this$[ebp]
	mov	ecx, DWORD PTR _mIn$[ebp]
	movsd	xmm0, QWORD PTR [eax]
	mulsd	xmm0, QWORD PTR [ecx+16]
	mov	edx, DWORD PTR _this$[ebp]
	mov	eax, DWORD PTR _mIn$[ebp]
	movsd	xmm1, QWORD PTR [edx+8]
	mulsd	xmm1, QWORD PTR [eax+40]
	addsd	xmm0, xmm1
	mov	ecx, DWORD PTR _this$[ebp]
	mov	edx, DWORD PTR _mIn$[ebp]
	movsd	xmm1, QWORD PTR [ecx+16]
	mulsd	xmm1, QWORD PTR [edx+64]
	addsd	xmm0, xmm1
	movsd	QWORD PTR _mat_temp$[ebp+16], xmm0

; 102  : 
; 103  :   //second
; 104  :   mat_temp._21 = (m_Matrix._21*mIn._11) + (m_Matrix._22*mIn._21) + (m_Matrix._23*mIn._31);

	mov	eax, DWORD PTR _this$[ebp]
	mov	ecx, DWORD PTR _mIn$[ebp]
	movsd	xmm0, QWORD PTR [eax+24]
	mulsd	xmm0, QWORD PTR [ecx]
	mov	edx, DWORD PTR _this$[ebp]
	mov	eax, DWORD PTR _mIn$[ebp]
	movsd	xmm1, QWORD PTR [edx+32]
	mulsd	xmm1, QWORD PTR [eax+24]
	addsd	xmm0, xmm1
	mov	ecx, DWORD PTR _this$[ebp]
	mov	edx, DWORD PTR _mIn$[ebp]
	movsd	xmm1, QWORD PTR [ecx+40]
	mulsd	xmm1, QWORD PTR [edx+48]
	addsd	xmm0, xmm1
	movsd	QWORD PTR _mat_temp$[ebp+24], xmm0

; 105  :   mat_temp._22 = (m_Matrix._21*mIn._12) + (m_Matrix._22*mIn._22) + (m_Matrix._23*mIn._32);

	mov	eax, DWORD PTR _this$[ebp]
	mov	ecx, DWORD PTR _mIn$[ebp]
	movsd	xmm0, QWORD PTR [eax+24]
	mulsd	xmm0, QWORD PTR [ecx+8]
	mov	edx, DWORD PTR _this$[ebp]
	mov	eax, DWORD PTR _mIn$[ebp]
	movsd	xmm1, QWORD PTR [edx+32]
	mulsd	xmm1, QWORD PTR [eax+32]
	addsd	xmm0, xmm1
	mov	ecx, DWORD PTR _this$[ebp]
	mov	edx, DWORD PTR _mIn$[ebp]
	movsd	xmm1, QWORD PTR [ecx+40]
	mulsd	xmm1, QWORD PTR [edx+56]
	addsd	xmm0, xmm1
	movsd	QWORD PTR _mat_temp$[ebp+32], xmm0

; 106  :   mat_temp._23 = (m_Matrix._21*mIn._13) + (m_Matrix._22*mIn._23) + (m_Matrix._23*mIn._33);

	mov	eax, DWORD PTR _this$[ebp]
	mov	ecx, DWORD PTR _mIn$[ebp]
	movsd	xmm0, QWORD PTR [eax+24]
	mulsd	xmm0, QWORD PTR [ecx+16]
	mov	edx, DWORD PTR _this$[ebp]
	mov	eax, DWORD PTR _mIn$[ebp]
	movsd	xmm1, QWORD PTR [edx+32]
	mulsd	xmm1, QWORD PTR [eax+40]
	addsd	xmm0, xmm1
	mov	ecx, DWORD PTR _this$[ebp]
	mov	edx, DWORD PTR _mIn$[ebp]
	movsd	xmm1, QWORD PTR [ecx+40]
	mulsd	xmm1, QWORD PTR [edx+64]
	addsd	xmm0, xmm1
	movsd	QWORD PTR _mat_temp$[ebp+40], xmm0

; 107  : 
; 108  :   //third
; 109  :   mat_temp._31 = (m_Matrix._31*mIn._11) + (m_Matrix._32*mIn._21) + (m_Matrix._33*mIn._31);

	mov	eax, DWORD PTR _this$[ebp]
	mov	ecx, DWORD PTR _mIn$[ebp]
	movsd	xmm0, QWORD PTR [eax+48]
	mulsd	xmm0, QWORD PTR [ecx]
	mov	edx, DWORD PTR _this$[ebp]
	mov	eax, DWORD PTR _mIn$[ebp]
	movsd	xmm1, QWORD PTR [edx+56]
	mulsd	xmm1, QWORD PTR [eax+24]
	addsd	xmm0, xmm1
	mov	ecx, DWORD PTR _this$[ebp]
	mov	edx, DWORD PTR _mIn$[ebp]
	movsd	xmm1, QWORD PTR [ecx+64]
	mulsd	xmm1, QWORD PTR [edx+48]
	addsd	xmm0, xmm1
	movsd	QWORD PTR _mat_temp$[ebp+48], xmm0

; 110  :   mat_temp._32 = (m_Matrix._31*mIn._12) + (m_Matrix._32*mIn._22) + (m_Matrix._33*mIn._32);

	mov	eax, DWORD PTR _this$[ebp]
	mov	ecx, DWORD PTR _mIn$[ebp]
	movsd	xmm0, QWORD PTR [eax+48]
	mulsd	xmm0, QWORD PTR [ecx+8]
	mov	edx, DWORD PTR _this$[ebp]
	mov	eax, DWORD PTR _mIn$[ebp]
	movsd	xmm1, QWORD PTR [edx+56]
	mulsd	xmm1, QWORD PTR [eax+32]
	addsd	xmm0, xmm1
	mov	ecx, DWORD PTR _this$[ebp]
	mov	edx, DWORD PTR _mIn$[ebp]
	movsd	xmm1, QWORD PTR [ecx+64]
	mulsd	xmm1, QWORD PTR [edx+56]
	addsd	xmm0, xmm1
	movsd	QWORD PTR _mat_temp$[ebp+56], xmm0

; 111  :   mat_temp._33 = (m_Matrix._31*mIn._13) + (m_Matrix._32*mIn._23) + (m_Matrix._33*mIn._33);

	mov	eax, DWORD PTR _this$[ebp]
	mov	ecx, DWORD PTR _mIn$[ebp]
	movsd	xmm0, QWORD PTR [eax+48]
	mulsd	xmm0, QWORD PTR [ecx+16]
	mov	edx, DWORD PTR _this$[ebp]
	mov	eax, DWORD PTR _mIn$[ebp]
	movsd	xmm1, QWORD PTR [edx+56]
	mulsd	xmm1, QWORD PTR [eax+40]
	addsd	xmm0, xmm1
	mov	ecx, DWORD PTR _this$[ebp]
	mov	edx, DWORD PTR _mIn$[ebp]
	movsd	xmm1, QWORD PTR [ecx+64]
	mulsd	xmm1, QWORD PTR [edx+64]
	addsd	xmm0, xmm1
	movsd	QWORD PTR _mat_temp$[ebp+64], xmm0

; 112  : 
; 113  :   m_Matrix = mat_temp;

	mov	ecx, 18					; 00000012H
	lea	esi, DWORD PTR _mat_temp$[ebp]
	mov	edi, DWORD PTR _this$[ebp]
	rep movsd

; 114  : }

	push	edx
	mov	ecx, ebp
	push	eax
	lea	edx, DWORD PTR $LN5@MatrixMult
	call	@_RTC_CheckStackVars@8
	pop	eax
	pop	edx
	pop	edi
	pop	esi
	add	esp, 84					; 00000054H
	cmp	ebp, esp
	call	__RTC_CheckEsp
	mov	esp, ebp
	pop	ebp
	ret	4
	npad	1
$LN5@MatrixMult:
	DD	1
	DD	$LN4@MatrixMult
$LN4@MatrixMult:
	DD	-80					; ffffffb0H
	DD	72					; 00000048H
	DD	$LN3@MatrixMult
$LN3@MatrixMult:
	DB	109					; 0000006dH
	DB	97					; 00000061H
	DB	116					; 00000074H
	DB	95					; 0000005fH
	DB	116					; 00000074H
	DB	101					; 00000065H
	DB	109					; 0000006dH
	DB	112					; 00000070H
	DB	0
?MatrixMultiply@C2DMatrix@@AAEXAAUMatrix@1@@Z ENDP	; C2DMatrix::MatrixMultiply
_TEXT	ENDS
; Function compile flags: /Odtp /RTCsu
; File d:\cours\uqac\intelligence artificielle - jeux vidéos\buckland_aisource\mini_projet_raven\common\2d\c2dmatrix.h
;	COMDAT ??0Matrix@C2DMatrix@@QAE@XZ
_TEXT	SEGMENT
_this$ = -4						; size = 4
??0Matrix@C2DMatrix@@QAE@XZ PROC			; C2DMatrix::Matrix::Matrix, COMDAT
; _this$ = ecx

; 32   :     Matrix()

	push	ebp
	mov	ebp, esp
	push	ecx
	mov	DWORD PTR [ebp-4], -858993460		; ccccccccH
	mov	DWORD PTR _this$[ebp], ecx

; 33   :     {
; 34   :       _11=0.0; _12=0.0; _13=0.0;

	mov	eax, DWORD PTR _this$[ebp]
	movsd	xmm0, QWORD PTR __real@0000000000000000
	movsd	QWORD PTR [eax], xmm0
	mov	ecx, DWORD PTR _this$[ebp]
	movsd	xmm0, QWORD PTR __real@0000000000000000
	movsd	QWORD PTR [ecx+8], xmm0
	mov	edx, DWORD PTR _this$[ebp]
	movsd	xmm0, QWORD PTR __real@0000000000000000
	movsd	QWORD PTR [edx+16], xmm0

; 35   :       _21=0.0; _22=0.0; _23=0.0;

	mov	eax, DWORD PTR _this$[ebp]
	movsd	xmm0, QWORD PTR __real@0000000000000000
	movsd	QWORD PTR [eax+24], xmm0
	mov	ecx, DWORD PTR _this$[ebp]
	movsd	xmm0, QWORD PTR __real@0000000000000000
	movsd	QWORD PTR [ecx+32], xmm0
	mov	edx, DWORD PTR _this$[ebp]
	movsd	xmm0, QWORD PTR __real@0000000000000000
	movsd	QWORD PTR [edx+40], xmm0

; 36   :       _31=0.0; _32=0.0; _33=0.0;

	mov	eax, DWORD PTR _this$[ebp]
	movsd	xmm0, QWORD PTR __real@0000000000000000
	movsd	QWORD PTR [eax+48], xmm0
	mov	ecx, DWORD PTR _this$[ebp]
	movsd	xmm0, QWORD PTR __real@0000000000000000
	movsd	QWORD PTR [ecx+56], xmm0
	mov	edx, DWORD PTR _this$[ebp]
	movsd	xmm0, QWORD PTR __real@0000000000000000
	movsd	QWORD PTR [edx+64], xmm0

; 37   :     }

	mov	eax, DWORD PTR _this$[ebp]
	mov	esp, ebp
	pop	ebp
	ret	0
??0Matrix@C2DMatrix@@QAE@XZ ENDP			; C2DMatrix::Matrix::Matrix
_TEXT	ENDS
; Function compile flags: /Odtp /RTCsu
; File d:\cours\uqac\intelligence artificielle - jeux vidéos\buckland_aisource\mini_projet_raven\common\misc\cgdi.h
;	COMDAT ?ClosedShape@Cgdi@@QAEXABV?$vector@UVector2D@@V?$allocator@UVector2D@@@std@@@std@@@Z
_TEXT	SEGMENT
_p$1 = -8						; size = 4
_this$ = -4						; size = 4
_points$ = 8						; size = 4
?ClosedShape@Cgdi@@QAEXABV?$vector@UVector2D@@V?$allocator@UVector2D@@@std@@@std@@@Z PROC ; Cgdi::ClosedShape, COMDAT
; _this$ = ecx

; 325  :   {

	push	ebp
	mov	ebp, esp
	sub	esp, 8
	push	esi
	mov	DWORD PTR [ebp-8], -858993460		; ccccccccH
	mov	DWORD PTR [ebp-4], -858993460		; ccccccccH
	mov	DWORD PTR _this$[ebp], ecx

; 326  :     MoveToEx(m_hdc, (int)points[0].x, (int)points[0].y, NULL);

	mov	esi, esp
	push	0
	push	0
	mov	ecx, DWORD PTR _points$[ebp]
	call	??A?$vector@UVector2D@@V?$allocator@UVector2D@@@std@@@std@@QBEABUVector2D@@I@Z ; std::vector<Vector2D,std::allocator<Vector2D> >::operator[]
	cvttsd2si eax, QWORD PTR [eax+8]
	push	eax
	push	0
	mov	ecx, DWORD PTR _points$[ebp]
	call	??A?$vector@UVector2D@@V?$allocator@UVector2D@@@std@@@std@@QBEABUVector2D@@I@Z ; std::vector<Vector2D,std::allocator<Vector2D> >::operator[]
	cvttsd2si ecx, QWORD PTR [eax]
	push	ecx
	mov	edx, DWORD PTR _this$[ebp]
	mov	eax, DWORD PTR [edx+124]
	push	eax
	call	DWORD PTR __imp__MoveToEx@16
	cmp	esi, esp
	call	__RTC_CheckEsp

; 327  :     
; 328  :     for (unsigned int p=1; p<points.size(); ++p)

	mov	DWORD PTR _p$1[ebp], 1
	jmp	SHORT $LN4@ClosedShap
$LN2@ClosedShap:
	mov	ecx, DWORD PTR _p$1[ebp]
	add	ecx, 1
	mov	DWORD PTR _p$1[ebp], ecx
$LN4@ClosedShap:
	mov	ecx, DWORD PTR _points$[ebp]
	call	?size@?$vector@UVector2D@@V?$allocator@UVector2D@@@std@@@std@@QBEIXZ ; std::vector<Vector2D,std::allocator<Vector2D> >::size
	cmp	DWORD PTR _p$1[ebp], eax
	jae	SHORT $LN3@ClosedShap

; 329  :     {
; 330  :       LineTo(m_hdc, (int)points[p].x, (int)points[p].y);

	mov	edx, DWORD PTR _p$1[ebp]
	push	edx
	mov	ecx, DWORD PTR _points$[ebp]
	call	??A?$vector@UVector2D@@V?$allocator@UVector2D@@@std@@@std@@QBEABUVector2D@@I@Z ; std::vector<Vector2D,std::allocator<Vector2D> >::operator[]
	cvttsd2si eax, QWORD PTR [eax+8]
	mov	esi, esp
	push	eax
	mov	ecx, DWORD PTR _p$1[ebp]
	push	ecx
	mov	ecx, DWORD PTR _points$[ebp]
	call	??A?$vector@UVector2D@@V?$allocator@UVector2D@@@std@@@std@@QBEABUVector2D@@I@Z ; std::vector<Vector2D,std::allocator<Vector2D> >::operator[]
	cvttsd2si edx, QWORD PTR [eax]
	push	edx
	mov	eax, DWORD PTR _this$[ebp]
	mov	ecx, DWORD PTR [eax+124]
	push	ecx
	call	DWORD PTR __imp__LineTo@12
	cmp	esi, esp
	call	__RTC_CheckEsp

; 331  :     }

	jmp	SHORT $LN2@ClosedShap
$LN3@ClosedShap:

; 332  : 
; 333  :     LineTo(m_hdc, (int)points[0].x, (int)points[0].y);

	push	0
	mov	ecx, DWORD PTR _points$[ebp]
	call	??A?$vector@UVector2D@@V?$allocator@UVector2D@@@std@@@std@@QBEABUVector2D@@I@Z ; std::vector<Vector2D,std::allocator<Vector2D> >::operator[]
	cvttsd2si edx, QWORD PTR [eax+8]
	mov	esi, esp
	push	edx
	push	0
	mov	ecx, DWORD PTR _points$[ebp]
	call	??A?$vector@UVector2D@@V?$allocator@UVector2D@@@std@@@std@@QBEABUVector2D@@I@Z ; std::vector<Vector2D,std::allocator<Vector2D> >::operator[]
	cvttsd2si eax, QWORD PTR [eax]
	push	eax
	mov	ecx, DWORD PTR _this$[ebp]
	mov	edx, DWORD PTR [ecx+124]
	push	edx
	call	DWORD PTR __imp__LineTo@12
	cmp	esi, esp
	call	__RTC_CheckEsp

; 334  :   }

	pop	esi
	add	esp, 8
	cmp	ebp, esp
	call	__RTC_CheckEsp
	mov	esp, ebp
	pop	ebp
	ret	4
?ClosedShape@Cgdi@@QAEXABV?$vector@UVector2D@@V?$allocator@UVector2D@@@std@@@std@@@Z ENDP ; Cgdi::ClosedShape
_TEXT	ENDS
; Function compile flags: /Odtp /RTCsu
; File d:\cours\uqac\intelligence artificielle - jeux vidéos\buckland_aisource\mini_projet_raven\common\misc\cgdi.h
;	COMDAT ?TextColor@Cgdi@@QAEXHHH@Z
_TEXT	SEGMENT
_this$ = -4						; size = 4
_r$ = 8							; size = 4
_g$ = 12						; size = 4
_b$ = 16						; size = 4
?TextColor@Cgdi@@QAEXHHH@Z PROC				; Cgdi::TextColor, COMDAT
; _this$ = ecx

; 227  :   void TextColor(int r, int g, int b){SetTextColor(m_hdc, RGB(r,g,b));}

	push	ebp
	mov	ebp, esp
	push	ecx
	push	esi
	mov	DWORD PTR [ebp-4], -858993460		; ccccccccH
	mov	DWORD PTR _this$[ebp], ecx
	movzx	eax, BYTE PTR _r$[ebp]
	movzx	ecx, BYTE PTR _g$[ebp]
	shl	ecx, 8
	or	eax, ecx
	movzx	edx, BYTE PTR _b$[ebp]
	shl	edx, 16					; 00000010H
	or	eax, edx
	mov	esi, esp
	push	eax
	mov	eax, DWORD PTR _this$[ebp]
	mov	ecx, DWORD PTR [eax+124]
	push	ecx
	call	DWORD PTR __imp__SetTextColor@8
	cmp	esi, esp
	call	__RTC_CheckEsp
	pop	esi
	add	esp, 4
	cmp	ebp, esp
	call	__RTC_CheckEsp
	mov	esp, ebp
	pop	ebp
	ret	12					; 0000000cH
?TextColor@Cgdi@@QAEXHHH@Z ENDP				; Cgdi::TextColor
_TEXT	ENDS
; Function compile flags: /Odtp /RTCsu
; File d:\cours\uqac\intelligence artificielle - jeux vidéos\buckland_aisource\mini_projet_raven\common\misc\cgdi.h
;	COMDAT ?TextAtPos@Cgdi@@QAEXNNABV?$basic_string@DU?$char_traits@D@std@@V?$allocator@D@2@@std@@@Z
_TEXT	SEGMENT
_this$ = -4						; size = 4
_x$ = 8							; size = 8
_y$ = 16						; size = 8
_s$ = 24						; size = 4
?TextAtPos@Cgdi@@QAEXNNABV?$basic_string@DU?$char_traits@D@std@@V?$allocator@D@2@@std@@@Z PROC ; Cgdi::TextAtPos, COMDAT
; _this$ = ecx

; 213  :   {

	push	ebp
	mov	ebp, esp
	push	ecx
	push	esi
	mov	DWORD PTR [ebp-4], -858993460		; ccccccccH
	mov	DWORD PTR _this$[ebp], ecx

; 214  :     TextOut(m_hdc, (int)x, (int)y, s.c_str(), (int)s.size());

	mov	ecx, DWORD PTR _s$[ebp]
	call	?size@?$basic_string@DU?$char_traits@D@std@@V?$allocator@D@2@@std@@QBEIXZ ; std::basic_string<char,std::char_traits<char>,std::allocator<char> >::size
	mov	esi, esp
	push	eax
	mov	ecx, DWORD PTR _s$[ebp]
	call	?c_str@?$basic_string@DU?$char_traits@D@std@@V?$allocator@D@2@@std@@QBEPBDXZ ; std::basic_string<char,std::char_traits<char>,std::allocator<char> >::c_str
	push	eax
	cvttsd2si eax, QWORD PTR _y$[ebp]
	push	eax
	cvttsd2si ecx, QWORD PTR _x$[ebp]
	push	ecx
	mov	edx, DWORD PTR _this$[ebp]
	mov	eax, DWORD PTR [edx+124]
	push	eax
	call	DWORD PTR __imp__TextOutA@20
	cmp	esi, esp
	call	__RTC_CheckEsp

; 215  :   }

	pop	esi
	add	esp, 4
	cmp	ebp, esp
	call	__RTC_CheckEsp
	mov	esp, ebp
	pop	ebp
	ret	20					; 00000014H
?TextAtPos@Cgdi@@QAEXNNABV?$basic_string@DU?$char_traits@D@std@@V?$allocator@D@2@@std@@@Z ENDP ; Cgdi::TextAtPos
_TEXT	ENDS
; Function compile flags: /Odtp /RTCsu
; File d:\cours\uqac\intelligence artificielle - jeux vidéos\buckland_aisource\mini_projet_raven\common\misc\cgdi.h
;	COMDAT ?BrownPen@Cgdi@@QAEXXZ
_TEXT	SEGMENT
_this$ = -4						; size = 4
?BrownPen@Cgdi@@QAEXXZ PROC				; Cgdi::BrownPen, COMDAT
; _this$ = ecx

; 146  :   void BrownPen() {if(m_hdc){SelectObject(m_hdc, m_BrownPen);}}

	push	ebp
	mov	ebp, esp
	push	ecx
	push	esi
	mov	DWORD PTR [ebp-4], -858993460		; ccccccccH
	mov	DWORD PTR _this$[ebp], ecx
	mov	eax, DWORD PTR _this$[ebp]
	cmp	DWORD PTR [eax+124], 0
	je	SHORT $LN1@BrownPen
	mov	esi, esp
	mov	ecx, DWORD PTR _this$[ebp]
	mov	edx, DWORD PTR [ecx+44]
	push	edx
	mov	eax, DWORD PTR _this$[ebp]
	mov	ecx, DWORD PTR [eax+124]
	push	ecx
	call	DWORD PTR __imp__SelectObject@8
	cmp	esi, esp
	call	__RTC_CheckEsp
$LN1@BrownPen:
	pop	esi
	add	esp, 4
	cmp	ebp, esp
	call	__RTC_CheckEsp
	mov	esp, ebp
	pop	ebp
	ret	0
?BrownPen@Cgdi@@QAEXXZ ENDP				; Cgdi::BrownPen
_TEXT	ENDS
; Function compile flags: /Odtp /RTCsu
; File d:\cours\uqac\intelligence artificielle - jeux vidéos\buckland_aisource\mini_projet_raven\gravemarkers.cpp
_TEXT	SEGMENT
$T1 = -28						; size = 24
_this$ = -4						; size = 4
_pos$ = 8						; size = 16
?AddGrave@GraveMarkers@@QAEXUVector2D@@@Z PROC		; GraveMarkers::AddGrave
; _this$ = ecx

; 65   : {

	push	ebp
	mov	ebp, esp
	sub	esp, 28					; 0000001cH
	mov	eax, -858993460				; ccccccccH
	mov	DWORD PTR [ebp-28], eax
	mov	DWORD PTR [ebp-24], eax
	mov	DWORD PTR [ebp-20], eax
	mov	DWORD PTR [ebp-16], eax
	mov	DWORD PTR [ebp-12], eax
	mov	DWORD PTR [ebp-8], eax
	mov	DWORD PTR [ebp-4], eax
	mov	DWORD PTR _this$[ebp], ecx

; 66   :   m_GraveList.push_back(GraveRecord(pos));

	sub	esp, 16					; 00000010H
	mov	eax, esp
	mov	ecx, DWORD PTR _pos$[ebp]
	mov	DWORD PTR [eax], ecx
	mov	edx, DWORD PTR _pos$[ebp+4]
	mov	DWORD PTR [eax+4], edx
	mov	ecx, DWORD PTR _pos$[ebp+8]
	mov	DWORD PTR [eax+8], ecx
	mov	edx, DWORD PTR _pos$[ebp+12]
	mov	DWORD PTR [eax+12], edx
	lea	ecx, DWORD PTR $T1[ebp]
	call	??0GraveRecord@GraveMarkers@@QAE@UVector2D@@@Z ; GraveMarkers::GraveRecord::GraveRecord
	push	eax
	mov	ecx, DWORD PTR _this$[ebp]
	add	ecx, 40					; 00000028H
	call	?push_back@?$list@UGraveRecord@GraveMarkers@@V?$allocator@UGraveRecord@GraveMarkers@@@std@@@std@@QAEX$$QAUGraveRecord@GraveMarkers@@@Z ; std::list<GraveMarkers::GraveRecord,std::allocator<GraveMarkers::GraveRecord> >::push_back

; 67   : }

	add	esp, 28					; 0000001cH
	cmp	ebp, esp
	call	__RTC_CheckEsp
	mov	esp, ebp
	pop	ebp
	ret	16					; 00000010H
?AddGrave@GraveMarkers@@QAEXUVector2D@@@Z ENDP		; GraveMarkers::AddGrave
_TEXT	ENDS
; Function compile flags: /Odtp /RTCsu
; File d:\cours\uqac\intelligence artificielle - jeux vidéos\buckland_aisource\mini_projet_raven\gravemarkers.cpp
_TEXT	SEGMENT
tv181 = -168						; size = 4
tv179 = -164						; size = 4
tv66 = -160						; size = 4
$T2 = -156						; size = 16
$T3 = -140						; size = 16
$T4 = -124						; size = 16
$T5 = -108						; size = 12
$T6 = -93						; size = 1
$T7 = -92						; size = 28
_facing$ = -60						; size = 16
_it$ = -36						; size = 12
_this$ = -20						; size = 4
__$ArrayPad$ = -16					; size = 4
__$EHRec$ = -12						; size = 12
?Render@GraveMarkers@@QAEXXZ PROC			; GraveMarkers::Render
; _this$ = ecx

; 45   : {

	push	ebp
	mov	ebp, esp
	push	-1
	push	__ehhandler$?Render@GraveMarkers@@QAEXXZ
	mov	eax, DWORD PTR fs:0
	push	eax
	sub	esp, 156				; 0000009cH
	push	edi
	push	ecx
	lea	edi, DWORD PTR [ebp-168]
	mov	ecx, 39					; 00000027H
	mov	eax, -858993460				; ccccccccH
	rep stosd
	pop	ecx
	mov	eax, DWORD PTR ___security_cookie
	xor	eax, ebp
	mov	DWORD PTR __$ArrayPad$[ebp], eax
	push	eax
	lea	eax, DWORD PTR __$EHRec$[ebp]
	mov	DWORD PTR fs:0, eax
	mov	DWORD PTR _this$[ebp], ecx

; 46   :   GraveList::iterator it = m_GraveList.begin();

	lea	eax, DWORD PTR _it$[ebp]
	push	eax
	mov	ecx, DWORD PTR _this$[ebp]
	add	ecx, 40					; 00000028H
	call	?begin@?$list@UGraveRecord@GraveMarkers@@V?$allocator@UGraveRecord@GraveMarkers@@@std@@@std@@QAE?AV?$_List_iterator@V?$_List_val@U?$_List_simple_types@UGraveRecord@GraveMarkers@@@std@@@std@@@2@XZ ; std::list<GraveMarkers::GraveRecord,std::allocator<GraveMarkers::GraveRecord> >::begin
	mov	DWORD PTR __$EHRec$[ebp+8], 0

; 47   :   Vector2D facing(-1,0);

	sub	esp, 8
	movsd	xmm0, QWORD PTR __real@0000000000000000
	movsd	QWORD PTR [esp], xmm0
	sub	esp, 8
	movsd	xmm0, QWORD PTR __real@bff0000000000000
	movsd	QWORD PTR [esp], xmm0
	lea	ecx, DWORD PTR _facing$[ebp]
	call	??0Vector2D@@QAE@NN@Z			; Vector2D::Vector2D
	jmp	SHORT $LN4@Render
$LN2@Render:

; 48   :   for (it; it != m_GraveList.end(); ++it)

	lea	ecx, DWORD PTR _it$[ebp]
	call	??E?$_List_iterator@V?$_List_val@U?$_List_simple_types@UGraveRecord@GraveMarkers@@@std@@@std@@@std@@QAEAAV01@XZ ; std::_List_iterator<std::_List_val<std::_List_simple_types<GraveMarkers::GraveRecord> > >::operator++
$LN4@Render:
	lea	ecx, DWORD PTR $T5[ebp]
	push	ecx
	mov	ecx, DWORD PTR _this$[ebp]
	add	ecx, 40					; 00000028H
	call	?end@?$list@UGraveRecord@GraveMarkers@@V?$allocator@UGraveRecord@GraveMarkers@@@std@@@std@@QAE?AV?$_List_iterator@V?$_List_val@U?$_List_simple_types@UGraveRecord@GraveMarkers@@@std@@@std@@@2@XZ ; std::list<GraveMarkers::GraveRecord,std::allocator<GraveMarkers::GraveRecord> >::end
	mov	DWORD PTR tv66[ebp], eax
	mov	edx, DWORD PTR tv66[ebp]
	mov	DWORD PTR tv179[ebp], edx
	mov	BYTE PTR __$EHRec$[ebp+8], 1
	mov	eax, DWORD PTR tv179[ebp]
	push	eax
	lea	ecx, DWORD PTR _it$[ebp]
	call	??9?$_List_const_iterator@V?$_List_val@U?$_List_simple_types@UGraveRecord@GraveMarkers@@@std@@@std@@@std@@QBE_NABV01@@Z ; std::_List_const_iterator<std::_List_val<std::_List_simple_types<GraveMarkers::GraveRecord> > >::operator!=
	mov	BYTE PTR $T6[ebp], al
	mov	BYTE PTR __$EHRec$[ebp+8], 0
	lea	ecx, DWORD PTR $T5[ebp]
	call	??1?$_List_iterator@V?$_List_val@U?$_List_simple_types@UGraveRecord@GraveMarkers@@@std@@@std@@@std@@QAE@XZ
	movzx	ecx, BYTE PTR $T6[ebp]
	test	ecx, ecx
	je	$LN3@Render

; 49   :   {
; 50   :     
; 51   :     m_vecRIPVBTrans = WorldTransform(m_vecRIPVB,

	sub	esp, 8
	movsd	xmm0, QWORD PTR __real@3ff0000000000000
	movsd	QWORD PTR [esp], xmm0
	sub	esp, 8
	movsd	xmm0, QWORD PTR __real@3ff0000000000000
	movsd	QWORD PTR [esp], xmm0
	lea	ecx, DWORD PTR $T4[ebp]
	call	??0Vector2D@@QAE@NN@Z			; Vector2D::Vector2D
	push	eax
	lea	edx, DWORD PTR $T3[ebp]
	push	edx
	lea	ecx, DWORD PTR _facing$[ebp]
	call	?Perp@Vector2D@@QBE?AU1@XZ		; Vector2D::Perp
	push	eax
	lea	eax, DWORD PTR _facing$[ebp]
	push	eax
	lea	ecx, DWORD PTR _it$[ebp]
	call	??C?$_List_iterator@V?$_List_val@U?$_List_simple_types@UGraveRecord@GraveMarkers@@@std@@@std@@@std@@QBEPAUGraveRecord@GraveMarkers@@XZ ; std::_List_iterator<std::_List_val<std::_List_simple_types<GraveMarkers::GraveRecord> > >::operator->
	push	eax
	mov	ecx, DWORD PTR _this$[ebp]
	add	ecx, 8
	push	ecx
	lea	edx, DWORD PTR $T2[ebp]
	push	edx
	call	?WorldTransform@@YA?AV?$vector@UVector2D@@V?$allocator@UVector2D@@@std@@@std@@AAV12@ABUVector2D@@111@Z ; WorldTransform
	add	esp, 24					; 00000018H
	mov	DWORD PTR tv181[ebp], eax
	mov	eax, DWORD PTR tv181[ebp]
	push	eax
	mov	ecx, DWORD PTR _this$[ebp]
	add	ecx, 24					; 00000018H
	call	??4?$vector@UVector2D@@V?$allocator@UVector2D@@@std@@@std@@QAEAAV01@$$QAV01@@Z ; std::vector<Vector2D,std::allocator<Vector2D> >::operator=
	lea	ecx, DWORD PTR $T2[ebp]
	call	??1?$vector@UVector2D@@V?$allocator@UVector2D@@@std@@@std@@QAE@XZ ; std::vector<Vector2D,std::allocator<Vector2D> >::~vector<Vector2D,std::allocator<Vector2D> >

; 52   :                                    it->Position,
; 53   :                                    facing,
; 54   :                                    facing.Perp(),
; 55   :                                    Vector2D(1,1));
; 56   : 
; 57   :     gdi->BrownPen();

	call	?Instance@Cgdi@@SAPAV1@XZ		; Cgdi::Instance
	mov	ecx, eax
	call	?BrownPen@Cgdi@@QAEXXZ			; Cgdi::BrownPen

; 58   :     gdi->ClosedShape(m_vecRIPVBTrans);

	mov	ecx, DWORD PTR _this$[ebp]
	add	ecx, 24					; 00000018H
	push	ecx
	call	?Instance@Cgdi@@SAPAV1@XZ		; Cgdi::Instance
	mov	ecx, eax
	call	?ClosedShape@Cgdi@@QAEXABV?$vector@UVector2D@@V?$allocator@UVector2D@@@std@@@std@@@Z ; Cgdi::ClosedShape

; 59   :     gdi->TextColor(133,90,0);

	push	0
	push	90					; 0000005aH
	push	133					; 00000085H
	call	?Instance@Cgdi@@SAPAV1@XZ		; Cgdi::Instance
	mov	ecx, eax
	call	?TextColor@Cgdi@@QAEXHHH@Z		; Cgdi::TextColor

; 60   :     gdi->TextAtPos(it->Position.x - 10, it->Position.y - 5, "RIP");

	push	OFFSET $SG156197
	lea	ecx, DWORD PTR $T7[ebp]
	call	??0?$basic_string@DU?$char_traits@D@std@@V?$allocator@D@2@@std@@QAE@PBD@Z ; std::basic_string<char,std::char_traits<char>,std::allocator<char> >::basic_string<char,std::char_traits<char>,std::allocator<char> >
	mov	BYTE PTR __$EHRec$[ebp+8], 2
	lea	edx, DWORD PTR $T7[ebp]
	push	edx
	lea	ecx, DWORD PTR _it$[ebp]
	call	??C?$_List_iterator@V?$_List_val@U?$_List_simple_types@UGraveRecord@GraveMarkers@@@std@@@std@@@std@@QBEPAUGraveRecord@GraveMarkers@@XZ ; std::_List_iterator<std::_List_val<std::_List_simple_types<GraveMarkers::GraveRecord> > >::operator->
	movsd	xmm0, QWORD PTR [eax+8]
	subsd	xmm0, QWORD PTR __real@4014000000000000
	sub	esp, 8
	movsd	QWORD PTR [esp], xmm0
	lea	ecx, DWORD PTR _it$[ebp]
	call	??C?$_List_iterator@V?$_List_val@U?$_List_simple_types@UGraveRecord@GraveMarkers@@@std@@@std@@@std@@QBEPAUGraveRecord@GraveMarkers@@XZ ; std::_List_iterator<std::_List_val<std::_List_simple_types<GraveMarkers::GraveRecord> > >::operator->
	movsd	xmm0, QWORD PTR [eax]
	subsd	xmm0, QWORD PTR __real@4024000000000000
	sub	esp, 8
	movsd	QWORD PTR [esp], xmm0
	call	?Instance@Cgdi@@SAPAV1@XZ		; Cgdi::Instance
	mov	ecx, eax
	call	?TextAtPos@Cgdi@@QAEXNNABV?$basic_string@DU?$char_traits@D@std@@V?$allocator@D@2@@std@@@Z ; Cgdi::TextAtPos
	mov	BYTE PTR __$EHRec$[ebp+8], 0
	lea	ecx, DWORD PTR $T7[ebp]
	call	??1?$basic_string@DU?$char_traits@D@std@@V?$allocator@D@2@@std@@QAE@XZ ; std::basic_string<char,std::char_traits<char>,std::allocator<char> >::~basic_string<char,std::char_traits<char>,std::allocator<char> >

; 61   :   }

	jmp	$LN2@Render
$LN3@Render:

; 62   : }

	mov	DWORD PTR __$EHRec$[ebp+8], -1
	lea	ecx, DWORD PTR _it$[ebp]
	call	??1?$_List_iterator@V?$_List_val@U?$_List_simple_types@UGraveRecord@GraveMarkers@@@std@@@std@@@std@@QAE@XZ
	push	edx
	mov	ecx, ebp
	push	eax
	lea	edx, DWORD PTR $LN14@Render
	call	@_RTC_CheckStackVars@8
	pop	eax
	pop	edx
	mov	ecx, DWORD PTR __$EHRec$[ebp]
	mov	DWORD PTR fs:0, ecx
	pop	ecx
	pop	edi
	mov	ecx, DWORD PTR __$ArrayPad$[ebp]
	xor	ecx, ebp
	call	@__security_check_cookie@4
	add	esp, 168				; 000000a8H
	cmp	ebp, esp
	call	__RTC_CheckEsp
	mov	esp, ebp
	pop	ebp
	ret	0
	npad	1
$LN14@Render:
	DD	2
	DD	$LN13@Render
$LN13@Render:
	DD	-36					; ffffffdcH
	DD	12					; 0000000cH
	DD	$LN10@Render
	DD	-60					; ffffffc4H
	DD	16					; 00000010H
	DD	$LN11@Render
$LN11@Render:
	DB	102					; 00000066H
	DB	97					; 00000061H
	DB	99					; 00000063H
	DB	105					; 00000069H
	DB	110					; 0000006eH
	DB	103					; 00000067H
	DB	0
$LN10@Render:
	DB	105					; 00000069H
	DB	116					; 00000074H
	DB	0
_TEXT	ENDS
text$x	SEGMENT
__unwindfunclet$?Render@GraveMarkers@@QAEXXZ$0:
	lea	ecx, DWORD PTR _it$[ebp]
	jmp	??1?$_List_iterator@V?$_List_val@U?$_List_simple_types@UGraveRecord@GraveMarkers@@@std@@@std@@@std@@QAE@XZ
__unwindfunclet$?Render@GraveMarkers@@QAEXXZ$1:
	lea	ecx, DWORD PTR $T5[ebp]
	jmp	??1?$_List_iterator@V?$_List_val@U?$_List_simple_types@UGraveRecord@GraveMarkers@@@std@@@std@@@std@@QAE@XZ
__unwindfunclet$?Render@GraveMarkers@@QAEXXZ$3:
	lea	ecx, DWORD PTR $T7[ebp]
	jmp	??1?$basic_string@DU?$char_traits@D@std@@V?$allocator@D@2@@std@@QAE@XZ ; std::basic_string<char,std::char_traits<char>,std::allocator<char> >::~basic_string<char,std::char_traits<char>,std::allocator<char> >
__ehhandler$?Render@GraveMarkers@@QAEXXZ:
	mov	edx, DWORD PTR [esp+8]
	lea	eax, DWORD PTR [edx+12]
	mov	ecx, DWORD PTR [edx-164]
	xor	ecx, eax
	call	@__security_check_cookie@4
	mov	ecx, DWORD PTR [edx-4]
	xor	ecx, eax
	call	@__security_check_cookie@4
	mov	eax, OFFSET __ehfuncinfo$?Render@GraveMarkers@@QAEXXZ
	jmp	___CxxFrameHandler3
text$x	ENDS
?Render@GraveMarkers@@QAEXXZ ENDP			; GraveMarkers::Render
; Function compile flags: /Odtp /RTCsu
; File d:\cours\uqac\intelligence artificielle - jeux vidéos\buckland_aisource\mini_projet_raven\gravemarkers.cpp
_TEXT	SEGMENT
tv163 = -104						; size = 4
tv161 = -100						; size = 4
tv160 = -96						; size = 4
tv193 = -92						; size = 8
tv177 = -84						; size = 8
tv158 = -76						; size = 4
tv66 = -72						; size = 4
$T2 = -68						; size = 12
$T3 = -56						; size = 4
$T4 = -52						; size = 12
$T5 = -37						; size = 1
_it$ = -32						; size = 12
_this$ = -16						; size = 4
__$EHRec$ = -12						; size = 12
?Update@GraveMarkers@@QAEXXZ PROC			; GraveMarkers::Update
; _this$ = ecx

; 28   : {

	push	ebp
	mov	ebp, esp
	push	-1
	push	__ehhandler$?Update@GraveMarkers@@QAEXXZ
	mov	eax, DWORD PTR fs:0
	push	eax
	sub	esp, 92					; 0000005cH
	push	edi
	push	ecx
	lea	edi, DWORD PTR [ebp-104]
	mov	ecx, 23					; 00000017H
	mov	eax, -858993460				; ccccccccH
	rep stosd
	pop	ecx
	mov	eax, DWORD PTR ___security_cookie
	xor	eax, ebp
	push	eax
	lea	eax, DWORD PTR __$EHRec$[ebp]
	mov	DWORD PTR fs:0, eax
	mov	DWORD PTR _this$[ebp], ecx

; 29   :   GraveList::iterator it = m_GraveList.begin();

	lea	eax, DWORD PTR _it$[ebp]
	push	eax
	mov	ecx, DWORD PTR _this$[ebp]
	add	ecx, 40					; 00000028H
	call	?begin@?$list@UGraveRecord@GraveMarkers@@V?$allocator@UGraveRecord@GraveMarkers@@@std@@@std@@QAE?AV?$_List_iterator@V?$_List_val@U?$_List_simple_types@UGraveRecord@GraveMarkers@@@std@@@std@@@2@XZ ; std::list<GraveMarkers::GraveRecord,std::allocator<GraveMarkers::GraveRecord> >::begin
	mov	DWORD PTR __$EHRec$[ebp+8], 0
$LN2@Update:

; 30   :   while (it != m_GraveList.end())

	lea	ecx, DWORD PTR $T4[ebp]
	push	ecx
	mov	ecx, DWORD PTR _this$[ebp]
	add	ecx, 40					; 00000028H
	call	?end@?$list@UGraveRecord@GraveMarkers@@V?$allocator@UGraveRecord@GraveMarkers@@@std@@@std@@QAE?AV?$_List_iterator@V?$_List_val@U?$_List_simple_types@UGraveRecord@GraveMarkers@@@std@@@std@@@2@XZ ; std::list<GraveMarkers::GraveRecord,std::allocator<GraveMarkers::GraveRecord> >::end
	mov	DWORD PTR tv66[ebp], eax
	mov	edx, DWORD PTR tv66[ebp]
	mov	DWORD PTR tv158[ebp], edx
	mov	BYTE PTR __$EHRec$[ebp+8], 1
	mov	eax, DWORD PTR tv158[ebp]
	push	eax
	lea	ecx, DWORD PTR _it$[ebp]
	call	??9?$_List_const_iterator@V?$_List_val@U?$_List_simple_types@UGraveRecord@GraveMarkers@@@std@@@std@@@std@@QBE_NABV01@@Z ; std::_List_const_iterator<std::_List_val<std::_List_simple_types<GraveMarkers::GraveRecord> > >::operator!=
	mov	BYTE PTR $T5[ebp], al
	mov	BYTE PTR __$EHRec$[ebp+8], 0
	lea	ecx, DWORD PTR $T4[ebp]
	call	??1?$_List_iterator@V?$_List_val@U?$_List_simple_types@UGraveRecord@GraveMarkers@@@std@@@std@@@std@@QAE@XZ
	movzx	ecx, BYTE PTR $T5[ebp]
	test	ecx, ecx
	je	$LN3@Update

; 31   :   {
; 32   :     if (Clock->GetCurrentTime() - it->TimeCreated > m_dLifeTime)

	call	?Instance@CrudeTimer@@SAPAV1@XZ		; CrudeTimer::Instance
	mov	ecx, eax
	call	?GetTickCount@CrudeTimer@@QAENXZ	; CrudeTimer::GetTickCount
	fstp	QWORD PTR tv177[ebp]
	movsd	xmm0, QWORD PTR tv177[ebp]
	lea	ecx, DWORD PTR _it$[ebp]
	movsd	QWORD PTR tv193[ebp], xmm0
	call	??C?$_List_iterator@V?$_List_val@U?$_List_simple_types@UGraveRecord@GraveMarkers@@@std@@@std@@@std@@QBEPAUGraveRecord@GraveMarkers@@XZ ; std::_List_iterator<std::_List_val<std::_List_simple_types<GraveMarkers::GraveRecord> > >::operator->
	movsd	xmm0, QWORD PTR tv193[ebp]
	subsd	xmm0, QWORD PTR [eax+16]
	mov	edx, DWORD PTR _this$[ebp]
	comisd	xmm0, QWORD PTR [edx]
	jbe	SHORT $LN4@Update

; 33   :     {
; 34   :       it = m_GraveList.erase(it);

	sub	esp, 12					; 0000000cH
	mov	ecx, esp
	mov	DWORD PTR $T3[ebp], esp
	lea	eax, DWORD PTR _it$[ebp]
	push	eax
	call	??0?$_List_const_iterator@V?$_List_val@U?$_List_simple_types@UGraveRecord@GraveMarkers@@@std@@@std@@@std@@QAE@ABV01@@Z
	mov	DWORD PTR tv160[ebp], eax
	lea	ecx, DWORD PTR $T2[ebp]
	push	ecx
	mov	ecx, DWORD PTR _this$[ebp]
	add	ecx, 40					; 00000028H
	call	?erase@?$list@UGraveRecord@GraveMarkers@@V?$allocator@UGraveRecord@GraveMarkers@@@std@@@std@@QAE?AV?$_List_iterator@V?$_List_val@U?$_List_simple_types@UGraveRecord@GraveMarkers@@@std@@@std@@@2@V?$_List_const_iterator@V?$_List_val@U?$_List_simple_types@UGraveRecord@GraveMarkers@@@std@@@std@@@2@@Z ; std::list<GraveMarkers::GraveRecord,std::allocator<GraveMarkers::GraveRecord> >::erase
	mov	DWORD PTR tv161[ebp], eax
	mov	edx, DWORD PTR tv161[ebp]
	mov	DWORD PTR tv163[ebp], edx
	mov	BYTE PTR __$EHRec$[ebp+8], 2
	mov	eax, DWORD PTR tv163[ebp]
	push	eax
	lea	ecx, DWORD PTR _it$[ebp]
	call	??4?$_List_iterator@V?$_List_val@U?$_List_simple_types@UGraveRecord@GraveMarkers@@@std@@@std@@@std@@QAEAAV01@$$QAV01@@Z
	mov	BYTE PTR __$EHRec$[ebp+8], 0
	lea	ecx, DWORD PTR $T2[ebp]
	call	??1?$_List_iterator@V?$_List_val@U?$_List_simple_types@UGraveRecord@GraveMarkers@@@std@@@std@@@std@@QAE@XZ

; 35   :     }
; 36   :     else

	jmp	SHORT $LN5@Update
$LN4@Update:

; 37   :     {
; 38   :       ++it;

	lea	ecx, DWORD PTR _it$[ebp]
	call	??E?$_List_iterator@V?$_List_val@U?$_List_simple_types@UGraveRecord@GraveMarkers@@@std@@@std@@@std@@QAEAAV01@XZ ; std::_List_iterator<std::_List_val<std::_List_simple_types<GraveMarkers::GraveRecord> > >::operator++
$LN5@Update:

; 39   :     }
; 40   :   }

	jmp	$LN2@Update
$LN3@Update:

; 41   : }

	mov	DWORD PTR __$EHRec$[ebp+8], -1
	lea	ecx, DWORD PTR _it$[ebp]
	call	??1?$_List_iterator@V?$_List_val@U?$_List_simple_types@UGraveRecord@GraveMarkers@@@std@@@std@@@std@@QAE@XZ
	push	edx
	mov	ecx, ebp
	push	eax
	lea	edx, DWORD PTR $LN14@Update
	call	@_RTC_CheckStackVars@8
	pop	eax
	pop	edx
	mov	ecx, DWORD PTR __$EHRec$[ebp]
	mov	DWORD PTR fs:0, ecx
	pop	ecx
	pop	edi
	add	esp, 104				; 00000068H
	cmp	ebp, esp
	call	__RTC_CheckEsp
	mov	esp, ebp
	pop	ebp
	ret	0
$LN14@Update:
	DD	1
	DD	$LN13@Update
$LN13@Update:
	DD	-32					; ffffffe0H
	DD	12					; 0000000cH
	DD	$LN11@Update
$LN11@Update:
	DB	105					; 00000069H
	DB	116					; 00000074H
	DB	0
_TEXT	ENDS
text$x	SEGMENT
__unwindfunclet$?Update@GraveMarkers@@QAEXXZ$0:
	lea	ecx, DWORD PTR _it$[ebp]
	jmp	??1?$_List_iterator@V?$_List_val@U?$_List_simple_types@UGraveRecord@GraveMarkers@@@std@@@std@@@std@@QAE@XZ
__unwindfunclet$?Update@GraveMarkers@@QAEXXZ$1:
	lea	ecx, DWORD PTR $T4[ebp]
	jmp	??1?$_List_iterator@V?$_List_val@U?$_List_simple_types@UGraveRecord@GraveMarkers@@@std@@@std@@@std@@QAE@XZ
__unwindfunclet$?Update@GraveMarkers@@QAEXXZ$3:
	lea	ecx, DWORD PTR $T2[ebp]
	jmp	??1?$_List_iterator@V?$_List_val@U?$_List_simple_types@UGraveRecord@GraveMarkers@@@std@@@std@@@std@@QAE@XZ
__ehhandler$?Update@GraveMarkers@@QAEXXZ:
	mov	edx, DWORD PTR [esp+8]
	lea	eax, DWORD PTR [edx+12]
	mov	ecx, DWORD PTR [edx-100]
	xor	ecx, eax
	call	@__security_check_cookie@4
	mov	eax, OFFSET __ehfuncinfo$?Update@GraveMarkers@@QAEXXZ
	jmp	___CxxFrameHandler3
text$x	ENDS
?Update@GraveMarkers@@QAEXXZ ENDP			; GraveMarkers::Update
; Function compile flags: /Odtp /RTCsu
; File d:\cours\uqac\intelligence artificielle - jeux vidéos\buckland_aisource\mini_projet_raven\gravemarkers.cpp
_TEXT	SEGMENT
_i$2 = -180						; size = 4
_rip$ = -172						; size = 144
_NumripVerts$ = -24					; size = 4
_this$ = -20						; size = 4
__$ArrayPad$ = -16					; size = 4
__$EHRec$ = -12						; size = 12
_lifetime$ = 8						; size = 8
??0GraveMarkers@@QAE@N@Z PROC				; GraveMarkers::GraveMarkers
; _this$ = ecx

; 8    : {

	push	ebp
	mov	ebp, esp
	push	-1
	push	__ehhandler$??0GraveMarkers@@QAE@N@Z
	mov	eax, DWORD PTR fs:0
	push	eax
	sub	esp, 168				; 000000a8H
	push	edi
	push	ecx
	lea	edi, DWORD PTR [ebp-180]
	mov	ecx, 42					; 0000002aH
	mov	eax, -858993460				; ccccccccH
	rep stosd
	pop	ecx
	mov	eax, DWORD PTR ___security_cookie
	xor	eax, ebp
	mov	DWORD PTR __$ArrayPad$[ebp], eax
	push	eax
	lea	eax, DWORD PTR __$EHRec$[ebp]
	mov	DWORD PTR fs:0, eax
	mov	DWORD PTR _this$[ebp], ecx

; 7    : GraveMarkers::GraveMarkers(double lifetime):m_dLifeTime(lifetime)

	mov	eax, DWORD PTR _this$[ebp]
	movsd	xmm0, QWORD PTR _lifetime$[ebp]
	movsd	QWORD PTR [eax], xmm0

; 8    : {

	mov	ecx, DWORD PTR _this$[ebp]
	add	ecx, 8
	call	??0?$vector@UVector2D@@V?$allocator@UVector2D@@@std@@@std@@QAE@XZ ; std::vector<Vector2D,std::allocator<Vector2D> >::vector<Vector2D,std::allocator<Vector2D> >
	mov	DWORD PTR __$EHRec$[ebp+8], 0
	mov	ecx, DWORD PTR _this$[ebp]
	add	ecx, 24					; 00000018H
	call	??0?$vector@UVector2D@@V?$allocator@UVector2D@@@std@@@std@@QAE@XZ ; std::vector<Vector2D,std::allocator<Vector2D> >::vector<Vector2D,std::allocator<Vector2D> >
	mov	BYTE PTR __$EHRec$[ebp+8], 1
	mov	ecx, DWORD PTR _this$[ebp]
	add	ecx, 40					; 00000028H
	call	??0?$list@UGraveRecord@GraveMarkers@@V?$allocator@UGraveRecord@GraveMarkers@@@std@@@std@@QAE@XZ ; std::list<GraveMarkers::GraveRecord,std::allocator<GraveMarkers::GraveRecord> >::list<GraveMarkers::GraveRecord,std::allocator<GraveMarkers::GraveRecord> >
	mov	BYTE PTR __$EHRec$[ebp+8], 2

; 9    :       //create the vertex buffer for the graves
; 10   :     const int NumripVerts = 9;

	mov	DWORD PTR _NumripVerts$[ebp], 9

; 11   :     const Vector2D rip[NumripVerts] = {Vector2D(-4, -5),

	sub	esp, 8
	movsd	xmm0, QWORD PTR __real@c014000000000000
	movsd	QWORD PTR [esp], xmm0
	sub	esp, 8
	movsd	xmm0, QWORD PTR __real@c010000000000000
	movsd	QWORD PTR [esp], xmm0
	lea	ecx, DWORD PTR _rip$[ebp]
	call	??0Vector2D@@QAE@NN@Z			; Vector2D::Vector2D

; 12   :                                        Vector2D(-4, 3),

	sub	esp, 8
	movsd	xmm0, QWORD PTR __real@4008000000000000
	movsd	QWORD PTR [esp], xmm0
	sub	esp, 8
	movsd	xmm0, QWORD PTR __real@c010000000000000
	movsd	QWORD PTR [esp], xmm0
	lea	ecx, DWORD PTR _rip$[ebp+16]
	call	??0Vector2D@@QAE@NN@Z			; Vector2D::Vector2D

; 13   :                                        Vector2D(-3, 5),

	sub	esp, 8
	movsd	xmm0, QWORD PTR __real@4014000000000000
	movsd	QWORD PTR [esp], xmm0
	sub	esp, 8
	movsd	xmm0, QWORD PTR __real@c008000000000000
	movsd	QWORD PTR [esp], xmm0
	lea	ecx, DWORD PTR _rip$[ebp+32]
	call	??0Vector2D@@QAE@NN@Z			; Vector2D::Vector2D

; 14   :                                        Vector2D(-1, 6),

	sub	esp, 8
	movsd	xmm0, QWORD PTR __real@4018000000000000
	movsd	QWORD PTR [esp], xmm0
	sub	esp, 8
	movsd	xmm0, QWORD PTR __real@bff0000000000000
	movsd	QWORD PTR [esp], xmm0
	lea	ecx, DWORD PTR _rip$[ebp+48]
	call	??0Vector2D@@QAE@NN@Z			; Vector2D::Vector2D

; 15   :                                        Vector2D(1, 6),

	sub	esp, 8
	movsd	xmm0, QWORD PTR __real@4018000000000000
	movsd	QWORD PTR [esp], xmm0
	sub	esp, 8
	movsd	xmm0, QWORD PTR __real@3ff0000000000000
	movsd	QWORD PTR [esp], xmm0
	lea	ecx, DWORD PTR _rip$[ebp+64]
	call	??0Vector2D@@QAE@NN@Z			; Vector2D::Vector2D

; 16   :                                        Vector2D(3, 5),

	sub	esp, 8
	movsd	xmm0, QWORD PTR __real@4014000000000000
	movsd	QWORD PTR [esp], xmm0
	sub	esp, 8
	movsd	xmm0, QWORD PTR __real@4008000000000000
	movsd	QWORD PTR [esp], xmm0
	lea	ecx, DWORD PTR _rip$[ebp+80]
	call	??0Vector2D@@QAE@NN@Z			; Vector2D::Vector2D

; 17   :                                        Vector2D(4, 3),

	sub	esp, 8
	movsd	xmm0, QWORD PTR __real@4008000000000000
	movsd	QWORD PTR [esp], xmm0
	sub	esp, 8
	movsd	xmm0, QWORD PTR __real@4010000000000000
	movsd	QWORD PTR [esp], xmm0
	lea	ecx, DWORD PTR _rip$[ebp+96]
	call	??0Vector2D@@QAE@NN@Z			; Vector2D::Vector2D

; 18   :                                        Vector2D(4, -5),

	sub	esp, 8
	movsd	xmm0, QWORD PTR __real@c014000000000000
	movsd	QWORD PTR [esp], xmm0
	sub	esp, 8
	movsd	xmm0, QWORD PTR __real@4010000000000000
	movsd	QWORD PTR [esp], xmm0
	lea	ecx, DWORD PTR _rip$[ebp+112]
	call	??0Vector2D@@QAE@NN@Z			; Vector2D::Vector2D

; 19   :                                        Vector2D(-4, -5)};

	sub	esp, 8
	movsd	xmm0, QWORD PTR __real@c014000000000000
	movsd	QWORD PTR [esp], xmm0
	sub	esp, 8
	movsd	xmm0, QWORD PTR __real@c010000000000000
	movsd	QWORD PTR [esp], xmm0
	lea	ecx, DWORD PTR _rip$[ebp+128]
	call	??0Vector2D@@QAE@NN@Z			; Vector2D::Vector2D

; 20   :   for (int i=0; i<NumripVerts; ++i)

	mov	DWORD PTR _i$2[ebp], 0
	jmp	SHORT $LN4@GraveMarke
$LN2@GraveMarke:
	mov	ecx, DWORD PTR _i$2[ebp]
	add	ecx, 1
	mov	DWORD PTR _i$2[ebp], ecx
$LN4@GraveMarke:
	cmp	DWORD PTR _i$2[ebp], 9
	jge	SHORT $LN3@GraveMarke

; 21   :   {
; 22   :     m_vecRIPVB.push_back(rip[i]);

	mov	edx, DWORD PTR _i$2[ebp]
	shl	edx, 4
	lea	eax, DWORD PTR _rip$[ebp+edx]
	push	eax
	mov	ecx, DWORD PTR _this$[ebp]
	add	ecx, 8
	call	?push_back@?$vector@UVector2D@@V?$allocator@UVector2D@@@std@@@std@@QAEXABUVector2D@@@Z ; std::vector<Vector2D,std::allocator<Vector2D> >::push_back

; 23   :   }

	jmp	SHORT $LN2@GraveMarke
$LN3@GraveMarke:

; 24   : }

	mov	DWORD PTR __$EHRec$[ebp+8], -1
	mov	eax, DWORD PTR _this$[ebp]
	push	edx
	mov	ecx, ebp
	push	eax
	lea	edx, DWORD PTR $LN12@GraveMarke
	call	@_RTC_CheckStackVars@8
	pop	eax
	pop	edx
	mov	ecx, DWORD PTR __$EHRec$[ebp]
	mov	DWORD PTR fs:0, ecx
	pop	ecx
	pop	edi
	mov	ecx, DWORD PTR __$ArrayPad$[ebp]
	xor	ecx, ebp
	call	@__security_check_cookie@4
	add	esp, 180				; 000000b4H
	cmp	ebp, esp
	call	__RTC_CheckEsp
	mov	esp, ebp
	pop	ebp
	ret	8
	npad	3
$LN12@GraveMarke:
	DD	1
	DD	$LN11@GraveMarke
$LN11@GraveMarke:
	DD	-172					; ffffff54H
	DD	144					; 00000090H
	DD	$LN9@GraveMarke
$LN9@GraveMarke:
	DB	114					; 00000072H
	DB	105					; 00000069H
	DB	112					; 00000070H
	DB	0
_TEXT	ENDS
text$x	SEGMENT
__unwindfunclet$??0GraveMarkers@@QAE@N@Z$0:
	mov	ecx, DWORD PTR _this$[ebp]
	add	ecx, 8
	jmp	??1?$vector@UVector2D@@V?$allocator@UVector2D@@@std@@@std@@QAE@XZ ; std::vector<Vector2D,std::allocator<Vector2D> >::~vector<Vector2D,std::allocator<Vector2D> >
__unwindfunclet$??0GraveMarkers@@QAE@N@Z$1:
	mov	ecx, DWORD PTR _this$[ebp]
	add	ecx, 24					; 00000018H
	jmp	??1?$vector@UVector2D@@V?$allocator@UVector2D@@@std@@@std@@QAE@XZ ; std::vector<Vector2D,std::allocator<Vector2D> >::~vector<Vector2D,std::allocator<Vector2D> >
__unwindfunclet$??0GraveMarkers@@QAE@N@Z$2:
	mov	ecx, DWORD PTR _this$[ebp]
	add	ecx, 40					; 00000028H
	jmp	??1?$list@UGraveRecord@GraveMarkers@@V?$allocator@UGraveRecord@GraveMarkers@@@std@@@std@@QAE@XZ ; std::list<GraveMarkers::GraveRecord,std::allocator<GraveMarkers::GraveRecord> >::~list<GraveMarkers::GraveRecord,std::allocator<GraveMarkers::GraveRecord> >
__ehhandler$??0GraveMarkers@@QAE@N@Z:
	mov	edx, DWORD PTR [esp+8]
	lea	eax, DWORD PTR [edx+12]
	mov	ecx, DWORD PTR [edx-176]
	xor	ecx, eax
	call	@__security_check_cookie@4
	mov	ecx, DWORD PTR [edx-4]
	xor	ecx, eax
	call	@__security_check_cookie@4
	mov	eax, OFFSET __ehfuncinfo$??0GraveMarkers@@QAE@N@Z
	jmp	___CxxFrameHandler3
text$x	ENDS
??0GraveMarkers@@QAE@N@Z ENDP				; GraveMarkers::GraveMarkers
; Function compile flags: /Odtp /RTCsu
; File d:\microsoft visual studio 14.0\vc\include\list
;	COMDAT ?_Orphan_ptr@?$list@UGraveRecord@GraveMarkers@@V?$allocator@UGraveRecord@GraveMarkers@@@std@@@std@@QAEXPAU?$_List_node@UGraveRecord@GraveMarkers@@PAX@2@@Z
_TEXT	SEGMENT
__Pnext$ = -32						; size = 4
__Lock$ = -24						; size = 4
_this$ = -16						; size = 4
__$EHRec$ = -12						; size = 12
__Ptr$ = 8						; size = 4
?_Orphan_ptr@?$list@UGraveRecord@GraveMarkers@@V?$allocator@UGraveRecord@GraveMarkers@@@std@@@std@@QAEXPAU?$_List_node@UGraveRecord@GraveMarkers@@PAX@2@@Z PROC ; std::list<GraveMarkers::GraveRecord,std::allocator<GraveMarkers::GraveRecord> >::_Orphan_ptr, COMDAT
; _this$ = ecx

; 1915 : 		{	// orphan iterators with specified node pointers

	push	ebp
	mov	ebp, esp
	push	-1
	push	__ehhandler$?_Orphan_ptr@?$list@UGraveRecord@GraveMarkers@@V?$allocator@UGraveRecord@GraveMarkers@@@std@@@std@@QAEXPAU?$_List_node@UGraveRecord@GraveMarkers@@PAX@2@@Z
	mov	eax, DWORD PTR fs:0
	push	eax
	sub	esp, 20					; 00000014H
	push	esi
	mov	eax, -858993460				; ccccccccH
	mov	DWORD PTR [ebp-32], eax
	mov	DWORD PTR [ebp-28], eax
	mov	DWORD PTR [ebp-24], eax
	mov	DWORD PTR [ebp-20], eax
	mov	DWORD PTR [ebp-16], eax
	mov	eax, DWORD PTR ___security_cookie
	xor	eax, ebp
	push	eax
	lea	eax, DWORD PTR __$EHRec$[ebp]
	mov	DWORD PTR fs:0, eax
	mov	DWORD PTR _this$[ebp], ecx

; 1916 : 		_Lockit _Lock(_LOCK_DEBUG);

	push	3
	lea	ecx, DWORD PTR __Lock$[ebp]
	call	??0_Lockit@std@@QAE@H@Z			; std::_Lockit::_Lockit
	mov	DWORD PTR __$EHRec$[ebp+8], 0

; 1917 : 		const_iterator **_Pnext = (const_iterator **)this->_Getpfirst();

	mov	ecx, DWORD PTR _this$[ebp]
	call	?_Getpfirst@?$_List_alloc@U?$_List_base_types@UGraveRecord@GraveMarkers@@V?$allocator@UGraveRecord@GraveMarkers@@@std@@@std@@@std@@QBEPAPAU_Iterator_base12@2@XZ ; std::_List_alloc<std::_List_base_types<GraveMarkers::GraveRecord,std::allocator<GraveMarkers::GraveRecord> > >::_Getpfirst
	mov	DWORD PTR __Pnext$[ebp], eax

; 1918 : 		if (_Pnext != 0)

	cmp	DWORD PTR __Pnext$[ebp], 0
	je	SHORT $LN4@Orphan_ptr
$LN2@Orphan_ptr:

; 1919 : 			while (*_Pnext != 0)

	mov	eax, DWORD PTR __Pnext$[ebp]
	cmp	DWORD PTR [eax], 0
	je	SHORT $LN4@Orphan_ptr

; 1920 : 				{	// test an iterator
; 1921 : 				if ((*_Pnext)->_Ptr == this->_Myhead()
; 1922 : 					|| (_Ptr != 0 && (*_Pnext)->_Ptr != _Ptr))

	mov	ecx, DWORD PTR __Pnext$[ebp]
	mov	esi, DWORD PTR [ecx]
	mov	ecx, DWORD PTR _this$[ebp]
	call	?_Myhead@?$_List_alloc@U?$_List_base_types@UGraveRecord@GraveMarkers@@V?$allocator@UGraveRecord@GraveMarkers@@@std@@@std@@@std@@QAEAAPAU?$_List_node@UGraveRecord@GraveMarkers@@PAX@2@XZ ; std::_List_alloc<std::_List_base_types<GraveMarkers::GraveRecord,std::allocator<GraveMarkers::GraveRecord> > >::_Myhead
	mov	edx, DWORD PTR [esi+8]
	cmp	edx, DWORD PTR [eax]
	je	SHORT $LN7@Orphan_ptr
	cmp	DWORD PTR __Ptr$[ebp], 0
	je	SHORT $LN5@Orphan_ptr
	mov	eax, DWORD PTR __Pnext$[ebp]
	mov	ecx, DWORD PTR [eax]
	mov	edx, DWORD PTR [ecx+8]
	cmp	edx, DWORD PTR __Ptr$[ebp]
	je	SHORT $LN5@Orphan_ptr
$LN7@Orphan_ptr:

; 1923 : 					_Pnext = (const_iterator **)(*_Pnext)->_Getpnext();

	mov	eax, DWORD PTR __Pnext$[ebp]
	mov	ecx, DWORD PTR [eax]
	call	?_Getpnext@_Iterator_base12@std@@QAEPAPAU12@XZ ; std::_Iterator_base12::_Getpnext
	mov	DWORD PTR __Pnext$[ebp], eax

; 1924 : 				else

	jmp	SHORT $LN6@Orphan_ptr
$LN5@Orphan_ptr:

; 1925 : 					{	// orphan the iterator
; 1926 : 					(*_Pnext)->_Clrcont();

	mov	ecx, DWORD PTR __Pnext$[ebp]
	mov	ecx, DWORD PTR [ecx]
	call	?_Clrcont@_Iterator_base12@std@@QAEXXZ	; std::_Iterator_base12::_Clrcont

; 1927 : 					*_Pnext = *(const_iterator **)(*_Pnext)->_Getpnext();

	mov	edx, DWORD PTR __Pnext$[ebp]
	mov	ecx, DWORD PTR [edx]
	call	?_Getpnext@_Iterator_base12@std@@QAEPAPAU12@XZ ; std::_Iterator_base12::_Getpnext
	mov	ecx, DWORD PTR __Pnext$[ebp]
	mov	edx, DWORD PTR [eax]
	mov	DWORD PTR [ecx], edx
$LN6@Orphan_ptr:

; 1928 : 					}
; 1929 : 				}

	jmp	SHORT $LN2@Orphan_ptr
$LN4@Orphan_ptr:

; 1930 : 		}

	mov	DWORD PTR __$EHRec$[ebp+8], -1
	lea	ecx, DWORD PTR __Lock$[ebp]
	call	??1_Lockit@std@@QAE@XZ			; std::_Lockit::~_Lockit
	push	edx
	mov	ecx, ebp
	push	eax
	lea	edx, DWORD PTR $LN13@Orphan_ptr
	call	@_RTC_CheckStackVars@8
	pop	eax
	pop	edx
	mov	ecx, DWORD PTR __$EHRec$[ebp]
	mov	DWORD PTR fs:0, ecx
	pop	ecx
	pop	esi
	add	esp, 32					; 00000020H
	cmp	ebp, esp
	call	__RTC_CheckEsp
	mov	esp, ebp
	pop	ebp
	ret	4
	npad	2
$LN13@Orphan_ptr:
	DD	1
	DD	$LN12@Orphan_ptr
$LN12@Orphan_ptr:
	DD	-24					; ffffffe8H
	DD	4
	DD	$LN10@Orphan_ptr
$LN10@Orphan_ptr:
	DB	95					; 0000005fH
	DB	76					; 0000004cH
	DB	111					; 0000006fH
	DB	99					; 00000063H
	DB	107					; 0000006bH
	DB	0
_TEXT	ENDS
;	COMDAT text$x
text$x	SEGMENT
__unwindfunclet$?_Orphan_ptr@?$list@UGraveRecord@GraveMarkers@@V?$allocator@UGraveRecord@GraveMarkers@@@std@@@std@@QAEXPAU?$_List_node@UGraveRecord@GraveMarkers@@PAX@2@@Z$0:
	lea	ecx, DWORD PTR __Lock$[ebp]
	jmp	??1_Lockit@std@@QAE@XZ			; std::_Lockit::~_Lockit
__ehhandler$?_Orphan_ptr@?$list@UGraveRecord@GraveMarkers@@V?$allocator@UGraveRecord@GraveMarkers@@@std@@@std@@QAEXPAU?$_List_node@UGraveRecord@GraveMarkers@@PAX@2@@Z:
	mov	edx, DWORD PTR [esp+8]
	lea	eax, DWORD PTR [edx+12]
	mov	ecx, DWORD PTR [edx-28]
	xor	ecx, eax
	call	@__security_check_cookie@4
	mov	eax, OFFSET __ehfuncinfo$?_Orphan_ptr@?$list@UGraveRecord@GraveMarkers@@V?$allocator@UGraveRecord@GraveMarkers@@@std@@@std@@QAEXPAU?$_List_node@UGraveRecord@GraveMarkers@@PAX@2@@Z
	jmp	___CxxFrameHandler3
text$x	ENDS
?_Orphan_ptr@?$list@UGraveRecord@GraveMarkers@@V?$allocator@UGraveRecord@GraveMarkers@@@std@@@std@@QAEXPAU?$_List_node@UGraveRecord@GraveMarkers@@PAX@2@@Z ENDP ; std::list<GraveMarkers::GraveRecord,std::allocator<GraveMarkers::GraveRecord> >::_Orphan_ptr
; Function compile flags: /Odtp /RTCsu
; File d:\microsoft visual studio 14.0\vc\include\list
;	COMDAT ?_Incsize@?$list@UGraveRecord@GraveMarkers@@V?$allocator@UGraveRecord@GraveMarkers@@@std@@@std@@QAEXI@Z
_TEXT	SEGMENT
tv82 = -8						; size = 4
_this$ = -4						; size = 4
__Count$ = 8						; size = 4
?_Incsize@?$list@UGraveRecord@GraveMarkers@@V?$allocator@UGraveRecord@GraveMarkers@@@std@@@std@@QAEXI@Z PROC ; std::list<GraveMarkers::GraveRecord,std::allocator<GraveMarkers::GraveRecord> >::_Incsize, COMDAT
; _this$ = ecx

; 1907 : 		{	// alter element count, with checking

	push	ebp
	mov	ebp, esp
	sub	esp, 8
	push	esi
	mov	DWORD PTR [ebp-8], -858993460		; ccccccccH
	mov	DWORD PTR [ebp-4], -858993460		; ccccccccH
	mov	DWORD PTR _this$[ebp], ecx

; 1908 : 		if (max_size() - this->_Mysize() - 1 < _Count)

	mov	ecx, DWORD PTR _this$[ebp]
	call	?max_size@?$list@UGraveRecord@GraveMarkers@@V?$allocator@UGraveRecord@GraveMarkers@@@std@@@std@@QBEIXZ ; std::list<GraveMarkers::GraveRecord,std::allocator<GraveMarkers::GraveRecord> >::max_size
	mov	esi, eax
	mov	ecx, DWORD PTR _this$[ebp]
	call	?_Mysize@?$_List_alloc@U?$_List_base_types@UGraveRecord@GraveMarkers@@V?$allocator@UGraveRecord@GraveMarkers@@@std@@@std@@@std@@QAEAAIXZ ; std::_List_alloc<std::_List_base_types<GraveMarkers::GraveRecord,std::allocator<GraveMarkers::GraveRecord> > >::_Mysize
	sub	esi, DWORD PTR [eax]
	sub	esi, 1
	cmp	esi, DWORD PTR __Count$[ebp]
	jae	SHORT $LN2@Incsize

; 1909 : 			_Xlength_error("list<T> too long");

	push	OFFSET ??_C@_0BB@MOGOBHAF@list?$DMT?$DO?5too?5long?$AA@
	call	?_Xlength_error@std@@YAXPBD@Z		; std::_Xlength_error
$LN2@Incsize:

; 1910 : 		this->_Mysize() += _Count;

	mov	ecx, DWORD PTR _this$[ebp]
	call	?_Mysize@?$_List_alloc@U?$_List_base_types@UGraveRecord@GraveMarkers@@V?$allocator@UGraveRecord@GraveMarkers@@@std@@@std@@@std@@QAEAAIXZ ; std::_List_alloc<std::_List_base_types<GraveMarkers::GraveRecord,std::allocator<GraveMarkers::GraveRecord> > >::_Mysize
	mov	DWORD PTR tv82[ebp], eax
	mov	eax, DWORD PTR tv82[ebp]
	mov	ecx, DWORD PTR [eax]
	add	ecx, DWORD PTR __Count$[ebp]
	mov	edx, DWORD PTR tv82[ebp]
	mov	DWORD PTR [edx], ecx
$LN3@Incsize:

; 1911 : 		}

	pop	esi
	add	esp, 8
	cmp	ebp, esp
	call	__RTC_CheckEsp
	mov	esp, ebp
	pop	ebp
	ret	4
?_Incsize@?$list@UGraveRecord@GraveMarkers@@V?$allocator@UGraveRecord@GraveMarkers@@@std@@@std@@QAEXI@Z ENDP ; std::list<GraveMarkers::GraveRecord,std::allocator<GraveMarkers::GraveRecord> >::_Incsize
_TEXT	ENDS
; Function compile flags: /Odtp /RTCsu
; File d:\microsoft visual studio 14.0\vc\include\list
;	COMDAT ?_Tidy@?$list@UGraveRecord@GraveMarkers@@V?$allocator@UGraveRecord@GraveMarkers@@@std@@@std@@QAEXXZ
_TEXT	SEGMENT
_this$ = -4						; size = 4
?_Tidy@?$list@UGraveRecord@GraveMarkers@@V?$allocator@UGraveRecord@GraveMarkers@@@std@@@std@@QAEXXZ PROC ; std::list<GraveMarkers::GraveRecord,std::allocator<GraveMarkers::GraveRecord> >::_Tidy, COMDAT
; _this$ = ecx

; 1884 : 		{	// free all storage

	push	ebp
	mov	ebp, esp
	push	ecx
	mov	DWORD PTR [ebp-4], -858993460		; ccccccccH
	mov	DWORD PTR _this$[ebp], ecx

; 1885 : 		clear();

	mov	ecx, DWORD PTR _this$[ebp]
	call	?clear@?$list@UGraveRecord@GraveMarkers@@V?$allocator@UGraveRecord@GraveMarkers@@@std@@@std@@QAEXXZ ; std::list<GraveMarkers::GraveRecord,std::allocator<GraveMarkers::GraveRecord> >::clear

; 1886 : 		}

	add	esp, 4
	cmp	ebp, esp
	call	__RTC_CheckEsp
	mov	esp, ebp
	pop	ebp
	ret	0
?_Tidy@?$list@UGraveRecord@GraveMarkers@@V?$allocator@UGraveRecord@GraveMarkers@@@std@@@std@@QAEXXZ ENDP ; std::list<GraveMarkers::GraveRecord,std::allocator<GraveMarkers::GraveRecord> >::_Tidy
_TEXT	ENDS
; Function compile flags: /Odtp /RTCsu
; File d:\microsoft visual studio 14.0\vc\include\list
;	COMDAT ?clear@?$list@UGraveRecord@GraveMarkers@@V?$allocator@UGraveRecord@GraveMarkers@@@std@@@std@@QAEXXZ
_TEXT	SEGMENT
__Pnext$2 = -24						; size = 4
__Pnode$ = -20						; size = 4
_this$ = -16						; size = 4
__$EHRec$ = -12						; size = 12
?clear@?$list@UGraveRecord@GraveMarkers@@V?$allocator@UGraveRecord@GraveMarkers@@@std@@@std@@QAEXXZ PROC ; std::list<GraveMarkers::GraveRecord,std::allocator<GraveMarkers::GraveRecord> >::clear, COMDAT
; _this$ = ecx

; 1496 : 		{	// erase all

	push	ebp
	mov	ebp, esp
	push	-1
	push	__ehhandler$?clear@?$list@UGraveRecord@GraveMarkers@@V?$allocator@UGraveRecord@GraveMarkers@@@std@@@std@@QAEXXZ
	mov	eax, DWORD PTR fs:0
	push	eax
	sub	esp, 12					; 0000000cH
	push	esi
	mov	DWORD PTR [ebp-24], -858993460		; ccccccccH
	mov	DWORD PTR [ebp-20], -858993460		; ccccccccH
	mov	DWORD PTR [ebp-16], -858993460		; ccccccccH
	mov	eax, DWORD PTR ___security_cookie
	xor	eax, ebp
	push	eax
	lea	eax, DWORD PTR __$EHRec$[ebp]
	mov	DWORD PTR fs:0, eax
	mov	DWORD PTR _this$[ebp], ecx

; 1497 :  #if _ITERATOR_DEBUG_LEVEL == 2
; 1498 : 
; 1499 : 		this->_Orphan_ptr(nullptr);

	push	0
	mov	ecx, DWORD PTR _this$[ebp]
	call	?_Orphan_ptr@?$list@UGraveRecord@GraveMarkers@@V?$allocator@UGraveRecord@GraveMarkers@@@std@@@std@@QAEXPAU?$_List_node@UGraveRecord@GraveMarkers@@PAX@2@@Z ; std::list<GraveMarkers::GraveRecord,std::allocator<GraveMarkers::GraveRecord> >::_Orphan_ptr

; 1500 :  #endif /* _ITERATOR_DEBUG_LEVEL == 2 */
; 1501 : 		_Nodeptr _Pnode = this->_Nextnode(this->_Myhead());

	mov	ecx, DWORD PTR _this$[ebp]
	call	?_Myhead@?$_List_alloc@U?$_List_base_types@UGraveRecord@GraveMarkers@@V?$allocator@UGraveRecord@GraveMarkers@@@std@@@std@@@std@@QAEAAPAU?$_List_node@UGraveRecord@GraveMarkers@@PAX@2@XZ ; std::_List_alloc<std::_List_base_types<GraveMarkers::GraveRecord,std::allocator<GraveMarkers::GraveRecord> > >::_Myhead
	mov	eax, DWORD PTR [eax]
	push	eax
	call	?_Nextnode@?$_List_alloc@U?$_List_base_types@UGraveRecord@GraveMarkers@@V?$allocator@UGraveRecord@GraveMarkers@@@std@@@std@@@std@@SAAAPAU?$_List_node@UGraveRecord@GraveMarkers@@PAX@2@PAU32@@Z ; std::_List_alloc<std::_List_base_types<GraveMarkers::GraveRecord,std::allocator<GraveMarkers::GraveRecord> > >::_Nextnode
	add	esp, 4
	mov	ecx, DWORD PTR [eax]
	mov	DWORD PTR __Pnode$[ebp], ecx

; 1502 : 		this->_Nextnode(this->_Myhead()) = this->_Myhead();

	mov	ecx, DWORD PTR _this$[ebp]
	call	?_Myhead@?$_List_alloc@U?$_List_base_types@UGraveRecord@GraveMarkers@@V?$allocator@UGraveRecord@GraveMarkers@@@std@@@std@@@std@@QAEAAPAU?$_List_node@UGraveRecord@GraveMarkers@@PAX@2@XZ ; std::_List_alloc<std::_List_base_types<GraveMarkers::GraveRecord,std::allocator<GraveMarkers::GraveRecord> > >::_Myhead
	mov	esi, eax
	mov	ecx, DWORD PTR _this$[ebp]
	call	?_Myhead@?$_List_alloc@U?$_List_base_types@UGraveRecord@GraveMarkers@@V?$allocator@UGraveRecord@GraveMarkers@@@std@@@std@@@std@@QAEAAPAU?$_List_node@UGraveRecord@GraveMarkers@@PAX@2@XZ ; std::_List_alloc<std::_List_base_types<GraveMarkers::GraveRecord,std::allocator<GraveMarkers::GraveRecord> > >::_Myhead
	mov	edx, DWORD PTR [eax]
	push	edx
	call	?_Nextnode@?$_List_alloc@U?$_List_base_types@UGraveRecord@GraveMarkers@@V?$allocator@UGraveRecord@GraveMarkers@@@std@@@std@@@std@@SAAAPAU?$_List_node@UGraveRecord@GraveMarkers@@PAX@2@PAU32@@Z ; std::_List_alloc<std::_List_base_types<GraveMarkers::GraveRecord,std::allocator<GraveMarkers::GraveRecord> > >::_Nextnode
	add	esp, 4
	mov	ecx, DWORD PTR [esi]
	mov	DWORD PTR [eax], ecx

; 1503 : 		this->_Prevnode(this->_Myhead()) = this->_Myhead();

	mov	ecx, DWORD PTR _this$[ebp]
	call	?_Myhead@?$_List_alloc@U?$_List_base_types@UGraveRecord@GraveMarkers@@V?$allocator@UGraveRecord@GraveMarkers@@@std@@@std@@@std@@QAEAAPAU?$_List_node@UGraveRecord@GraveMarkers@@PAX@2@XZ ; std::_List_alloc<std::_List_base_types<GraveMarkers::GraveRecord,std::allocator<GraveMarkers::GraveRecord> > >::_Myhead
	mov	esi, eax
	mov	ecx, DWORD PTR _this$[ebp]
	call	?_Myhead@?$_List_alloc@U?$_List_base_types@UGraveRecord@GraveMarkers@@V?$allocator@UGraveRecord@GraveMarkers@@@std@@@std@@@std@@QAEAAPAU?$_List_node@UGraveRecord@GraveMarkers@@PAX@2@XZ ; std::_List_alloc<std::_List_base_types<GraveMarkers::GraveRecord,std::allocator<GraveMarkers::GraveRecord> > >::_Myhead
	mov	edx, DWORD PTR [eax]
	push	edx
	call	?_Prevnode@?$_List_alloc@U?$_List_base_types@UGraveRecord@GraveMarkers@@V?$allocator@UGraveRecord@GraveMarkers@@@std@@@std@@@std@@SAAAPAU?$_List_node@UGraveRecord@GraveMarkers@@PAX@2@PAU32@@Z ; std::_List_alloc<std::_List_base_types<GraveMarkers::GraveRecord,std::allocator<GraveMarkers::GraveRecord> > >::_Prevnode
	add	esp, 4
	mov	ecx, DWORD PTR [esi]
	mov	DWORD PTR [eax], ecx

; 1504 : 		this->_Mysize() = 0;

	mov	ecx, DWORD PTR _this$[ebp]
	call	?_Mysize@?$_List_alloc@U?$_List_base_types@UGraveRecord@GraveMarkers@@V?$allocator@UGraveRecord@GraveMarkers@@@std@@@std@@@std@@QAEAAIXZ ; std::_List_alloc<std::_List_base_types<GraveMarkers::GraveRecord,std::allocator<GraveMarkers::GraveRecord> > >::_Mysize
	mov	DWORD PTR [eax], 0

; 1505 : 
; 1506 : 		for (_Nodeptr _Pnext; _Pnode != this->_Myhead(); _Pnode = _Pnext)

	jmp	SHORT $LN4@clear
$LN2@clear:
	mov	edx, DWORD PTR __Pnext$2[ebp]
	mov	DWORD PTR __Pnode$[ebp], edx
$LN4@clear:
	mov	ecx, DWORD PTR _this$[ebp]
	call	?_Myhead@?$_List_alloc@U?$_List_base_types@UGraveRecord@GraveMarkers@@V?$allocator@UGraveRecord@GraveMarkers@@@std@@@std@@@std@@QAEAAPAU?$_List_node@UGraveRecord@GraveMarkers@@PAX@2@XZ ; std::_List_alloc<std::_List_base_types<GraveMarkers::GraveRecord,std::allocator<GraveMarkers::GraveRecord> > >::_Myhead
	mov	ecx, DWORD PTR __Pnode$[ebp]
	cmp	ecx, DWORD PTR [eax]
	je	SHORT $LN5@clear

; 1507 : 			{	// delete an element
; 1508 : 			_Pnext = this->_Nextnode(_Pnode);

	mov	edx, DWORD PTR __Pnode$[ebp]
	push	edx
	call	?_Nextnode@?$_List_alloc@U?$_List_base_types@UGraveRecord@GraveMarkers@@V?$allocator@UGraveRecord@GraveMarkers@@@std@@@std@@@std@@SAAAPAU?$_List_node@UGraveRecord@GraveMarkers@@PAX@2@PAU32@@Z ; std::_List_alloc<std::_List_base_types<GraveMarkers::GraveRecord,std::allocator<GraveMarkers::GraveRecord> > >::_Nextnode
	add	esp, 4
	mov	eax, DWORD PTR [eax]
	mov	DWORD PTR __Pnext$2[ebp], eax

; 1509 : 			this->_Freenode(_Pnode);

	mov	ecx, DWORD PTR __Pnode$[ebp]
	push	ecx
	mov	ecx, DWORD PTR _this$[ebp]
	call	?_Freenode@?$_List_buy@UGraveRecord@GraveMarkers@@V?$allocator@UGraveRecord@GraveMarkers@@@std@@@std@@QAEXPAU?$_List_node@UGraveRecord@GraveMarkers@@PAX@2@@Z ; std::_List_buy<GraveMarkers::GraveRecord,std::allocator<GraveMarkers::GraveRecord> >::_Freenode

; 1510 : 			}

	jmp	SHORT $LN2@clear
$LN5@clear:

; 1511 : 		}

	mov	ecx, DWORD PTR __$EHRec$[ebp]
	mov	DWORD PTR fs:0, ecx
	pop	ecx
	pop	esi
	add	esp, 24					; 00000018H
	cmp	ebp, esp
	call	__RTC_CheckEsp
	mov	esp, ebp
	pop	ebp
	ret	0
_TEXT	ENDS
;	COMDAT text$x
text$x	SEGMENT
__ehhandler$?clear@?$list@UGraveRecord@GraveMarkers@@V?$allocator@UGraveRecord@GraveMarkers@@@std@@@std@@QAEXXZ:
	mov	edx, DWORD PTR [esp+8]
	lea	eax, DWORD PTR [edx+12]
	mov	ecx, DWORD PTR [edx-20]
	xor	ecx, eax
	call	@__security_check_cookie@4
	mov	eax, OFFSET __ehfuncinfo$?clear@?$list@UGraveRecord@GraveMarkers@@V?$allocator@UGraveRecord@GraveMarkers@@@std@@@std@@QAEXXZ
	jmp	___CxxFrameHandler3
text$x	ENDS
?clear@?$list@UGraveRecord@GraveMarkers@@V?$allocator@UGraveRecord@GraveMarkers@@@std@@@std@@QAEXXZ ENDP ; std::list<GraveMarkers::GraveRecord,std::allocator<GraveMarkers::GraveRecord> >::clear
; Function compile flags: /Odtp /RTCsu
; File d:\microsoft visual studio 14.0\vc\include\list
;	COMDAT ?erase@?$list@UGraveRecord@GraveMarkers@@V?$allocator@UGraveRecord@GraveMarkers@@@std@@@std@@QAE?AV?$_List_iterator@V?$_List_val@U?$_List_simple_types@UGraveRecord@GraveMarkers@@@std@@@std@@@2@V?$_List_const_iterator@V?$_List_val@U?$_List_simple_types@UGraveRecord@GraveMarkers@@@std@@@std@@@2@@Z
_TEXT	SEGMENT
tv144 = -48						; size = 4
tv143 = -44						; size = 4
tv141 = -40						; size = 4
tv140 = -36						; size = 4
$T2 = -32						; size = 4
$T3 = -28						; size = 4
$T4 = -24						; size = 4
__Pnode$ = -20						; size = 4
_this$ = -16						; size = 4
__$EHRec$ = -12						; size = 12
___$ReturnUdt$ = 8					; size = 4
__Where$ = 12						; size = 12
?erase@?$list@UGraveRecord@GraveMarkers@@V?$allocator@UGraveRecord@GraveMarkers@@@std@@@std@@QAE?AV?$_List_iterator@V?$_List_val@U?$_List_simple_types@UGraveRecord@GraveMarkers@@@std@@@std@@@2@V?$_List_const_iterator@V?$_List_val@U?$_List_simple_types@UGraveRecord@GraveMarkers@@@std@@@std@@@2@@Z PROC ; std::list<GraveMarkers::GraveRecord,std::allocator<GraveMarkers::GraveRecord> >::erase, COMDAT
; _this$ = ecx

; 1462 : 		{	// erase element at _Where

	push	ebp
	mov	ebp, esp
	push	-1
	push	__ehhandler$?erase@?$list@UGraveRecord@GraveMarkers@@V?$allocator@UGraveRecord@GraveMarkers@@@std@@@std@@QAE?AV?$_List_iterator@V?$_List_val@U?$_List_simple_types@UGraveRecord@GraveMarkers@@@std@@@std@@@2@V?$_List_const_iterator@V?$_List_val@U?$_List_simple_types@UGraveRecord@GraveMarkers@@@std@@@std@@@2@@Z
	mov	eax, DWORD PTR fs:0
	push	eax
	sub	esp, 36					; 00000024H
	mov	eax, -858993460				; ccccccccH
	mov	DWORD PTR [ebp-48], eax
	mov	DWORD PTR [ebp-44], eax
	mov	DWORD PTR [ebp-40], eax
	mov	DWORD PTR [ebp-36], eax
	mov	DWORD PTR [ebp-32], eax
	mov	DWORD PTR [ebp-28], eax
	mov	DWORD PTR [ebp-24], eax
	mov	DWORD PTR [ebp-20], eax
	mov	DWORD PTR [ebp-16], eax
	mov	eax, DWORD PTR ___security_cookie
	xor	eax, ebp
	push	eax
	lea	eax, DWORD PTR __$EHRec$[ebp]
	mov	DWORD PTR fs:0, eax
	mov	DWORD PTR _this$[ebp], ecx
	mov	DWORD PTR $T2[ebp], 0
	mov	DWORD PTR __$EHRec$[ebp+8], 0

; 1463 : 		_Nodeptr _Pnode = _Unlinknode(_Where++);

	sub	esp, 12					; 0000000cH
	mov	eax, esp
	mov	DWORD PTR $T4[ebp], esp
	push	0
	push	eax
	lea	ecx, DWORD PTR __Where$[ebp]
	call	??E?$_List_const_iterator@V?$_List_val@U?$_List_simple_types@UGraveRecord@GraveMarkers@@@std@@@std@@@std@@QAE?AV01@H@Z ; std::_List_const_iterator<std::_List_val<std::_List_simple_types<GraveMarkers::GraveRecord> > >::operator++
	mov	DWORD PTR tv140[ebp], eax
	mov	ecx, DWORD PTR _this$[ebp]
	call	?_Unlinknode@?$list@UGraveRecord@GraveMarkers@@V?$allocator@UGraveRecord@GraveMarkers@@@std@@@std@@QAEPAU?$_List_node@UGraveRecord@GraveMarkers@@PAX@2@V?$_List_const_iterator@V?$_List_val@U?$_List_simple_types@UGraveRecord@GraveMarkers@@@std@@@std@@@2@@Z ; std::list<GraveMarkers::GraveRecord,std::allocator<GraveMarkers::GraveRecord> >::_Unlinknode
	mov	DWORD PTR tv141[ebp], eax
	mov	ecx, DWORD PTR tv141[ebp]
	mov	DWORD PTR __Pnode$[ebp], ecx

; 1464 : 		this->_Freenode(_Pnode);

	mov	edx, DWORD PTR __Pnode$[ebp]
	push	edx
	mov	ecx, DWORD PTR _this$[ebp]
	call	?_Freenode@?$_List_buy@UGraveRecord@GraveMarkers@@V?$allocator@UGraveRecord@GraveMarkers@@@std@@@std@@QAEXPAU?$_List_node@UGraveRecord@GraveMarkers@@PAX@2@@Z ; std::_List_buy<GraveMarkers::GraveRecord,std::allocator<GraveMarkers::GraveRecord> >::_Freenode

; 1465 : 		return (_Make_iter(_Where));

	sub	esp, 12					; 0000000cH
	mov	ecx, esp
	mov	DWORD PTR $T3[ebp], esp
	lea	eax, DWORD PTR __Where$[ebp]
	push	eax
	call	??0?$_List_const_iterator@V?$_List_val@U?$_List_simple_types@UGraveRecord@GraveMarkers@@@std@@@std@@@std@@QAE@ABV01@@Z
	mov	DWORD PTR tv143[ebp], eax
	mov	ecx, DWORD PTR ___$ReturnUdt$[ebp]
	push	ecx
	mov	ecx, DWORD PTR _this$[ebp]
	call	?_Make_iter@?$list@UGraveRecord@GraveMarkers@@V?$allocator@UGraveRecord@GraveMarkers@@@std@@@std@@QBE?AV?$_List_iterator@V?$_List_val@U?$_List_simple_types@UGraveRecord@GraveMarkers@@@std@@@std@@@2@V?$_List_const_iterator@V?$_List_val@U?$_List_simple_types@UGraveRecord@GraveMarkers@@@std@@@std@@@2@@Z ; std::list<GraveMarkers::GraveRecord,std::allocator<GraveMarkers::GraveRecord> >::_Make_iter
	mov	DWORD PTR tv144[ebp], eax
	mov	edx, DWORD PTR $T2[ebp]
	or	edx, 1
	mov	DWORD PTR $T2[ebp], edx
	mov	DWORD PTR __$EHRec$[ebp+8], -1
	lea	ecx, DWORD PTR __Where$[ebp]
	call	??1?$_List_const_iterator@V?$_List_val@U?$_List_simple_types@UGraveRecord@GraveMarkers@@@std@@@std@@@std@@QAE@XZ
	mov	eax, DWORD PTR ___$ReturnUdt$[ebp]

; 1466 : 		}

	mov	ecx, DWORD PTR __$EHRec$[ebp]
	mov	DWORD PTR fs:0, ecx
	pop	ecx
	add	esp, 48					; 00000030H
	cmp	ebp, esp
	call	__RTC_CheckEsp
	mov	esp, ebp
	pop	ebp
	ret	16					; 00000010H
_TEXT	ENDS
;	COMDAT text$x
text$x	SEGMENT
__unwindfunclet$?erase@?$list@UGraveRecord@GraveMarkers@@V?$allocator@UGraveRecord@GraveMarkers@@@std@@@std@@QAE?AV?$_List_iterator@V?$_List_val@U?$_List_simple_types@UGraveRecord@GraveMarkers@@@std@@@std@@@2@V?$_List_const_iterator@V?$_List_val@U?$_List_simple_types@UGraveRecord@GraveMarkers@@@std@@@std@@@2@@Z$0:
	lea	ecx, DWORD PTR __Where$[ebp]
	jmp	??1?$_List_const_iterator@V?$_List_val@U?$_List_simple_types@UGraveRecord@GraveMarkers@@@std@@@std@@@std@@QAE@XZ
__ehhandler$?erase@?$list@UGraveRecord@GraveMarkers@@V?$allocator@UGraveRecord@GraveMarkers@@@std@@@std@@QAE?AV?$_List_iterator@V?$_List_val@U?$_List_simple_types@UGraveRecord@GraveMarkers@@@std@@@std@@@2@V?$_List_const_iterator@V?$_List_val@U?$_List_simple_types@UGraveRecord@GraveMarkers@@@std@@@std@@@2@@Z:
	mov	edx, DWORD PTR [esp+8]
	lea	eax, DWORD PTR [edx+12]
	mov	ecx, DWORD PTR [edx-40]
	xor	ecx, eax
	call	@__security_check_cookie@4
	mov	eax, OFFSET __ehfuncinfo$?erase@?$list@UGraveRecord@GraveMarkers@@V?$allocator@UGraveRecord@GraveMarkers@@@std@@@std@@QAE?AV?$_List_iterator@V?$_List_val@U?$_List_simple_types@UGraveRecord@GraveMarkers@@@std@@@std@@@2@V?$_List_const_iterator@V?$_List_val@U?$_List_simple_types@UGraveRecord@GraveMarkers@@@std@@@std@@@2@@Z
	jmp	___CxxFrameHandler3
text$x	ENDS
?erase@?$list@UGraveRecord@GraveMarkers@@V?$allocator@UGraveRecord@GraveMarkers@@@std@@@std@@QAE?AV?$_List_iterator@V?$_List_val@U?$_List_simple_types@UGraveRecord@GraveMarkers@@@std@@@std@@@2@V?$_List_const_iterator@V?$_List_val@U?$_List_simple_types@UGraveRecord@GraveMarkers@@@std@@@std@@@2@@Z ENDP ; std::list<GraveMarkers::GraveRecord,std::allocator<GraveMarkers::GraveRecord> >::erase
; Function compile flags: /Odtp /RTCsu
; File d:\microsoft visual studio 14.0\vc\include\list
;	COMDAT ?_Unlinknode@?$list@UGraveRecord@GraveMarkers@@V?$allocator@UGraveRecord@GraveMarkers@@@std@@@std@@QAEPAU?$_List_node@UGraveRecord@GraveMarkers@@PAX@2@V?$_List_const_iterator@V?$_List_val@U?$_List_simple_types@UGraveRecord@GraveMarkers@@@std@@@std@@@2@@Z
_TEXT	SEGMENT
tv155 = -28						; size = 4
$T2 = -24						; size = 4
__Pnode$ = -20						; size = 4
_this$ = -16						; size = 4
__$EHRec$ = -12						; size = 12
__Where$ = 8						; size = 12
?_Unlinknode@?$list@UGraveRecord@GraveMarkers@@V?$allocator@UGraveRecord@GraveMarkers@@@std@@@std@@QAEPAU?$_List_node@UGraveRecord@GraveMarkers@@PAX@2@V?$_List_const_iterator@V?$_List_val@U?$_List_simple_types@UGraveRecord@GraveMarkers@@@std@@@std@@@2@@Z PROC ; std::list<GraveMarkers::GraveRecord,std::allocator<GraveMarkers::GraveRecord> >::_Unlinknode, COMDAT
; _this$ = ecx

; 1440 : 		{	// unlink node at _Where from the list

	push	ebp
	mov	ebp, esp
	push	-1
	push	__ehhandler$?_Unlinknode@?$list@UGraveRecord@GraveMarkers@@V?$allocator@UGraveRecord@GraveMarkers@@@std@@@std@@QAEPAU?$_List_node@UGraveRecord@GraveMarkers@@PAX@2@V?$_List_const_iterator@V?$_List_val@U?$_List_simple_types@UGraveRecord@GraveMarkers@@@std@@@std@@@2@@Z
	mov	eax, DWORD PTR fs:0
	push	eax
	sub	esp, 16					; 00000010H
	push	esi
	mov	eax, -858993460				; ccccccccH
	mov	DWORD PTR [ebp-28], eax
	mov	DWORD PTR [ebp-24], eax
	mov	DWORD PTR [ebp-20], eax
	mov	DWORD PTR [ebp-16], eax
	mov	eax, DWORD PTR ___security_cookie
	xor	eax, ebp
	push	eax
	lea	eax, DWORD PTR __$EHRec$[ebp]
	mov	DWORD PTR fs:0, eax
	mov	DWORD PTR _this$[ebp], ecx
	mov	DWORD PTR __$EHRec$[ebp+8], 0

; 1441 :  #if _ITERATOR_DEBUG_LEVEL == 2
; 1442 : 		if (_Where._Getcont() != &this->_Get_data()
; 1443 : 			|| _Where._Ptr == this->_Myhead())

	lea	ecx, DWORD PTR __Where$[ebp]
	call	?_Getcont@_Iterator_base12@std@@QBEPBU_Container_base12@2@XZ ; std::_Iterator_base12::_Getcont
	mov	esi, eax
	mov	ecx, DWORD PTR _this$[ebp]
	call	?_Get_data@?$_List_alloc@U?$_List_base_types@UGraveRecord@GraveMarkers@@V?$allocator@UGraveRecord@GraveMarkers@@@std@@@std@@@std@@QAEAAV?$_List_val@U?$_List_simple_types@UGraveRecord@GraveMarkers@@@std@@@2@XZ ; std::_List_alloc<std::_List_base_types<GraveMarkers::GraveRecord,std::allocator<GraveMarkers::GraveRecord> > >::_Get_data
	cmp	esi, eax
	jne	SHORT $LN3@Unlinknode
	mov	ecx, DWORD PTR _this$[ebp]
	call	?_Myhead@?$_List_alloc@U?$_List_base_types@UGraveRecord@GraveMarkers@@V?$allocator@UGraveRecord@GraveMarkers@@@std@@@std@@@std@@QAEAAPAU?$_List_node@UGraveRecord@GraveMarkers@@PAX@2@XZ ; std::_List_alloc<std::_List_base_types<GraveMarkers::GraveRecord,std::allocator<GraveMarkers::GraveRecord> > >::_Myhead
	mov	ecx, DWORD PTR __Where$[ebp+8]
	cmp	ecx, DWORD PTR [eax]
	jne	SHORT $LN2@Unlinknode
$LN3@Unlinknode:

; 1444 : 			_DEBUG_ERROR("list erase iterator outside range");

	push	1444					; 000005a4H
	push	OFFSET ??_C@_1GA@IINJPBGE@?$AAD?$AA?3?$AA?2?$AAM?$AAi?$AAc?$AAr?$AAo?$AAs?$AAo?$AAf?$AAt?$AA?5?$AAV?$AAi?$AAs?$AAu?$AAa?$AAl?$AA?5?$AAS?$AAt?$AAu?$AAd?$AAi?$AAo?$AA?5?$AA1?$AA4?$AA?4?$AA0?$AA?2@
	push	OFFSET ??_C@_1EE@BBMFLDOC@?$AAl?$AAi?$AAs?$AAt?$AA?5?$AAe?$AAr?$AAa?$AAs?$AAe?$AA?5?$AAi?$AAt?$AAe?$AAr?$AAa?$AAt?$AAo?$AAr?$AA?5?$AAo?$AAu?$AAt?$AAs?$AAi?$AAd?$AAe?$AA?5?$AAr?$AAa?$AAn?$AAg@
	call	?_Debug_message@std@@YAXPB_W0I@Z	; std::_Debug_message
	add	esp, 12					; 0000000cH
$LN2@Unlinknode:

; 1445 : 		_Nodeptr _Pnode = (_Where)._Mynode();

	lea	ecx, DWORD PTR __Where$[ebp]
	call	?_Mynode@?$_List_unchecked_const_iterator@V?$_List_val@U?$_List_simple_types@UGraveRecord@GraveMarkers@@@std@@@std@@U_Iterator_base12@2@@std@@QBEPAU?$_List_node@UGraveRecord@GraveMarkers@@PAX@2@XZ ; std::_List_unchecked_const_iterator<std::_List_val<std::_List_simple_types<GraveMarkers::GraveRecord> >,std::_Iterator_base12>::_Mynode
	mov	DWORD PTR __Pnode$[ebp], eax

; 1446 : 		_Orphan_ptr(_Pnode);

	mov	edx, DWORD PTR __Pnode$[ebp]
	push	edx
	mov	ecx, DWORD PTR _this$[ebp]
	call	?_Orphan_ptr@?$list@UGraveRecord@GraveMarkers@@V?$allocator@UGraveRecord@GraveMarkers@@@std@@@std@@QAEXPAU?$_List_node@UGraveRecord@GraveMarkers@@PAX@2@@Z ; std::list<GraveMarkers::GraveRecord,std::allocator<GraveMarkers::GraveRecord> >::_Orphan_ptr

; 1447 : 
; 1448 :  #else /* _ITERATOR_DEBUG_LEVEL == 2 */
; 1449 : 		_Nodeptr _Pnode = (_Where)._Mynode();
; 1450 :  #endif /* _ITERATOR_DEBUG_LEVEL == 2 */
; 1451 : 
; 1452 : 		this->_Nextnode(this->_Prevnode(_Pnode)) =

	mov	eax, DWORD PTR __Pnode$[ebp]
	push	eax
	call	?_Nextnode@?$_List_alloc@U?$_List_base_types@UGraveRecord@GraveMarkers@@V?$allocator@UGraveRecord@GraveMarkers@@@std@@@std@@@std@@SAAAPAU?$_List_node@UGraveRecord@GraveMarkers@@PAX@2@PAU32@@Z ; std::_List_alloc<std::_List_base_types<GraveMarkers::GraveRecord,std::allocator<GraveMarkers::GraveRecord> > >::_Nextnode
	add	esp, 4
	mov	esi, eax
	mov	ecx, DWORD PTR __Pnode$[ebp]
	push	ecx
	call	?_Prevnode@?$_List_alloc@U?$_List_base_types@UGraveRecord@GraveMarkers@@V?$allocator@UGraveRecord@GraveMarkers@@@std@@@std@@@std@@SAAAPAU?$_List_node@UGraveRecord@GraveMarkers@@PAX@2@PAU32@@Z ; std::_List_alloc<std::_List_base_types<GraveMarkers::GraveRecord,std::allocator<GraveMarkers::GraveRecord> > >::_Prevnode
	add	esp, 4
	mov	edx, DWORD PTR [eax]
	push	edx
	call	?_Nextnode@?$_List_alloc@U?$_List_base_types@UGraveRecord@GraveMarkers@@V?$allocator@UGraveRecord@GraveMarkers@@@std@@@std@@@std@@SAAAPAU?$_List_node@UGraveRecord@GraveMarkers@@PAX@2@PAU32@@Z ; std::_List_alloc<std::_List_base_types<GraveMarkers::GraveRecord,std::allocator<GraveMarkers::GraveRecord> > >::_Nextnode
	add	esp, 4
	mov	ecx, DWORD PTR [esi]
	mov	DWORD PTR [eax], ecx

; 1453 : 			this->_Nextnode(_Pnode);
; 1454 : 		this->_Prevnode(this->_Nextnode(_Pnode)) =

	mov	edx, DWORD PTR __Pnode$[ebp]
	push	edx
	call	?_Prevnode@?$_List_alloc@U?$_List_base_types@UGraveRecord@GraveMarkers@@V?$allocator@UGraveRecord@GraveMarkers@@@std@@@std@@@std@@SAAAPAU?$_List_node@UGraveRecord@GraveMarkers@@PAX@2@PAU32@@Z ; std::_List_alloc<std::_List_base_types<GraveMarkers::GraveRecord,std::allocator<GraveMarkers::GraveRecord> > >::_Prevnode
	add	esp, 4
	mov	esi, eax
	mov	eax, DWORD PTR __Pnode$[ebp]
	push	eax
	call	?_Nextnode@?$_List_alloc@U?$_List_base_types@UGraveRecord@GraveMarkers@@V?$allocator@UGraveRecord@GraveMarkers@@@std@@@std@@@std@@SAAAPAU?$_List_node@UGraveRecord@GraveMarkers@@PAX@2@PAU32@@Z ; std::_List_alloc<std::_List_base_types<GraveMarkers::GraveRecord,std::allocator<GraveMarkers::GraveRecord> > >::_Nextnode
	add	esp, 4
	mov	ecx, DWORD PTR [eax]
	push	ecx
	call	?_Prevnode@?$_List_alloc@U?$_List_base_types@UGraveRecord@GraveMarkers@@V?$allocator@UGraveRecord@GraveMarkers@@@std@@@std@@@std@@SAAAPAU?$_List_node@UGraveRecord@GraveMarkers@@PAX@2@PAU32@@Z ; std::_List_alloc<std::_List_base_types<GraveMarkers::GraveRecord,std::allocator<GraveMarkers::GraveRecord> > >::_Prevnode
	add	esp, 4
	mov	edx, DWORD PTR [esi]
	mov	DWORD PTR [eax], edx

; 1455 : 			this->_Prevnode(_Pnode);
; 1456 : 
; 1457 : 		--this->_Mysize();

	mov	ecx, DWORD PTR _this$[ebp]
	call	?_Mysize@?$_List_alloc@U?$_List_base_types@UGraveRecord@GraveMarkers@@V?$allocator@UGraveRecord@GraveMarkers@@@std@@@std@@@std@@QAEAAIXZ ; std::_List_alloc<std::_List_base_types<GraveMarkers::GraveRecord,std::allocator<GraveMarkers::GraveRecord> > >::_Mysize
	mov	DWORD PTR tv155[ebp], eax
	mov	eax, DWORD PTR tv155[ebp]
	mov	ecx, DWORD PTR [eax]
	sub	ecx, 1
	mov	edx, DWORD PTR tv155[ebp]
	mov	DWORD PTR [edx], ecx

; 1458 : 		return (_Pnode);

	mov	eax, DWORD PTR __Pnode$[ebp]
	mov	DWORD PTR $T2[ebp], eax
	mov	DWORD PTR __$EHRec$[ebp+8], -1
	lea	ecx, DWORD PTR __Where$[ebp]
	call	??1?$_List_const_iterator@V?$_List_val@U?$_List_simple_types@UGraveRecord@GraveMarkers@@@std@@@std@@@std@@QAE@XZ
	mov	eax, DWORD PTR $T2[ebp]

; 1459 : 		}

	mov	ecx, DWORD PTR __$EHRec$[ebp]
	mov	DWORD PTR fs:0, ecx
	pop	ecx
	pop	esi
	add	esp, 28					; 0000001cH
	cmp	ebp, esp
	call	__RTC_CheckEsp
	mov	esp, ebp
	pop	ebp
	ret	12					; 0000000cH
_TEXT	ENDS
;	COMDAT text$x
text$x	SEGMENT
__unwindfunclet$?_Unlinknode@?$list@UGraveRecord@GraveMarkers@@V?$allocator@UGraveRecord@GraveMarkers@@@std@@@std@@QAEPAU?$_List_node@UGraveRecord@GraveMarkers@@PAX@2@V?$_List_const_iterator@V?$_List_val@U?$_List_simple_types@UGraveRecord@GraveMarkers@@@std@@@std@@@2@@Z$0:
	lea	ecx, DWORD PTR __Where$[ebp]
	jmp	??1?$_List_const_iterator@V?$_List_val@U?$_List_simple_types@UGraveRecord@GraveMarkers@@@std@@@std@@@std@@QAE@XZ
__ehhandler$?_Unlinknode@?$list@UGraveRecord@GraveMarkers@@V?$allocator@UGraveRecord@GraveMarkers@@@std@@@std@@QAEPAU?$_List_node@UGraveRecord@GraveMarkers@@PAX@2@V?$_List_const_iterator@V?$_List_val@U?$_List_simple_types@UGraveRecord@GraveMarkers@@@std@@@std@@@2@@Z:
	mov	edx, DWORD PTR [esp+8]
	lea	eax, DWORD PTR [edx+12]
	mov	ecx, DWORD PTR [edx-24]
	xor	ecx, eax
	call	@__security_check_cookie@4
	mov	eax, OFFSET __ehfuncinfo$?_Unlinknode@?$list@UGraveRecord@GraveMarkers@@V?$allocator@UGraveRecord@GraveMarkers@@@std@@@std@@QAEPAU?$_List_node@UGraveRecord@GraveMarkers@@PAX@2@V?$_List_const_iterator@V?$_List_val@U?$_List_simple_types@UGraveRecord@GraveMarkers@@@std@@@std@@@2@@Z
	jmp	___CxxFrameHandler3
text$x	ENDS
?_Unlinknode@?$list@UGraveRecord@GraveMarkers@@V?$allocator@UGraveRecord@GraveMarkers@@@std@@@std@@QAEPAU?$_List_node@UGraveRecord@GraveMarkers@@PAX@2@V?$_List_const_iterator@V?$_List_val@U?$_List_simple_types@UGraveRecord@GraveMarkers@@@std@@@std@@@2@@Z ENDP ; std::list<GraveMarkers::GraveRecord,std::allocator<GraveMarkers::GraveRecord> >::_Unlinknode
; Function compile flags: /Odtp /RTCsu
; File d:\microsoft visual studio 14.0\vc\include\list
;	COMDAT ?max_size@?$list@UGraveRecord@GraveMarkers@@V?$allocator@UGraveRecord@GraveMarkers@@@std@@@std@@QBEIXZ
_TEXT	SEGMENT
$T1 = -5						; size = 1
_this$ = -4						; size = 4
?max_size@?$list@UGraveRecord@GraveMarkers@@V?$allocator@UGraveRecord@GraveMarkers@@@std@@@std@@QBEIXZ PROC ; std::list<GraveMarkers::GraveRecord,std::allocator<GraveMarkers::GraveRecord> >::max_size, COMDAT
; _this$ = ecx

; 1243 : 		{	// return maximum possible length of sequence

	push	ebp
	mov	ebp, esp
	sub	esp, 8
	mov	DWORD PTR [ebp-8], -858993460		; ccccccccH
	mov	DWORD PTR [ebp-4], -858993460		; ccccccccH
	mov	DWORD PTR _this$[ebp], ecx

; 1244 : 		return (this->_Getal().max_size());

	movzx	eax, BYTE PTR $T1[ebp]
	push	eax
	mov	ecx, DWORD PTR _this$[ebp]
	call	?_Getal@?$_List_alloc@U?$_List_base_types@UGraveRecord@GraveMarkers@@V?$allocator@UGraveRecord@GraveMarkers@@@std@@@std@@@std@@QBEABU?$_Wrap_alloc@V?$allocator@U?$_List_node@UGraveRecord@GraveMarkers@@PAX@std@@@std@@@2@XZ ; std::_List_alloc<std::_List_base_types<GraveMarkers::GraveRecord,std::allocator<GraveMarkers::GraveRecord> > >::_Getal
	mov	ecx, eax
	call	?max_size@?$_Wrap_alloc@V?$allocator@U?$_List_node@UGraveRecord@GraveMarkers@@PAX@std@@@std@@@std@@QBEIU_Nil@2@@Z ; std::_Wrap_alloc<std::allocator<std::_List_node<GraveMarkers::GraveRecord,void *> > >::max_size

; 1245 : 		}

	add	esp, 8
	cmp	ebp, esp
	call	__RTC_CheckEsp
	mov	esp, ebp
	pop	ebp
	ret	0
?max_size@?$list@UGraveRecord@GraveMarkers@@V?$allocator@UGraveRecord@GraveMarkers@@@std@@@std@@QBEIXZ ENDP ; std::list<GraveMarkers::GraveRecord,std::allocator<GraveMarkers::GraveRecord> >::max_size
_TEXT	ENDS
; Function compile flags: /Odtp /RTCsu
; File d:\microsoft visual studio 14.0\vc\include\list
;	COMDAT ?_Make_iter@?$list@UGraveRecord@GraveMarkers@@V?$allocator@UGraveRecord@GraveMarkers@@@std@@@std@@QBE?AV?$_List_iterator@V?$_List_val@U?$_List_simple_types@UGraveRecord@GraveMarkers@@@std@@@std@@@2@V?$_List_const_iterator@V?$_List_val@U?$_List_simple_types@UGraveRecord@GraveMarkers@@@std@@@std@@@2@@Z
_TEXT	SEGMENT
_this$ = -16						; size = 4
__$EHRec$ = -12						; size = 12
___$ReturnUdt$ = 8					; size = 4
__Where$ = 12						; size = 12
?_Make_iter@?$list@UGraveRecord@GraveMarkers@@V?$allocator@UGraveRecord@GraveMarkers@@@std@@@std@@QBE?AV?$_List_iterator@V?$_List_val@U?$_List_simple_types@UGraveRecord@GraveMarkers@@@std@@@std@@@2@V?$_List_const_iterator@V?$_List_val@U?$_List_simple_types@UGraveRecord@GraveMarkers@@@std@@@std@@@2@@Z PROC ; std::list<GraveMarkers::GraveRecord,std::allocator<GraveMarkers::GraveRecord> >::_Make_iter, COMDAT
; _this$ = ecx

; 1160 : 		{	// make iterator from const_iterator

	push	ebp
	mov	ebp, esp
	push	-1
	push	__ehhandler$?_Make_iter@?$list@UGraveRecord@GraveMarkers@@V?$allocator@UGraveRecord@GraveMarkers@@@std@@@std@@QBE?AV?$_List_iterator@V?$_List_val@U?$_List_simple_types@UGraveRecord@GraveMarkers@@@std@@@std@@@2@V?$_List_const_iterator@V?$_List_val@U?$_List_simple_types@UGraveRecord@GraveMarkers@@@std@@@std@@@2@@Z
	mov	eax, DWORD PTR fs:0
	push	eax
	push	ecx
	mov	DWORD PTR [ebp-16], -858993460		; ccccccccH
	mov	eax, DWORD PTR ___security_cookie
	xor	eax, ebp
	push	eax
	lea	eax, DWORD PTR __$EHRec$[ebp]
	mov	DWORD PTR fs:0, eax
	mov	DWORD PTR _this$[ebp], ecx

; 1161 : 		return (iterator(_Where._Ptr, &this->_Get_data()));

	mov	ecx, DWORD PTR _this$[ebp]
	call	?_Get_data@?$_List_alloc@U?$_List_base_types@UGraveRecord@GraveMarkers@@V?$allocator@UGraveRecord@GraveMarkers@@@std@@@std@@@std@@QBEABV?$_List_val@U?$_List_simple_types@UGraveRecord@GraveMarkers@@@std@@@2@XZ ; std::_List_alloc<std::_List_base_types<GraveMarkers::GraveRecord,std::allocator<GraveMarkers::GraveRecord> > >::_Get_data
	push	eax
	mov	eax, DWORD PTR __Where$[ebp+8]
	push	eax
	mov	ecx, DWORD PTR ___$ReturnUdt$[ebp]
	call	??0?$_List_iterator@V?$_List_val@U?$_List_simple_types@UGraveRecord@GraveMarkers@@@std@@@std@@@std@@QAE@PAU?$_List_node@UGraveRecord@GraveMarkers@@PAX@1@PBV?$_List_val@U?$_List_simple_types@UGraveRecord@GraveMarkers@@@std@@@1@@Z ; std::_List_iterator<std::_List_val<std::_List_simple_types<GraveMarkers::GraveRecord> > >::_List_iterator<std::_List_val<std::_List_simple_types<GraveMarkers::GraveRecord> > >
	lea	ecx, DWORD PTR __Where$[ebp]
	call	??1?$_List_const_iterator@V?$_List_val@U?$_List_simple_types@UGraveRecord@GraveMarkers@@@std@@@std@@@std@@QAE@XZ
	mov	eax, DWORD PTR ___$ReturnUdt$[ebp]

; 1162 : 		}

	mov	ecx, DWORD PTR __$EHRec$[ebp]
	mov	DWORD PTR fs:0, ecx
	pop	ecx
	add	esp, 16					; 00000010H
	cmp	ebp, esp
	call	__RTC_CheckEsp
	mov	esp, ebp
	pop	ebp
	ret	16					; 00000010H
_TEXT	ENDS
;	COMDAT text$x
text$x	SEGMENT
__ehhandler$?_Make_iter@?$list@UGraveRecord@GraveMarkers@@V?$allocator@UGraveRecord@GraveMarkers@@@std@@@std@@QBE?AV?$_List_iterator@V?$_List_val@U?$_List_simple_types@UGraveRecord@GraveMarkers@@@std@@@std@@@2@V?$_List_const_iterator@V?$_List_val@U?$_List_simple_types@UGraveRecord@GraveMarkers@@@std@@@std@@@2@@Z:
	mov	edx, DWORD PTR [esp+8]
	lea	eax, DWORD PTR [edx+12]
	mov	ecx, DWORD PTR [edx-8]
	xor	ecx, eax
	call	@__security_check_cookie@4
	mov	eax, OFFSET __ehfuncinfo$?_Make_iter@?$list@UGraveRecord@GraveMarkers@@V?$allocator@UGraveRecord@GraveMarkers@@@std@@@std@@QBE?AV?$_List_iterator@V?$_List_val@U?$_List_simple_types@UGraveRecord@GraveMarkers@@@std@@@std@@@2@V?$_List_const_iterator@V?$_List_val@U?$_List_simple_types@UGraveRecord@GraveMarkers@@@std@@@std@@@2@@Z
	jmp	___CxxFrameHandler3
text$x	ENDS
?_Make_iter@?$list@UGraveRecord@GraveMarkers@@V?$allocator@UGraveRecord@GraveMarkers@@@std@@@std@@QBE?AV?$_List_iterator@V?$_List_val@U?$_List_simple_types@UGraveRecord@GraveMarkers@@@std@@@std@@@2@V?$_List_const_iterator@V?$_List_val@U?$_List_simple_types@UGraveRecord@GraveMarkers@@@std@@@std@@@2@@Z ENDP ; std::list<GraveMarkers::GraveRecord,std::allocator<GraveMarkers::GraveRecord> >::_Make_iter
; Function compile flags: /Odtp /RTCsu
; File d:\microsoft visual studio 14.0\vc\include\list
;	COMDAT ?_Unchecked_end@?$list@UGraveRecord@GraveMarkers@@V?$allocator@UGraveRecord@GraveMarkers@@@std@@@std@@QAE?AV?$_List_unchecked_iterator@V?$_List_val@U?$_List_simple_types@UGraveRecord@GraveMarkers@@@std@@@std@@@2@XZ
_TEXT	SEGMENT
_this$ = -4						; size = 4
___$ReturnUdt$ = 8					; size = 4
?_Unchecked_end@?$list@UGraveRecord@GraveMarkers@@V?$allocator@UGraveRecord@GraveMarkers@@@std@@@std@@QAE?AV?$_List_unchecked_iterator@V?$_List_val@U?$_List_simple_types@UGraveRecord@GraveMarkers@@@std@@@std@@@2@XZ PROC ; std::list<GraveMarkers::GraveRecord,std::allocator<GraveMarkers::GraveRecord> >::_Unchecked_end, COMDAT
; _this$ = ecx

; 1149 : 		{	// return unchecked iterator for end of mutable sequence

	push	ebp
	mov	ebp, esp
	push	ecx
	mov	DWORD PTR [ebp-4], -858993460		; ccccccccH
	mov	DWORD PTR _this$[ebp], ecx

; 1150 : 		return (_Unchecked_iterator(this->_Myhead(), &this->_Get_data()));

	mov	ecx, DWORD PTR _this$[ebp]
	call	?_Get_data@?$_List_alloc@U?$_List_base_types@UGraveRecord@GraveMarkers@@V?$allocator@UGraveRecord@GraveMarkers@@@std@@@std@@@std@@QAEAAV?$_List_val@U?$_List_simple_types@UGraveRecord@GraveMarkers@@@std@@@2@XZ ; std::_List_alloc<std::_List_base_types<GraveMarkers::GraveRecord,std::allocator<GraveMarkers::GraveRecord> > >::_Get_data
	push	eax
	mov	ecx, DWORD PTR _this$[ebp]
	call	?_Myhead@?$_List_alloc@U?$_List_base_types@UGraveRecord@GraveMarkers@@V?$allocator@UGraveRecord@GraveMarkers@@@std@@@std@@@std@@QAEAAPAU?$_List_node@UGraveRecord@GraveMarkers@@PAX@2@XZ ; std::_List_alloc<std::_List_base_types<GraveMarkers::GraveRecord,std::allocator<GraveMarkers::GraveRecord> > >::_Myhead
	mov	eax, DWORD PTR [eax]
	push	eax
	mov	ecx, DWORD PTR ___$ReturnUdt$[ebp]
	call	??0?$_List_unchecked_iterator@V?$_List_val@U?$_List_simple_types@UGraveRecord@GraveMarkers@@@std@@@std@@@std@@QAE@PAU?$_List_node@UGraveRecord@GraveMarkers@@PAX@1@PBV?$_List_val@U?$_List_simple_types@UGraveRecord@GraveMarkers@@@std@@@1@@Z ; std::_List_unchecked_iterator<std::_List_val<std::_List_simple_types<GraveMarkers::GraveRecord> > >::_List_unchecked_iterator<std::_List_val<std::_List_simple_types<GraveMarkers::GraveRecord> > >
	mov	eax, DWORD PTR ___$ReturnUdt$[ebp]

; 1151 : 		}

	add	esp, 4
	cmp	ebp, esp
	call	__RTC_CheckEsp
	mov	esp, ebp
	pop	ebp
	ret	4
?_Unchecked_end@?$list@UGraveRecord@GraveMarkers@@V?$allocator@UGraveRecord@GraveMarkers@@@std@@@std@@QAE?AV?$_List_unchecked_iterator@V?$_List_val@U?$_List_simple_types@UGraveRecord@GraveMarkers@@@std@@@std@@@2@XZ ENDP ; std::list<GraveMarkers::GraveRecord,std::allocator<GraveMarkers::GraveRecord> >::_Unchecked_end
_TEXT	ENDS
; Function compile flags: /Odtp /RTCsu
; File d:\microsoft visual studio 14.0\vc\include\list
;	COMDAT ?end@?$list@UGraveRecord@GraveMarkers@@V?$allocator@UGraveRecord@GraveMarkers@@@std@@@std@@QAE?AV?$_List_iterator@V?$_List_val@U?$_List_simple_types@UGraveRecord@GraveMarkers@@@std@@@std@@@2@XZ
_TEXT	SEGMENT
_this$ = -16						; size = 4
__$EHRec$ = -12						; size = 12
___$ReturnUdt$ = 8					; size = 4
?end@?$list@UGraveRecord@GraveMarkers@@V?$allocator@UGraveRecord@GraveMarkers@@@std@@@std@@QAE?AV?$_List_iterator@V?$_List_val@U?$_List_simple_types@UGraveRecord@GraveMarkers@@@std@@@std@@@2@XZ PROC ; std::list<GraveMarkers::GraveRecord,std::allocator<GraveMarkers::GraveRecord> >::end, COMDAT
; _this$ = ecx

; 1127 : 		{	// return iterator for end of mutable sequence

	push	ebp
	mov	ebp, esp
	push	-1
	push	__ehhandler$?end@?$list@UGraveRecord@GraveMarkers@@V?$allocator@UGraveRecord@GraveMarkers@@@std@@@std@@QAE?AV?$_List_iterator@V?$_List_val@U?$_List_simple_types@UGraveRecord@GraveMarkers@@@std@@@std@@@2@XZ
	mov	eax, DWORD PTR fs:0
	push	eax
	push	ecx
	mov	DWORD PTR [ebp-16], -858993460		; ccccccccH
	mov	eax, DWORD PTR ___security_cookie
	xor	eax, ebp
	push	eax
	lea	eax, DWORD PTR __$EHRec$[ebp]
	mov	DWORD PTR fs:0, eax
	mov	DWORD PTR _this$[ebp], ecx

; 1128 : 		return (iterator(this->_Myhead(), &this->_Get_data()));

	mov	ecx, DWORD PTR _this$[ebp]
	call	?_Get_data@?$_List_alloc@U?$_List_base_types@UGraveRecord@GraveMarkers@@V?$allocator@UGraveRecord@GraveMarkers@@@std@@@std@@@std@@QAEAAV?$_List_val@U?$_List_simple_types@UGraveRecord@GraveMarkers@@@std@@@2@XZ ; std::_List_alloc<std::_List_base_types<GraveMarkers::GraveRecord,std::allocator<GraveMarkers::GraveRecord> > >::_Get_data
	push	eax
	mov	ecx, DWORD PTR _this$[ebp]
	call	?_Myhead@?$_List_alloc@U?$_List_base_types@UGraveRecord@GraveMarkers@@V?$allocator@UGraveRecord@GraveMarkers@@@std@@@std@@@std@@QAEAAPAU?$_List_node@UGraveRecord@GraveMarkers@@PAX@2@XZ ; std::_List_alloc<std::_List_base_types<GraveMarkers::GraveRecord,std::allocator<GraveMarkers::GraveRecord> > >::_Myhead
	mov	eax, DWORD PTR [eax]
	push	eax
	mov	ecx, DWORD PTR ___$ReturnUdt$[ebp]
	call	??0?$_List_iterator@V?$_List_val@U?$_List_simple_types@UGraveRecord@GraveMarkers@@@std@@@std@@@std@@QAE@PAU?$_List_node@UGraveRecord@GraveMarkers@@PAX@1@PBV?$_List_val@U?$_List_simple_types@UGraveRecord@GraveMarkers@@@std@@@1@@Z ; std::_List_iterator<std::_List_val<std::_List_simple_types<GraveMarkers::GraveRecord> > >::_List_iterator<std::_List_val<std::_List_simple_types<GraveMarkers::GraveRecord> > >
	mov	eax, DWORD PTR ___$ReturnUdt$[ebp]

; 1129 : 		}

	mov	ecx, DWORD PTR __$EHRec$[ebp]
	mov	DWORD PTR fs:0, ecx
	pop	ecx
	add	esp, 16					; 00000010H
	cmp	ebp, esp
	call	__RTC_CheckEsp
	mov	esp, ebp
	pop	ebp
	ret	4
_TEXT	ENDS
;	COMDAT text$x
text$x	SEGMENT
__ehhandler$?end@?$list@UGraveRecord@GraveMarkers@@V?$allocator@UGraveRecord@GraveMarkers@@@std@@@std@@QAE?AV?$_List_iterator@V?$_List_val@U?$_List_simple_types@UGraveRecord@GraveMarkers@@@std@@@std@@@2@XZ:
	mov	edx, DWORD PTR [esp+8]
	lea	eax, DWORD PTR [edx+12]
	mov	ecx, DWORD PTR [edx-8]
	xor	ecx, eax
	call	@__security_check_cookie@4
	mov	eax, OFFSET __ehfuncinfo$?end@?$list@UGraveRecord@GraveMarkers@@V?$allocator@UGraveRecord@GraveMarkers@@@std@@@std@@QAE?AV?$_List_iterator@V?$_List_val@U?$_List_simple_types@UGraveRecord@GraveMarkers@@@std@@@std@@@2@XZ
	jmp	___CxxFrameHandler3
text$x	ENDS
?end@?$list@UGraveRecord@GraveMarkers@@V?$allocator@UGraveRecord@GraveMarkers@@@std@@@std@@QAE?AV?$_List_iterator@V?$_List_val@U?$_List_simple_types@UGraveRecord@GraveMarkers@@@std@@@std@@@2@XZ ENDP ; std::list<GraveMarkers::GraveRecord,std::allocator<GraveMarkers::GraveRecord> >::end
; Function compile flags: /Odtp /RTCsu
; File d:\microsoft visual studio 14.0\vc\include\list
;	COMDAT ?begin@?$list@UGraveRecord@GraveMarkers@@V?$allocator@UGraveRecord@GraveMarkers@@@std@@@std@@QAE?AV?$_List_iterator@V?$_List_val@U?$_List_simple_types@UGraveRecord@GraveMarkers@@@std@@@std@@@2@XZ
_TEXT	SEGMENT
_this$ = -16						; size = 4
__$EHRec$ = -12						; size = 12
___$ReturnUdt$ = 8					; size = 4
?begin@?$list@UGraveRecord@GraveMarkers@@V?$allocator@UGraveRecord@GraveMarkers@@@std@@@std@@QAE?AV?$_List_iterator@V?$_List_val@U?$_List_simple_types@UGraveRecord@GraveMarkers@@@std@@@std@@@2@XZ PROC ; std::list<GraveMarkers::GraveRecord,std::allocator<GraveMarkers::GraveRecord> >::begin, COMDAT
; _this$ = ecx

; 1115 : 		{	// return iterator for beginning of mutable sequence

	push	ebp
	mov	ebp, esp
	push	-1
	push	__ehhandler$?begin@?$list@UGraveRecord@GraveMarkers@@V?$allocator@UGraveRecord@GraveMarkers@@@std@@@std@@QAE?AV?$_List_iterator@V?$_List_val@U?$_List_simple_types@UGraveRecord@GraveMarkers@@@std@@@std@@@2@XZ
	mov	eax, DWORD PTR fs:0
	push	eax
	push	ecx
	mov	DWORD PTR [ebp-16], -858993460		; ccccccccH
	mov	eax, DWORD PTR ___security_cookie
	xor	eax, ebp
	push	eax
	lea	eax, DWORD PTR __$EHRec$[ebp]
	mov	DWORD PTR fs:0, eax
	mov	DWORD PTR _this$[ebp], ecx

; 1116 : 		return (iterator(this->_Nextnode(this->_Myhead()),

	mov	ecx, DWORD PTR _this$[ebp]
	call	?_Get_data@?$_List_alloc@U?$_List_base_types@UGraveRecord@GraveMarkers@@V?$allocator@UGraveRecord@GraveMarkers@@@std@@@std@@@std@@QAEAAV?$_List_val@U?$_List_simple_types@UGraveRecord@GraveMarkers@@@std@@@2@XZ ; std::_List_alloc<std::_List_base_types<GraveMarkers::GraveRecord,std::allocator<GraveMarkers::GraveRecord> > >::_Get_data
	push	eax
	mov	ecx, DWORD PTR _this$[ebp]
	call	?_Myhead@?$_List_alloc@U?$_List_base_types@UGraveRecord@GraveMarkers@@V?$allocator@UGraveRecord@GraveMarkers@@@std@@@std@@@std@@QAEAAPAU?$_List_node@UGraveRecord@GraveMarkers@@PAX@2@XZ ; std::_List_alloc<std::_List_base_types<GraveMarkers::GraveRecord,std::allocator<GraveMarkers::GraveRecord> > >::_Myhead
	mov	eax, DWORD PTR [eax]
	push	eax
	call	?_Nextnode@?$_List_alloc@U?$_List_base_types@UGraveRecord@GraveMarkers@@V?$allocator@UGraveRecord@GraveMarkers@@@std@@@std@@@std@@SAAAPAU?$_List_node@UGraveRecord@GraveMarkers@@PAX@2@PAU32@@Z ; std::_List_alloc<std::_List_base_types<GraveMarkers::GraveRecord,std::allocator<GraveMarkers::GraveRecord> > >::_Nextnode
	add	esp, 4
	mov	ecx, DWORD PTR [eax]
	push	ecx
	mov	ecx, DWORD PTR ___$ReturnUdt$[ebp]
	call	??0?$_List_iterator@V?$_List_val@U?$_List_simple_types@UGraveRecord@GraveMarkers@@@std@@@std@@@std@@QAE@PAU?$_List_node@UGraveRecord@GraveMarkers@@PAX@1@PBV?$_List_val@U?$_List_simple_types@UGraveRecord@GraveMarkers@@@std@@@1@@Z ; std::_List_iterator<std::_List_val<std::_List_simple_types<GraveMarkers::GraveRecord> > >::_List_iterator<std::_List_val<std::_List_simple_types<GraveMarkers::GraveRecord> > >
	mov	eax, DWORD PTR ___$ReturnUdt$[ebp]

; 1117 : 			&this->_Get_data()));
; 1118 : 		}

	mov	ecx, DWORD PTR __$EHRec$[ebp]
	mov	DWORD PTR fs:0, ecx
	pop	ecx
	add	esp, 16					; 00000010H
	cmp	ebp, esp
	call	__RTC_CheckEsp
	mov	esp, ebp
	pop	ebp
	ret	4
_TEXT	ENDS
;	COMDAT text$x
text$x	SEGMENT
__ehhandler$?begin@?$list@UGraveRecord@GraveMarkers@@V?$allocator@UGraveRecord@GraveMarkers@@@std@@@std@@QAE?AV?$_List_iterator@V?$_List_val@U?$_List_simple_types@UGraveRecord@GraveMarkers@@@std@@@std@@@2@XZ:
	mov	edx, DWORD PTR [esp+8]
	lea	eax, DWORD PTR [edx+12]
	mov	ecx, DWORD PTR [edx-8]
	xor	ecx, eax
	call	@__security_check_cookie@4
	mov	eax, OFFSET __ehfuncinfo$?begin@?$list@UGraveRecord@GraveMarkers@@V?$allocator@UGraveRecord@GraveMarkers@@@std@@@std@@QAE?AV?$_List_iterator@V?$_List_val@U?$_List_simple_types@UGraveRecord@GraveMarkers@@@std@@@std@@@2@XZ
	jmp	___CxxFrameHandler3
text$x	ENDS
?begin@?$list@UGraveRecord@GraveMarkers@@V?$allocator@UGraveRecord@GraveMarkers@@@std@@@std@@QAE?AV?$_List_iterator@V?$_List_val@U?$_List_simple_types@UGraveRecord@GraveMarkers@@@std@@@std@@@2@XZ ENDP ; std::list<GraveMarkers::GraveRecord,std::allocator<GraveMarkers::GraveRecord> >::begin
; Function compile flags: /Odtp /RTCsu
; File d:\microsoft visual studio 14.0\vc\include\list
;	COMDAT ??1?$list@UGraveRecord@GraveMarkers@@V?$allocator@UGraveRecord@GraveMarkers@@@std@@@std@@QAE@XZ
_TEXT	SEGMENT
_this$ = -16						; size = 4
__$EHRec$ = -12						; size = 12
??1?$list@UGraveRecord@GraveMarkers@@V?$allocator@UGraveRecord@GraveMarkers@@@std@@@std@@QAE@XZ PROC ; std::list<GraveMarkers::GraveRecord,std::allocator<GraveMarkers::GraveRecord> >::~list<GraveMarkers::GraveRecord,std::allocator<GraveMarkers::GraveRecord> >, COMDAT
; _this$ = ecx

; 1094 : 		{	// destroy the object

	push	ebp
	mov	ebp, esp
	push	-1
	push	__ehhandler$??1?$list@UGraveRecord@GraveMarkers@@V?$allocator@UGraveRecord@GraveMarkers@@@std@@@std@@QAE@XZ
	mov	eax, DWORD PTR fs:0
	push	eax
	push	ecx
	mov	DWORD PTR [ebp-16], -858993460		; ccccccccH
	mov	eax, DWORD PTR ___security_cookie
	xor	eax, ebp
	push	eax
	lea	eax, DWORD PTR __$EHRec$[ebp]
	mov	DWORD PTR fs:0, eax
	mov	DWORD PTR _this$[ebp], ecx

; 1095 : 		_Tidy();

	mov	ecx, DWORD PTR _this$[ebp]
	call	?_Tidy@?$list@UGraveRecord@GraveMarkers@@V?$allocator@UGraveRecord@GraveMarkers@@@std@@@std@@QAEXXZ ; std::list<GraveMarkers::GraveRecord,std::allocator<GraveMarkers::GraveRecord> >::_Tidy

; 1096 : 		}

	mov	ecx, DWORD PTR _this$[ebp]
	call	??1?$_List_buy@UGraveRecord@GraveMarkers@@V?$allocator@UGraveRecord@GraveMarkers@@@std@@@std@@QAE@XZ
	mov	ecx, DWORD PTR __$EHRec$[ebp]
	mov	DWORD PTR fs:0, ecx
	pop	ecx
	add	esp, 16					; 00000010H
	cmp	ebp, esp
	call	__RTC_CheckEsp
	mov	esp, ebp
	pop	ebp
	ret	0
_TEXT	ENDS
;	COMDAT text$x
text$x	SEGMENT
__ehhandler$??1?$list@UGraveRecord@GraveMarkers@@V?$allocator@UGraveRecord@GraveMarkers@@@std@@@std@@QAE@XZ:
	mov	edx, DWORD PTR [esp+8]
	lea	eax, DWORD PTR [edx+12]
	mov	ecx, DWORD PTR [edx-8]
	xor	ecx, eax
	call	@__security_check_cookie@4
	mov	eax, OFFSET __ehfuncinfo$??1?$list@UGraveRecord@GraveMarkers@@V?$allocator@UGraveRecord@GraveMarkers@@@std@@@std@@QAE@XZ
	jmp	___CxxFrameHandler3
text$x	ENDS
??1?$list@UGraveRecord@GraveMarkers@@V?$allocator@UGraveRecord@GraveMarkers@@@std@@@std@@QAE@XZ ENDP ; std::list<GraveMarkers::GraveRecord,std::allocator<GraveMarkers::GraveRecord> >::~list<GraveMarkers::GraveRecord,std::allocator<GraveMarkers::GraveRecord> >
; Function compile flags: /Odtp /RTCsu
; File d:\microsoft visual studio 14.0\vc\include\list
;	COMDAT ?push_back@?$list@UGraveRecord@GraveMarkers@@V?$allocator@UGraveRecord@GraveMarkers@@@std@@@std@@QAEX$$QAUGraveRecord@GraveMarkers@@@Z
_TEXT	SEGMENT
$T1 = -12						; size = 4
$T2 = -8						; size = 4
_this$ = -4						; size = 4
__Val$ = 8						; size = 4
?push_back@?$list@UGraveRecord@GraveMarkers@@V?$allocator@UGraveRecord@GraveMarkers@@@std@@@std@@QAEX$$QAUGraveRecord@GraveMarkers@@@Z PROC ; std::list<GraveMarkers::GraveRecord,std::allocator<GraveMarkers::GraveRecord> >::push_back, COMDAT
; _this$ = ecx

; 1022 : 		{	// insert element at end

	push	ebp
	mov	ebp, esp
	sub	esp, 12					; 0000000cH
	mov	DWORD PTR [ebp-12], -858993460		; ccccccccH
	mov	DWORD PTR [ebp-8], -858993460		; ccccccccH
	mov	DWORD PTR [ebp-4], -858993460		; ccccccccH
	mov	DWORD PTR _this$[ebp], ecx

; 1023 : 		_Insert(_Unchecked_end(), _STD forward<_Ty>(_Val));

	lea	eax, DWORD PTR $T1[ebp]
	push	eax
	mov	ecx, DWORD PTR _this$[ebp]
	call	?_Unchecked_end@?$list@UGraveRecord@GraveMarkers@@V?$allocator@UGraveRecord@GraveMarkers@@@std@@@std@@QAE?AV?$_List_unchecked_iterator@V?$_List_val@U?$_List_simple_types@UGraveRecord@GraveMarkers@@@std@@@std@@@2@XZ ; std::list<GraveMarkers::GraveRecord,std::allocator<GraveMarkers::GraveRecord> >::_Unchecked_end
	mov	ecx, DWORD PTR [eax]
	mov	DWORD PTR $T2[ebp], ecx
	mov	edx, DWORD PTR __Val$[ebp]
	push	edx
	call	??$forward@UGraveRecord@GraveMarkers@@@std@@YA$$QAUGraveRecord@GraveMarkers@@AAU12@@Z ; std::forward<GraveMarkers::GraveRecord>
	add	esp, 4
	push	eax
	mov	eax, DWORD PTR $T2[ebp]
	push	eax
	mov	ecx, DWORD PTR _this$[ebp]
	call	??$_Insert@UGraveRecord@GraveMarkers@@@?$list@UGraveRecord@GraveMarkers@@V?$allocator@UGraveRecord@GraveMarkers@@@std@@@std@@QAEXV?$_List_unchecked_const_iterator@V?$_List_val@U?$_List_simple_types@UGraveRecord@GraveMarkers@@@std@@@std@@U_Iterator_base0@2@@1@$$QAUGraveRecord@GraveMarkers@@@Z ; std::list<GraveMarkers::GraveRecord,std::allocator<GraveMarkers::GraveRecord> >::_Insert<GraveMarkers::GraveRecord>

; 1024 : 		}

	add	esp, 12					; 0000000cH
	cmp	ebp, esp
	call	__RTC_CheckEsp
	mov	esp, ebp
	pop	ebp
	ret	4
?push_back@?$list@UGraveRecord@GraveMarkers@@V?$allocator@UGraveRecord@GraveMarkers@@@std@@@std@@QAEX$$QAUGraveRecord@GraveMarkers@@@Z ENDP ; std::list<GraveMarkers::GraveRecord,std::allocator<GraveMarkers::GraveRecord> >::push_back
_TEXT	ENDS
; Function compile flags: /Odtp /RTCsu
; File d:\microsoft visual studio 14.0\vc\include\list
;	COMDAT ??0?$list@UGraveRecord@GraveMarkers@@V?$allocator@UGraveRecord@GraveMarkers@@@std@@@std@@QAE@XZ
_TEXT	SEGMENT
$T1 = -5						; size = 1
_this$ = -4						; size = 4
??0?$list@UGraveRecord@GraveMarkers@@V?$allocator@UGraveRecord@GraveMarkers@@@std@@@std@@QAE@XZ PROC ; std::list<GraveMarkers::GraveRecord,std::allocator<GraveMarkers::GraveRecord> >::list<GraveMarkers::GraveRecord,std::allocator<GraveMarkers::GraveRecord> >, COMDAT
; _this$ = ecx

; 890  : 		{	// construct empty list

	push	ebp
	mov	ebp, esp
	sub	esp, 8
	mov	DWORD PTR [ebp-8], -858993460		; ccccccccH
	mov	DWORD PTR [ebp-4], -858993460		; ccccccccH
	mov	DWORD PTR _this$[ebp], ecx

; 889  : 		: _Mybase()

	lea	ecx, DWORD PTR $T1[ebp]
	call	??0?$allocator@UGraveRecord@GraveMarkers@@@std@@QAE@XZ ; std::allocator<GraveMarkers::GraveRecord>::allocator<GraveMarkers::GraveRecord>
	push	eax
	mov	ecx, DWORD PTR _this$[ebp]
	call	??0?$_List_buy@UGraveRecord@GraveMarkers@@V?$allocator@UGraveRecord@GraveMarkers@@@std@@@std@@QAE@ABV?$allocator@UGraveRecord@GraveMarkers@@@1@@Z ; std::_List_buy<GraveMarkers::GraveRecord,std::allocator<GraveMarkers::GraveRecord> >::_List_buy<GraveMarkers::GraveRecord,std::allocator<GraveMarkers::GraveRecord> >

; 891  : 		}

	mov	eax, DWORD PTR _this$[ebp]
	add	esp, 8
	cmp	ebp, esp
	call	__RTC_CheckEsp
	mov	esp, ebp
	pop	ebp
	ret	0
??0?$list@UGraveRecord@GraveMarkers@@V?$allocator@UGraveRecord@GraveMarkers@@@std@@@std@@QAE@XZ ENDP ; std::list<GraveMarkers::GraveRecord,std::allocator<GraveMarkers::GraveRecord> >::list<GraveMarkers::GraveRecord,std::allocator<GraveMarkers::GraveRecord> >
_TEXT	ENDS
; Function compile flags: /Odtp /RTCsu
;	COMDAT ??1?$_List_buy@UGraveRecord@GraveMarkers@@V?$allocator@UGraveRecord@GraveMarkers@@@std@@@std@@QAE@XZ
_TEXT	SEGMENT
_this$ = -4						; size = 4
??1?$_List_buy@UGraveRecord@GraveMarkers@@V?$allocator@UGraveRecord@GraveMarkers@@@std@@@std@@QAE@XZ PROC ; std::_List_buy<GraveMarkers::GraveRecord,std::allocator<GraveMarkers::GraveRecord> >::~_List_buy<GraveMarkers::GraveRecord,std::allocator<GraveMarkers::GraveRecord> >, COMDAT
; _this$ = ecx
	push	ebp
	mov	ebp, esp
	push	ecx
	mov	DWORD PTR [ebp-4], -858993460		; ccccccccH
	mov	DWORD PTR _this$[ebp], ecx
	mov	ecx, DWORD PTR _this$[ebp]
	call	??1?$_List_alloc@U?$_List_base_types@UGraveRecord@GraveMarkers@@V?$allocator@UGraveRecord@GraveMarkers@@@std@@@std@@@std@@QAE@XZ ; std::_List_alloc<std::_List_base_types<GraveMarkers::GraveRecord,std::allocator<GraveMarkers::GraveRecord> > >::~_List_alloc<std::_List_base_types<GraveMarkers::GraveRecord,std::allocator<GraveMarkers::GraveRecord> > >
	add	esp, 4
	cmp	ebp, esp
	call	__RTC_CheckEsp
	mov	esp, ebp
	pop	ebp
	ret	0
??1?$_List_buy@UGraveRecord@GraveMarkers@@V?$allocator@UGraveRecord@GraveMarkers@@@std@@@std@@QAE@XZ ENDP ; std::_List_buy<GraveMarkers::GraveRecord,std::allocator<GraveMarkers::GraveRecord> >::~_List_buy<GraveMarkers::GraveRecord,std::allocator<GraveMarkers::GraveRecord> >
_TEXT	ENDS
; Function compile flags: /Odtp /RTCsu
; File d:\microsoft visual studio 14.0\vc\include\list
;	COMDAT ?_Freenode@?$_List_buy@UGraveRecord@GraveMarkers@@V?$allocator@UGraveRecord@GraveMarkers@@@std@@@std@@QAEXPAU?$_List_node@UGraveRecord@GraveMarkers@@PAX@2@@Z
_TEXT	SEGMENT
_this$ = -4						; size = 4
__Pnode$ = 8						; size = 4
?_Freenode@?$_List_buy@UGraveRecord@GraveMarkers@@V?$allocator@UGraveRecord@GraveMarkers@@@std@@@std@@QAEXPAU?$_List_node@UGraveRecord@GraveMarkers@@PAX@2@@Z PROC ; std::_List_buy<GraveMarkers::GraveRecord,std::allocator<GraveMarkers::GraveRecord> >::_Freenode, COMDAT
; _this$ = ecx

; 845  : 		{	// give node back

	push	ebp
	mov	ebp, esp
	push	ecx
	mov	DWORD PTR [ebp-4], -858993460		; ccccccccH
	mov	DWORD PTR _this$[ebp], ecx

; 846  : 		this->_Getal().destroy(

	mov	eax, DWORD PTR __Pnode$[ebp]
	push	eax
	call	?_Nextnode@?$_List_alloc@U?$_List_base_types@UGraveRecord@GraveMarkers@@V?$allocator@UGraveRecord@GraveMarkers@@@std@@@std@@@std@@SAAAPAU?$_List_node@UGraveRecord@GraveMarkers@@PAX@2@PAU32@@Z ; std::_List_alloc<std::_List_base_types<GraveMarkers::GraveRecord,std::allocator<GraveMarkers::GraveRecord> > >::_Nextnode
	add	esp, 4
	push	eax
	call	??$addressof@PAU?$_List_node@UGraveRecord@GraveMarkers@@PAX@std@@@std@@YAPAPAU?$_List_node@UGraveRecord@GraveMarkers@@PAX@0@AAPAU10@@Z ; std::addressof<std::_List_node<GraveMarkers::GraveRecord,void *> *>
	add	esp, 4
	push	eax
	mov	ecx, DWORD PTR _this$[ebp]
	call	?_Getal@?$_List_alloc@U?$_List_base_types@UGraveRecord@GraveMarkers@@V?$allocator@UGraveRecord@GraveMarkers@@@std@@@std@@@std@@QAEAAU?$_Wrap_alloc@V?$allocator@U?$_List_node@UGraveRecord@GraveMarkers@@PAX@std@@@std@@@2@XZ ; std::_List_alloc<std::_List_base_types<GraveMarkers::GraveRecord,std::allocator<GraveMarkers::GraveRecord> > >::_Getal
	mov	ecx, eax
	call	??$destroy@PAU?$_List_node@UGraveRecord@GraveMarkers@@PAX@std@@@?$_Wrap_alloc@V?$allocator@U?$_List_node@UGraveRecord@GraveMarkers@@PAX@std@@@std@@@std@@QAEXPAPAU?$_List_node@UGraveRecord@GraveMarkers@@PAX@1@@Z ; std::_Wrap_alloc<std::allocator<std::_List_node<GraveMarkers::GraveRecord,void *> > >::destroy<std::_List_node<GraveMarkers::GraveRecord,void *> *>

; 847  : 			_STD addressof(this->_Nextnode(_Pnode)));
; 848  : 		this->_Getal().destroy(

	mov	ecx, DWORD PTR __Pnode$[ebp]
	push	ecx
	call	?_Prevnode@?$_List_alloc@U?$_List_base_types@UGraveRecord@GraveMarkers@@V?$allocator@UGraveRecord@GraveMarkers@@@std@@@std@@@std@@SAAAPAU?$_List_node@UGraveRecord@GraveMarkers@@PAX@2@PAU32@@Z ; std::_List_alloc<std::_List_base_types<GraveMarkers::GraveRecord,std::allocator<GraveMarkers::GraveRecord> > >::_Prevnode
	add	esp, 4
	push	eax
	call	??$addressof@PAU?$_List_node@UGraveRecord@GraveMarkers@@PAX@std@@@std@@YAPAPAU?$_List_node@UGraveRecord@GraveMarkers@@PAX@0@AAPAU10@@Z ; std::addressof<std::_List_node<GraveMarkers::GraveRecord,void *> *>
	add	esp, 4
	push	eax
	mov	ecx, DWORD PTR _this$[ebp]
	call	?_Getal@?$_List_alloc@U?$_List_base_types@UGraveRecord@GraveMarkers@@V?$allocator@UGraveRecord@GraveMarkers@@@std@@@std@@@std@@QAEAAU?$_Wrap_alloc@V?$allocator@U?$_List_node@UGraveRecord@GraveMarkers@@PAX@std@@@std@@@2@XZ ; std::_List_alloc<std::_List_base_types<GraveMarkers::GraveRecord,std::allocator<GraveMarkers::GraveRecord> > >::_Getal
	mov	ecx, eax
	call	??$destroy@PAU?$_List_node@UGraveRecord@GraveMarkers@@PAX@std@@@?$_Wrap_alloc@V?$allocator@U?$_List_node@UGraveRecord@GraveMarkers@@PAX@std@@@std@@@std@@QAEXPAPAU?$_List_node@UGraveRecord@GraveMarkers@@PAX@1@@Z ; std::_Wrap_alloc<std::allocator<std::_List_node<GraveMarkers::GraveRecord,void *> > >::destroy<std::_List_node<GraveMarkers::GraveRecord,void *> *>

; 849  : 			_STD addressof(this->_Prevnode(_Pnode)));
; 850  : 		this->_Getal().destroy(

	mov	edx, DWORD PTR __Pnode$[ebp]
	push	edx
	call	?_Myval@?$_List_alloc@U?$_List_base_types@UGraveRecord@GraveMarkers@@V?$allocator@UGraveRecord@GraveMarkers@@@std@@@std@@@std@@SAAAUGraveRecord@GraveMarkers@@PAU?$_List_node@UGraveRecord@GraveMarkers@@PAX@2@@Z ; std::_List_alloc<std::_List_base_types<GraveMarkers::GraveRecord,std::allocator<GraveMarkers::GraveRecord> > >::_Myval
	add	esp, 4
	push	eax
	call	??$addressof@UGraveRecord@GraveMarkers@@@std@@YAPAUGraveRecord@GraveMarkers@@AAU12@@Z ; std::addressof<GraveMarkers::GraveRecord>
	add	esp, 4
	push	eax
	mov	ecx, DWORD PTR _this$[ebp]
	call	?_Getal@?$_List_alloc@U?$_List_base_types@UGraveRecord@GraveMarkers@@V?$allocator@UGraveRecord@GraveMarkers@@@std@@@std@@@std@@QAEAAU?$_Wrap_alloc@V?$allocator@U?$_List_node@UGraveRecord@GraveMarkers@@PAX@std@@@std@@@2@XZ ; std::_List_alloc<std::_List_base_types<GraveMarkers::GraveRecord,std::allocator<GraveMarkers::GraveRecord> > >::_Getal
	mov	ecx, eax
	call	??$destroy@UGraveRecord@GraveMarkers@@@?$_Wrap_alloc@V?$allocator@U?$_List_node@UGraveRecord@GraveMarkers@@PAX@std@@@std@@@std@@QAEXPAUGraveRecord@GraveMarkers@@@Z ; std::_Wrap_alloc<std::allocator<std::_List_node<GraveMarkers::GraveRecord,void *> > >::destroy<GraveMarkers::GraveRecord>

; 851  : 			_STD addressof(this->_Myval(_Pnode)));
; 852  : 		this->_Getal().deallocate(_Pnode, 1);

	push	1
	mov	eax, DWORD PTR __Pnode$[ebp]
	push	eax
	mov	ecx, DWORD PTR _this$[ebp]
	call	?_Getal@?$_List_alloc@U?$_List_base_types@UGraveRecord@GraveMarkers@@V?$allocator@UGraveRecord@GraveMarkers@@@std@@@std@@@std@@QAEAAU?$_Wrap_alloc@V?$allocator@U?$_List_node@UGraveRecord@GraveMarkers@@PAX@std@@@std@@@2@XZ ; std::_List_alloc<std::_List_base_types<GraveMarkers::GraveRecord,std::allocator<GraveMarkers::GraveRecord> > >::_Getal
	mov	ecx, eax
	call	?deallocate@?$_Wrap_alloc@V?$allocator@U?$_List_node@UGraveRecord@GraveMarkers@@PAX@std@@@std@@@std@@QAEXPAU?$_List_node@UGraveRecord@GraveMarkers@@PAX@2@I@Z ; std::_Wrap_alloc<std::allocator<std::_List_node<GraveMarkers::GraveRecord,void *> > >::deallocate

; 853  : 		}

	add	esp, 4
	cmp	ebp, esp
	call	__RTC_CheckEsp
	mov	esp, ebp
	pop	ebp
	ret	4
?_Freenode@?$_List_buy@UGraveRecord@GraveMarkers@@V?$allocator@UGraveRecord@GraveMarkers@@@std@@@std@@QAEXPAU?$_List_node@UGraveRecord@GraveMarkers@@PAX@2@@Z ENDP ; std::_List_buy<GraveMarkers::GraveRecord,std::allocator<GraveMarkers::GraveRecord> >::_Freenode
_TEXT	ENDS
; Function compile flags: /Odtp /RTCsu
; File d:\microsoft visual studio 14.0\vc\include\list
;	COMDAT ??0?$_List_buy@UGraveRecord@GraveMarkers@@V?$allocator@UGraveRecord@GraveMarkers@@@std@@@std@@QAE@ABV?$allocator@UGraveRecord@GraveMarkers@@@1@@Z
_TEXT	SEGMENT
_this$ = -4						; size = 4
__Al$ = 8						; size = 4
??0?$_List_buy@UGraveRecord@GraveMarkers@@V?$allocator@UGraveRecord@GraveMarkers@@@std@@@std@@QAE@ABV?$allocator@UGraveRecord@GraveMarkers@@@1@@Z PROC ; std::_List_buy<GraveMarkers::GraveRecord,std::allocator<GraveMarkers::GraveRecord> >::_List_buy<GraveMarkers::GraveRecord,std::allocator<GraveMarkers::GraveRecord> >, COMDAT
; _this$ = ecx

; 817  : 		{	// construct from allocator

	push	ebp
	mov	ebp, esp
	push	ecx
	mov	DWORD PTR [ebp-4], -858993460		; ccccccccH
	mov	DWORD PTR _this$[ebp], ecx

; 816  : 		: _Mybase(_Al)

	mov	eax, DWORD PTR __Al$[ebp]
	push	eax
	mov	ecx, DWORD PTR _this$[ebp]
	call	??0?$_List_alloc@U?$_List_base_types@UGraveRecord@GraveMarkers@@V?$allocator@UGraveRecord@GraveMarkers@@@std@@@std@@@std@@QAE@ABV?$allocator@UGraveRecord@GraveMarkers@@@1@@Z ; std::_List_alloc<std::_List_base_types<GraveMarkers::GraveRecord,std::allocator<GraveMarkers::GraveRecord> > >::_List_alloc<std::_List_base_types<GraveMarkers::GraveRecord,std::allocator<GraveMarkers::GraveRecord> > >

; 818  : 		}

	mov	eax, DWORD PTR _this$[ebp]
	add	esp, 4
	cmp	ebp, esp
	call	__RTC_CheckEsp
	mov	esp, ebp
	pop	ebp
	ret	4
??0?$_List_buy@UGraveRecord@GraveMarkers@@V?$allocator@UGraveRecord@GraveMarkers@@@std@@@std@@QAE@ABV?$allocator@UGraveRecord@GraveMarkers@@@1@@Z ENDP ; std::_List_buy<GraveMarkers::GraveRecord,std::allocator<GraveMarkers::GraveRecord> >::_List_buy<GraveMarkers::GraveRecord,std::allocator<GraveMarkers::GraveRecord> >
_TEXT	ENDS
; Function compile flags: /Odtp /RTCsu
;	COMDAT ??1?$_Compressed_pair@U?$_Wrap_alloc@V?$allocator@U?$_List_node@UGraveRecord@GraveMarkers@@PAX@std@@@std@@@std@@V?$_List_val@U?$_List_simple_types@UGraveRecord@GraveMarkers@@@std@@@2@$00@std@@QAE@XZ
_TEXT	SEGMENT
_this$ = -4						; size = 4
??1?$_Compressed_pair@U?$_Wrap_alloc@V?$allocator@U?$_List_node@UGraveRecord@GraveMarkers@@PAX@std@@@std@@@std@@V?$_List_val@U?$_List_simple_types@UGraveRecord@GraveMarkers@@@std@@@2@$00@std@@QAE@XZ PROC ; std::_Compressed_pair<std::_Wrap_alloc<std::allocator<std::_List_node<GraveMarkers::GraveRecord,void *> > >,std::_List_val<std::_List_simple_types<GraveMarkers::GraveRecord> >,1>::~_Compressed_pair<std::_Wrap_alloc<std::allocator<std::_List_node<GraveMarkers::GraveRecord,void *> > >,std::_List_val<std::_List_simple_types<GraveMarkers::GraveRecord> >,1>, COMDAT
; _this$ = ecx
	push	ebp
	mov	ebp, esp
	push	ecx
	mov	DWORD PTR [ebp-4], -858993460		; ccccccccH
	mov	DWORD PTR _this$[ebp], ecx
	mov	ecx, DWORD PTR _this$[ebp]
	call	??1?$_List_val@U?$_List_simple_types@UGraveRecord@GraveMarkers@@@std@@@std@@QAE@XZ
	add	esp, 4
	cmp	ebp, esp
	call	__RTC_CheckEsp
	mov	esp, ebp
	pop	ebp
	ret	0
??1?$_Compressed_pair@U?$_Wrap_alloc@V?$allocator@U?$_List_node@UGraveRecord@GraveMarkers@@PAX@std@@@std@@@std@@V?$_List_val@U?$_List_simple_types@UGraveRecord@GraveMarkers@@@std@@@2@$00@std@@QAE@XZ ENDP ; std::_Compressed_pair<std::_Wrap_alloc<std::allocator<std::_List_node<GraveMarkers::GraveRecord,void *> > >,std::_List_val<std::_List_simple_types<GraveMarkers::GraveRecord> >,1>::~_Compressed_pair<std::_Wrap_alloc<std::allocator<std::_List_node<GraveMarkers::GraveRecord,void *> > >,std::_List_val<std::_List_simple_types<GraveMarkers::GraveRecord> >,1>
_TEXT	ENDS
; Function compile flags: /Odtp /RTCsu
; File d:\microsoft visual studio 14.0\vc\include\xutility
;	COMDAT ?_Get_second@?$_Compressed_pair@U?$_Wrap_alloc@V?$allocator@U?$_List_node@UGraveRecord@GraveMarkers@@PAX@std@@@std@@@std@@V?$_List_val@U?$_List_simple_types@UGraveRecord@GraveMarkers@@@std@@@2@$00@std@@QBEABV?$_List_val@U?$_List_simple_types@UGraveRecord@GraveMarkers@@@std@@@2@XZ
_TEXT	SEGMENT
_this$ = -4						; size = 4
?_Get_second@?$_Compressed_pair@U?$_Wrap_alloc@V?$allocator@U?$_List_node@UGraveRecord@GraveMarkers@@PAX@std@@@std@@@std@@V?$_List_val@U?$_List_simple_types@UGraveRecord@GraveMarkers@@@std@@@2@$00@std@@QBEABV?$_List_val@U?$_List_simple_types@UGraveRecord@GraveMarkers@@@std@@@2@XZ PROC ; std::_Compressed_pair<std::_Wrap_alloc<std::allocator<std::_List_node<GraveMarkers::GraveRecord,void *> > >,std::_List_val<std::_List_simple_types<GraveMarkers::GraveRecord> >,1>::_Get_second, COMDAT
; _this$ = ecx

; 318  : 		{	// return const reference to second

	push	ebp
	mov	ebp, esp
	push	ecx
	mov	DWORD PTR [ebp-4], -858993460		; ccccccccH
	mov	DWORD PTR _this$[ebp], ecx

; 319  : 		return (_Myval2);

	mov	eax, DWORD PTR _this$[ebp]

; 320  : 		}

	mov	esp, ebp
	pop	ebp
	ret	0
?_Get_second@?$_Compressed_pair@U?$_Wrap_alloc@V?$allocator@U?$_List_node@UGraveRecord@GraveMarkers@@PAX@std@@@std@@@std@@V?$_List_val@U?$_List_simple_types@UGraveRecord@GraveMarkers@@@std@@@2@$00@std@@QBEABV?$_List_val@U?$_List_simple_types@UGraveRecord@GraveMarkers@@@std@@@2@XZ ENDP ; std::_Compressed_pair<std::_Wrap_alloc<std::allocator<std::_List_node<GraveMarkers::GraveRecord,void *> > >,std::_List_val<std::_List_simple_types<GraveMarkers::GraveRecord> >,1>::_Get_second
_TEXT	ENDS
; Function compile flags: /Odtp /RTCsu
; File d:\microsoft visual studio 14.0\vc\include\xutility
;	COMDAT ?_Get_second@?$_Compressed_pair@U?$_Wrap_alloc@V?$allocator@U?$_List_node@UGraveRecord@GraveMarkers@@PAX@std@@@std@@@std@@V?$_List_val@U?$_List_simple_types@UGraveRecord@GraveMarkers@@@std@@@2@$00@std@@QAEAAV?$_List_val@U?$_List_simple_types@UGraveRecord@GraveMarkers@@@std@@@2@XZ
_TEXT	SEGMENT
_this$ = -4						; size = 4
?_Get_second@?$_Compressed_pair@U?$_Wrap_alloc@V?$allocator@U?$_List_node@UGraveRecord@GraveMarkers@@PAX@std@@@std@@@std@@V?$_List_val@U?$_List_simple_types@UGraveRecord@GraveMarkers@@@std@@@2@$00@std@@QAEAAV?$_List_val@U?$_List_simple_types@UGraveRecord@GraveMarkers@@@std@@@2@XZ PROC ; std::_Compressed_pair<std::_Wrap_alloc<std::allocator<std::_List_node<GraveMarkers::GraveRecord,void *> > >,std::_List_val<std::_List_simple_types<GraveMarkers::GraveRecord> >,1>::_Get_second, COMDAT
; _this$ = ecx

; 313  : 		{	// return reference to second

	push	ebp
	mov	ebp, esp
	push	ecx
	mov	DWORD PTR [ebp-4], -858993460		; ccccccccH
	mov	DWORD PTR _this$[ebp], ecx

; 314  : 		return (_Myval2);

	mov	eax, DWORD PTR _this$[ebp]

; 315  : 		}

	mov	esp, ebp
	pop	ebp
	ret	0
?_Get_second@?$_Compressed_pair@U?$_Wrap_alloc@V?$allocator@U?$_List_node@UGraveRecord@GraveMarkers@@PAX@std@@@std@@@std@@V?$_List_val@U?$_List_simple_types@UGraveRecord@GraveMarkers@@@std@@@2@$00@std@@QAEAAV?$_List_val@U?$_List_simple_types@UGraveRecord@GraveMarkers@@@std@@@2@XZ ENDP ; std::_Compressed_pair<std::_Wrap_alloc<std::allocator<std::_List_node<GraveMarkers::GraveRecord,void *> > >,std::_List_val<std::_List_simple_types<GraveMarkers::GraveRecord> >,1>::_Get_second
_TEXT	ENDS
; Function compile flags: /Odtp /RTCsu
; File d:\microsoft visual studio 14.0\vc\include\xutility
;	COMDAT ?_Get_first@?$_Compressed_pair@U?$_Wrap_alloc@V?$allocator@U?$_List_node@UGraveRecord@GraveMarkers@@PAX@std@@@std@@@std@@V?$_List_val@U?$_List_simple_types@UGraveRecord@GraveMarkers@@@std@@@2@$00@std@@QBEABU?$_Wrap_alloc@V?$allocator@U?$_List_node@UGraveRecord@GraveMarkers@@PAX@std@@@std@@@2@XZ
_TEXT	SEGMENT
_this$ = -4						; size = 4
?_Get_first@?$_Compressed_pair@U?$_Wrap_alloc@V?$allocator@U?$_List_node@UGraveRecord@GraveMarkers@@PAX@std@@@std@@@std@@V?$_List_val@U?$_List_simple_types@UGraveRecord@GraveMarkers@@@std@@@2@$00@std@@QBEABU?$_Wrap_alloc@V?$allocator@U?$_List_node@UGraveRecord@GraveMarkers@@PAX@std@@@std@@@2@XZ PROC ; std::_Compressed_pair<std::_Wrap_alloc<std::allocator<std::_List_node<GraveMarkers::GraveRecord,void *> > >,std::_List_val<std::_List_simple_types<GraveMarkers::GraveRecord> >,1>::_Get_first, COMDAT
; _this$ = ecx

; 298  : 		{	// return const reference to first

	push	ebp
	mov	ebp, esp
	push	ecx
	mov	DWORD PTR [ebp-4], -858993460		; ccccccccH
	mov	DWORD PTR _this$[ebp], ecx

; 299  : 		return (*this);

	mov	eax, DWORD PTR _this$[ebp]

; 300  : 		}

	mov	esp, ebp
	pop	ebp
	ret	0
?_Get_first@?$_Compressed_pair@U?$_Wrap_alloc@V?$allocator@U?$_List_node@UGraveRecord@GraveMarkers@@PAX@std@@@std@@@std@@V?$_List_val@U?$_List_simple_types@UGraveRecord@GraveMarkers@@@std@@@2@$00@std@@QBEABU?$_Wrap_alloc@V?$allocator@U?$_List_node@UGraveRecord@GraveMarkers@@PAX@std@@@std@@@2@XZ ENDP ; std::_Compressed_pair<std::_Wrap_alloc<std::allocator<std::_List_node<GraveMarkers::GraveRecord,void *> > >,std::_List_val<std::_List_simple_types<GraveMarkers::GraveRecord> >,1>::_Get_first
_TEXT	ENDS
; Function compile flags: /Odtp /RTCsu
; File d:\microsoft visual studio 14.0\vc\include\xutility
;	COMDAT ?_Get_first@?$_Compressed_pair@U?$_Wrap_alloc@V?$allocator@U?$_List_node@UGraveRecord@GraveMarkers@@PAX@std@@@std@@@std@@V?$_List_val@U?$_List_simple_types@UGraveRecord@GraveMarkers@@@std@@@2@$00@std@@QAEAAU?$_Wrap_alloc@V?$allocator@U?$_List_node@UGraveRecord@GraveMarkers@@PAX@std@@@std@@@2@XZ
_TEXT	SEGMENT
_this$ = -4						; size = 4
?_Get_first@?$_Compressed_pair@U?$_Wrap_alloc@V?$allocator@U?$_List_node@UGraveRecord@GraveMarkers@@PAX@std@@@std@@@std@@V?$_List_val@U?$_List_simple_types@UGraveRecord@GraveMarkers@@@std@@@2@$00@std@@QAEAAU?$_Wrap_alloc@V?$allocator@U?$_List_node@UGraveRecord@GraveMarkers@@PAX@std@@@std@@@2@XZ PROC ; std::_Compressed_pair<std::_Wrap_alloc<std::allocator<std::_List_node<GraveMarkers::GraveRecord,void *> > >,std::_List_val<std::_List_simple_types<GraveMarkers::GraveRecord> >,1>::_Get_first, COMDAT
; _this$ = ecx

; 293  : 		{	// return reference to first

	push	ebp
	mov	ebp, esp
	push	ecx
	mov	DWORD PTR [ebp-4], -858993460		; ccccccccH
	mov	DWORD PTR _this$[ebp], ecx

; 294  : 		return (*this);

	mov	eax, DWORD PTR _this$[ebp]

; 295  : 		}

	mov	esp, ebp
	pop	ebp
	ret	0
?_Get_first@?$_Compressed_pair@U?$_Wrap_alloc@V?$allocator@U?$_List_node@UGraveRecord@GraveMarkers@@PAX@std@@@std@@@std@@V?$_List_val@U?$_List_simple_types@UGraveRecord@GraveMarkers@@@std@@@2@$00@std@@QAEAAU?$_Wrap_alloc@V?$allocator@U?$_List_node@UGraveRecord@GraveMarkers@@PAX@std@@@std@@@2@XZ ENDP ; std::_Compressed_pair<std::_Wrap_alloc<std::allocator<std::_List_node<GraveMarkers::GraveRecord,void *> > >,std::_List_val<std::_List_simple_types<GraveMarkers::GraveRecord> >,1>::_Get_first
_TEXT	ENDS
; Function compile flags: /Odtp /RTCsu
;	COMDAT ??1?$_List_val@U?$_List_simple_types@UGraveRecord@GraveMarkers@@@std@@@std@@QAE@XZ
_TEXT	SEGMENT
_this$ = -4						; size = 4
??1?$_List_val@U?$_List_simple_types@UGraveRecord@GraveMarkers@@@std@@@std@@QAE@XZ PROC ; std::_List_val<std::_List_simple_types<GraveMarkers::GraveRecord> >::~_List_val<std::_List_simple_types<GraveMarkers::GraveRecord> >, COMDAT
; _this$ = ecx
	push	ebp
	mov	ebp, esp
	push	ecx
	mov	DWORD PTR [ebp-4], -858993460		; ccccccccH
	mov	DWORD PTR _this$[ebp], ecx
	mov	ecx, DWORD PTR _this$[ebp]
	call	??1_Container_base12@std@@QAE@XZ	; std::_Container_base12::~_Container_base12
	add	esp, 4
	cmp	ebp, esp
	call	__RTC_CheckEsp
	mov	esp, ebp
	pop	ebp
	ret	0
??1?$_List_val@U?$_List_simple_types@UGraveRecord@GraveMarkers@@@std@@@std@@QAE@XZ ENDP ; std::_List_val<std::_List_simple_types<GraveMarkers::GraveRecord> >::~_List_val<std::_List_simple_types<GraveMarkers::GraveRecord> >
_TEXT	ENDS
; Function compile flags: /Odtp /RTCsu
; File d:\microsoft visual studio 14.0\vc\include\list
;	COMDAT ?_Myval@?$_List_val@U?$_List_simple_types@UGraveRecord@GraveMarkers@@@std@@@std@@SAAAUGraveRecord@GraveMarkers@@PAU?$_List_node@UGraveRecord@GraveMarkers@@PAX@2@@Z
_TEXT	SEGMENT
__Pnode$ = 8						; size = 4
?_Myval@?$_List_val@U?$_List_simple_types@UGraveRecord@GraveMarkers@@@std@@@std@@SAAAUGraveRecord@GraveMarkers@@PAU?$_List_node@UGraveRecord@GraveMarkers@@PAX@2@@Z PROC ; std::_List_val<std::_List_simple_types<GraveMarkers::GraveRecord> >::_Myval, COMDAT

; 540  : 		{	// return reference to value in node

	push	ebp
	mov	ebp, esp

; 541  : 		return ((reference)_Pnode->_Myval);

	mov	eax, DWORD PTR __Pnode$[ebp]
	add	eax, 8

; 542  : 		}

	pop	ebp
	ret	0
?_Myval@?$_List_val@U?$_List_simple_types@UGraveRecord@GraveMarkers@@@std@@@std@@SAAAUGraveRecord@GraveMarkers@@PAU?$_List_node@UGraveRecord@GraveMarkers@@PAX@2@@Z ENDP ; std::_List_val<std::_List_simple_types<GraveMarkers::GraveRecord> >::_Myval
_TEXT	ENDS
; Function compile flags: /Odtp /RTCsu
; File d:\microsoft visual studio 14.0\vc\include\list
;	COMDAT ?_Prevnode@?$_List_val@U?$_List_simple_types@UGraveRecord@GraveMarkers@@@std@@@std@@SAAAPAU?$_List_node@UGraveRecord@GraveMarkers@@PAX@2@PAU32@@Z
_TEXT	SEGMENT
__Pnode$ = 8						; size = 4
?_Prevnode@?$_List_val@U?$_List_simple_types@UGraveRecord@GraveMarkers@@@std@@@std@@SAAAPAU?$_List_node@UGraveRecord@GraveMarkers@@PAX@2@PAU32@@Z PROC ; std::_List_val<std::_List_simple_types<GraveMarkers::GraveRecord> >::_Prevnode, COMDAT

; 535  : 		{	// return reference to predecessor pointer in node

	push	ebp
	mov	ebp, esp

; 536  : 		return ((_Nodepref)_Pnode->_Prev);

	mov	eax, DWORD PTR __Pnode$[ebp]
	add	eax, 4

; 537  : 		}

	pop	ebp
	ret	0
?_Prevnode@?$_List_val@U?$_List_simple_types@UGraveRecord@GraveMarkers@@@std@@@std@@SAAAPAU?$_List_node@UGraveRecord@GraveMarkers@@PAX@2@PAU32@@Z ENDP ; std::_List_val<std::_List_simple_types<GraveMarkers::GraveRecord> >::_Prevnode
_TEXT	ENDS
; Function compile flags: /Odtp /RTCsu
; File d:\microsoft visual studio 14.0\vc\include\list
;	COMDAT ?_Nextnode@?$_List_val@U?$_List_simple_types@UGraveRecord@GraveMarkers@@@std@@@std@@SAAAPAU?$_List_node@UGraveRecord@GraveMarkers@@PAX@2@PAU32@@Z
_TEXT	SEGMENT
__Pnode$ = 8						; size = 4
?_Nextnode@?$_List_val@U?$_List_simple_types@UGraveRecord@GraveMarkers@@@std@@@std@@SAAAPAU?$_List_node@UGraveRecord@GraveMarkers@@PAX@2@PAU32@@Z PROC ; std::_List_val<std::_List_simple_types<GraveMarkers::GraveRecord> >::_Nextnode, COMDAT

; 530  : 		{	// return reference to successor pointer in node

	push	ebp
	mov	ebp, esp

; 531  : 		return ((_Nodepref)_Pnode->_Next);

	mov	eax, DWORD PTR __Pnode$[ebp]

; 532  : 		}

	pop	ebp
	ret	0
?_Nextnode@?$_List_val@U?$_List_simple_types@UGraveRecord@GraveMarkers@@@std@@@std@@SAAAPAU?$_List_node@UGraveRecord@GraveMarkers@@PAX@2@PAU32@@Z ENDP ; std::_List_val<std::_List_simple_types<GraveMarkers::GraveRecord> >::_Nextnode
_TEXT	ENDS
; Function compile flags: /Odtp /RTCsu
; File d:\microsoft visual studio 14.0\vc\include\list
;	COMDAT ??0?$_List_val@U?$_List_simple_types@UGraveRecord@GraveMarkers@@@std@@@std@@QAE@XZ
_TEXT	SEGMENT
_this$ = -4						; size = 4
??0?$_List_val@U?$_List_simple_types@UGraveRecord@GraveMarkers@@@std@@@std@@QAE@XZ PROC ; std::_List_val<std::_List_simple_types<GraveMarkers::GraveRecord> >::_List_val<std::_List_simple_types<GraveMarkers::GraveRecord> >, COMDAT
; _this$ = ecx

; 523  : 	_List_val()

	push	ebp
	mov	ebp, esp
	push	ecx
	mov	DWORD PTR [ebp-4], -858993460		; ccccccccH
	mov	DWORD PTR _this$[ebp], ecx

; 524  : 		{	// initialize data

	mov	ecx, DWORD PTR _this$[ebp]
	call	??0_Container_base12@std@@QAE@XZ	; std::_Container_base12::_Container_base12

; 525  : 		this->_Myhead = 0;

	mov	eax, DWORD PTR _this$[ebp]
	mov	DWORD PTR [eax+4], 0

; 526  : 		this->_Mysize = 0;

	mov	ecx, DWORD PTR _this$[ebp]
	mov	DWORD PTR [ecx+8], 0

; 527  : 		}

	mov	eax, DWORD PTR _this$[ebp]
	add	esp, 4
	cmp	ebp, esp
	call	__RTC_CheckEsp
	mov	esp, ebp
	pop	ebp
	ret	0
??0?$_List_val@U?$_List_simple_types@UGraveRecord@GraveMarkers@@@std@@@std@@QAE@XZ ENDP ; std::_List_val<std::_List_simple_types<GraveMarkers::GraveRecord> >::_List_val<std::_List_simple_types<GraveMarkers::GraveRecord> >
_TEXT	ENDS
; Function compile flags: /Odtp /RTCsu
; File d:\microsoft visual studio 14.0\vc\include\list
;	COMDAT ?_Mysize@?$_List_alloc@U?$_List_base_types@UGraveRecord@GraveMarkers@@V?$allocator@UGraveRecord@GraveMarkers@@@std@@@std@@@std@@QAEAAIXZ
_TEXT	SEGMENT
_this$ = -4						; size = 4
?_Mysize@?$_List_alloc@U?$_List_base_types@UGraveRecord@GraveMarkers@@V?$allocator@UGraveRecord@GraveMarkers@@@std@@@std@@@std@@QAEAAIXZ PROC ; std::_List_alloc<std::_List_base_types<GraveMarkers::GraveRecord,std::allocator<GraveMarkers::GraveRecord> > >::_Mysize, COMDAT
; _this$ = ecx

; 791  : 		{	// return reference to _Mysize

	push	ebp
	mov	ebp, esp
	push	ecx
	mov	DWORD PTR [ebp-4], -858993460		; ccccccccH
	mov	DWORD PTR _this$[ebp], ecx

; 792  : 		return (_Get_data()._Mysize);

	mov	ecx, DWORD PTR _this$[ebp]
	call	?_Get_data@?$_List_alloc@U?$_List_base_types@UGraveRecord@GraveMarkers@@V?$allocator@UGraveRecord@GraveMarkers@@@std@@@std@@@std@@QAEAAV?$_List_val@U?$_List_simple_types@UGraveRecord@GraveMarkers@@@std@@@2@XZ ; std::_List_alloc<std::_List_base_types<GraveMarkers::GraveRecord,std::allocator<GraveMarkers::GraveRecord> > >::_Get_data
	add	eax, 8

; 793  : 		}

	add	esp, 4
	cmp	ebp, esp
	call	__RTC_CheckEsp
	mov	esp, ebp
	pop	ebp
	ret	0
?_Mysize@?$_List_alloc@U?$_List_base_types@UGraveRecord@GraveMarkers@@V?$allocator@UGraveRecord@GraveMarkers@@@std@@@std@@@std@@QAEAAIXZ ENDP ; std::_List_alloc<std::_List_base_types<GraveMarkers::GraveRecord,std::allocator<GraveMarkers::GraveRecord> > >::_Mysize
_TEXT	ENDS
; Function compile flags: /Odtp /RTCsu
; File d:\microsoft visual studio 14.0\vc\include\list
;	COMDAT ?_Myhead@?$_List_alloc@U?$_List_base_types@UGraveRecord@GraveMarkers@@V?$allocator@UGraveRecord@GraveMarkers@@@std@@@std@@@std@@QAEAAPAU?$_List_node@UGraveRecord@GraveMarkers@@PAX@2@XZ
_TEXT	SEGMENT
_this$ = -4						; size = 4
?_Myhead@?$_List_alloc@U?$_List_base_types@UGraveRecord@GraveMarkers@@V?$allocator@UGraveRecord@GraveMarkers@@@std@@@std@@@std@@QAEAAPAU?$_List_node@UGraveRecord@GraveMarkers@@PAX@2@XZ PROC ; std::_List_alloc<std::_List_base_types<GraveMarkers::GraveRecord,std::allocator<GraveMarkers::GraveRecord> > >::_Myhead, COMDAT
; _this$ = ecx

; 781  : 		{	// return reference to _Myhead

	push	ebp
	mov	ebp, esp
	push	ecx
	mov	DWORD PTR [ebp-4], -858993460		; ccccccccH
	mov	DWORD PTR _this$[ebp], ecx

; 782  : 		return (_Get_data()._Myhead);

	mov	ecx, DWORD PTR _this$[ebp]
	call	?_Get_data@?$_List_alloc@U?$_List_base_types@UGraveRecord@GraveMarkers@@V?$allocator@UGraveRecord@GraveMarkers@@@std@@@std@@@std@@QAEAAV?$_List_val@U?$_List_simple_types@UGraveRecord@GraveMarkers@@@std@@@2@XZ ; std::_List_alloc<std::_List_base_types<GraveMarkers::GraveRecord,std::allocator<GraveMarkers::GraveRecord> > >::_Get_data
	add	eax, 4

; 783  : 		}

	add	esp, 4
	cmp	ebp, esp
	call	__RTC_CheckEsp
	mov	esp, ebp
	pop	ebp
	ret	0
?_Myhead@?$_List_alloc@U?$_List_base_types@UGraveRecord@GraveMarkers@@V?$allocator@UGraveRecord@GraveMarkers@@@std@@@std@@@std@@QAEAAPAU?$_List_node@UGraveRecord@GraveMarkers@@PAX@2@XZ ENDP ; std::_List_alloc<std::_List_base_types<GraveMarkers::GraveRecord,std::allocator<GraveMarkers::GraveRecord> > >::_Myhead
_TEXT	ENDS
; Function compile flags: /Odtp /RTCsu
; File d:\microsoft visual studio 14.0\vc\include\list
;	COMDAT ?_Get_data@?$_List_alloc@U?$_List_base_types@UGraveRecord@GraveMarkers@@V?$allocator@UGraveRecord@GraveMarkers@@@std@@@std@@@std@@QBEABV?$_List_val@U?$_List_simple_types@UGraveRecord@GraveMarkers@@@std@@@2@XZ
_TEXT	SEGMENT
_this$ = -4						; size = 4
?_Get_data@?$_List_alloc@U?$_List_base_types@UGraveRecord@GraveMarkers@@V?$allocator@UGraveRecord@GraveMarkers@@@std@@@std@@@std@@QBEABV?$_List_val@U?$_List_simple_types@UGraveRecord@GraveMarkers@@@std@@@2@XZ PROC ; std::_List_alloc<std::_List_base_types<GraveMarkers::GraveRecord,std::allocator<GraveMarkers::GraveRecord> > >::_Get_data, COMDAT
; _this$ = ecx

; 776  : 		{	// return const reference to _List_val

	push	ebp
	mov	ebp, esp
	push	ecx
	mov	DWORD PTR [ebp-4], -858993460		; ccccccccH
	mov	DWORD PTR _this$[ebp], ecx

; 777  : 		return (_Mypair._Get_second());

	mov	ecx, DWORD PTR _this$[ebp]
	call	?_Get_second@?$_Compressed_pair@U?$_Wrap_alloc@V?$allocator@U?$_List_node@UGraveRecord@GraveMarkers@@PAX@std@@@std@@@std@@V?$_List_val@U?$_List_simple_types@UGraveRecord@GraveMarkers@@@std@@@2@$00@std@@QBEABV?$_List_val@U?$_List_simple_types@UGraveRecord@GraveMarkers@@@std@@@2@XZ ; std::_Compressed_pair<std::_Wrap_alloc<std::allocator<std::_List_node<GraveMarkers::GraveRecord,void *> > >,std::_List_val<std::_List_simple_types<GraveMarkers::GraveRecord> >,1>::_Get_second

; 778  : 		}

	add	esp, 4
	cmp	ebp, esp
	call	__RTC_CheckEsp
	mov	esp, ebp
	pop	ebp
	ret	0
?_Get_data@?$_List_alloc@U?$_List_base_types@UGraveRecord@GraveMarkers@@V?$allocator@UGraveRecord@GraveMarkers@@@std@@@std@@@std@@QBEABV?$_List_val@U?$_List_simple_types@UGraveRecord@GraveMarkers@@@std@@@2@XZ ENDP ; std::_List_alloc<std::_List_base_types<GraveMarkers::GraveRecord,std::allocator<GraveMarkers::GraveRecord> > >::_Get_data
_TEXT	ENDS
; Function compile flags: /Odtp /RTCsu
; File d:\microsoft visual studio 14.0\vc\include\list
;	COMDAT ?_Get_data@?$_List_alloc@U?$_List_base_types@UGraveRecord@GraveMarkers@@V?$allocator@UGraveRecord@GraveMarkers@@@std@@@std@@@std@@QAEAAV?$_List_val@U?$_List_simple_types@UGraveRecord@GraveMarkers@@@std@@@2@XZ
_TEXT	SEGMENT
_this$ = -4						; size = 4
?_Get_data@?$_List_alloc@U?$_List_base_types@UGraveRecord@GraveMarkers@@V?$allocator@UGraveRecord@GraveMarkers@@@std@@@std@@@std@@QAEAAV?$_List_val@U?$_List_simple_types@UGraveRecord@GraveMarkers@@@std@@@2@XZ PROC ; std::_List_alloc<std::_List_base_types<GraveMarkers::GraveRecord,std::allocator<GraveMarkers::GraveRecord> > >::_Get_data, COMDAT
; _this$ = ecx

; 771  : 		{	// return reference to _List_val

	push	ebp
	mov	ebp, esp
	push	ecx
	mov	DWORD PTR [ebp-4], -858993460		; ccccccccH
	mov	DWORD PTR _this$[ebp], ecx

; 772  : 		return (_Mypair._Get_second());

	mov	ecx, DWORD PTR _this$[ebp]
	call	?_Get_second@?$_Compressed_pair@U?$_Wrap_alloc@V?$allocator@U?$_List_node@UGraveRecord@GraveMarkers@@PAX@std@@@std@@@std@@V?$_List_val@U?$_List_simple_types@UGraveRecord@GraveMarkers@@@std@@@2@$00@std@@QAEAAV?$_List_val@U?$_List_simple_types@UGraveRecord@GraveMarkers@@@std@@@2@XZ ; std::_Compressed_pair<std::_Wrap_alloc<std::allocator<std::_List_node<GraveMarkers::GraveRecord,void *> > >,std::_List_val<std::_List_simple_types<GraveMarkers::GraveRecord> >,1>::_Get_second

; 773  : 		}

	add	esp, 4
	cmp	ebp, esp
	call	__RTC_CheckEsp
	mov	esp, ebp
	pop	ebp
	ret	0
?_Get_data@?$_List_alloc@U?$_List_base_types@UGraveRecord@GraveMarkers@@V?$allocator@UGraveRecord@GraveMarkers@@@std@@@std@@@std@@QAEAAV?$_List_val@U?$_List_simple_types@UGraveRecord@GraveMarkers@@@std@@@2@XZ ENDP ; std::_List_alloc<std::_List_base_types<GraveMarkers::GraveRecord,std::allocator<GraveMarkers::GraveRecord> > >::_Get_data
_TEXT	ENDS
; Function compile flags: /Odtp /RTCsu
; File d:\microsoft visual studio 14.0\vc\include\list
;	COMDAT ?_Getal@?$_List_alloc@U?$_List_base_types@UGraveRecord@GraveMarkers@@V?$allocator@UGraveRecord@GraveMarkers@@@std@@@std@@@std@@QBEABU?$_Wrap_alloc@V?$allocator@U?$_List_node@UGraveRecord@GraveMarkers@@PAX@std@@@std@@@2@XZ
_TEXT	SEGMENT
_this$ = -4						; size = 4
?_Getal@?$_List_alloc@U?$_List_base_types@UGraveRecord@GraveMarkers@@V?$allocator@UGraveRecord@GraveMarkers@@@std@@@std@@@std@@QBEABU?$_Wrap_alloc@V?$allocator@U?$_List_node@UGraveRecord@GraveMarkers@@PAX@std@@@std@@@2@XZ PROC ; std::_List_alloc<std::_List_base_types<GraveMarkers::GraveRecord,std::allocator<GraveMarkers::GraveRecord> > >::_Getal, COMDAT
; _this$ = ecx

; 766  : 		{	// return const reference to allocator

	push	ebp
	mov	ebp, esp
	push	ecx
	mov	DWORD PTR [ebp-4], -858993460		; ccccccccH
	mov	DWORD PTR _this$[ebp], ecx

; 767  : 		return (_Mypair._Get_first());

	mov	ecx, DWORD PTR _this$[ebp]
	call	?_Get_first@?$_Compressed_pair@U?$_Wrap_alloc@V?$allocator@U?$_List_node@UGraveRecord@GraveMarkers@@PAX@std@@@std@@@std@@V?$_List_val@U?$_List_simple_types@UGraveRecord@GraveMarkers@@@std@@@2@$00@std@@QBEABU?$_Wrap_alloc@V?$allocator@U?$_List_node@UGraveRecord@GraveMarkers@@PAX@std@@@std@@@2@XZ ; std::_Compressed_pair<std::_Wrap_alloc<std::allocator<std::_List_node<GraveMarkers::GraveRecord,void *> > >,std::_List_val<std::_List_simple_types<GraveMarkers::GraveRecord> >,1>::_Get_first

; 768  : 		}

	add	esp, 4
	cmp	ebp, esp
	call	__RTC_CheckEsp
	mov	esp, ebp
	pop	ebp
	ret	0
?_Getal@?$_List_alloc@U?$_List_base_types@UGraveRecord@GraveMarkers@@V?$allocator@UGraveRecord@GraveMarkers@@@std@@@std@@@std@@QBEABU?$_Wrap_alloc@V?$allocator@U?$_List_node@UGraveRecord@GraveMarkers@@PAX@std@@@std@@@2@XZ ENDP ; std::_List_alloc<std::_List_base_types<GraveMarkers::GraveRecord,std::allocator<GraveMarkers::GraveRecord> > >::_Getal
_TEXT	ENDS
; Function compile flags: /Odtp /RTCsu
; File d:\microsoft visual studio 14.0\vc\include\list
;	COMDAT ?_Getal@?$_List_alloc@U?$_List_base_types@UGraveRecord@GraveMarkers@@V?$allocator@UGraveRecord@GraveMarkers@@@std@@@std@@@std@@QAEAAU?$_Wrap_alloc@V?$allocator@U?$_List_node@UGraveRecord@GraveMarkers@@PAX@std@@@std@@@2@XZ
_TEXT	SEGMENT
_this$ = -4						; size = 4
?_Getal@?$_List_alloc@U?$_List_base_types@UGraveRecord@GraveMarkers@@V?$allocator@UGraveRecord@GraveMarkers@@@std@@@std@@@std@@QAEAAU?$_Wrap_alloc@V?$allocator@U?$_List_node@UGraveRecord@GraveMarkers@@PAX@std@@@std@@@2@XZ PROC ; std::_List_alloc<std::_List_base_types<GraveMarkers::GraveRecord,std::allocator<GraveMarkers::GraveRecord> > >::_Getal, COMDAT
; _this$ = ecx

; 761  : 		{	// return reference to allocator

	push	ebp
	mov	ebp, esp
	push	ecx
	mov	DWORD PTR [ebp-4], -858993460		; ccccccccH
	mov	DWORD PTR _this$[ebp], ecx

; 762  : 		return (_Mypair._Get_first());

	mov	ecx, DWORD PTR _this$[ebp]
	call	?_Get_first@?$_Compressed_pair@U?$_Wrap_alloc@V?$allocator@U?$_List_node@UGraveRecord@GraveMarkers@@PAX@std@@@std@@@std@@V?$_List_val@U?$_List_simple_types@UGraveRecord@GraveMarkers@@@std@@@2@$00@std@@QAEAAU?$_Wrap_alloc@V?$allocator@U?$_List_node@UGraveRecord@GraveMarkers@@PAX@std@@@std@@@2@XZ ; std::_Compressed_pair<std::_Wrap_alloc<std::allocator<std::_List_node<GraveMarkers::GraveRecord,void *> > >,std::_List_val<std::_List_simple_types<GraveMarkers::GraveRecord> >,1>::_Get_first

; 763  : 		}

	add	esp, 4
	cmp	ebp, esp
	call	__RTC_CheckEsp
	mov	esp, ebp
	pop	ebp
	ret	0
?_Getal@?$_List_alloc@U?$_List_base_types@UGraveRecord@GraveMarkers@@V?$allocator@UGraveRecord@GraveMarkers@@@std@@@std@@@std@@QAEAAU?$_Wrap_alloc@V?$allocator@U?$_List_node@UGraveRecord@GraveMarkers@@PAX@std@@@std@@@2@XZ ENDP ; std::_List_alloc<std::_List_base_types<GraveMarkers::GraveRecord,std::allocator<GraveMarkers::GraveRecord> > >::_Getal
_TEXT	ENDS
; Function compile flags: /Odtp /RTCsu
; File d:\microsoft visual studio 14.0\vc\include\list
;	COMDAT ?_Orphan_all@?$_List_alloc@U?$_List_base_types@UGraveRecord@GraveMarkers@@V?$allocator@UGraveRecord@GraveMarkers@@@std@@@std@@@std@@QAEXXZ
_TEXT	SEGMENT
_this$ = -4						; size = 4
?_Orphan_all@?$_List_alloc@U?$_List_base_types@UGraveRecord@GraveMarkers@@V?$allocator@UGraveRecord@GraveMarkers@@@std@@@std@@@std@@QAEXXZ PROC ; std::_List_alloc<std::_List_base_types<GraveMarkers::GraveRecord,std::allocator<GraveMarkers::GraveRecord> > >::_Orphan_all, COMDAT
; _this$ = ecx

; 751  : 		{	// orphan all iterators

	push	ebp
	mov	ebp, esp
	push	ecx
	mov	DWORD PTR [ebp-4], -858993460		; ccccccccH
	mov	DWORD PTR _this$[ebp], ecx

; 752  : 		_Get_data()._Orphan_all();

	mov	ecx, DWORD PTR _this$[ebp]
	call	?_Get_data@?$_List_alloc@U?$_List_base_types@UGraveRecord@GraveMarkers@@V?$allocator@UGraveRecord@GraveMarkers@@@std@@@std@@@std@@QAEAAV?$_List_val@U?$_List_simple_types@UGraveRecord@GraveMarkers@@@std@@@2@XZ ; std::_List_alloc<std::_List_base_types<GraveMarkers::GraveRecord,std::allocator<GraveMarkers::GraveRecord> > >::_Get_data
	mov	ecx, eax
	call	?_Orphan_all@_Container_base12@std@@QAEXXZ ; std::_Container_base12::_Orphan_all

; 753  : 		}

	add	esp, 4
	cmp	ebp, esp
	call	__RTC_CheckEsp
	mov	esp, ebp
	pop	ebp
	ret	0
?_Orphan_all@?$_List_alloc@U?$_List_base_types@UGraveRecord@GraveMarkers@@V?$allocator@UGraveRecord@GraveMarkers@@@std@@@std@@@std@@QAEXXZ ENDP ; std::_List_alloc<std::_List_base_types<GraveMarkers::GraveRecord,std::allocator<GraveMarkers::GraveRecord> > >::_Orphan_all
_TEXT	ENDS
; Function compile flags: /Odtp /RTCsu
; File d:\microsoft visual studio 14.0\vc\include\list
;	COMDAT ?_Buynode0@?$_List_alloc@U?$_List_base_types@UGraveRecord@GraveMarkers@@V?$allocator@UGraveRecord@GraveMarkers@@@std@@@std@@@std@@QAEPAU?$_List_node@UGraveRecord@GraveMarkers@@PAX@2@PAU32@0@Z
_TEXT	SEGMENT
tv132 = -32						; size = 4
tv131 = -28						; size = 4
__Pnode$ = -24						; size = 4
_this$ = -20						; size = 4
__$EHRec$ = -16						; size = 16
__Next$ = 8						; size = 4
__Prev$ = 12						; size = 4
?_Buynode0@?$_List_alloc@U?$_List_base_types@UGraveRecord@GraveMarkers@@V?$allocator@UGraveRecord@GraveMarkers@@@std@@@std@@@std@@QAEPAU?$_List_node@UGraveRecord@GraveMarkers@@PAX@2@PAU32@0@Z PROC ; std::_List_alloc<std::_List_base_types<GraveMarkers::GraveRecord,std::allocator<GraveMarkers::GraveRecord> > >::_Buynode0, COMDAT
; _this$ = ecx

; 729  : 		{	// allocate a node and set links

	push	ebp
	mov	ebp, esp
	push	-1
	push	__ehhandler$?_Buynode0@?$_List_alloc@U?$_List_base_types@UGraveRecord@GraveMarkers@@V?$allocator@UGraveRecord@GraveMarkers@@@std@@@std@@@std@@QAEPAU?$_List_node@UGraveRecord@GraveMarkers@@PAX@2@PAU32@0@Z
	mov	eax, DWORD PTR fs:0
	push	eax
	push	ecx
	sub	esp, 16					; 00000010H
	push	ebx
	push	esi
	push	edi
	mov	eax, -858993460				; ccccccccH
	mov	DWORD PTR [ebp-32], eax
	mov	DWORD PTR [ebp-28], eax
	mov	DWORD PTR [ebp-24], eax
	mov	DWORD PTR [ebp-20], eax
	mov	eax, DWORD PTR ___security_cookie
	xor	eax, ebp
	push	eax
	lea	eax, DWORD PTR __$EHRec$[ebp+4]
	mov	DWORD PTR fs:0, eax
	mov	DWORD PTR __$EHRec$[ebp], esp
	mov	DWORD PTR _this$[ebp], ecx

; 730  : 		_Nodeptr _Pnode = _Getal().allocate(1);

	push	1
	mov	ecx, DWORD PTR _this$[ebp]
	call	?_Getal@?$_List_alloc@U?$_List_base_types@UGraveRecord@GraveMarkers@@V?$allocator@UGraveRecord@GraveMarkers@@@std@@@std@@@std@@QAEAAU?$_Wrap_alloc@V?$allocator@U?$_List_node@UGraveRecord@GraveMarkers@@PAX@std@@@std@@@2@XZ ; std::_List_alloc<std::_List_base_types<GraveMarkers::GraveRecord,std::allocator<GraveMarkers::GraveRecord> > >::_Getal
	mov	ecx, eax
	call	?allocate@?$_Wrap_alloc@V?$allocator@U?$_List_node@UGraveRecord@GraveMarkers@@PAX@std@@@std@@@std@@QAEPAU?$_List_node@UGraveRecord@GraveMarkers@@PAX@2@I@Z ; std::_Wrap_alloc<std::allocator<std::_List_node<GraveMarkers::GraveRecord,void *> > >::allocate
	mov	DWORD PTR __Pnode$[ebp], eax

; 731  : 
; 732  : 		if (_Next == _Nodeptr())

	cmp	DWORD PTR __Next$[ebp], 0
	jne	SHORT $LN2@Buynode0

; 733  : 			{	// point at self
; 734  : 			_Next = _Pnode;

	mov	eax, DWORD PTR __Pnode$[ebp]
	mov	DWORD PTR __Next$[ebp], eax

; 735  : 			_Prev = _Pnode;

	mov	ecx, DWORD PTR __Pnode$[ebp]
	mov	DWORD PTR __Prev$[ebp], ecx
$LN2@Buynode0:

; 736  : 			}
; 737  : 		_TRY_BEGIN

	mov	DWORD PTR __$EHRec$[ebp+12], 0

; 738  : 		_Getal().construct(

	mov	edx, DWORD PTR __Pnode$[ebp]
	push	edx
	call	?_Nextnode@?$_List_alloc@U?$_List_base_types@UGraveRecord@GraveMarkers@@V?$allocator@UGraveRecord@GraveMarkers@@@std@@@std@@@std@@SAAAPAU?$_List_node@UGraveRecord@GraveMarkers@@PAX@2@PAU32@@Z ; std::_List_alloc<std::_List_base_types<GraveMarkers::GraveRecord,std::allocator<GraveMarkers::GraveRecord> > >::_Nextnode
	add	esp, 4
	mov	DWORD PTR tv131[ebp], eax
	lea	eax, DWORD PTR __Next$[ebp]
	push	eax
	mov	ecx, DWORD PTR tv131[ebp]
	push	ecx
	call	??$addressof@PAU?$_List_node@UGraveRecord@GraveMarkers@@PAX@std@@@std@@YAPAPAU?$_List_node@UGraveRecord@GraveMarkers@@PAX@0@AAPAU10@@Z ; std::addressof<std::_List_node<GraveMarkers::GraveRecord,void *> *>
	add	esp, 4
	push	eax
	mov	ecx, DWORD PTR _this$[ebp]
	call	?_Getal@?$_List_alloc@U?$_List_base_types@UGraveRecord@GraveMarkers@@V?$allocator@UGraveRecord@GraveMarkers@@@std@@@std@@@std@@QAEAAU?$_Wrap_alloc@V?$allocator@U?$_List_node@UGraveRecord@GraveMarkers@@PAX@std@@@std@@@2@XZ ; std::_List_alloc<std::_List_base_types<GraveMarkers::GraveRecord,std::allocator<GraveMarkers::GraveRecord> > >::_Getal
	mov	ecx, eax
	call	??$construct@PAU?$_List_node@UGraveRecord@GraveMarkers@@PAX@std@@AAPAU12@@?$_Wrap_alloc@V?$allocator@U?$_List_node@UGraveRecord@GraveMarkers@@PAX@std@@@std@@@std@@QAEXPAPAU?$_List_node@UGraveRecord@GraveMarkers@@PAX@1@AAPAU21@@Z ; std::_Wrap_alloc<std::allocator<std::_List_node<GraveMarkers::GraveRecord,void *> > >::construct<std::_List_node<GraveMarkers::GraveRecord,void *> *,std::_List_node<GraveMarkers::GraveRecord,void *> * &>

; 739  : 			_STD addressof(_Nextnode(_Pnode)), _Next);
; 740  : 		_Getal().construct(

	mov	edx, DWORD PTR __Pnode$[ebp]
	push	edx
	call	?_Prevnode@?$_List_alloc@U?$_List_base_types@UGraveRecord@GraveMarkers@@V?$allocator@UGraveRecord@GraveMarkers@@@std@@@std@@@std@@SAAAPAU?$_List_node@UGraveRecord@GraveMarkers@@PAX@2@PAU32@@Z ; std::_List_alloc<std::_List_base_types<GraveMarkers::GraveRecord,std::allocator<GraveMarkers::GraveRecord> > >::_Prevnode
	add	esp, 4
	mov	DWORD PTR tv132[ebp], eax
	lea	eax, DWORD PTR __Prev$[ebp]
	push	eax
	mov	ecx, DWORD PTR tv132[ebp]
	push	ecx
	call	??$addressof@PAU?$_List_node@UGraveRecord@GraveMarkers@@PAX@std@@@std@@YAPAPAU?$_List_node@UGraveRecord@GraveMarkers@@PAX@0@AAPAU10@@Z ; std::addressof<std::_List_node<GraveMarkers::GraveRecord,void *> *>
	add	esp, 4
	push	eax
	mov	ecx, DWORD PTR _this$[ebp]
	call	?_Getal@?$_List_alloc@U?$_List_base_types@UGraveRecord@GraveMarkers@@V?$allocator@UGraveRecord@GraveMarkers@@@std@@@std@@@std@@QAEAAU?$_Wrap_alloc@V?$allocator@U?$_List_node@UGraveRecord@GraveMarkers@@PAX@std@@@std@@@2@XZ ; std::_List_alloc<std::_List_base_types<GraveMarkers::GraveRecord,std::allocator<GraveMarkers::GraveRecord> > >::_Getal
	mov	ecx, eax
	call	??$construct@PAU?$_List_node@UGraveRecord@GraveMarkers@@PAX@std@@AAPAU12@@?$_Wrap_alloc@V?$allocator@U?$_List_node@UGraveRecord@GraveMarkers@@PAX@std@@@std@@@std@@QAEXPAPAU?$_List_node@UGraveRecord@GraveMarkers@@PAX@1@AAPAU21@@Z ; std::_Wrap_alloc<std::allocator<std::_List_node<GraveMarkers::GraveRecord,void *> > >::construct<std::_List_node<GraveMarkers::GraveRecord,void *> *,std::_List_node<GraveMarkers::GraveRecord,void *> * &>
	jmp	SHORT $LN5@Buynode0
__catch$?_Buynode0@?$_List_alloc@U?$_List_base_types@UGraveRecord@GraveMarkers@@V?$allocator@UGraveRecord@GraveMarkers@@@std@@@std@@@std@@QAEPAU?$_List_node@UGraveRecord@GraveMarkers@@PAX@2@PAU32@0@Z$0:

; 741  : 			_STD addressof(_Prevnode(_Pnode)), _Prev);
; 742  : 		_CATCH_ALL
; 743  : 		_Getal().deallocate(_Pnode, 1);

	push	1
	mov	edx, DWORD PTR __Pnode$[ebp]
	push	edx
	mov	ecx, DWORD PTR _this$[ebp]
	call	?_Getal@?$_List_alloc@U?$_List_base_types@UGraveRecord@GraveMarkers@@V?$allocator@UGraveRecord@GraveMarkers@@@std@@@std@@@std@@QAEAAU?$_Wrap_alloc@V?$allocator@U?$_List_node@UGraveRecord@GraveMarkers@@PAX@std@@@std@@@2@XZ ; std::_List_alloc<std::_List_base_types<GraveMarkers::GraveRecord,std::allocator<GraveMarkers::GraveRecord> > >::_Getal
	mov	ecx, eax
	call	?deallocate@?$_Wrap_alloc@V?$allocator@U?$_List_node@UGraveRecord@GraveMarkers@@PAX@std@@@std@@@std@@QAEXPAU?$_List_node@UGraveRecord@GraveMarkers@@PAX@2@I@Z ; std::_Wrap_alloc<std::allocator<std::_List_node<GraveMarkers::GraveRecord,void *> > >::deallocate

; 744  : 		_RERAISE;

	push	0
	push	0
	call	__CxxThrowException@8

; 745  : 		_CATCH_END

	mov	eax, $LN8@Buynode0
	ret	0
$LN5@Buynode0:
	mov	DWORD PTR __$EHRec$[ebp+12], -1
	jmp	SHORT __tryend$?_Buynode0@?$_List_alloc@U?$_List_base_types@UGraveRecord@GraveMarkers@@V?$allocator@UGraveRecord@GraveMarkers@@@std@@@std@@@std@@QAEPAU?$_List_node@UGraveRecord@GraveMarkers@@PAX@2@PAU32@0@Z$1
$LN8@Buynode0:
	mov	DWORD PTR __$EHRec$[ebp+12], -1
__tryend$?_Buynode0@?$_List_alloc@U?$_List_base_types@UGraveRecord@GraveMarkers@@V?$allocator@UGraveRecord@GraveMarkers@@@std@@@std@@@std@@QAEPAU?$_List_node@UGraveRecord@GraveMarkers@@PAX@2@PAU32@0@Z$1:

; 746  : 
; 747  : 		return (_Pnode);

	mov	eax, DWORD PTR __Pnode$[ebp]
$LN4@Buynode0:

; 748  : 		}

	mov	ecx, DWORD PTR __$EHRec$[ebp+4]
	mov	DWORD PTR fs:0, ecx
	pop	ecx
	pop	edi
	pop	esi
	pop	ebx
	add	esp, 32					; 00000020H
	cmp	ebp, esp
	call	__RTC_CheckEsp
	mov	esp, ebp
	pop	ebp
	ret	8
_TEXT	ENDS
;	COMDAT text$x
text$x	SEGMENT
__ehhandler$?_Buynode0@?$_List_alloc@U?$_List_base_types@UGraveRecord@GraveMarkers@@V?$allocator@UGraveRecord@GraveMarkers@@@std@@@std@@@std@@QAEPAU?$_List_node@UGraveRecord@GraveMarkers@@PAX@2@PAU32@0@Z:
	mov	edx, DWORD PTR [esp+8]
	lea	eax, DWORD PTR [edx+12]
	mov	ecx, DWORD PTR [edx-36]
	xor	ecx, eax
	call	@__security_check_cookie@4
	mov	eax, OFFSET __ehfuncinfo$?_Buynode0@?$_List_alloc@U?$_List_base_types@UGraveRecord@GraveMarkers@@V?$allocator@UGraveRecord@GraveMarkers@@@std@@@std@@@std@@QAEPAU?$_List_node@UGraveRecord@GraveMarkers@@PAX@2@PAU32@0@Z
	jmp	___CxxFrameHandler3
text$x	ENDS
?_Buynode0@?$_List_alloc@U?$_List_base_types@UGraveRecord@GraveMarkers@@V?$allocator@UGraveRecord@GraveMarkers@@@std@@@std@@@std@@QAEPAU?$_List_node@UGraveRecord@GraveMarkers@@PAX@2@PAU32@0@Z ENDP ; std::_List_alloc<std::_List_base_types<GraveMarkers::GraveRecord,std::allocator<GraveMarkers::GraveRecord> > >::_Buynode0
; Function compile flags: /Odtp /RTCsu
; File d:\microsoft visual studio 14.0\vc\include\list
;	COMDAT ?_Freeheadnode@?$_List_alloc@U?$_List_base_types@UGraveRecord@GraveMarkers@@V?$allocator@UGraveRecord@GraveMarkers@@@std@@@std@@@std@@QAEXPAU?$_List_node@UGraveRecord@GraveMarkers@@PAX@2@@Z
_TEXT	SEGMENT
_this$ = -4						; size = 4
__Pnode$ = 8						; size = 4
?_Freeheadnode@?$_List_alloc@U?$_List_base_types@UGraveRecord@GraveMarkers@@V?$allocator@UGraveRecord@GraveMarkers@@@std@@@std@@@std@@QAEXPAU?$_List_node@UGraveRecord@GraveMarkers@@PAX@2@@Z PROC ; std::_List_alloc<std::_List_base_types<GraveMarkers::GraveRecord,std::allocator<GraveMarkers::GraveRecord> > >::_Freeheadnode, COMDAT
; _this$ = ecx

; 719  : 		{	// free head node using current allocator

	push	ebp
	mov	ebp, esp
	push	ecx
	mov	DWORD PTR [ebp-4], -858993460		; ccccccccH
	mov	DWORD PTR _this$[ebp], ecx

; 720  : 		_Getal().destroy(

	mov	eax, DWORD PTR __Pnode$[ebp]
	push	eax
	call	?_Nextnode@?$_List_alloc@U?$_List_base_types@UGraveRecord@GraveMarkers@@V?$allocator@UGraveRecord@GraveMarkers@@@std@@@std@@@std@@SAAAPAU?$_List_node@UGraveRecord@GraveMarkers@@PAX@2@PAU32@@Z ; std::_List_alloc<std::_List_base_types<GraveMarkers::GraveRecord,std::allocator<GraveMarkers::GraveRecord> > >::_Nextnode
	add	esp, 4
	push	eax
	call	??$addressof@PAU?$_List_node@UGraveRecord@GraveMarkers@@PAX@std@@@std@@YAPAPAU?$_List_node@UGraveRecord@GraveMarkers@@PAX@0@AAPAU10@@Z ; std::addressof<std::_List_node<GraveMarkers::GraveRecord,void *> *>
	add	esp, 4
	push	eax
	mov	ecx, DWORD PTR _this$[ebp]
	call	?_Getal@?$_List_alloc@U?$_List_base_types@UGraveRecord@GraveMarkers@@V?$allocator@UGraveRecord@GraveMarkers@@@std@@@std@@@std@@QAEAAU?$_Wrap_alloc@V?$allocator@U?$_List_node@UGraveRecord@GraveMarkers@@PAX@std@@@std@@@2@XZ ; std::_List_alloc<std::_List_base_types<GraveMarkers::GraveRecord,std::allocator<GraveMarkers::GraveRecord> > >::_Getal
	mov	ecx, eax
	call	??$destroy@PAU?$_List_node@UGraveRecord@GraveMarkers@@PAX@std@@@?$_Wrap_alloc@V?$allocator@U?$_List_node@UGraveRecord@GraveMarkers@@PAX@std@@@std@@@std@@QAEXPAPAU?$_List_node@UGraveRecord@GraveMarkers@@PAX@1@@Z ; std::_Wrap_alloc<std::allocator<std::_List_node<GraveMarkers::GraveRecord,void *> > >::destroy<std::_List_node<GraveMarkers::GraveRecord,void *> *>

; 721  : 			_STD addressof(_Nextnode(_Pnode)));
; 722  : 		_Getal().destroy(

	mov	ecx, DWORD PTR __Pnode$[ebp]
	push	ecx
	call	?_Prevnode@?$_List_alloc@U?$_List_base_types@UGraveRecord@GraveMarkers@@V?$allocator@UGraveRecord@GraveMarkers@@@std@@@std@@@std@@SAAAPAU?$_List_node@UGraveRecord@GraveMarkers@@PAX@2@PAU32@@Z ; std::_List_alloc<std::_List_base_types<GraveMarkers::GraveRecord,std::allocator<GraveMarkers::GraveRecord> > >::_Prevnode
	add	esp, 4
	push	eax
	call	??$addressof@PAU?$_List_node@UGraveRecord@GraveMarkers@@PAX@std@@@std@@YAPAPAU?$_List_node@UGraveRecord@GraveMarkers@@PAX@0@AAPAU10@@Z ; std::addressof<std::_List_node<GraveMarkers::GraveRecord,void *> *>
	add	esp, 4
	push	eax
	mov	ecx, DWORD PTR _this$[ebp]
	call	?_Getal@?$_List_alloc@U?$_List_base_types@UGraveRecord@GraveMarkers@@V?$allocator@UGraveRecord@GraveMarkers@@@std@@@std@@@std@@QAEAAU?$_Wrap_alloc@V?$allocator@U?$_List_node@UGraveRecord@GraveMarkers@@PAX@std@@@std@@@2@XZ ; std::_List_alloc<std::_List_base_types<GraveMarkers::GraveRecord,std::allocator<GraveMarkers::GraveRecord> > >::_Getal
	mov	ecx, eax
	call	??$destroy@PAU?$_List_node@UGraveRecord@GraveMarkers@@PAX@std@@@?$_Wrap_alloc@V?$allocator@U?$_List_node@UGraveRecord@GraveMarkers@@PAX@std@@@std@@@std@@QAEXPAPAU?$_List_node@UGraveRecord@GraveMarkers@@PAX@1@@Z ; std::_Wrap_alloc<std::allocator<std::_List_node<GraveMarkers::GraveRecord,void *> > >::destroy<std::_List_node<GraveMarkers::GraveRecord,void *> *>

; 723  : 			_STD addressof(_Prevnode(_Pnode)));
; 724  : 		_Getal().deallocate(_Pnode, 1);

	push	1
	mov	edx, DWORD PTR __Pnode$[ebp]
	push	edx
	mov	ecx, DWORD PTR _this$[ebp]
	call	?_Getal@?$_List_alloc@U?$_List_base_types@UGraveRecord@GraveMarkers@@V?$allocator@UGraveRecord@GraveMarkers@@@std@@@std@@@std@@QAEAAU?$_Wrap_alloc@V?$allocator@U?$_List_node@UGraveRecord@GraveMarkers@@PAX@std@@@std@@@2@XZ ; std::_List_alloc<std::_List_base_types<GraveMarkers::GraveRecord,std::allocator<GraveMarkers::GraveRecord> > >::_Getal
	mov	ecx, eax
	call	?deallocate@?$_Wrap_alloc@V?$allocator@U?$_List_node@UGraveRecord@GraveMarkers@@PAX@std@@@std@@@std@@QAEXPAU?$_List_node@UGraveRecord@GraveMarkers@@PAX@2@I@Z ; std::_Wrap_alloc<std::allocator<std::_List_node<GraveMarkers::GraveRecord,void *> > >::deallocate

; 725  : 		}

	add	esp, 4
	cmp	ebp, esp
	call	__RTC_CheckEsp
	mov	esp, ebp
	pop	ebp
	ret	4
?_Freeheadnode@?$_List_alloc@U?$_List_base_types@UGraveRecord@GraveMarkers@@V?$allocator@UGraveRecord@GraveMarkers@@@std@@@std@@@std@@QAEXPAU?$_List_node@UGraveRecord@GraveMarkers@@PAX@2@@Z ENDP ; std::_List_alloc<std::_List_base_types<GraveMarkers::GraveRecord,std::allocator<GraveMarkers::GraveRecord> > >::_Freeheadnode
_TEXT	ENDS
; Function compile flags: /Odtp /RTCsu
; File d:\microsoft visual studio 14.0\vc\include\list
;	COMDAT ?_Buyheadnode@?$_List_alloc@U?$_List_base_types@UGraveRecord@GraveMarkers@@V?$allocator@UGraveRecord@GraveMarkers@@@std@@@std@@@std@@QAEPAU?$_List_node@UGraveRecord@GraveMarkers@@PAX@2@XZ
_TEXT	SEGMENT
_this$ = -4						; size = 4
?_Buyheadnode@?$_List_alloc@U?$_List_base_types@UGraveRecord@GraveMarkers@@V?$allocator@UGraveRecord@GraveMarkers@@@std@@@std@@@std@@QAEPAU?$_List_node@UGraveRecord@GraveMarkers@@PAX@2@XZ PROC ; std::_List_alloc<std::_List_base_types<GraveMarkers::GraveRecord,std::allocator<GraveMarkers::GraveRecord> > >::_Buyheadnode, COMDAT
; _this$ = ecx

; 714  : 		{	// get head node using current allocator

	push	ebp
	mov	ebp, esp
	push	ecx
	mov	DWORD PTR [ebp-4], -858993460		; ccccccccH
	mov	DWORD PTR _this$[ebp], ecx

; 715  : 		return (_Buynode0(_Nodeptr(), _Nodeptr()));

	push	0
	push	0
	mov	ecx, DWORD PTR _this$[ebp]
	call	?_Buynode0@?$_List_alloc@U?$_List_base_types@UGraveRecord@GraveMarkers@@V?$allocator@UGraveRecord@GraveMarkers@@@std@@@std@@@std@@QAEPAU?$_List_node@UGraveRecord@GraveMarkers@@PAX@2@PAU32@0@Z ; std::_List_alloc<std::_List_base_types<GraveMarkers::GraveRecord,std::allocator<GraveMarkers::GraveRecord> > >::_Buynode0

; 716  : 		}

	add	esp, 4
	cmp	ebp, esp
	call	__RTC_CheckEsp
	mov	esp, ebp
	pop	ebp
	ret	0
?_Buyheadnode@?$_List_alloc@U?$_List_base_types@UGraveRecord@GraveMarkers@@V?$allocator@UGraveRecord@GraveMarkers@@@std@@@std@@@std@@QAEPAU?$_List_node@UGraveRecord@GraveMarkers@@PAX@2@XZ ENDP ; std::_List_alloc<std::_List_base_types<GraveMarkers::GraveRecord,std::allocator<GraveMarkers::GraveRecord> > >::_Buyheadnode
_TEXT	ENDS
; Function compile flags: /Odtp /RTCsu
; File d:\microsoft visual studio 14.0\vc\include\list
;	COMDAT ?_Myproxy@?$_List_alloc@U?$_List_base_types@UGraveRecord@GraveMarkers@@V?$allocator@UGraveRecord@GraveMarkers@@@std@@@std@@@std@@QAEAAPAU_Container_proxy@2@XZ
_TEXT	SEGMENT
_this$ = -4						; size = 4
?_Myproxy@?$_List_alloc@U?$_List_base_types@UGraveRecord@GraveMarkers@@V?$allocator@UGraveRecord@GraveMarkers@@@std@@@std@@@std@@QAEAAPAU_Container_proxy@2@XZ PROC ; std::_List_alloc<std::_List_base_types<GraveMarkers::GraveRecord,std::allocator<GraveMarkers::GraveRecord> > >::_Myproxy, COMDAT
; _this$ = ecx

; 703  : 		{	// return reference to _Myproxy

	push	ebp
	mov	ebp, esp
	push	ecx
	mov	DWORD PTR [ebp-4], -858993460		; ccccccccH
	mov	DWORD PTR _this$[ebp], ecx

; 704  : 		return (_Get_data()._Myproxy);

	mov	ecx, DWORD PTR _this$[ebp]
	call	?_Get_data@?$_List_alloc@U?$_List_base_types@UGraveRecord@GraveMarkers@@V?$allocator@UGraveRecord@GraveMarkers@@@std@@@std@@@std@@QAEAAV?$_List_val@U?$_List_simple_types@UGraveRecord@GraveMarkers@@@std@@@2@XZ ; std::_List_alloc<std::_List_base_types<GraveMarkers::GraveRecord,std::allocator<GraveMarkers::GraveRecord> > >::_Get_data

; 705  : 		}

	add	esp, 4
	cmp	ebp, esp
	call	__RTC_CheckEsp
	mov	esp, ebp
	pop	ebp
	ret	0
?_Myproxy@?$_List_alloc@U?$_List_base_types@UGraveRecord@GraveMarkers@@V?$allocator@UGraveRecord@GraveMarkers@@@std@@@std@@@std@@QAEAAPAU_Container_proxy@2@XZ ENDP ; std::_List_alloc<std::_List_base_types<GraveMarkers::GraveRecord,std::allocator<GraveMarkers::GraveRecord> > >::_Myproxy
_TEXT	ENDS
; Function compile flags: /Odtp /RTCsu
; File d:\microsoft visual studio 14.0\vc\include\list
;	COMDAT ?_Getpfirst@?$_List_alloc@U?$_List_base_types@UGraveRecord@GraveMarkers@@V?$allocator@UGraveRecord@GraveMarkers@@@std@@@std@@@std@@QBEPAPAU_Iterator_base12@2@XZ
_TEXT	SEGMENT
_this$ = -4						; size = 4
?_Getpfirst@?$_List_alloc@U?$_List_base_types@UGraveRecord@GraveMarkers@@V?$allocator@UGraveRecord@GraveMarkers@@@std@@@std@@@std@@QBEPAPAU_Iterator_base12@2@XZ PROC ; std::_List_alloc<std::_List_base_types<GraveMarkers::GraveRecord,std::allocator<GraveMarkers::GraveRecord> > >::_Getpfirst, COMDAT
; _this$ = ecx

; 698  : 		{	// get address of iterator chain

	push	ebp
	mov	ebp, esp
	push	ecx
	mov	DWORD PTR [ebp-4], -858993460		; ccccccccH
	mov	DWORD PTR _this$[ebp], ecx

; 699  : 		return (_Get_data()._Getpfirst());

	mov	ecx, DWORD PTR _this$[ebp]
	call	?_Get_data@?$_List_alloc@U?$_List_base_types@UGraveRecord@GraveMarkers@@V?$allocator@UGraveRecord@GraveMarkers@@@std@@@std@@@std@@QBEABV?$_List_val@U?$_List_simple_types@UGraveRecord@GraveMarkers@@@std@@@2@XZ ; std::_List_alloc<std::_List_base_types<GraveMarkers::GraveRecord,std::allocator<GraveMarkers::GraveRecord> > >::_Get_data
	mov	ecx, eax
	call	?_Getpfirst@_Container_base12@std@@QBEPAPAU_Iterator_base12@2@XZ ; std::_Container_base12::_Getpfirst

; 700  : 		}

	add	esp, 4
	cmp	ebp, esp
	call	__RTC_CheckEsp
	mov	esp, ebp
	pop	ebp
	ret	0
?_Getpfirst@?$_List_alloc@U?$_List_base_types@UGraveRecord@GraveMarkers@@V?$allocator@UGraveRecord@GraveMarkers@@@std@@@std@@@std@@QBEPAPAU_Iterator_base12@2@XZ ENDP ; std::_List_alloc<std::_List_base_types<GraveMarkers::GraveRecord,std::allocator<GraveMarkers::GraveRecord> > >::_Getpfirst
_TEXT	ENDS
; Function compile flags: /Odtp /RTCsu
; File d:\microsoft visual studio 14.0\vc\include\list
;	COMDAT ?_Free_proxy@?$_List_alloc@U?$_List_base_types@UGraveRecord@GraveMarkers@@V?$allocator@UGraveRecord@GraveMarkers@@@std@@@std@@@std@@QAEXXZ
_TEXT	SEGMENT
__Alproxy$ = -9						; size = 1
_this$ = -4						; size = 4
?_Free_proxy@?$_List_alloc@U?$_List_base_types@UGraveRecord@GraveMarkers@@V?$allocator@UGraveRecord@GraveMarkers@@@std@@@std@@@std@@QAEXXZ PROC ; std::_List_alloc<std::_List_base_types<GraveMarkers::GraveRecord,std::allocator<GraveMarkers::GraveRecord> > >::_Free_proxy, COMDAT
; _this$ = ecx

; 688  : 		{	// destroy proxy

	push	ebp
	mov	ebp, esp
	sub	esp, 16					; 00000010H
	mov	eax, -858993460				; ccccccccH
	mov	DWORD PTR [ebp-16], eax
	mov	DWORD PTR [ebp-12], eax
	mov	DWORD PTR [ebp-8], eax
	mov	DWORD PTR [ebp-4], eax
	mov	DWORD PTR _this$[ebp], ecx

; 689  : 		typename _Alty::template rebind<_Container_proxy>::other
; 690  : 			_Alproxy(_Getal());

	mov	ecx, DWORD PTR _this$[ebp]
	call	?_Getal@?$_List_alloc@U?$_List_base_types@UGraveRecord@GraveMarkers@@V?$allocator@UGraveRecord@GraveMarkers@@@std@@@std@@@std@@QAEAAU?$_Wrap_alloc@V?$allocator@U?$_List_node@UGraveRecord@GraveMarkers@@PAX@std@@@std@@@2@XZ ; std::_List_alloc<std::_List_base_types<GraveMarkers::GraveRecord,std::allocator<GraveMarkers::GraveRecord> > >::_Getal
	push	eax
	lea	ecx, DWORD PTR __Alproxy$[ebp]
	call	??$?0U?$_Wrap_alloc@V?$allocator@U?$_List_node@UGraveRecord@GraveMarkers@@PAX@std@@@std@@@std@@@?$_Wrap_alloc@V?$allocator@U_Container_proxy@std@@@std@@@std@@QAE@AAU?$_Wrap_alloc@V?$allocator@U?$_List_node@UGraveRecord@GraveMarkers@@PAX@std@@@std@@@1@@Z ; std::_Wrap_alloc<std::allocator<std::_Container_proxy> >::_Wrap_alloc<std::allocator<std::_Container_proxy> ><std::_Wrap_alloc<std::allocator<std::_List_node<GraveMarkers::GraveRecord,void *> > > >

; 691  : 		_Orphan_all();

	mov	ecx, DWORD PTR _this$[ebp]
	call	?_Orphan_all@?$_List_alloc@U?$_List_base_types@UGraveRecord@GraveMarkers@@V?$allocator@UGraveRecord@GraveMarkers@@@std@@@std@@@std@@QAEXXZ ; std::_List_alloc<std::_List_base_types<GraveMarkers::GraveRecord,std::allocator<GraveMarkers::GraveRecord> > >::_Orphan_all

; 692  : 		_Alproxy.destroy(_Myproxy());

	mov	ecx, DWORD PTR _this$[ebp]
	call	?_Myproxy@?$_List_alloc@U?$_List_base_types@UGraveRecord@GraveMarkers@@V?$allocator@UGraveRecord@GraveMarkers@@@std@@@std@@@std@@QAEAAPAU_Container_proxy@2@XZ ; std::_List_alloc<std::_List_base_types<GraveMarkers::GraveRecord,std::allocator<GraveMarkers::GraveRecord> > >::_Myproxy
	mov	eax, DWORD PTR [eax]
	push	eax
	lea	ecx, DWORD PTR __Alproxy$[ebp]
	call	??$destroy@U_Container_proxy@std@@@?$_Wrap_alloc@V?$allocator@U_Container_proxy@std@@@std@@@std@@QAEXPAU_Container_proxy@1@@Z ; std::_Wrap_alloc<std::allocator<std::_Container_proxy> >::destroy<std::_Container_proxy>

; 693  : 		_Alproxy.deallocate(_Myproxy(), 1);

	push	1
	mov	ecx, DWORD PTR _this$[ebp]
	call	?_Myproxy@?$_List_alloc@U?$_List_base_types@UGraveRecord@GraveMarkers@@V?$allocator@UGraveRecord@GraveMarkers@@@std@@@std@@@std@@QAEAAPAU_Container_proxy@2@XZ ; std::_List_alloc<std::_List_base_types<GraveMarkers::GraveRecord,std::allocator<GraveMarkers::GraveRecord> > >::_Myproxy
	mov	ecx, DWORD PTR [eax]
	push	ecx
	lea	ecx, DWORD PTR __Alproxy$[ebp]
	call	?deallocate@?$_Wrap_alloc@V?$allocator@U_Container_proxy@std@@@std@@@std@@QAEXPAU_Container_proxy@2@I@Z ; std::_Wrap_alloc<std::allocator<std::_Container_proxy> >::deallocate

; 694  : 		_Myproxy() = 0;

	mov	ecx, DWORD PTR _this$[ebp]
	call	?_Myproxy@?$_List_alloc@U?$_List_base_types@UGraveRecord@GraveMarkers@@V?$allocator@UGraveRecord@GraveMarkers@@@std@@@std@@@std@@QAEAAPAU_Container_proxy@2@XZ ; std::_List_alloc<std::_List_base_types<GraveMarkers::GraveRecord,std::allocator<GraveMarkers::GraveRecord> > >::_Myproxy
	mov	DWORD PTR [eax], 0

; 695  : 		}

	push	edx
	mov	ecx, ebp
	push	eax
	lea	edx, DWORD PTR $LN5@Free_proxy
	call	@_RTC_CheckStackVars@8
	pop	eax
	pop	edx
	add	esp, 16					; 00000010H
	cmp	ebp, esp
	call	__RTC_CheckEsp
	mov	esp, ebp
	pop	ebp
	ret	0
$LN5@Free_proxy:
	DD	1
	DD	$LN4@Free_proxy
$LN4@Free_proxy:
	DD	-9					; fffffff7H
	DD	1
	DD	$LN3@Free_proxy
$LN3@Free_proxy:
	DB	95					; 0000005fH
	DB	65					; 00000041H
	DB	108					; 0000006cH
	DB	112					; 00000070H
	DB	114					; 00000072H
	DB	111					; 0000006fH
	DB	120					; 00000078H
	DB	121					; 00000079H
	DB	0
?_Free_proxy@?$_List_alloc@U?$_List_base_types@UGraveRecord@GraveMarkers@@V?$allocator@UGraveRecord@GraveMarkers@@@std@@@std@@@std@@QAEXXZ ENDP ; std::_List_alloc<std::_List_base_types<GraveMarkers::GraveRecord,std::allocator<GraveMarkers::GraveRecord> > >::_Free_proxy
_TEXT	ENDS
; Function compile flags: /Odtp /RTCsu
; File d:\microsoft visual studio 14.0\vc\include\list
;	COMDAT ?_Alloc_proxy@?$_List_alloc@U?$_List_base_types@UGraveRecord@GraveMarkers@@V?$allocator@UGraveRecord@GraveMarkers@@@std@@@std@@@std@@QAEXXZ
_TEXT	SEGMENT
$T1 = -24						; size = 8
__Alproxy$ = -9						; size = 1
_this$ = -4						; size = 4
?_Alloc_proxy@?$_List_alloc@U?$_List_base_types@UGraveRecord@GraveMarkers@@V?$allocator@UGraveRecord@GraveMarkers@@@std@@@std@@@std@@QAEXXZ PROC ; std::_List_alloc<std::_List_base_types<GraveMarkers::GraveRecord,std::allocator<GraveMarkers::GraveRecord> > >::_Alloc_proxy, COMDAT
; _this$ = ecx

; 679  : 		{	// construct proxy

	push	ebp
	mov	ebp, esp
	sub	esp, 24					; 00000018H
	push	esi
	mov	eax, -858993460				; ccccccccH
	mov	DWORD PTR [ebp-24], eax
	mov	DWORD PTR [ebp-20], eax
	mov	DWORD PTR [ebp-16], eax
	mov	DWORD PTR [ebp-12], eax
	mov	DWORD PTR [ebp-8], eax
	mov	DWORD PTR [ebp-4], eax
	mov	DWORD PTR _this$[ebp], ecx

; 680  : 		typename _Alty::template rebind<_Container_proxy>::other
; 681  : 			_Alproxy(_Getal());

	mov	ecx, DWORD PTR _this$[ebp]
	call	?_Getal@?$_List_alloc@U?$_List_base_types@UGraveRecord@GraveMarkers@@V?$allocator@UGraveRecord@GraveMarkers@@@std@@@std@@@std@@QAEAAU?$_Wrap_alloc@V?$allocator@U?$_List_node@UGraveRecord@GraveMarkers@@PAX@std@@@std@@@2@XZ ; std::_List_alloc<std::_List_base_types<GraveMarkers::GraveRecord,std::allocator<GraveMarkers::GraveRecord> > >::_Getal
	push	eax
	lea	ecx, DWORD PTR __Alproxy$[ebp]
	call	??$?0U?$_Wrap_alloc@V?$allocator@U?$_List_node@UGraveRecord@GraveMarkers@@PAX@std@@@std@@@std@@@?$_Wrap_alloc@V?$allocator@U_Container_proxy@std@@@std@@@std@@QAE@AAU?$_Wrap_alloc@V?$allocator@U?$_List_node@UGraveRecord@GraveMarkers@@PAX@std@@@std@@@1@@Z ; std::_Wrap_alloc<std::allocator<std::_Container_proxy> >::_Wrap_alloc<std::allocator<std::_Container_proxy> ><std::_Wrap_alloc<std::allocator<std::_List_node<GraveMarkers::GraveRecord,void *> > > >

; 682  : 		_Myproxy() = _Alproxy.allocate(1);

	push	1
	lea	ecx, DWORD PTR __Alproxy$[ebp]
	call	?allocate@?$_Wrap_alloc@V?$allocator@U_Container_proxy@std@@@std@@@std@@QAEPAU_Container_proxy@2@I@Z ; std::_Wrap_alloc<std::allocator<std::_Container_proxy> >::allocate
	mov	esi, eax
	mov	ecx, DWORD PTR _this$[ebp]
	call	?_Myproxy@?$_List_alloc@U?$_List_base_types@UGraveRecord@GraveMarkers@@V?$allocator@UGraveRecord@GraveMarkers@@@std@@@std@@@std@@QAEAAPAU_Container_proxy@2@XZ ; std::_List_alloc<std::_List_base_types<GraveMarkers::GraveRecord,std::allocator<GraveMarkers::GraveRecord> > >::_Myproxy
	mov	DWORD PTR [eax], esi

; 683  : 		_Alproxy.construct(_Myproxy(), _Container_proxy());

	lea	ecx, DWORD PTR $T1[ebp]
	call	??0_Container_proxy@std@@QAE@XZ		; std::_Container_proxy::_Container_proxy
	push	eax
	mov	ecx, DWORD PTR _this$[ebp]
	call	?_Myproxy@?$_List_alloc@U?$_List_base_types@UGraveRecord@GraveMarkers@@V?$allocator@UGraveRecord@GraveMarkers@@@std@@@std@@@std@@QAEAAPAU_Container_proxy@2@XZ ; std::_List_alloc<std::_List_base_types<GraveMarkers::GraveRecord,std::allocator<GraveMarkers::GraveRecord> > >::_Myproxy
	mov	eax, DWORD PTR [eax]
	push	eax
	lea	ecx, DWORD PTR __Alproxy$[ebp]
	call	??$construct@U_Container_proxy@std@@U12@@?$_Wrap_alloc@V?$allocator@U_Container_proxy@std@@@std@@@std@@QAEXPAU_Container_proxy@1@$$QAU21@@Z ; std::_Wrap_alloc<std::allocator<std::_Container_proxy> >::construct<std::_Container_proxy,std::_Container_proxy>

; 684  : 		_Myproxy()->_Mycont = &_Get_data();

	mov	ecx, DWORD PTR _this$[ebp]
	call	?_Get_data@?$_List_alloc@U?$_List_base_types@UGraveRecord@GraveMarkers@@V?$allocator@UGraveRecord@GraveMarkers@@@std@@@std@@@std@@QAEAAV?$_List_val@U?$_List_simple_types@UGraveRecord@GraveMarkers@@@std@@@2@XZ ; std::_List_alloc<std::_List_base_types<GraveMarkers::GraveRecord,std::allocator<GraveMarkers::GraveRecord> > >::_Get_data
	mov	esi, eax
	mov	ecx, DWORD PTR _this$[ebp]
	call	?_Myproxy@?$_List_alloc@U?$_List_base_types@UGraveRecord@GraveMarkers@@V?$allocator@UGraveRecord@GraveMarkers@@@std@@@std@@@std@@QAEAAPAU_Container_proxy@2@XZ ; std::_List_alloc<std::_List_base_types<GraveMarkers::GraveRecord,std::allocator<GraveMarkers::GraveRecord> > >::_Myproxy
	mov	ecx, DWORD PTR [eax]
	mov	DWORD PTR [ecx], esi

; 685  : 		}

	push	edx
	mov	ecx, ebp
	push	eax
	lea	edx, DWORD PTR $LN5@Alloc_prox
	call	@_RTC_CheckStackVars@8
	pop	eax
	pop	edx
	pop	esi
	add	esp, 24					; 00000018H
	cmp	ebp, esp
	call	__RTC_CheckEsp
	mov	esp, ebp
	pop	ebp
	ret	0
	npad	2
$LN5@Alloc_prox:
	DD	1
	DD	$LN4@Alloc_prox
$LN4@Alloc_prox:
	DD	-9					; fffffff7H
	DD	1
	DD	$LN3@Alloc_prox
$LN3@Alloc_prox:
	DB	95					; 0000005fH
	DB	65					; 00000041H
	DB	108					; 0000006cH
	DB	112					; 00000070H
	DB	114					; 00000072H
	DB	111					; 0000006fH
	DB	120					; 00000078H
	DB	121					; 00000079H
	DB	0
?_Alloc_proxy@?$_List_alloc@U?$_List_base_types@UGraveRecord@GraveMarkers@@V?$allocator@UGraveRecord@GraveMarkers@@@std@@@std@@@std@@QAEXXZ ENDP ; std::_List_alloc<std::_List_base_types<GraveMarkers::GraveRecord,std::allocator<GraveMarkers::GraveRecord> > >::_Alloc_proxy
_TEXT	ENDS
; Function compile flags: /Odtp /RTCsu
; File d:\microsoft visual studio 14.0\vc\include\list
;	COMDAT ??1?$_List_alloc@U?$_List_base_types@UGraveRecord@GraveMarkers@@V?$allocator@UGraveRecord@GraveMarkers@@@std@@@std@@@std@@QAE@XZ
_TEXT	SEGMENT
_this$ = -16						; size = 4
__$EHRec$ = -12						; size = 12
??1?$_List_alloc@U?$_List_base_types@UGraveRecord@GraveMarkers@@V?$allocator@UGraveRecord@GraveMarkers@@@std@@@std@@@std@@QAE@XZ PROC ; std::_List_alloc<std::_List_base_types<GraveMarkers::GraveRecord,std::allocator<GraveMarkers::GraveRecord> > >::~_List_alloc<std::_List_base_types<GraveMarkers::GraveRecord,std::allocator<GraveMarkers::GraveRecord> > >, COMDAT
; _this$ = ecx

; 653  : 		{	// destroy proxy

	push	ebp
	mov	ebp, esp
	push	-1
	push	__ehhandler$??1?$_List_alloc@U?$_List_base_types@UGraveRecord@GraveMarkers@@V?$allocator@UGraveRecord@GraveMarkers@@@std@@@std@@@std@@QAE@XZ
	mov	eax, DWORD PTR fs:0
	push	eax
	push	ecx
	mov	DWORD PTR [ebp-16], -858993460		; ccccccccH
	mov	eax, DWORD PTR ___security_cookie
	xor	eax, ebp
	push	eax
	lea	eax, DWORD PTR __$EHRec$[ebp]
	mov	DWORD PTR fs:0, eax
	mov	DWORD PTR _this$[ebp], ecx

; 654  : 		_Freeheadnode(_Myhead());

	mov	ecx, DWORD PTR _this$[ebp]
	call	?_Myhead@?$_List_alloc@U?$_List_base_types@UGraveRecord@GraveMarkers@@V?$allocator@UGraveRecord@GraveMarkers@@@std@@@std@@@std@@QAEAAPAU?$_List_node@UGraveRecord@GraveMarkers@@PAX@2@XZ ; std::_List_alloc<std::_List_base_types<GraveMarkers::GraveRecord,std::allocator<GraveMarkers::GraveRecord> > >::_Myhead
	mov	eax, DWORD PTR [eax]
	push	eax
	mov	ecx, DWORD PTR _this$[ebp]
	call	?_Freeheadnode@?$_List_alloc@U?$_List_base_types@UGraveRecord@GraveMarkers@@V?$allocator@UGraveRecord@GraveMarkers@@@std@@@std@@@std@@QAEXPAU?$_List_node@UGraveRecord@GraveMarkers@@PAX@2@@Z ; std::_List_alloc<std::_List_base_types<GraveMarkers::GraveRecord,std::allocator<GraveMarkers::GraveRecord> > >::_Freeheadnode

; 655  : 		_Free_proxy();

	mov	ecx, DWORD PTR _this$[ebp]
	call	?_Free_proxy@?$_List_alloc@U?$_List_base_types@UGraveRecord@GraveMarkers@@V?$allocator@UGraveRecord@GraveMarkers@@@std@@@std@@@std@@QAEXXZ ; std::_List_alloc<std::_List_base_types<GraveMarkers::GraveRecord,std::allocator<GraveMarkers::GraveRecord> > >::_Free_proxy

; 656  : 		}

	mov	ecx, DWORD PTR _this$[ebp]
	call	??1?$_Compressed_pair@U?$_Wrap_alloc@V?$allocator@U?$_List_node@UGraveRecord@GraveMarkers@@PAX@std@@@std@@@std@@V?$_List_val@U?$_List_simple_types@UGraveRecord@GraveMarkers@@@std@@@2@$00@std@@QAE@XZ
	mov	ecx, DWORD PTR __$EHRec$[ebp]
	mov	DWORD PTR fs:0, ecx
	pop	ecx
	add	esp, 16					; 00000010H
	cmp	ebp, esp
	call	__RTC_CheckEsp
	mov	esp, ebp
	pop	ebp
	ret	0
_TEXT	ENDS
;	COMDAT text$x
text$x	SEGMENT
__ehhandler$??1?$_List_alloc@U?$_List_base_types@UGraveRecord@GraveMarkers@@V?$allocator@UGraveRecord@GraveMarkers@@@std@@@std@@@std@@QAE@XZ:
	mov	edx, DWORD PTR [esp+8]
	lea	eax, DWORD PTR [edx+12]
	mov	ecx, DWORD PTR [edx-8]
	xor	ecx, eax
	call	@__security_check_cookie@4
	mov	eax, OFFSET __ehfuncinfo$??1?$_List_alloc@U?$_List_base_types@UGraveRecord@GraveMarkers@@V?$allocator@UGraveRecord@GraveMarkers@@@std@@@std@@@std@@QAE@XZ
	jmp	___CxxFrameHandler3
text$x	ENDS
??1?$_List_alloc@U?$_List_base_types@UGraveRecord@GraveMarkers@@V?$allocator@UGraveRecord@GraveMarkers@@@std@@@std@@@std@@QAE@XZ ENDP ; std::_List_alloc<std::_List_base_types<GraveMarkers::GraveRecord,std::allocator<GraveMarkers::GraveRecord> > >::~_List_alloc<std::_List_base_types<GraveMarkers::GraveRecord,std::allocator<GraveMarkers::GraveRecord> > >
; Function compile flags: /Odtp /RTCsu
; File d:\microsoft visual studio 14.0\vc\include\list
;	COMDAT ??0?$_List_alloc@U?$_List_base_types@UGraveRecord@GraveMarkers@@V?$allocator@UGraveRecord@GraveMarkers@@@std@@@std@@@std@@QAE@ABV?$allocator@UGraveRecord@GraveMarkers@@@1@@Z
_TEXT	SEGMENT
$T2 = -21						; size = 1
_this$ = -20						; size = 4
__$EHRec$ = -16						; size = 16
__Al$ = 8						; size = 4
??0?$_List_alloc@U?$_List_base_types@UGraveRecord@GraveMarkers@@V?$allocator@UGraveRecord@GraveMarkers@@@std@@@std@@@std@@QAE@ABV?$allocator@UGraveRecord@GraveMarkers@@@1@@Z PROC ; std::_List_alloc<std::_List_base_types<GraveMarkers::GraveRecord,std::allocator<GraveMarkers::GraveRecord> > >::_List_alloc<std::_List_base_types<GraveMarkers::GraveRecord,std::allocator<GraveMarkers::GraveRecord> > >, COMDAT
; _this$ = ecx

; 630  : 		{	// construct head node, allocator from _Al

	push	ebp
	mov	ebp, esp
	push	-1
	push	__ehhandler$??0?$_List_alloc@U?$_List_base_types@UGraveRecord@GraveMarkers@@V?$allocator@UGraveRecord@GraveMarkers@@@std@@@std@@@std@@QAE@ABV?$allocator@UGraveRecord@GraveMarkers@@@1@@Z
	mov	eax, DWORD PTR fs:0
	push	eax
	push	ecx
	sub	esp, 8
	push	ebx
	push	esi
	push	edi
	mov	DWORD PTR [ebp-24], -858993460		; ccccccccH
	mov	DWORD PTR [ebp-20], -858993460		; ccccccccH
	mov	eax, DWORD PTR ___security_cookie
	xor	eax, ebp
	push	eax
	lea	eax, DWORD PTR __$EHRec$[ebp+4]
	mov	DWORD PTR fs:0, eax
	mov	DWORD PTR __$EHRec$[ebp], esp
	mov	DWORD PTR _this$[ebp], ecx

; 629  : 		: _Mypair(_One_then_variadic_args_t(), _Al)

	mov	eax, DWORD PTR __Al$[ebp]
	push	eax
	movzx	ecx, BYTE PTR $T2[ebp]
	push	ecx
	mov	ecx, DWORD PTR _this$[ebp]
	call	??$?0ABV?$allocator@UGraveRecord@GraveMarkers@@@std@@$$V@?$_Compressed_pair@U?$_Wrap_alloc@V?$allocator@U?$_List_node@UGraveRecord@GraveMarkers@@PAX@std@@@std@@@std@@V?$_List_val@U?$_List_simple_types@UGraveRecord@GraveMarkers@@@std@@@2@$00@std@@QAE@U_One_then_variadic_args_t@1@ABV?$allocator@UGraveRecord@GraveMarkers@@@1@@Z ; std::_Compressed_pair<std::_Wrap_alloc<std::allocator<std::_List_node<GraveMarkers::GraveRecord,void *> > >,std::_List_val<std::_List_simple_types<GraveMarkers::GraveRecord> >,1>::_Compressed_pair<std::_Wrap_alloc<std::allocator<std::_List_node<GraveMarkers::GraveRecord,void *> > >,std::_List_val<std::_List_simple_types<GraveMarkers::GraveRecord> >,1><std::allocator<GraveMarkers::GraveRecord> const &>
	mov	DWORD PTR __$EHRec$[ebp+12], 0

; 631  : 		_Myhead() = _Buyheadnode();

	mov	ecx, DWORD PTR _this$[ebp]
	call	?_Buyheadnode@?$_List_alloc@U?$_List_base_types@UGraveRecord@GraveMarkers@@V?$allocator@UGraveRecord@GraveMarkers@@@std@@@std@@@std@@QAEPAU?$_List_node@UGraveRecord@GraveMarkers@@PAX@2@XZ ; std::_List_alloc<std::_List_base_types<GraveMarkers::GraveRecord,std::allocator<GraveMarkers::GraveRecord> > >::_Buyheadnode
	mov	esi, eax
	mov	ecx, DWORD PTR _this$[ebp]
	call	?_Myhead@?$_List_alloc@U?$_List_base_types@UGraveRecord@GraveMarkers@@V?$allocator@UGraveRecord@GraveMarkers@@@std@@@std@@@std@@QAEAAPAU?$_List_node@UGraveRecord@GraveMarkers@@PAX@2@XZ ; std::_List_alloc<std::_List_base_types<GraveMarkers::GraveRecord,std::allocator<GraveMarkers::GraveRecord> > >::_Myhead
	mov	DWORD PTR [eax], esi

; 632  : 		_TRY_BEGIN

	mov	BYTE PTR __$EHRec$[ebp+12], 1

; 633  : 		_Alloc_proxy();

	mov	ecx, DWORD PTR _this$[ebp]
	call	?_Alloc_proxy@?$_List_alloc@U?$_List_base_types@UGraveRecord@GraveMarkers@@V?$allocator@UGraveRecord@GraveMarkers@@@std@@@std@@@std@@QAEXXZ ; std::_List_alloc<std::_List_base_types<GraveMarkers::GraveRecord,std::allocator<GraveMarkers::GraveRecord> > >::_Alloc_proxy
	jmp	SHORT $LN4@List_alloc
__catch$??0?$_List_alloc@U?$_List_base_types@UGraveRecord@GraveMarkers@@V?$allocator@UGraveRecord@GraveMarkers@@@std@@@std@@@std@@QAE@ABV?$allocator@UGraveRecord@GraveMarkers@@@1@@Z$0:

; 634  : 		_CATCH_ALL
; 635  : 		_Freeheadnode(_Myhead());

	mov	ecx, DWORD PTR _this$[ebp]
	call	?_Myhead@?$_List_alloc@U?$_List_base_types@UGraveRecord@GraveMarkers@@V?$allocator@UGraveRecord@GraveMarkers@@@std@@@std@@@std@@QAEAAPAU?$_List_node@UGraveRecord@GraveMarkers@@PAX@2@XZ ; std::_List_alloc<std::_List_base_types<GraveMarkers::GraveRecord,std::allocator<GraveMarkers::GraveRecord> > >::_Myhead
	mov	edx, DWORD PTR [eax]
	push	edx
	mov	ecx, DWORD PTR _this$[ebp]
	call	?_Freeheadnode@?$_List_alloc@U?$_List_base_types@UGraveRecord@GraveMarkers@@V?$allocator@UGraveRecord@GraveMarkers@@@std@@@std@@@std@@QAEXPAU?$_List_node@UGraveRecord@GraveMarkers@@PAX@2@@Z ; std::_List_alloc<std::_List_base_types<GraveMarkers::GraveRecord,std::allocator<GraveMarkers::GraveRecord> > >::_Freeheadnode

; 636  : 		_RERAISE;

	push	0
	push	0
	call	__CxxThrowException@8

; 637  : 		_CATCH_END

	mov	eax, $LN8@List_alloc
	ret	0
$LN4@List_alloc:
	mov	DWORD PTR __$EHRec$[ebp+12], 0
	jmp	SHORT $LN1@List_alloc
$LN8@List_alloc:
	mov	DWORD PTR __$EHRec$[ebp+12], 0
$LN1@List_alloc:

; 638  : 		}

	mov	DWORD PTR __$EHRec$[ebp+12], -1
	mov	eax, DWORD PTR _this$[ebp]
$LN3@List_alloc:
	mov	ecx, DWORD PTR __$EHRec$[ebp+4]
	mov	DWORD PTR fs:0, ecx
	pop	ecx
	pop	edi
	pop	esi
	pop	ebx
	add	esp, 24					; 00000018H
	cmp	ebp, esp
	call	__RTC_CheckEsp
	mov	esp, ebp
	pop	ebp
	ret	4
_TEXT	ENDS
;	COMDAT text$x
text$x	SEGMENT
__unwindfunclet$??0?$_List_alloc@U?$_List_base_types@UGraveRecord@GraveMarkers@@V?$allocator@UGraveRecord@GraveMarkers@@@std@@@std@@@std@@QAE@ABV?$allocator@UGraveRecord@GraveMarkers@@@1@@Z$2:
	mov	ecx, DWORD PTR _this$[ebp]
	jmp	??1?$_Compressed_pair@U?$_Wrap_alloc@V?$allocator@U?$_List_node@UGraveRecord@GraveMarkers@@PAX@std@@@std@@@std@@V?$_List_val@U?$_List_simple_types@UGraveRecord@GraveMarkers@@@std@@@2@$00@std@@QAE@XZ
__ehhandler$??0?$_List_alloc@U?$_List_base_types@UGraveRecord@GraveMarkers@@V?$allocator@UGraveRecord@GraveMarkers@@@std@@@std@@@std@@QAE@ABV?$allocator@UGraveRecord@GraveMarkers@@@1@@Z:
	mov	edx, DWORD PTR [esp+8]
	lea	eax, DWORD PTR [edx+12]
	mov	ecx, DWORD PTR [edx-28]
	xor	ecx, eax
	call	@__security_check_cookie@4
	mov	eax, OFFSET __ehfuncinfo$??0?$_List_alloc@U?$_List_base_types@UGraveRecord@GraveMarkers@@V?$allocator@UGraveRecord@GraveMarkers@@@std@@@std@@@std@@QAE@ABV?$allocator@UGraveRecord@GraveMarkers@@@1@@Z
	jmp	___CxxFrameHandler3
text$x	ENDS
??0?$_List_alloc@U?$_List_base_types@UGraveRecord@GraveMarkers@@V?$allocator@UGraveRecord@GraveMarkers@@@std@@@std@@@std@@QAE@ABV?$allocator@UGraveRecord@GraveMarkers@@@1@@Z ENDP ; std::_List_alloc<std::_List_base_types<GraveMarkers::GraveRecord,std::allocator<GraveMarkers::GraveRecord> > >::_List_alloc<std::_List_base_types<GraveMarkers::GraveRecord,std::allocator<GraveMarkers::GraveRecord> > >
; Function compile flags: /Odtp /RTCsu
; File d:\microsoft visual studio 14.0\vc\include\list
;	COMDAT ?_Myval@?$_List_alloc@U?$_List_base_types@UGraveRecord@GraveMarkers@@V?$allocator@UGraveRecord@GraveMarkers@@@std@@@std@@@std@@SAAAUGraveRecord@GraveMarkers@@PAU?$_List_node@UGraveRecord@GraveMarkers@@PAX@2@@Z
_TEXT	SEGMENT
__Pnode$ = 8						; size = 4
?_Myval@?$_List_alloc@U?$_List_base_types@UGraveRecord@GraveMarkers@@V?$allocator@UGraveRecord@GraveMarkers@@@std@@@std@@@std@@SAAAUGraveRecord@GraveMarkers@@PAU?$_List_node@UGraveRecord@GraveMarkers@@PAX@2@@Z PROC ; std::_List_alloc<std::_List_base_types<GraveMarkers::GraveRecord,std::allocator<GraveMarkers::GraveRecord> > >::_Myval, COMDAT

; 590  : 		{	// return reference to value in node

	push	ebp
	mov	ebp, esp

; 591  : 		return (_List_val<_Val_types>::_Myval(_Pnode));

	mov	eax, DWORD PTR __Pnode$[ebp]
	push	eax
	call	?_Myval@?$_List_val@U?$_List_simple_types@UGraveRecord@GraveMarkers@@@std@@@std@@SAAAUGraveRecord@GraveMarkers@@PAU?$_List_node@UGraveRecord@GraveMarkers@@PAX@2@@Z ; std::_List_val<std::_List_simple_types<GraveMarkers::GraveRecord> >::_Myval
	add	esp, 4

; 592  : 		}

	cmp	ebp, esp
	call	__RTC_CheckEsp
	pop	ebp
	ret	0
?_Myval@?$_List_alloc@U?$_List_base_types@UGraveRecord@GraveMarkers@@V?$allocator@UGraveRecord@GraveMarkers@@@std@@@std@@@std@@SAAAUGraveRecord@GraveMarkers@@PAU?$_List_node@UGraveRecord@GraveMarkers@@PAX@2@@Z ENDP ; std::_List_alloc<std::_List_base_types<GraveMarkers::GraveRecord,std::allocator<GraveMarkers::GraveRecord> > >::_Myval
_TEXT	ENDS
; Function compile flags: /Odtp /RTCsu
; File d:\microsoft visual studio 14.0\vc\include\list
;	COMDAT ?_Prevnode@?$_List_alloc@U?$_List_base_types@UGraveRecord@GraveMarkers@@V?$allocator@UGraveRecord@GraveMarkers@@@std@@@std@@@std@@SAAAPAU?$_List_node@UGraveRecord@GraveMarkers@@PAX@2@PAU32@@Z
_TEXT	SEGMENT
__Pnode$ = 8						; size = 4
?_Prevnode@?$_List_alloc@U?$_List_base_types@UGraveRecord@GraveMarkers@@V?$allocator@UGraveRecord@GraveMarkers@@@std@@@std@@@std@@SAAAPAU?$_List_node@UGraveRecord@GraveMarkers@@PAX@2@PAU32@@Z PROC ; std::_List_alloc<std::_List_base_types<GraveMarkers::GraveRecord,std::allocator<GraveMarkers::GraveRecord> > >::_Prevnode, COMDAT

; 585  : 		{	// return reference to predecessor pointer in node

	push	ebp
	mov	ebp, esp

; 586  : 		return (_List_val<_Val_types>::_Prevnode(_Pnode));

	mov	eax, DWORD PTR __Pnode$[ebp]
	push	eax
	call	?_Prevnode@?$_List_val@U?$_List_simple_types@UGraveRecord@GraveMarkers@@@std@@@std@@SAAAPAU?$_List_node@UGraveRecord@GraveMarkers@@PAX@2@PAU32@@Z ; std::_List_val<std::_List_simple_types<GraveMarkers::GraveRecord> >::_Prevnode
	add	esp, 4

; 587  : 		}

	cmp	ebp, esp
	call	__RTC_CheckEsp
	pop	ebp
	ret	0
?_Prevnode@?$_List_alloc@U?$_List_base_types@UGraveRecord@GraveMarkers@@V?$allocator@UGraveRecord@GraveMarkers@@@std@@@std@@@std@@SAAAPAU?$_List_node@UGraveRecord@GraveMarkers@@PAX@2@PAU32@@Z ENDP ; std::_List_alloc<std::_List_base_types<GraveMarkers::GraveRecord,std::allocator<GraveMarkers::GraveRecord> > >::_Prevnode
_TEXT	ENDS
; Function compile flags: /Odtp /RTCsu
; File d:\microsoft visual studio 14.0\vc\include\list
;	COMDAT ?_Nextnode@?$_List_alloc@U?$_List_base_types@UGraveRecord@GraveMarkers@@V?$allocator@UGraveRecord@GraveMarkers@@@std@@@std@@@std@@SAAAPAU?$_List_node@UGraveRecord@GraveMarkers@@PAX@2@PAU32@@Z
_TEXT	SEGMENT
__Pnode$ = 8						; size = 4
?_Nextnode@?$_List_alloc@U?$_List_base_types@UGraveRecord@GraveMarkers@@V?$allocator@UGraveRecord@GraveMarkers@@@std@@@std@@@std@@SAAAPAU?$_List_node@UGraveRecord@GraveMarkers@@PAX@2@PAU32@@Z PROC ; std::_List_alloc<std::_List_base_types<GraveMarkers::GraveRecord,std::allocator<GraveMarkers::GraveRecord> > >::_Nextnode, COMDAT

; 580  : 		{	// return reference to successor pointer in node

	push	ebp
	mov	ebp, esp

; 581  : 		return (_List_val<_Val_types>::_Nextnode(_Pnode));

	mov	eax, DWORD PTR __Pnode$[ebp]
	push	eax
	call	?_Nextnode@?$_List_val@U?$_List_simple_types@UGraveRecord@GraveMarkers@@@std@@@std@@SAAAPAU?$_List_node@UGraveRecord@GraveMarkers@@PAX@2@PAU32@@Z ; std::_List_val<std::_List_simple_types<GraveMarkers::GraveRecord> >::_Nextnode
	add	esp, 4

; 582  : 		}

	cmp	ebp, esp
	call	__RTC_CheckEsp
	pop	ebp
	ret	0
?_Nextnode@?$_List_alloc@U?$_List_base_types@UGraveRecord@GraveMarkers@@V?$allocator@UGraveRecord@GraveMarkers@@@std@@@std@@@std@@SAAAPAU?$_List_node@UGraveRecord@GraveMarkers@@PAX@2@PAU32@@Z ENDP ; std::_List_alloc<std::_List_base_types<GraveMarkers::GraveRecord,std::allocator<GraveMarkers::GraveRecord> > >::_Nextnode
_TEXT	ENDS
; Function compile flags: /Odtp /RTCsu
; File d:\microsoft visual studio 14.0\vc\include\xmemory0
;	COMDAT ?max_size@?$_Wrap_alloc@V?$allocator@U?$_List_node@UGraveRecord@GraveMarkers@@PAX@std@@@std@@@std@@QBEIU_Nil@2@@Z
_TEXT	SEGMENT
_this$ = -4						; size = 4
___formal$ = 8						; size = 1
?max_size@?$_Wrap_alloc@V?$allocator@U?$_List_node@UGraveRecord@GraveMarkers@@PAX@std@@@std@@@std@@QBEIU_Nil@2@@Z PROC ; std::_Wrap_alloc<std::allocator<std::_List_node<GraveMarkers::GraveRecord,void *> > >::max_size, COMDAT
; _this$ = ecx

; 931  : 		{	// get maximum size

	push	ebp
	mov	ebp, esp
	push	ecx
	mov	DWORD PTR [ebp-4], -858993460		; ccccccccH
	mov	DWORD PTR _this$[ebp], ecx

; 932  : 		return (_Mytraits::max_size(*this));

	mov	eax, DWORD PTR _this$[ebp]
	push	eax
	call	?max_size@?$allocator_traits@V?$allocator@U?$_List_node@UGraveRecord@GraveMarkers@@PAX@std@@@std@@@std@@SAIABV?$allocator@U?$_List_node@UGraveRecord@GraveMarkers@@PAX@std@@@2@@Z ; std::allocator_traits<std::allocator<std::_List_node<GraveMarkers::GraveRecord,void *> > >::max_size
	add	esp, 4

; 933  : 		}

	add	esp, 4
	cmp	ebp, esp
	call	__RTC_CheckEsp
	mov	esp, ebp
	pop	ebp
	ret	4
?max_size@?$_Wrap_alloc@V?$allocator@U?$_List_node@UGraveRecord@GraveMarkers@@PAX@std@@@std@@@std@@QBEIU_Nil@2@@Z ENDP ; std::_Wrap_alloc<std::allocator<std::_List_node<GraveMarkers::GraveRecord,void *> > >::max_size
_TEXT	ENDS
; Function compile flags: /Odtp /RTCsu
; File d:\microsoft visual studio 14.0\vc\include\xmemory0
;	COMDAT ?deallocate@?$_Wrap_alloc@V?$allocator@U?$_List_node@UGraveRecord@GraveMarkers@@PAX@std@@@std@@@std@@QAEXPAU?$_List_node@UGraveRecord@GraveMarkers@@PAX@2@I@Z
_TEXT	SEGMENT
_this$ = -4						; size = 4
__Ptr$ = 8						; size = 4
__Count$ = 12						; size = 4
?deallocate@?$_Wrap_alloc@V?$allocator@U?$_List_node@UGraveRecord@GraveMarkers@@PAX@std@@@std@@@std@@QAEXPAU?$_List_node@UGraveRecord@GraveMarkers@@PAX@2@I@Z PROC ; std::_Wrap_alloc<std::allocator<std::_List_node<GraveMarkers::GraveRecord,void *> > >::deallocate, COMDAT
; _this$ = ecx

; 910  : 		{	// deallocate object at _Ptr, ignore size

	push	ebp
	mov	ebp, esp
	push	ecx
	mov	DWORD PTR [ebp-4], -858993460		; ccccccccH
	mov	DWORD PTR _this$[ebp], ecx

; 911  : 		_Mybase::deallocate(_Ptr, _Count);

	mov	eax, DWORD PTR __Count$[ebp]
	push	eax
	mov	ecx, DWORD PTR __Ptr$[ebp]
	push	ecx
	mov	ecx, DWORD PTR _this$[ebp]
	call	?deallocate@?$allocator@U?$_List_node@UGraveRecord@GraveMarkers@@PAX@std@@@std@@QAEXPAU?$_List_node@UGraveRecord@GraveMarkers@@PAX@2@I@Z ; std::allocator<std::_List_node<GraveMarkers::GraveRecord,void *> >::deallocate

; 912  : 		}

	add	esp, 4
	cmp	ebp, esp
	call	__RTC_CheckEsp
	mov	esp, ebp
	pop	ebp
	ret	8
?deallocate@?$_Wrap_alloc@V?$allocator@U?$_List_node@UGraveRecord@GraveMarkers@@PAX@std@@@std@@@std@@QAEXPAU?$_List_node@UGraveRecord@GraveMarkers@@PAX@2@I@Z ENDP ; std::_Wrap_alloc<std::allocator<std::_List_node<GraveMarkers::GraveRecord,void *> > >::deallocate
_TEXT	ENDS
; Function compile flags: /Odtp /RTCsu
; File d:\microsoft visual studio 14.0\vc\include\xmemory0
;	COMDAT ?allocate@?$_Wrap_alloc@V?$allocator@U?$_List_node@UGraveRecord@GraveMarkers@@PAX@std@@@std@@@std@@QAEPAU?$_List_node@UGraveRecord@GraveMarkers@@PAX@2@I@Z
_TEXT	SEGMENT
_this$ = -4						; size = 4
__Count$ = 8						; size = 4
?allocate@?$_Wrap_alloc@V?$allocator@U?$_List_node@UGraveRecord@GraveMarkers@@PAX@std@@@std@@@std@@QAEPAU?$_List_node@UGraveRecord@GraveMarkers@@PAX@2@I@Z PROC ; std::_Wrap_alloc<std::allocator<std::_List_node<GraveMarkers::GraveRecord,void *> > >::allocate, COMDAT
; _this$ = ecx

; 899  : 		{	// allocate array of _Count elements

	push	ebp
	mov	ebp, esp
	push	ecx
	mov	DWORD PTR [ebp-4], -858993460		; ccccccccH
	mov	DWORD PTR _this$[ebp], ecx

; 900  : 		return (_Mybase::allocate(_Count));

	mov	eax, DWORD PTR __Count$[ebp]
	push	eax
	mov	ecx, DWORD PTR _this$[ebp]
	call	?allocate@?$allocator@U?$_List_node@UGraveRecord@GraveMarkers@@PAX@std@@@std@@QAEPAU?$_List_node@UGraveRecord@GraveMarkers@@PAX@2@I@Z ; std::allocator<std::_List_node<GraveMarkers::GraveRecord,void *> >::allocate

; 901  : 		}

	add	esp, 4
	cmp	ebp, esp
	call	__RTC_CheckEsp
	mov	esp, ebp
	pop	ebp
	ret	4
?allocate@?$_Wrap_alloc@V?$allocator@U?$_List_node@UGraveRecord@GraveMarkers@@PAX@std@@@std@@@std@@QAEPAU?$_List_node@UGraveRecord@GraveMarkers@@PAX@2@I@Z ENDP ; std::_Wrap_alloc<std::allocator<std::_List_node<GraveMarkers::GraveRecord,void *> > >::allocate
_TEXT	ENDS
; Function compile flags: /Odtp /RTCsu
; File d:\microsoft visual studio 14.0\vc\include\xmemory0
;	COMDAT ?max_size@?$allocator_traits@V?$allocator@U?$_List_node@UGraveRecord@GraveMarkers@@PAX@std@@@std@@@std@@SAIABV?$allocator@U?$_List_node@UGraveRecord@GraveMarkers@@PAX@std@@@2@@Z
_TEXT	SEGMENT
__Al$ = 8						; size = 4
?max_size@?$allocator_traits@V?$allocator@U?$_List_node@UGraveRecord@GraveMarkers@@PAX@std@@@std@@@std@@SAIABV?$allocator@U?$_List_node@UGraveRecord@GraveMarkers@@PAX@std@@@2@@Z PROC ; std::allocator_traits<std::allocator<std::_List_node<GraveMarkers::GraveRecord,void *> > >::max_size, COMDAT

; 786  : 		{	// get maximum size

	push	ebp
	mov	ebp, esp

; 787  : 		return (_Al.max_size());

	mov	ecx, DWORD PTR __Al$[ebp]
	call	?max_size@?$allocator@U?$_List_node@UGraveRecord@GraveMarkers@@PAX@std@@@std@@QBEIXZ ; std::allocator<std::_List_node<GraveMarkers::GraveRecord,void *> >::max_size

; 788  : 		}

	cmp	ebp, esp
	call	__RTC_CheckEsp
	pop	ebp
	ret	0
?max_size@?$allocator_traits@V?$allocator@U?$_List_node@UGraveRecord@GraveMarkers@@PAX@std@@@std@@@std@@SAIABV?$allocator@U?$_List_node@UGraveRecord@GraveMarkers@@PAX@std@@@2@@Z ENDP ; std::allocator_traits<std::allocator<std::_List_node<GraveMarkers::GraveRecord,void *> > >::max_size
_TEXT	ENDS
; Function compile flags: /Odtp /RTCsu
; File d:\microsoft visual studio 14.0\vc\include\xmemory0
;	COMDAT ?max_size@?$allocator@U?$_List_node@UGraveRecord@GraveMarkers@@PAX@std@@@std@@QBEIXZ
_TEXT	SEGMENT
_this$ = -4						; size = 4
?max_size@?$allocator@U?$_List_node@UGraveRecord@GraveMarkers@@PAX@std@@@std@@QBEIXZ PROC ; std::allocator<std::_List_node<GraveMarkers::GraveRecord,void *> >::max_size, COMDAT
; _this$ = ecx

; 668  : 		{	// estimate maximum array size

	push	ebp
	mov	ebp, esp
	push	ecx
	mov	DWORD PTR [ebp-4], -858993460		; ccccccccH
	mov	DWORD PTR _this$[ebp], ecx

; 669  : 		return ((size_t)(-1) / sizeof (_Ty));

	mov	eax, 134217727				; 07ffffffH

; 670  : 		}

	mov	esp, ebp
	pop	ebp
	ret	0
?max_size@?$allocator@U?$_List_node@UGraveRecord@GraveMarkers@@PAX@std@@@std@@QBEIXZ ENDP ; std::allocator<std::_List_node<GraveMarkers::GraveRecord,void *> >::max_size
_TEXT	ENDS
; Function compile flags: /Odtp /RTCsu
; File d:\microsoft visual studio 14.0\vc\include\xmemory0
;	COMDAT ?allocate@?$allocator@U?$_List_node@UGraveRecord@GraveMarkers@@PAX@std@@@std@@QAEPAU?$_List_node@UGraveRecord@GraveMarkers@@PAX@2@I@Z
_TEXT	SEGMENT
_this$ = -4						; size = 4
__Count$ = 8						; size = 4
?allocate@?$allocator@U?$_List_node@UGraveRecord@GraveMarkers@@PAX@std@@@std@@QAEPAU?$_List_node@UGraveRecord@GraveMarkers@@PAX@2@I@Z PROC ; std::allocator<std::_List_node<GraveMarkers::GraveRecord,void *> >::allocate, COMDAT
; _this$ = ecx

; 644  : 		{	// allocate array of _Count elements

	push	ebp
	mov	ebp, esp
	push	ecx
	mov	DWORD PTR [ebp-4], -858993460		; ccccccccH
	mov	DWORD PTR _this$[ebp], ecx

; 645  : 		return (_Allocate(_Count, (pointer)0));

	push	1
	push	0
	mov	eax, DWORD PTR __Count$[ebp]
	push	eax
	call	??$_Allocate@U?$_List_node@UGraveRecord@GraveMarkers@@PAX@std@@@std@@YAPAU?$_List_node@UGraveRecord@GraveMarkers@@PAX@0@IPAU10@_N@Z ; std::_Allocate<std::_List_node<GraveMarkers::GraveRecord,void *> >
	add	esp, 12					; 0000000cH

; 646  : 		}

	add	esp, 4
	cmp	ebp, esp
	call	__RTC_CheckEsp
	mov	esp, ebp
	pop	ebp
	ret	4
?allocate@?$allocator@U?$_List_node@UGraveRecord@GraveMarkers@@PAX@std@@@std@@QAEPAU?$_List_node@UGraveRecord@GraveMarkers@@PAX@2@I@Z ENDP ; std::allocator<std::_List_node<GraveMarkers::GraveRecord,void *> >::allocate
_TEXT	ENDS
; Function compile flags: /Odtp /RTCsu
; File d:\microsoft visual studio 14.0\vc\include\xmemory0
;	COMDAT ?deallocate@?$allocator@U?$_List_node@UGraveRecord@GraveMarkers@@PAX@std@@@std@@QAEXPAU?$_List_node@UGraveRecord@GraveMarkers@@PAX@2@I@Z
_TEXT	SEGMENT
_this$ = -4						; size = 4
__Ptr$ = 8						; size = 4
__Count$ = 12						; size = 4
?deallocate@?$allocator@U?$_List_node@UGraveRecord@GraveMarkers@@PAX@std@@@std@@QAEXPAU?$_List_node@UGraveRecord@GraveMarkers@@PAX@2@I@Z PROC ; std::allocator<std::_List_node<GraveMarkers::GraveRecord,void *> >::deallocate, COMDAT
; _this$ = ecx

; 639  : 		{	// deallocate object at _Ptr

	push	ebp
	mov	ebp, esp
	push	ecx
	mov	DWORD PTR [ebp-4], -858993460		; ccccccccH
	mov	DWORD PTR _this$[ebp], ecx

; 640  : 		_Deallocate(_Ptr, _Count);

	mov	eax, DWORD PTR __Count$[ebp]
	push	eax
	mov	ecx, DWORD PTR __Ptr$[ebp]
	push	ecx
	call	??$_Deallocate@U?$_List_node@UGraveRecord@GraveMarkers@@PAX@std@@@std@@YAXPAU?$_List_node@UGraveRecord@GraveMarkers@@PAX@0@I@Z ; std::_Deallocate<std::_List_node<GraveMarkers::GraveRecord,void *> >
	add	esp, 8

; 641  : 		}

	add	esp, 4
	cmp	ebp, esp
	call	__RTC_CheckEsp
	mov	esp, ebp
	pop	ebp
	ret	8
?deallocate@?$allocator@U?$_List_node@UGraveRecord@GraveMarkers@@PAX@std@@@std@@QAEXPAU?$_List_node@UGraveRecord@GraveMarkers@@PAX@2@I@Z ENDP ; std::allocator<std::_List_node<GraveMarkers::GraveRecord,void *> >::deallocate
_TEXT	ENDS
; Function compile flags: /Odtp /RTCsu
; File d:\microsoft visual studio 14.0\vc\include\xmemory0
;	COMDAT ??0?$allocator@UGraveRecord@GraveMarkers@@@std@@QAE@XZ
_TEXT	SEGMENT
_this$ = -4						; size = 4
??0?$allocator@UGraveRecord@GraveMarkers@@@std@@QAE@XZ PROC ; std::allocator<GraveMarkers::GraveRecord>::allocator<GraveMarkers::GraveRecord>, COMDAT
; _this$ = ecx

; 619  : 	allocator() _THROW0()

	push	ebp
	mov	ebp, esp
	push	ecx
	mov	DWORD PTR [ebp-4], -858993460		; ccccccccH
	mov	DWORD PTR _this$[ebp], ecx

; 620  : 		{	// construct default allocator (do nothing)
; 621  : 		}

	mov	eax, DWORD PTR _this$[ebp]
	mov	esp, ebp
	pop	ebp
	ret	0
??0?$allocator@UGraveRecord@GraveMarkers@@@std@@QAE@XZ ENDP ; std::allocator<GraveMarkers::GraveRecord>::allocator<GraveMarkers::GraveRecord>
_TEXT	ENDS
; Function compile flags: /Odtp /RTCsu
; File d:\microsoft visual studio 14.0\vc\include\vector
;	COMDAT ?_Orphan_range@?$vector@UVector2D@@V?$allocator@UVector2D@@@std@@@std@@IBEXPAUVector2D@@0@Z
_TEXT	SEGMENT
__Pnext$ = -32						; size = 4
__Lock$ = -24						; size = 4
_this$ = -16						; size = 4
__$EHRec$ = -12						; size = 12
__First$ = 8						; size = 4
__Last$ = 12						; size = 4
?_Orphan_range@?$vector@UVector2D@@V?$allocator@UVector2D@@@std@@@std@@IBEXPAUVector2D@@0@Z PROC ; std::vector<Vector2D,std::allocator<Vector2D> >::_Orphan_range, COMDAT
; _this$ = ecx

; 1794 : 		{	// orphan iterators within specified (inclusive) range

	push	ebp
	mov	ebp, esp
	push	-1
	push	__ehhandler$?_Orphan_range@?$vector@UVector2D@@V?$allocator@UVector2D@@@std@@@std@@IBEXPAUVector2D@@0@Z
	mov	eax, DWORD PTR fs:0
	push	eax
	sub	esp, 20					; 00000014H
	mov	eax, -858993460				; ccccccccH
	mov	DWORD PTR [ebp-32], eax
	mov	DWORD PTR [ebp-28], eax
	mov	DWORD PTR [ebp-24], eax
	mov	DWORD PTR [ebp-20], eax
	mov	DWORD PTR [ebp-16], eax
	mov	eax, DWORD PTR ___security_cookie
	xor	eax, ebp
	push	eax
	lea	eax, DWORD PTR __$EHRec$[ebp]
	mov	DWORD PTR fs:0, eax
	mov	DWORD PTR _this$[ebp], ecx

; 1795 : 		_Lockit _Lock(_LOCK_DEBUG);

	push	3
	lea	ecx, DWORD PTR __Lock$[ebp]
	call	??0_Lockit@std@@QAE@H@Z			; std::_Lockit::_Lockit
	mov	DWORD PTR __$EHRec$[ebp+8], 0

; 1796 : 		const_iterator **_Pnext = (const_iterator **)this->_Getpfirst();

	mov	ecx, DWORD PTR _this$[ebp]
	call	?_Getpfirst@?$_Vector_alloc@U?$_Vec_base_types@UVector2D@@V?$allocator@UVector2D@@@std@@@std@@@std@@QBEPAPAU_Iterator_base12@2@XZ ; std::_Vector_alloc<std::_Vec_base_types<Vector2D,std::allocator<Vector2D> > >::_Getpfirst
	mov	DWORD PTR __Pnext$[ebp], eax

; 1797 : 		if (_Pnext != 0)

	cmp	DWORD PTR __Pnext$[ebp], 0
	je	SHORT $LN4@Orphan_ran
$LN2@Orphan_ran:

; 1798 : 			{	// test an iterator
; 1799 : 			while (*_Pnext != 0)

	mov	eax, DWORD PTR __Pnext$[ebp]
	cmp	DWORD PTR [eax], 0
	je	SHORT $LN4@Orphan_ran

; 1800 : 				if ((*_Pnext)->_Ptr < _First || _Last < (*_Pnext)->_Ptr)

	mov	ecx, DWORD PTR __Pnext$[ebp]
	mov	edx, DWORD PTR [ecx]
	mov	eax, DWORD PTR [edx+8]
	cmp	eax, DWORD PTR __First$[ebp]
	jb	SHORT $LN7@Orphan_ran
	mov	ecx, DWORD PTR __Pnext$[ebp]
	mov	edx, DWORD PTR [ecx]
	mov	eax, DWORD PTR __Last$[ebp]
	cmp	eax, DWORD PTR [edx+8]
	jae	SHORT $LN5@Orphan_ran
$LN7@Orphan_ran:

; 1801 : 					_Pnext = (const_iterator **)(*_Pnext)->_Getpnext();

	mov	ecx, DWORD PTR __Pnext$[ebp]
	mov	ecx, DWORD PTR [ecx]
	call	?_Getpnext@_Iterator_base12@std@@QAEPAPAU12@XZ ; std::_Iterator_base12::_Getpnext
	mov	DWORD PTR __Pnext$[ebp], eax

; 1802 : 				else

	jmp	SHORT $LN6@Orphan_ran
$LN5@Orphan_ran:

; 1803 : 					{	// orphan the iterator
; 1804 : 					(*_Pnext)->_Clrcont();

	mov	edx, DWORD PTR __Pnext$[ebp]
	mov	ecx, DWORD PTR [edx]
	call	?_Clrcont@_Iterator_base12@std@@QAEXXZ	; std::_Iterator_base12::_Clrcont

; 1805 : 					*_Pnext = *(const_iterator **)(*_Pnext)->_Getpnext();

	mov	eax, DWORD PTR __Pnext$[ebp]
	mov	ecx, DWORD PTR [eax]
	call	?_Getpnext@_Iterator_base12@std@@QAEPAPAU12@XZ ; std::_Iterator_base12::_Getpnext
	mov	ecx, DWORD PTR __Pnext$[ebp]
	mov	edx, DWORD PTR [eax]
	mov	DWORD PTR [ecx], edx
$LN6@Orphan_ran:

; 1806 : 					}

	jmp	SHORT $LN2@Orphan_ran
$LN4@Orphan_ran:

; 1807 : 			}
; 1808 : 		}

	mov	DWORD PTR __$EHRec$[ebp+8], -1
	lea	ecx, DWORD PTR __Lock$[ebp]
	call	??1_Lockit@std@@QAE@XZ			; std::_Lockit::~_Lockit
	push	edx
	mov	ecx, ebp
	push	eax
	lea	edx, DWORD PTR $LN13@Orphan_ran
	call	@_RTC_CheckStackVars@8
	pop	eax
	pop	edx
	mov	ecx, DWORD PTR __$EHRec$[ebp]
	mov	DWORD PTR fs:0, ecx
	pop	ecx
	add	esp, 32					; 00000020H
	cmp	ebp, esp
	call	__RTC_CheckEsp
	mov	esp, ebp
	pop	ebp
	ret	8
	npad	1
$LN13@Orphan_ran:
	DD	1
	DD	$LN12@Orphan_ran
$LN12@Orphan_ran:
	DD	-24					; ffffffe8H
	DD	4
	DD	$LN10@Orphan_ran
$LN10@Orphan_ran:
	DB	95					; 0000005fH
	DB	76					; 0000004cH
	DB	111					; 0000006fH
	DB	99					; 00000063H
	DB	107					; 0000006bH
	DB	0
_TEXT	ENDS
;	COMDAT text$x
text$x	SEGMENT
__unwindfunclet$?_Orphan_range@?$vector@UVector2D@@V?$allocator@UVector2D@@@std@@@std@@IBEXPAUVector2D@@0@Z$0:
	lea	ecx, DWORD PTR __Lock$[ebp]
	jmp	??1_Lockit@std@@QAE@XZ			; std::_Lockit::~_Lockit
__ehhandler$?_Orphan_range@?$vector@UVector2D@@V?$allocator@UVector2D@@@std@@@std@@IBEXPAUVector2D@@0@Z:
	mov	edx, DWORD PTR [esp+8]
	lea	eax, DWORD PTR [edx+12]
	mov	ecx, DWORD PTR [edx-24]
	xor	ecx, eax
	call	@__security_check_cookie@4
	mov	eax, OFFSET __ehfuncinfo$?_Orphan_range@?$vector@UVector2D@@V?$allocator@UVector2D@@@std@@@std@@IBEXPAUVector2D@@0@Z
	jmp	___CxxFrameHandler3
text$x	ENDS
?_Orphan_range@?$vector@UVector2D@@V?$allocator@UVector2D@@@std@@@std@@IBEXPAUVector2D@@0@Z ENDP ; std::vector<Vector2D,std::allocator<Vector2D> >::_Orphan_range
; Function compile flags: /Odtp /RTCsu
; File d:\microsoft visual studio 14.0\vc\include\vector
;	COMDAT ?_Xlen@?$vector@UVector2D@@V?$allocator@UVector2D@@@std@@@std@@IBEXXZ
_TEXT	SEGMENT
_this$ = -4						; size = 4
?_Xlen@?$vector@UVector2D@@V?$allocator@UVector2D@@@std@@@std@@IBEXXZ PROC ; std::vector<Vector2D,std::allocator<Vector2D> >::_Xlen, COMDAT
; _this$ = ecx

; 1783 : 		{	// report a length_error

	push	ebp
	mov	ebp, esp
	push	ecx
	mov	DWORD PTR [ebp-4], -858993460		; ccccccccH
	mov	DWORD PTR _this$[ebp], ecx

; 1784 : 		_Xlength_error("vector<T> too long");

	push	OFFSET ??_C@_0BD@OLBABOEK@vector?$DMT?$DO?5too?5long?$AA@
	call	?_Xlength_error@std@@YAXPBD@Z		; std::_Xlength_error
$LN2@Xlen:

; 1785 : 		}

	add	esp, 4
	cmp	ebp, esp
	call	__RTC_CheckEsp
	mov	esp, ebp
	pop	ebp
	ret	0
?_Xlen@?$vector@UVector2D@@V?$allocator@UVector2D@@@std@@@std@@IBEXXZ ENDP ; std::vector<Vector2D,std::allocator<Vector2D> >::_Xlen
_TEXT	ENDS
; Function compile flags: /Odtp /RTCsu
; File d:\microsoft visual studio 14.0\vc\include\vector
;	COMDAT ?_Tidy@?$vector@UVector2D@@V?$allocator@UVector2D@@@std@@@std@@IAEXXZ
_TEXT	SEGMENT
_this$ = -4						; size = 4
?_Tidy@?$vector@UVector2D@@V?$allocator@UVector2D@@@std@@@std@@IAEXXZ PROC ; std::vector<Vector2D,std::allocator<Vector2D> >::_Tidy, COMDAT
; _this$ = ecx

; 1655 : 		{	// free all storage

	push	ebp
	mov	ebp, esp
	push	ecx
	push	esi
	mov	DWORD PTR [ebp-4], -858993460		; ccccccccH
	mov	DWORD PTR _this$[ebp], ecx

; 1656 : 		if (this->_Myfirst() != pointer())

	mov	ecx, DWORD PTR _this$[ebp]
	call	?_Myfirst@?$_Vector_alloc@U?$_Vec_base_types@UVector2D@@V?$allocator@UVector2D@@@std@@@std@@@std@@QAEAAPAUVector2D@@XZ ; std::_Vector_alloc<std::_Vec_base_types<Vector2D,std::allocator<Vector2D> > >::_Myfirst
	cmp	DWORD PTR [eax], 0
	je	$LN1@Tidy

; 1657 : 			{	// something to free, destroy and deallocate it
; 1658 : 			this->_Orphan_all();

	mov	ecx, DWORD PTR _this$[ebp]
	call	?_Orphan_all@?$_Vector_alloc@U?$_Vec_base_types@UVector2D@@V?$allocator@UVector2D@@@std@@@std@@@std@@QAEXXZ ; std::_Vector_alloc<std::_Vec_base_types<Vector2D,std::allocator<Vector2D> > >::_Orphan_all

; 1659 : 			_Destroy(this->_Myfirst(), this->_Mylast());

	mov	ecx, DWORD PTR _this$[ebp]
	call	?_Mylast@?$_Vector_alloc@U?$_Vec_base_types@UVector2D@@V?$allocator@UVector2D@@@std@@@std@@@std@@QAEAAPAUVector2D@@XZ ; std::_Vector_alloc<std::_Vec_base_types<Vector2D,std::allocator<Vector2D> > >::_Mylast
	mov	eax, DWORD PTR [eax]
	push	eax
	mov	ecx, DWORD PTR _this$[ebp]
	call	?_Myfirst@?$_Vector_alloc@U?$_Vec_base_types@UVector2D@@V?$allocator@UVector2D@@@std@@@std@@@std@@QAEAAPAUVector2D@@XZ ; std::_Vector_alloc<std::_Vec_base_types<Vector2D,std::allocator<Vector2D> > >::_Myfirst
	mov	ecx, DWORD PTR [eax]
	push	ecx
	mov	ecx, DWORD PTR _this$[ebp]
	call	?_Destroy@?$vector@UVector2D@@V?$allocator@UVector2D@@@std@@@std@@IAEXPAUVector2D@@0@Z ; std::vector<Vector2D,std::allocator<Vector2D> >::_Destroy

; 1660 : 			this->_Getal().deallocate(this->_Myfirst(),

	mov	ecx, DWORD PTR _this$[ebp]
	call	?_Myend@?$_Vector_alloc@U?$_Vec_base_types@UVector2D@@V?$allocator@UVector2D@@@std@@@std@@@std@@QAEAAPAUVector2D@@XZ ; std::_Vector_alloc<std::_Vec_base_types<Vector2D,std::allocator<Vector2D> > >::_Myend
	mov	esi, eax
	mov	ecx, DWORD PTR _this$[ebp]
	call	?_Myfirst@?$_Vector_alloc@U?$_Vec_base_types@UVector2D@@V?$allocator@UVector2D@@@std@@@std@@@std@@QAEAAPAUVector2D@@XZ ; std::_Vector_alloc<std::_Vec_base_types<Vector2D,std::allocator<Vector2D> > >::_Myfirst
	mov	edx, DWORD PTR [esi]
	sub	edx, DWORD PTR [eax]
	sar	edx, 4
	push	edx
	mov	ecx, DWORD PTR _this$[ebp]
	call	?_Myfirst@?$_Vector_alloc@U?$_Vec_base_types@UVector2D@@V?$allocator@UVector2D@@@std@@@std@@@std@@QAEAAPAUVector2D@@XZ ; std::_Vector_alloc<std::_Vec_base_types<Vector2D,std::allocator<Vector2D> > >::_Myfirst
	mov	eax, DWORD PTR [eax]
	push	eax
	mov	ecx, DWORD PTR _this$[ebp]
	call	?_Getal@?$_Vector_alloc@U?$_Vec_base_types@UVector2D@@V?$allocator@UVector2D@@@std@@@std@@@std@@QAEAAU?$_Wrap_alloc@V?$allocator@UVector2D@@@std@@@2@XZ ; std::_Vector_alloc<std::_Vec_base_types<Vector2D,std::allocator<Vector2D> > >::_Getal
	mov	ecx, eax
	call	?deallocate@?$_Wrap_alloc@V?$allocator@UVector2D@@@std@@@std@@QAEXPAUVector2D@@I@Z ; std::_Wrap_alloc<std::allocator<Vector2D> >::deallocate

; 1661 : 				this->_Myend() - this->_Myfirst());
; 1662 : 			this->_Myfirst() = pointer();

	mov	ecx, DWORD PTR _this$[ebp]
	call	?_Myfirst@?$_Vector_alloc@U?$_Vec_base_types@UVector2D@@V?$allocator@UVector2D@@@std@@@std@@@std@@QAEAAPAUVector2D@@XZ ; std::_Vector_alloc<std::_Vec_base_types<Vector2D,std::allocator<Vector2D> > >::_Myfirst
	mov	DWORD PTR [eax], 0

; 1663 : 			this->_Mylast() = pointer();

	mov	ecx, DWORD PTR _this$[ebp]
	call	?_Mylast@?$_Vector_alloc@U?$_Vec_base_types@UVector2D@@V?$allocator@UVector2D@@@std@@@std@@@std@@QAEAAPAUVector2D@@XZ ; std::_Vector_alloc<std::_Vec_base_types<Vector2D,std::allocator<Vector2D> > >::_Mylast
	mov	DWORD PTR [eax], 0

; 1664 : 			this->_Myend() = pointer();

	mov	ecx, DWORD PTR _this$[ebp]
	call	?_Myend@?$_Vector_alloc@U?$_Vec_base_types@UVector2D@@V?$allocator@UVector2D@@@std@@@std@@@std@@QAEAAPAUVector2D@@XZ ; std::_Vector_alloc<std::_Vec_base_types<Vector2D,std::allocator<Vector2D> > >::_Myend
	mov	DWORD PTR [eax], 0
$LN1@Tidy:

; 1665 : 			}
; 1666 : 		}

	pop	esi
	add	esp, 4
	cmp	ebp, esp
	call	__RTC_CheckEsp
	mov	esp, ebp
	pop	ebp
	ret	0
?_Tidy@?$vector@UVector2D@@V?$allocator@UVector2D@@@std@@@std@@IAEXXZ ENDP ; std::vector<Vector2D,std::allocator<Vector2D> >::_Tidy
_TEXT	ENDS
; Function compile flags: /Odtp /RTCsu
; File d:\microsoft visual studio 14.0\vc\include\vector
;	COMDAT ?_Reserve@?$vector@UVector2D@@V?$allocator@UVector2D@@@std@@@std@@IAEXI@Z
_TEXT	SEGMENT
_this$ = -4						; size = 4
__Count$ = 8						; size = 4
?_Reserve@?$vector@UVector2D@@V?$allocator@UVector2D@@@std@@@std@@IAEXI@Z PROC ; std::vector<Vector2D,std::allocator<Vector2D> >::_Reserve, COMDAT
; _this$ = ecx

; 1645 : 		{	// ensure room for _Count new elements, grow exponentially

	push	ebp
	mov	ebp, esp
	push	ecx
	push	esi
	mov	DWORD PTR [ebp-4], -858993460		; ccccccccH
	mov	DWORD PTR _this$[ebp], ecx

; 1646 : 		if (_Unused_capacity() < _Count)

	mov	ecx, DWORD PTR _this$[ebp]
	call	?_Unused_capacity@?$vector@UVector2D@@V?$allocator@UVector2D@@@std@@@std@@QBEIXZ ; std::vector<Vector2D,std::allocator<Vector2D> >::_Unused_capacity
	cmp	eax, DWORD PTR __Count$[ebp]
	jae	SHORT $LN4@Reserve

; 1647 : 			{	// need more room, try to get it
; 1648 : 			if (max_size() - size() < _Count)

	mov	ecx, DWORD PTR _this$[ebp]
	call	?max_size@?$vector@UVector2D@@V?$allocator@UVector2D@@@std@@@std@@QBEIXZ ; std::vector<Vector2D,std::allocator<Vector2D> >::max_size
	mov	esi, eax
	mov	ecx, DWORD PTR _this$[ebp]
	call	?size@?$vector@UVector2D@@V?$allocator@UVector2D@@@std@@@std@@QBEIXZ ; std::vector<Vector2D,std::allocator<Vector2D> >::size
	sub	esi, eax
	cmp	esi, DWORD PTR __Count$[ebp]
	jae	SHORT $LN3@Reserve

; 1649 : 				_Xlen();

	mov	ecx, DWORD PTR _this$[ebp]
	call	?_Xlen@?$vector@UVector2D@@V?$allocator@UVector2D@@@std@@@std@@IBEXXZ ; std::vector<Vector2D,std::allocator<Vector2D> >::_Xlen
$LN3@Reserve:

; 1650 : 			_Reallocate(_Grow_to(size() + _Count));

	mov	ecx, DWORD PTR _this$[ebp]
	call	?size@?$vector@UVector2D@@V?$allocator@UVector2D@@@std@@@std@@QBEIXZ ; std::vector<Vector2D,std::allocator<Vector2D> >::size
	add	eax, DWORD PTR __Count$[ebp]
	push	eax
	mov	ecx, DWORD PTR _this$[ebp]
	call	?_Grow_to@?$vector@UVector2D@@V?$allocator@UVector2D@@@std@@@std@@IBEII@Z ; std::vector<Vector2D,std::allocator<Vector2D> >::_Grow_to
	push	eax
	mov	ecx, DWORD PTR _this$[ebp]
	call	?_Reallocate@?$vector@UVector2D@@V?$allocator@UVector2D@@@std@@@std@@IAEXI@Z ; std::vector<Vector2D,std::allocator<Vector2D> >::_Reallocate
$LN4@Reserve:

; 1651 : 			}
; 1652 : 		}

	pop	esi
	add	esp, 4
	cmp	ebp, esp
	call	__RTC_CheckEsp
	mov	esp, ebp
	pop	ebp
	ret	4
?_Reserve@?$vector@UVector2D@@V?$allocator@UVector2D@@@std@@@std@@IAEXI@Z ENDP ; std::vector<Vector2D,std::allocator<Vector2D> >::_Reserve
_TEXT	ENDS
; Function compile flags: /Odtp /RTCsu
; File d:\microsoft visual studio 14.0\vc\include\vector
;	COMDAT ?_Reallocate@?$vector@UVector2D@@V?$allocator@UVector2D@@@std@@@std@@IAEXI@Z
_TEXT	SEGMENT
__Size$ = -28						; size = 4
__Ptr$ = -24						; size = 4
_this$ = -20						; size = 4
__$EHRec$ = -16						; size = 16
__Count$ = 8						; size = 4
?_Reallocate@?$vector@UVector2D@@V?$allocator@UVector2D@@@std@@@std@@IAEXI@Z PROC ; std::vector<Vector2D,std::allocator<Vector2D> >::_Reallocate, COMDAT
; _this$ = ecx

; 1620 : 		{	// move to array of exactly _Count elements

	push	ebp
	mov	ebp, esp
	push	-1
	push	__ehhandler$?_Reallocate@?$vector@UVector2D@@V?$allocator@UVector2D@@@std@@@std@@IAEXI@Z
	mov	eax, DWORD PTR fs:0
	push	eax
	push	ecx
	sub	esp, 12					; 0000000cH
	push	ebx
	push	esi
	push	edi
	mov	DWORD PTR [ebp-28], -858993460		; ccccccccH
	mov	DWORD PTR [ebp-24], -858993460		; ccccccccH
	mov	DWORD PTR [ebp-20], -858993460		; ccccccccH
	mov	eax, DWORD PTR ___security_cookie
	xor	eax, ebp
	push	eax
	lea	eax, DWORD PTR __$EHRec$[ebp+4]
	mov	DWORD PTR fs:0, eax
	mov	DWORD PTR __$EHRec$[ebp], esp
	mov	DWORD PTR _this$[ebp], ecx

; 1621 : 		pointer _Ptr = this->_Getal().allocate(_Count);

	mov	eax, DWORD PTR __Count$[ebp]
	push	eax
	mov	ecx, DWORD PTR _this$[ebp]
	call	?_Getal@?$_Vector_alloc@U?$_Vec_base_types@UVector2D@@V?$allocator@UVector2D@@@std@@@std@@@std@@QAEAAU?$_Wrap_alloc@V?$allocator@UVector2D@@@std@@@2@XZ ; std::_Vector_alloc<std::_Vec_base_types<Vector2D,std::allocator<Vector2D> > >::_Getal
	mov	ecx, eax
	call	?allocate@?$_Wrap_alloc@V?$allocator@UVector2D@@@std@@@std@@QAEPAUVector2D@@I@Z ; std::_Wrap_alloc<std::allocator<Vector2D> >::allocate
	mov	DWORD PTR __Ptr$[ebp], eax

; 1622 : 
; 1623 : 		_TRY_BEGIN

	mov	DWORD PTR __$EHRec$[ebp+12], 0

; 1624 : 		_Umove(this->_Myfirst(), this->_Mylast(), _Ptr);

	mov	ecx, DWORD PTR __Ptr$[ebp]
	push	ecx
	mov	ecx, DWORD PTR _this$[ebp]
	call	?_Mylast@?$_Vector_alloc@U?$_Vec_base_types@UVector2D@@V?$allocator@UVector2D@@@std@@@std@@@std@@QAEAAPAUVector2D@@XZ ; std::_Vector_alloc<std::_Vec_base_types<Vector2D,std::allocator<Vector2D> > >::_Mylast
	mov	edx, DWORD PTR [eax]
	push	edx
	mov	ecx, DWORD PTR _this$[ebp]
	call	?_Myfirst@?$_Vector_alloc@U?$_Vec_base_types@UVector2D@@V?$allocator@UVector2D@@@std@@@std@@@std@@QAEAAPAUVector2D@@XZ ; std::_Vector_alloc<std::_Vec_base_types<Vector2D,std::allocator<Vector2D> > >::_Myfirst
	mov	eax, DWORD PTR [eax]
	push	eax
	mov	ecx, DWORD PTR _this$[ebp]
	call	??$_Umove@PAUVector2D@@@?$vector@UVector2D@@V?$allocator@UVector2D@@@std@@@std@@IAEPAUVector2D@@PAU2@00@Z ; std::vector<Vector2D,std::allocator<Vector2D> >::_Umove<Vector2D *>
	jmp	SHORT $LN5@Reallocate
__catch$?_Reallocate@?$vector@UVector2D@@V?$allocator@UVector2D@@@std@@@std@@IAEXI@Z$0:

; 1625 : 		_CATCH_ALL
; 1626 : 		this->_Getal().deallocate(_Ptr, _Count);

	mov	ecx, DWORD PTR __Count$[ebp]
	push	ecx
	mov	edx, DWORD PTR __Ptr$[ebp]
	push	edx
	mov	ecx, DWORD PTR _this$[ebp]
	call	?_Getal@?$_Vector_alloc@U?$_Vec_base_types@UVector2D@@V?$allocator@UVector2D@@@std@@@std@@@std@@QAEAAU?$_Wrap_alloc@V?$allocator@UVector2D@@@std@@@2@XZ ; std::_Vector_alloc<std::_Vec_base_types<Vector2D,std::allocator<Vector2D> > >::_Getal
	mov	ecx, eax
	call	?deallocate@?$_Wrap_alloc@V?$allocator@UVector2D@@@std@@@std@@QAEXPAUVector2D@@I@Z ; std::_Wrap_alloc<std::allocator<Vector2D> >::deallocate

; 1627 : 		_RERAISE;

	push	0
	push	0
	call	__CxxThrowException@8

; 1628 : 		_CATCH_END

	mov	eax, $LN8@Reallocate
	ret	0
$LN5@Reallocate:
	mov	DWORD PTR __$EHRec$[ebp+12], -1
	jmp	SHORT __tryend$?_Reallocate@?$vector@UVector2D@@V?$allocator@UVector2D@@@std@@@std@@IAEXI@Z$1
$LN8@Reallocate:
	mov	DWORD PTR __$EHRec$[ebp+12], -1
__tryend$?_Reallocate@?$vector@UVector2D@@V?$allocator@UVector2D@@@std@@@std@@IAEXI@Z$1:

; 1629 : 
; 1630 : 		size_type _Size = size();

	mov	ecx, DWORD PTR _this$[ebp]
	call	?size@?$vector@UVector2D@@V?$allocator@UVector2D@@@std@@@std@@QBEIXZ ; std::vector<Vector2D,std::allocator<Vector2D> >::size
	mov	DWORD PTR __Size$[ebp], eax

; 1631 : 		if (this->_Myfirst() != pointer())

	mov	ecx, DWORD PTR _this$[ebp]
	call	?_Myfirst@?$_Vector_alloc@U?$_Vec_base_types@UVector2D@@V?$allocator@UVector2D@@@std@@@std@@@std@@QAEAAPAUVector2D@@XZ ; std::_Vector_alloc<std::_Vec_base_types<Vector2D,std::allocator<Vector2D> > >::_Myfirst
	cmp	DWORD PTR [eax], 0
	je	SHORT $LN3@Reallocate

; 1632 : 			{	// destroy and deallocate old array
; 1633 : 			_Destroy(this->_Myfirst(), this->_Mylast());

	mov	ecx, DWORD PTR _this$[ebp]
	call	?_Mylast@?$_Vector_alloc@U?$_Vec_base_types@UVector2D@@V?$allocator@UVector2D@@@std@@@std@@@std@@QAEAAPAUVector2D@@XZ ; std::_Vector_alloc<std::_Vec_base_types<Vector2D,std::allocator<Vector2D> > >::_Mylast
	mov	eax, DWORD PTR [eax]
	push	eax
	mov	ecx, DWORD PTR _this$[ebp]
	call	?_Myfirst@?$_Vector_alloc@U?$_Vec_base_types@UVector2D@@V?$allocator@UVector2D@@@std@@@std@@@std@@QAEAAPAUVector2D@@XZ ; std::_Vector_alloc<std::_Vec_base_types<Vector2D,std::allocator<Vector2D> > >::_Myfirst
	mov	ecx, DWORD PTR [eax]
	push	ecx
	mov	ecx, DWORD PTR _this$[ebp]
	call	?_Destroy@?$vector@UVector2D@@V?$allocator@UVector2D@@@std@@@std@@IAEXPAUVector2D@@0@Z ; std::vector<Vector2D,std::allocator<Vector2D> >::_Destroy

; 1634 : 			this->_Getal().deallocate(this->_Myfirst(),

	mov	ecx, DWORD PTR _this$[ebp]
	call	?_Myfirst@?$_Vector_alloc@U?$_Vec_base_types@UVector2D@@V?$allocator@UVector2D@@@std@@@std@@@std@@QAEAAPAUVector2D@@XZ ; std::_Vector_alloc<std::_Vec_base_types<Vector2D,std::allocator<Vector2D> > >::_Myfirst
	mov	esi, eax
	mov	ecx, DWORD PTR _this$[ebp]
	call	?_Myend@?$_Vector_alloc@U?$_Vec_base_types@UVector2D@@V?$allocator@UVector2D@@@std@@@std@@@std@@QAEAAPAUVector2D@@XZ ; std::_Vector_alloc<std::_Vec_base_types<Vector2D,std::allocator<Vector2D> > >::_Myend
	mov	edx, DWORD PTR [eax]
	sub	edx, DWORD PTR [esi]
	sar	edx, 4
	push	edx
	mov	ecx, DWORD PTR _this$[ebp]
	call	?_Myfirst@?$_Vector_alloc@U?$_Vec_base_types@UVector2D@@V?$allocator@UVector2D@@@std@@@std@@@std@@QAEAAPAUVector2D@@XZ ; std::_Vector_alloc<std::_Vec_base_types<Vector2D,std::allocator<Vector2D> > >::_Myfirst
	mov	eax, DWORD PTR [eax]
	push	eax
	mov	ecx, DWORD PTR _this$[ebp]
	call	?_Getal@?$_Vector_alloc@U?$_Vec_base_types@UVector2D@@V?$allocator@UVector2D@@@std@@@std@@@std@@QAEAAU?$_Wrap_alloc@V?$allocator@UVector2D@@@std@@@2@XZ ; std::_Vector_alloc<std::_Vec_base_types<Vector2D,std::allocator<Vector2D> > >::_Getal
	mov	ecx, eax
	call	?deallocate@?$_Wrap_alloc@V?$allocator@UVector2D@@@std@@@std@@QAEXPAUVector2D@@I@Z ; std::_Wrap_alloc<std::allocator<Vector2D> >::deallocate
$LN3@Reallocate:

; 1635 : 				this->_Myend() - this->_Myfirst());
; 1636 : 			}
; 1637 : 
; 1638 : 		this->_Orphan_all();

	mov	ecx, DWORD PTR _this$[ebp]
	call	?_Orphan_all@?$_Vector_alloc@U?$_Vec_base_types@UVector2D@@V?$allocator@UVector2D@@@std@@@std@@@std@@QAEXXZ ; std::_Vector_alloc<std::_Vec_base_types<Vector2D,std::allocator<Vector2D> > >::_Orphan_all

; 1639 : 		this->_Myend() = _Ptr + _Count;

	mov	esi, DWORD PTR __Count$[ebp]
	shl	esi, 4
	add	esi, DWORD PTR __Ptr$[ebp]
	mov	ecx, DWORD PTR _this$[ebp]
	call	?_Myend@?$_Vector_alloc@U?$_Vec_base_types@UVector2D@@V?$allocator@UVector2D@@@std@@@std@@@std@@QAEAAPAUVector2D@@XZ ; std::_Vector_alloc<std::_Vec_base_types<Vector2D,std::allocator<Vector2D> > >::_Myend
	mov	DWORD PTR [eax], esi

; 1640 : 		this->_Mylast() = _Ptr + _Size;

	mov	esi, DWORD PTR __Size$[ebp]
	shl	esi, 4
	add	esi, DWORD PTR __Ptr$[ebp]
	mov	ecx, DWORD PTR _this$[ebp]
	call	?_Mylast@?$_Vector_alloc@U?$_Vec_base_types@UVector2D@@V?$allocator@UVector2D@@@std@@@std@@@std@@QAEAAPAUVector2D@@XZ ; std::_Vector_alloc<std::_Vec_base_types<Vector2D,std::allocator<Vector2D> > >::_Mylast
	mov	DWORD PTR [eax], esi

; 1641 : 		this->_Myfirst() = _Ptr;

	mov	ecx, DWORD PTR _this$[ebp]
	call	?_Myfirst@?$_Vector_alloc@U?$_Vec_base_types@UVector2D@@V?$allocator@UVector2D@@@std@@@std@@@std@@QAEAAPAUVector2D@@XZ ; std::_Vector_alloc<std::_Vec_base_types<Vector2D,std::allocator<Vector2D> > >::_Myfirst
	mov	ecx, DWORD PTR __Ptr$[ebp]
	mov	DWORD PTR [eax], ecx
$LN4@Reallocate:

; 1642 : 		}

	mov	ecx, DWORD PTR __$EHRec$[ebp+4]
	mov	DWORD PTR fs:0, ecx
	pop	ecx
	pop	edi
	pop	esi
	pop	ebx
	add	esp, 28					; 0000001cH
	cmp	ebp, esp
	call	__RTC_CheckEsp
	mov	esp, ebp
	pop	ebp
	ret	4
_TEXT	ENDS
;	COMDAT text$x
text$x	SEGMENT
__ehhandler$?_Reallocate@?$vector@UVector2D@@V?$allocator@UVector2D@@@std@@@std@@IAEXI@Z:
	mov	edx, DWORD PTR [esp+8]
	lea	eax, DWORD PTR [edx+12]
	mov	ecx, DWORD PTR [edx-32]
	xor	ecx, eax
	call	@__security_check_cookie@4
	mov	eax, OFFSET __ehfuncinfo$?_Reallocate@?$vector@UVector2D@@V?$allocator@UVector2D@@@std@@@std@@IAEXI@Z
	jmp	___CxxFrameHandler3
text$x	ENDS
?_Reallocate@?$vector@UVector2D@@V?$allocator@UVector2D@@@std@@@std@@IAEXI@Z ENDP ; std::vector<Vector2D,std::allocator<Vector2D> >::_Reallocate
; Function compile flags: /Odtp /RTCsu
; File d:\microsoft visual studio 14.0\vc\include\vector
;	COMDAT ?_Inside@?$vector@UVector2D@@V?$allocator@UVector2D@@@std@@@std@@IBE_NPBUVector2D@@@Z
_TEXT	SEGMENT
tv78 = -8						; size = 4
_this$ = -4						; size = 4
__Ptr$ = 8						; size = 4
?_Inside@?$vector@UVector2D@@V?$allocator@UVector2D@@@std@@@std@@IBE_NPBUVector2D@@@Z PROC ; std::vector<Vector2D,std::allocator<Vector2D> >::_Inside, COMDAT
; _this$ = ecx

; 1615 : 		{	// test if _Ptr points inside vector

	push	ebp
	mov	ebp, esp
	sub	esp, 8
	mov	DWORD PTR [ebp-8], -858993460		; ccccccccH
	mov	DWORD PTR [ebp-4], -858993460		; ccccccccH
	mov	DWORD PTR _this$[ebp], ecx

; 1616 : 		return (_Ptr < this->_Mylast() && this->_Myfirst() <= _Ptr);

	mov	ecx, DWORD PTR _this$[ebp]
	call	?_Mylast@?$_Vector_alloc@U?$_Vec_base_types@UVector2D@@V?$allocator@UVector2D@@@std@@@std@@@std@@QBEABQAUVector2D@@XZ ; std::_Vector_alloc<std::_Vec_base_types<Vector2D,std::allocator<Vector2D> > >::_Mylast
	mov	ecx, DWORD PTR __Ptr$[ebp]
	cmp	ecx, DWORD PTR [eax]
	jae	SHORT $LN3@Inside
	mov	ecx, DWORD PTR _this$[ebp]
	call	?_Myfirst@?$_Vector_alloc@U?$_Vec_base_types@UVector2D@@V?$allocator@UVector2D@@@std@@@std@@@std@@QBEABQAUVector2D@@XZ ; std::_Vector_alloc<std::_Vec_base_types<Vector2D,std::allocator<Vector2D> > >::_Myfirst
	mov	edx, DWORD PTR [eax]
	cmp	edx, DWORD PTR __Ptr$[ebp]
	ja	SHORT $LN3@Inside
	mov	DWORD PTR tv78[ebp], 1
	jmp	SHORT $LN4@Inside
$LN3@Inside:
	mov	DWORD PTR tv78[ebp], 0
$LN4@Inside:
	mov	al, BYTE PTR tv78[ebp]

; 1617 : 		}

	add	esp, 8
	cmp	ebp, esp
	call	__RTC_CheckEsp
	mov	esp, ebp
	pop	ebp
	ret	4
?_Inside@?$vector@UVector2D@@V?$allocator@UVector2D@@@std@@@std@@IBE_NPBUVector2D@@@Z ENDP ; std::vector<Vector2D,std::allocator<Vector2D> >::_Inside
_TEXT	ENDS
; Function compile flags: /Odtp /RTCsu
; File d:\microsoft visual studio 14.0\vc\include\vector
;	COMDAT ?_Grow_to@?$vector@UVector2D@@V?$allocator@UVector2D@@@std@@@std@@IBEII@Z
_TEXT	SEGMENT
tv73 = -12						; size = 4
__Capacity$ = -8					; size = 4
_this$ = -4						; size = 4
__Count$ = 8						; size = 4
?_Grow_to@?$vector@UVector2D@@V?$allocator@UVector2D@@@std@@@std@@IBEII@Z PROC ; std::vector<Vector2D,std::allocator<Vector2D> >::_Grow_to, COMDAT
; _this$ = ecx

; 1604 : 		{	// grow by 50% or at least to _Count

	push	ebp
	mov	ebp, esp
	sub	esp, 12					; 0000000cH
	mov	DWORD PTR [ebp-12], -858993460		; ccccccccH
	mov	DWORD PTR [ebp-8], -858993460		; ccccccccH
	mov	DWORD PTR [ebp-4], -858993460		; ccccccccH
	mov	DWORD PTR _this$[ebp], ecx

; 1605 : 		size_type _Capacity = capacity();

	mov	ecx, DWORD PTR _this$[ebp]
	call	?capacity@?$vector@UVector2D@@V?$allocator@UVector2D@@@std@@@std@@QBEIXZ ; std::vector<Vector2D,std::allocator<Vector2D> >::capacity
	mov	DWORD PTR __Capacity$[ebp], eax

; 1606 : 
; 1607 : 		_Capacity = max_size() - _Capacity / 2 < _Capacity

	mov	ecx, DWORD PTR _this$[ebp]
	call	?max_size@?$vector@UVector2D@@V?$allocator@UVector2D@@@std@@@std@@QBEIXZ ; std::vector<Vector2D,std::allocator<Vector2D> >::max_size
	mov	ecx, DWORD PTR __Capacity$[ebp]
	shr	ecx, 1
	sub	eax, ecx
	cmp	eax, DWORD PTR __Capacity$[ebp]
	jae	SHORT $LN4@Grow_to
	mov	DWORD PTR tv73[ebp], 0
	jmp	SHORT $LN5@Grow_to
$LN4@Grow_to:
	mov	edx, DWORD PTR __Capacity$[ebp]
	shr	edx, 1
	add	edx, DWORD PTR __Capacity$[ebp]
	mov	DWORD PTR tv73[ebp], edx
$LN5@Grow_to:
	mov	eax, DWORD PTR tv73[ebp]
	mov	DWORD PTR __Capacity$[ebp], eax

; 1608 : 			? 0 : _Capacity + _Capacity / 2;	// try to grow by 50%
; 1609 : 		if (_Capacity < _Count)

	mov	ecx, DWORD PTR __Capacity$[ebp]
	cmp	ecx, DWORD PTR __Count$[ebp]
	jae	SHORT $LN2@Grow_to

; 1610 : 			_Capacity = _Count;

	mov	edx, DWORD PTR __Count$[ebp]
	mov	DWORD PTR __Capacity$[ebp], edx
$LN2@Grow_to:

; 1611 : 		return (_Capacity);

	mov	eax, DWORD PTR __Capacity$[ebp]

; 1612 : 		}

	add	esp, 12					; 0000000cH
	cmp	ebp, esp
	call	__RTC_CheckEsp
	mov	esp, ebp
	pop	ebp
	ret	4
?_Grow_to@?$vector@UVector2D@@V?$allocator@UVector2D@@@std@@@std@@IBEII@Z ENDP ; std::vector<Vector2D,std::allocator<Vector2D> >::_Grow_to
_TEXT	ENDS
; Function compile flags: /Odtp /RTCsu
; File d:\microsoft visual studio 14.0\vc\include\vector
;	COMDAT ?_Destroy@?$vector@UVector2D@@V?$allocator@UVector2D@@@std@@@std@@IAEXPAUVector2D@@0@Z
_TEXT	SEGMENT
_this$ = -4						; size = 4
__First$ = 8						; size = 4
__Last$ = 12						; size = 4
?_Destroy@?$vector@UVector2D@@V?$allocator@UVector2D@@@std@@@std@@IAEXPAUVector2D@@0@Z PROC ; std::vector<Vector2D,std::allocator<Vector2D> >::_Destroy, COMDAT
; _this$ = ecx

; 1599 : 		{	// destroy [_First, _Last) using allocator

	push	ebp
	mov	ebp, esp
	push	ecx
	mov	DWORD PTR [ebp-4], -858993460		; ccccccccH
	mov	DWORD PTR _this$[ebp], ecx

; 1600 : 		_Destroy_range(_First, _Last, this->_Getal());

	mov	ecx, DWORD PTR _this$[ebp]
	call	?_Getal@?$_Vector_alloc@U?$_Vec_base_types@UVector2D@@V?$allocator@UVector2D@@@std@@@std@@@std@@QAEAAU?$_Wrap_alloc@V?$allocator@UVector2D@@@std@@@2@XZ ; std::_Vector_alloc<std::_Vec_base_types<Vector2D,std::allocator<Vector2D> > >::_Getal
	push	eax
	mov	eax, DWORD PTR __Last$[ebp]
	push	eax
	mov	ecx, DWORD PTR __First$[ebp]
	push	ecx
	call	??$_Destroy_range@U?$_Wrap_alloc@V?$allocator@UVector2D@@@std@@@std@@@std@@YAXPAUVector2D@@0AAU?$_Wrap_alloc@V?$allocator@UVector2D@@@std@@@0@@Z ; std::_Destroy_range<std::_Wrap_alloc<std::allocator<Vector2D> > >
	add	esp, 12					; 0000000cH

; 1601 : 		}

	add	esp, 4
	cmp	ebp, esp
	call	__RTC_CheckEsp
	mov	esp, ebp
	pop	ebp
	ret	8
?_Destroy@?$vector@UVector2D@@V?$allocator@UVector2D@@@std@@@std@@IAEXPAUVector2D@@0@Z ENDP ; std::vector<Vector2D,std::allocator<Vector2D> >::_Destroy
_TEXT	ENDS
; Function compile flags: /Odtp /RTCsu
; File d:\microsoft visual studio 14.0\vc\include\vector
;	COMDAT ?_Buy@?$vector@UVector2D@@V?$allocator@UVector2D@@@std@@@std@@IAE_NI@Z
_TEXT	SEGMENT
_this$ = -4						; size = 4
__Capacity$ = 8						; size = 4
?_Buy@?$vector@UVector2D@@V?$allocator@UVector2D@@@std@@@std@@IAE_NI@Z PROC ; std::vector<Vector2D,std::allocator<Vector2D> >::_Buy, COMDAT
; _this$ = ecx

; 1580 : 		{	// allocate array with _Capacity elements

	push	ebp
	mov	ebp, esp
	push	ecx
	push	esi
	mov	DWORD PTR [ebp-4], -858993460		; ccccccccH
	mov	DWORD PTR _this$[ebp], ecx

; 1581 : 		this->_Myfirst() = pointer();

	mov	ecx, DWORD PTR _this$[ebp]
	call	?_Myfirst@?$_Vector_alloc@U?$_Vec_base_types@UVector2D@@V?$allocator@UVector2D@@@std@@@std@@@std@@QAEAAPAUVector2D@@XZ ; std::_Vector_alloc<std::_Vec_base_types<Vector2D,std::allocator<Vector2D> > >::_Myfirst
	mov	DWORD PTR [eax], 0

; 1582 : 		this->_Mylast() = pointer();

	mov	ecx, DWORD PTR _this$[ebp]
	call	?_Mylast@?$_Vector_alloc@U?$_Vec_base_types@UVector2D@@V?$allocator@UVector2D@@@std@@@std@@@std@@QAEAAPAUVector2D@@XZ ; std::_Vector_alloc<std::_Vec_base_types<Vector2D,std::allocator<Vector2D> > >::_Mylast
	mov	DWORD PTR [eax], 0

; 1583 : 		this->_Myend() = pointer();

	mov	ecx, DWORD PTR _this$[ebp]
	call	?_Myend@?$_Vector_alloc@U?$_Vec_base_types@UVector2D@@V?$allocator@UVector2D@@@std@@@std@@@std@@QAEAAPAUVector2D@@XZ ; std::_Vector_alloc<std::_Vec_base_types<Vector2D,std::allocator<Vector2D> > >::_Myend
	mov	DWORD PTR [eax], 0

; 1584 : 
; 1585 : 		if (_Capacity == 0)

	cmp	DWORD PTR __Capacity$[ebp], 0
	jne	SHORT $LN2@Buy

; 1586 : 			return (false);

	xor	al, al
	jmp	SHORT $LN6@Buy
	jmp	SHORT $LN3@Buy
$LN2@Buy:

; 1587 : 		else if (max_size() < _Capacity)

	mov	ecx, DWORD PTR _this$[ebp]
	call	?max_size@?$vector@UVector2D@@V?$allocator@UVector2D@@@std@@@std@@QBEIXZ ; std::vector<Vector2D,std::allocator<Vector2D> >::max_size
	cmp	eax, DWORD PTR __Capacity$[ebp]
	jae	SHORT $LN4@Buy

; 1588 : 			_Xlen();	// result too long

	mov	ecx, DWORD PTR _this$[ebp]
	call	?_Xlen@?$vector@UVector2D@@V?$allocator@UVector2D@@@std@@@std@@IBEXXZ ; std::vector<Vector2D,std::allocator<Vector2D> >::_Xlen

; 1589 : 		else

	jmp	SHORT $LN3@Buy
$LN4@Buy:

; 1590 : 			{	// nonempty array, allocate storage
; 1591 : 			this->_Myfirst() = this->_Getal().allocate(_Capacity);

	mov	eax, DWORD PTR __Capacity$[ebp]
	push	eax
	mov	ecx, DWORD PTR _this$[ebp]
	call	?_Getal@?$_Vector_alloc@U?$_Vec_base_types@UVector2D@@V?$allocator@UVector2D@@@std@@@std@@@std@@QAEAAU?$_Wrap_alloc@V?$allocator@UVector2D@@@std@@@2@XZ ; std::_Vector_alloc<std::_Vec_base_types<Vector2D,std::allocator<Vector2D> > >::_Getal
	mov	ecx, eax
	call	?allocate@?$_Wrap_alloc@V?$allocator@UVector2D@@@std@@@std@@QAEPAUVector2D@@I@Z ; std::_Wrap_alloc<std::allocator<Vector2D> >::allocate
	mov	esi, eax
	mov	ecx, DWORD PTR _this$[ebp]
	call	?_Myfirst@?$_Vector_alloc@U?$_Vec_base_types@UVector2D@@V?$allocator@UVector2D@@@std@@@std@@@std@@QAEAAPAUVector2D@@XZ ; std::_Vector_alloc<std::_Vec_base_types<Vector2D,std::allocator<Vector2D> > >::_Myfirst
	mov	DWORD PTR [eax], esi

; 1592 : 			this->_Mylast() = this->_Myfirst();

	mov	ecx, DWORD PTR _this$[ebp]
	call	?_Myfirst@?$_Vector_alloc@U?$_Vec_base_types@UVector2D@@V?$allocator@UVector2D@@@std@@@std@@@std@@QAEAAPAUVector2D@@XZ ; std::_Vector_alloc<std::_Vec_base_types<Vector2D,std::allocator<Vector2D> > >::_Myfirst
	mov	esi, eax
	mov	ecx, DWORD PTR _this$[ebp]
	call	?_Mylast@?$_Vector_alloc@U?$_Vec_base_types@UVector2D@@V?$allocator@UVector2D@@@std@@@std@@@std@@QAEAAPAUVector2D@@XZ ; std::_Vector_alloc<std::_Vec_base_types<Vector2D,std::allocator<Vector2D> > >::_Mylast
	mov	ecx, DWORD PTR [esi]
	mov	DWORD PTR [eax], ecx

; 1593 : 			this->_Myend() = this->_Myfirst() + _Capacity;

	mov	ecx, DWORD PTR _this$[ebp]
	call	?_Myfirst@?$_Vector_alloc@U?$_Vec_base_types@UVector2D@@V?$allocator@UVector2D@@@std@@@std@@@std@@QAEAAPAUVector2D@@XZ ; std::_Vector_alloc<std::_Vec_base_types<Vector2D,std::allocator<Vector2D> > >::_Myfirst
	mov	esi, DWORD PTR __Capacity$[ebp]
	shl	esi, 4
	add	esi, DWORD PTR [eax]
	mov	ecx, DWORD PTR _this$[ebp]
	call	?_Myend@?$_Vector_alloc@U?$_Vec_base_types@UVector2D@@V?$allocator@UVector2D@@@std@@@std@@@std@@QAEAAPAUVector2D@@XZ ; std::_Vector_alloc<std::_Vec_base_types<Vector2D,std::allocator<Vector2D> > >::_Myend
	mov	DWORD PTR [eax], esi
$LN3@Buy:

; 1594 : 			}
; 1595 : 		return (true);

	mov	al, 1
$LN6@Buy:

; 1596 : 		}

	pop	esi
	add	esp, 4
	cmp	ebp, esp
	call	__RTC_CheckEsp
	mov	esp, ebp
	pop	ebp
	ret	4
?_Buy@?$vector@UVector2D@@V?$allocator@UVector2D@@@std@@@std@@IAE_NI@Z ENDP ; std::vector<Vector2D,std::allocator<Vector2D> >::_Buy
_TEXT	ENDS
; Function compile flags: /Odtp /RTCsu
; File d:\microsoft visual studio 14.0\vc\include\vector
;	COMDAT ?push_back@?$vector@UVector2D@@V?$allocator@UVector2D@@@std@@@std@@QAEXABUVector2D@@@Z
_TEXT	SEGMENT
tv225 = -16						; size = 4
tv172 = -12						; size = 4
__Idx$1 = -8						; size = 4
_this$ = -4						; size = 4
__Val$ = 8						; size = 4
?push_back@?$vector@UVector2D@@V?$allocator@UVector2D@@@std@@@std@@QAEXABUVector2D@@@Z PROC ; std::vector<Vector2D,std::allocator<Vector2D> >::push_back, COMDAT
; _this$ = ecx

; 1274 : 		{	// insert element at end

	push	ebp
	mov	ebp, esp
	sub	esp, 16					; 00000010H
	push	esi
	mov	eax, -858993460				; ccccccccH
	mov	DWORD PTR [ebp-16], eax
	mov	DWORD PTR [ebp-12], eax
	mov	DWORD PTR [ebp-8], eax
	mov	DWORD PTR [ebp-4], eax
	mov	DWORD PTR _this$[ebp], ecx

; 1275 : 		if (_Inside(_STD addressof(_Val)))

	mov	eax, DWORD PTR __Val$[ebp]
	push	eax
	call	??$addressof@$$CBUVector2D@@@std@@YAPBUVector2D@@ABU1@@Z ; std::addressof<Vector2D const >
	add	esp, 4
	push	eax
	mov	ecx, DWORD PTR _this$[ebp]
	call	?_Inside@?$vector@UVector2D@@V?$allocator@UVector2D@@@std@@@std@@IBE_NPBUVector2D@@@Z ; std::vector<Vector2D,std::allocator<Vector2D> >::_Inside
	movzx	ecx, al
	test	ecx, ecx
	je	$LN2@push_back

; 1276 : 			{	// push back an element
; 1277 : 			size_type _Idx = _STD addressof(_Val) - this->_Myfirst();

	mov	edx, DWORD PTR __Val$[ebp]
	push	edx
	call	??$addressof@$$CBUVector2D@@@std@@YAPBUVector2D@@ABU1@@Z ; std::addressof<Vector2D const >
	add	esp, 4
	mov	esi, eax
	mov	ecx, DWORD PTR _this$[ebp]
	call	?_Myfirst@?$_Vector_alloc@U?$_Vec_base_types@UVector2D@@V?$allocator@UVector2D@@@std@@@std@@@std@@QAEAAPAUVector2D@@XZ ; std::_Vector_alloc<std::_Vec_base_types<Vector2D,std::allocator<Vector2D> > >::_Myfirst
	sub	esi, DWORD PTR [eax]
	sar	esi, 4
	mov	DWORD PTR __Idx$1[ebp], esi

; 1278 : 			if (this->_Mylast() == this->_Myend())

	mov	ecx, DWORD PTR _this$[ebp]
	call	?_Mylast@?$_Vector_alloc@U?$_Vec_base_types@UVector2D@@V?$allocator@UVector2D@@@std@@@std@@@std@@QAEAAPAUVector2D@@XZ ; std::_Vector_alloc<std::_Vec_base_types<Vector2D,std::allocator<Vector2D> > >::_Mylast
	mov	esi, eax
	mov	ecx, DWORD PTR _this$[ebp]
	call	?_Myend@?$_Vector_alloc@U?$_Vec_base_types@UVector2D@@V?$allocator@UVector2D@@@std@@@std@@@std@@QAEAAPAUVector2D@@XZ ; std::_Vector_alloc<std::_Vec_base_types<Vector2D,std::allocator<Vector2D> > >::_Myend
	mov	ecx, DWORD PTR [esi]
	cmp	ecx, DWORD PTR [eax]
	jne	SHORT $LN4@push_back

; 1279 : 				_Reserve(1);

	push	1
	mov	ecx, DWORD PTR _this$[ebp]
	call	?_Reserve@?$vector@UVector2D@@V?$allocator@UVector2D@@@std@@@std@@IAEXI@Z ; std::vector<Vector2D,std::allocator<Vector2D> >::_Reserve
$LN4@push_back:

; 1280 : 			_Orphan_range(this->_Mylast(), this->_Mylast());

	mov	ecx, DWORD PTR _this$[ebp]
	call	?_Mylast@?$_Vector_alloc@U?$_Vec_base_types@UVector2D@@V?$allocator@UVector2D@@@std@@@std@@@std@@QAEAAPAUVector2D@@XZ ; std::_Vector_alloc<std::_Vec_base_types<Vector2D,std::allocator<Vector2D> > >::_Mylast
	mov	edx, DWORD PTR [eax]
	push	edx
	mov	ecx, DWORD PTR _this$[ebp]
	call	?_Mylast@?$_Vector_alloc@U?$_Vec_base_types@UVector2D@@V?$allocator@UVector2D@@@std@@@std@@@std@@QAEAAPAUVector2D@@XZ ; std::_Vector_alloc<std::_Vec_base_types<Vector2D,std::allocator<Vector2D> > >::_Mylast
	mov	eax, DWORD PTR [eax]
	push	eax
	mov	ecx, DWORD PTR _this$[ebp]
	call	?_Orphan_range@?$vector@UVector2D@@V?$allocator@UVector2D@@@std@@@std@@IBEXPAUVector2D@@0@Z ; std::vector<Vector2D,std::allocator<Vector2D> >::_Orphan_range

; 1281 : 			this->_Getal().construct(this->_Mylast(),

	mov	ecx, DWORD PTR _this$[ebp]
	call	?_Myfirst@?$_Vector_alloc@U?$_Vec_base_types@UVector2D@@V?$allocator@UVector2D@@@std@@@std@@@std@@QAEAAPAUVector2D@@XZ ; std::_Vector_alloc<std::_Vec_base_types<Vector2D,std::allocator<Vector2D> > >::_Myfirst
	mov	ecx, DWORD PTR __Idx$1[ebp]
	shl	ecx, 4
	add	ecx, DWORD PTR [eax]
	push	ecx
	mov	ecx, DWORD PTR _this$[ebp]
	call	?_Mylast@?$_Vector_alloc@U?$_Vec_base_types@UVector2D@@V?$allocator@UVector2D@@@std@@@std@@@std@@QAEAAPAUVector2D@@XZ ; std::_Vector_alloc<std::_Vec_base_types<Vector2D,std::allocator<Vector2D> > >::_Mylast
	mov	edx, DWORD PTR [eax]
	push	edx
	mov	ecx, DWORD PTR _this$[ebp]
	call	?_Getal@?$_Vector_alloc@U?$_Vec_base_types@UVector2D@@V?$allocator@UVector2D@@@std@@@std@@@std@@QAEAAU?$_Wrap_alloc@V?$allocator@UVector2D@@@std@@@2@XZ ; std::_Vector_alloc<std::_Vec_base_types<Vector2D,std::allocator<Vector2D> > >::_Getal
	mov	ecx, eax
	call	??$construct@UVector2D@@AAU1@@?$_Wrap_alloc@V?$allocator@UVector2D@@@std@@@std@@QAEXPAUVector2D@@AAU2@@Z ; std::_Wrap_alloc<std::allocator<Vector2D> >::construct<Vector2D,Vector2D &>

; 1282 : 				this->_Myfirst()[_Idx]);
; 1283 : 			++this->_Mylast();

	mov	ecx, DWORD PTR _this$[ebp]
	call	?_Mylast@?$_Vector_alloc@U?$_Vec_base_types@UVector2D@@V?$allocator@UVector2D@@@std@@@std@@@std@@QAEAAPAUVector2D@@XZ ; std::_Vector_alloc<std::_Vec_base_types<Vector2D,std::allocator<Vector2D> > >::_Mylast
	mov	DWORD PTR tv172[ebp], eax
	mov	eax, DWORD PTR tv172[ebp]
	mov	ecx, DWORD PTR [eax]
	add	ecx, 16					; 00000010H
	mov	edx, DWORD PTR tv172[ebp]
	mov	DWORD PTR [edx], ecx

; 1284 : 			}
; 1285 : 		else

	jmp	SHORT $LN1@push_back
$LN2@push_back:

; 1286 : 			{	// push back a non-element
; 1287 : 			if (this->_Mylast() == this->_Myend())

	mov	ecx, DWORD PTR _this$[ebp]
	call	?_Mylast@?$_Vector_alloc@U?$_Vec_base_types@UVector2D@@V?$allocator@UVector2D@@@std@@@std@@@std@@QAEAAPAUVector2D@@XZ ; std::_Vector_alloc<std::_Vec_base_types<Vector2D,std::allocator<Vector2D> > >::_Mylast
	mov	esi, eax
	mov	ecx, DWORD PTR _this$[ebp]
	call	?_Myend@?$_Vector_alloc@U?$_Vec_base_types@UVector2D@@V?$allocator@UVector2D@@@std@@@std@@@std@@QAEAAPAUVector2D@@XZ ; std::_Vector_alloc<std::_Vec_base_types<Vector2D,std::allocator<Vector2D> > >::_Myend
	mov	ecx, DWORD PTR [esi]
	cmp	ecx, DWORD PTR [eax]
	jne	SHORT $LN5@push_back

; 1288 : 				_Reserve(1);

	push	1
	mov	ecx, DWORD PTR _this$[ebp]
	call	?_Reserve@?$vector@UVector2D@@V?$allocator@UVector2D@@@std@@@std@@IAEXI@Z ; std::vector<Vector2D,std::allocator<Vector2D> >::_Reserve
$LN5@push_back:

; 1289 : 			_Orphan_range(this->_Mylast(), this->_Mylast());

	mov	ecx, DWORD PTR _this$[ebp]
	call	?_Mylast@?$_Vector_alloc@U?$_Vec_base_types@UVector2D@@V?$allocator@UVector2D@@@std@@@std@@@std@@QAEAAPAUVector2D@@XZ ; std::_Vector_alloc<std::_Vec_base_types<Vector2D,std::allocator<Vector2D> > >::_Mylast
	mov	edx, DWORD PTR [eax]
	push	edx
	mov	ecx, DWORD PTR _this$[ebp]
	call	?_Mylast@?$_Vector_alloc@U?$_Vec_base_types@UVector2D@@V?$allocator@UVector2D@@@std@@@std@@@std@@QAEAAPAUVector2D@@XZ ; std::_Vector_alloc<std::_Vec_base_types<Vector2D,std::allocator<Vector2D> > >::_Mylast
	mov	eax, DWORD PTR [eax]
	push	eax
	mov	ecx, DWORD PTR _this$[ebp]
	call	?_Orphan_range@?$vector@UVector2D@@V?$allocator@UVector2D@@@std@@@std@@IBEXPAUVector2D@@0@Z ; std::vector<Vector2D,std::allocator<Vector2D> >::_Orphan_range

; 1290 : 			this->_Getal().construct(this->_Mylast(),

	mov	ecx, DWORD PTR __Val$[ebp]
	push	ecx
	mov	ecx, DWORD PTR _this$[ebp]
	call	?_Mylast@?$_Vector_alloc@U?$_Vec_base_types@UVector2D@@V?$allocator@UVector2D@@@std@@@std@@@std@@QAEAAPAUVector2D@@XZ ; std::_Vector_alloc<std::_Vec_base_types<Vector2D,std::allocator<Vector2D> > >::_Mylast
	mov	edx, DWORD PTR [eax]
	push	edx
	mov	ecx, DWORD PTR _this$[ebp]
	call	?_Getal@?$_Vector_alloc@U?$_Vec_base_types@UVector2D@@V?$allocator@UVector2D@@@std@@@std@@@std@@QAEAAU?$_Wrap_alloc@V?$allocator@UVector2D@@@std@@@2@XZ ; std::_Vector_alloc<std::_Vec_base_types<Vector2D,std::allocator<Vector2D> > >::_Getal
	mov	ecx, eax
	call	??$construct@UVector2D@@ABU1@@?$_Wrap_alloc@V?$allocator@UVector2D@@@std@@@std@@QAEXPAUVector2D@@ABU2@@Z ; std::_Wrap_alloc<std::allocator<Vector2D> >::construct<Vector2D,Vector2D const &>

; 1291 : 				_Val);
; 1292 : 			++this->_Mylast();

	mov	ecx, DWORD PTR _this$[ebp]
	call	?_Mylast@?$_Vector_alloc@U?$_Vec_base_types@UVector2D@@V?$allocator@UVector2D@@@std@@@std@@@std@@QAEAAPAUVector2D@@XZ ; std::_Vector_alloc<std::_Vec_base_types<Vector2D,std::allocator<Vector2D> > >::_Mylast
	mov	DWORD PTR tv225[ebp], eax
	mov	eax, DWORD PTR tv225[ebp]
	mov	ecx, DWORD PTR [eax]
	add	ecx, 16					; 00000010H
	mov	edx, DWORD PTR tv225[ebp]
	mov	DWORD PTR [edx], ecx
$LN1@push_back:

; 1293 : 			}
; 1294 : 		}

	pop	esi
	add	esp, 16					; 00000010H
	cmp	ebp, esp
	call	__RTC_CheckEsp
	mov	esp, ebp
	pop	ebp
	ret	4
?push_back@?$vector@UVector2D@@V?$allocator@UVector2D@@@std@@@std@@QAEXABUVector2D@@@Z ENDP ; std::vector<Vector2D,std::allocator<Vector2D> >::push_back
_TEXT	ENDS
; Function compile flags: /Odtp /RTCsu
; File d:\microsoft visual studio 14.0\vc\include\vector
;	COMDAT ??A?$vector@UVector2D@@V?$allocator@UVector2D@@@std@@@std@@QAEAAUVector2D@@I@Z
_TEXT	SEGMENT
_this$ = -4						; size = 4
__Pos$ = 8						; size = 4
??A?$vector@UVector2D@@V?$allocator@UVector2D@@@std@@@std@@QAEAAUVector2D@@I@Z PROC ; std::vector<Vector2D,std::allocator<Vector2D> >::operator[], COMDAT
; _this$ = ecx

; 1228 : 		{	// subscript mutable sequence

	push	ebp
	mov	ebp, esp
	push	ecx
	mov	DWORD PTR [ebp-4], -858993460		; ccccccccH
	mov	DWORD PTR _this$[ebp], ecx

; 1229 :  #if _ITERATOR_DEBUG_LEVEL == 2
; 1230 : 		if (size() <= _Pos)

	mov	ecx, DWORD PTR _this$[ebp]
	call	?size@?$vector@UVector2D@@V?$allocator@UVector2D@@@std@@@std@@QBEIXZ ; std::vector<Vector2D,std::allocator<Vector2D> >::size
	cmp	eax, DWORD PTR __Pos$[ebp]
	ja	SHORT $LN2@operator

; 1231 : 			{	// report error
; 1232 : 			_DEBUG_ERROR("vector subscript out of range");

	push	1232					; 000004d0H
	push	OFFSET ??_C@_1GE@BNGOPDPB@?$AAD?$AA?3?$AA?2?$AAM?$AAi?$AAc?$AAr?$AAo?$AAs?$AAo?$AAf?$AAt?$AA?5?$AAV?$AAi?$AAs?$AAu?$AAa?$AAl?$AA?5?$AAS?$AAt?$AAu?$AAd?$AAi?$AAo?$AA?5?$AA1?$AA4?$AA?4?$AA0?$AA?2@
	push	OFFSET ??_C@_1DM@LHGCHCBA@?$AAv?$AAe?$AAc?$AAt?$AAo?$AAr?$AA?5?$AAs?$AAu?$AAb?$AAs?$AAc?$AAr?$AAi?$AAp?$AAt?$AA?5?$AAo?$AAu?$AAt?$AA?5?$AAo?$AAf?$AA?5?$AAr?$AAa?$AAn?$AAg?$AAe?$AA?$AA@
	call	?_Debug_message@std@@YAXPB_W0I@Z	; std::_Debug_message
	add	esp, 12					; 0000000cH

; 1233 : 			_SCL_SECURE_OUT_OF_RANGE;

	mov	eax, OFFSET ??_C@_0CE@OFMIGAMM@Standard?5C?$CL?$CL?5Libraries?5Out?5of?5Ra@
	test	eax, eax
	je	SHORT $LN4@operator
	xor	ecx, ecx
	jne	SHORT $LN5@operator
$LN4@operator:
	push	OFFSET ??_C@_1FG@IBPIFFN@?$AA?$CC?$AAS?$AAt?$AAa?$AAn?$AAd?$AAa?$AAr?$AAd?$AA?5?$AAC?$AA?$CL?$AA?$CL?$AA?5?$AAL?$AAi?$AAb?$AAr?$AAa?$AAr?$AAi?$AAe?$AAs?$AA?5?$AAO?$AAu?$AAt?$AA?5?$AAo?$AAf?$AA?5?$AAR@
	push	OFFSET ??_C@_17CNPHIMPH@?$AA?$CF?$AAl?$AAs?$AA?$AA@
	push	0
	push	1233					; 000004d1H
	push	OFFSET ??_C@_1GE@BNGOPDPB@?$AAD?$AA?3?$AA?2?$AAM?$AAi?$AAc?$AAr?$AAo?$AAs?$AAo?$AAf?$AAt?$AA?5?$AAV?$AAi?$AAs?$AAu?$AAa?$AAl?$AA?5?$AAS?$AAt?$AAu?$AAd?$AAi?$AAo?$AA?5?$AA1?$AA4?$AA?4?$AA0?$AA?2@
	push	2
	call	__CrtDbgReportW
	add	esp, 24					; 00000018H
	cmp	eax, 1
	jne	SHORT $LN5@operator
	int	3
$LN5@operator:
	push	0
	push	1233					; 000004d1H
	push	OFFSET ??_C@_1GE@BNGOPDPB@?$AAD?$AA?3?$AA?2?$AAM?$AAi?$AAc?$AAr?$AAo?$AAs?$AAo?$AAf?$AAt?$AA?5?$AAV?$AAi?$AAs?$AAu?$AAa?$AAl?$AA?5?$AAS?$AAt?$AAu?$AAd?$AAi?$AAo?$AA?5?$AA1?$AA4?$AA?4?$AA0?$AA?2@
	push	OFFSET ??_C@_1KC@ILGGEGM@?$AAs?$AAt?$AAd?$AA?3?$AA?3?$AAv?$AAe?$AAc?$AAt?$AAo?$AAr?$AA?$DM?$AAs?$AAt?$AAr?$AAu?$AAc?$AAt?$AA?5?$AAV?$AAe?$AAc?$AAt?$AAo?$AAr?$AA2?$AAD?$AA?0?$AAc?$AAl?$AAa?$AAs@
	push	OFFSET ??_C@_1BO@MEPPHOO@?$AA?$CC?$AAo?$AAu?$AAt?$AA?5?$AAo?$AAf?$AA?5?$AAr?$AAa?$AAn?$AAg?$AAe?$AA?$CC?$AA?$AA@
	call	__invalid_parameter
	add	esp, 20					; 00000014H
$LN2@operator:

; 1234 : 			}
; 1235 : 
; 1236 :  #elif _ITERATOR_DEBUG_LEVEL == 1
; 1237 : 		_SCL_SECURE_VALIDATE_RANGE(_Pos < size());
; 1238 :  #endif /* _ITERATOR_DEBUG_LEVEL */
; 1239 : 
; 1240 : 		return (*(this->_Myfirst() + _Pos));

	mov	ecx, DWORD PTR _this$[ebp]
	call	?_Myfirst@?$_Vector_alloc@U?$_Vec_base_types@UVector2D@@V?$allocator@UVector2D@@@std@@@std@@@std@@QAEAAPAUVector2D@@XZ ; std::_Vector_alloc<std::_Vec_base_types<Vector2D,std::allocator<Vector2D> > >::_Myfirst
	mov	ecx, DWORD PTR __Pos$[ebp]
	shl	ecx, 4
	add	ecx, DWORD PTR [eax]
	mov	eax, ecx

; 1241 : 		}

	add	esp, 4
	cmp	ebp, esp
	call	__RTC_CheckEsp
	mov	esp, ebp
	pop	ebp
	ret	4
??A?$vector@UVector2D@@V?$allocator@UVector2D@@@std@@@std@@QAEAAUVector2D@@I@Z ENDP ; std::vector<Vector2D,std::allocator<Vector2D> >::operator[]
_TEXT	ENDS
; Function compile flags: /Odtp /RTCsu
; File d:\microsoft visual studio 14.0\vc\include\vector
;	COMDAT ??A?$vector@UVector2D@@V?$allocator@UVector2D@@@std@@@std@@QBEABUVector2D@@I@Z
_TEXT	SEGMENT
_this$ = -4						; size = 4
__Pos$ = 8						; size = 4
??A?$vector@UVector2D@@V?$allocator@UVector2D@@@std@@@std@@QBEABUVector2D@@I@Z PROC ; std::vector<Vector2D,std::allocator<Vector2D> >::operator[], COMDAT
; _this$ = ecx

; 1212 : 		{	// subscript nonmutable sequence

	push	ebp
	mov	ebp, esp
	push	ecx
	mov	DWORD PTR [ebp-4], -858993460		; ccccccccH
	mov	DWORD PTR _this$[ebp], ecx

; 1213 :  #if _ITERATOR_DEBUG_LEVEL == 2
; 1214 : 		if (size() <= _Pos)

	mov	ecx, DWORD PTR _this$[ebp]
	call	?size@?$vector@UVector2D@@V?$allocator@UVector2D@@@std@@@std@@QBEIXZ ; std::vector<Vector2D,std::allocator<Vector2D> >::size
	cmp	eax, DWORD PTR __Pos$[ebp]
	ja	SHORT $LN2@operator

; 1215 : 			{	// report error
; 1216 : 			_DEBUG_ERROR("vector subscript out of range");

	push	1216					; 000004c0H
	push	OFFSET ??_C@_1GE@BNGOPDPB@?$AAD?$AA?3?$AA?2?$AAM?$AAi?$AAc?$AAr?$AAo?$AAs?$AAo?$AAf?$AAt?$AA?5?$AAV?$AAi?$AAs?$AAu?$AAa?$AAl?$AA?5?$AAS?$AAt?$AAu?$AAd?$AAi?$AAo?$AA?5?$AA1?$AA4?$AA?4?$AA0?$AA?2@
	push	OFFSET ??_C@_1DM@LHGCHCBA@?$AAv?$AAe?$AAc?$AAt?$AAo?$AAr?$AA?5?$AAs?$AAu?$AAb?$AAs?$AAc?$AAr?$AAi?$AAp?$AAt?$AA?5?$AAo?$AAu?$AAt?$AA?5?$AAo?$AAf?$AA?5?$AAr?$AAa?$AAn?$AAg?$AAe?$AA?$AA@
	call	?_Debug_message@std@@YAXPB_W0I@Z	; std::_Debug_message
	add	esp, 12					; 0000000cH

; 1217 : 			_SCL_SECURE_OUT_OF_RANGE;

	mov	eax, OFFSET ??_C@_0CE@OFMIGAMM@Standard?5C?$CL?$CL?5Libraries?5Out?5of?5Ra@
	test	eax, eax
	je	SHORT $LN4@operator
	xor	ecx, ecx
	jne	SHORT $LN5@operator
$LN4@operator:
	push	OFFSET ??_C@_1FG@IBPIFFN@?$AA?$CC?$AAS?$AAt?$AAa?$AAn?$AAd?$AAa?$AAr?$AAd?$AA?5?$AAC?$AA?$CL?$AA?$CL?$AA?5?$AAL?$AAi?$AAb?$AAr?$AAa?$AAr?$AAi?$AAe?$AAs?$AA?5?$AAO?$AAu?$AAt?$AA?5?$AAo?$AAf?$AA?5?$AAR@
	push	OFFSET ??_C@_17CNPHIMPH@?$AA?$CF?$AAl?$AAs?$AA?$AA@
	push	0
	push	1217					; 000004c1H
	push	OFFSET ??_C@_1GE@BNGOPDPB@?$AAD?$AA?3?$AA?2?$AAM?$AAi?$AAc?$AAr?$AAo?$AAs?$AAo?$AAf?$AAt?$AA?5?$AAV?$AAi?$AAs?$AAu?$AAa?$AAl?$AA?5?$AAS?$AAt?$AAu?$AAd?$AAi?$AAo?$AA?5?$AA1?$AA4?$AA?4?$AA0?$AA?2@
	push	2
	call	__CrtDbgReportW
	add	esp, 24					; 00000018H
	cmp	eax, 1
	jne	SHORT $LN5@operator
	int	3
$LN5@operator:
	push	0
	push	1217					; 000004c1H
	push	OFFSET ??_C@_1GE@BNGOPDPB@?$AAD?$AA?3?$AA?2?$AAM?$AAi?$AAc?$AAr?$AAo?$AAs?$AAo?$AAf?$AAt?$AA?5?$AAV?$AAi?$AAs?$AAu?$AAa?$AAl?$AA?5?$AAS?$AAt?$AAu?$AAd?$AAi?$AAo?$AA?5?$AA1?$AA4?$AA?4?$AA0?$AA?2@
	push	OFFSET ??_C@_1KC@ILGGEGM@?$AAs?$AAt?$AAd?$AA?3?$AA?3?$AAv?$AAe?$AAc?$AAt?$AAo?$AAr?$AA?$DM?$AAs?$AAt?$AAr?$AAu?$AAc?$AAt?$AA?5?$AAV?$AAe?$AAc?$AAt?$AAo?$AAr?$AA2?$AAD?$AA?0?$AAc?$AAl?$AAa?$AAs@
	push	OFFSET ??_C@_1BO@MEPPHOO@?$AA?$CC?$AAo?$AAu?$AAt?$AA?5?$AAo?$AAf?$AA?5?$AAr?$AAa?$AAn?$AAg?$AAe?$AA?$CC?$AA?$AA@
	call	__invalid_parameter
	add	esp, 20					; 00000014H
$LN2@operator:

; 1218 : 			}
; 1219 : 
; 1220 :  #elif _ITERATOR_DEBUG_LEVEL == 1
; 1221 : 		_SCL_SECURE_VALIDATE_RANGE(_Pos < size());
; 1222 :  #endif /* _ITERATOR_DEBUG_LEVEL */
; 1223 : 
; 1224 : 		return (*(this->_Myfirst() + _Pos));

	mov	ecx, DWORD PTR _this$[ebp]
	call	?_Myfirst@?$_Vector_alloc@U?$_Vec_base_types@UVector2D@@V?$allocator@UVector2D@@@std@@@std@@@std@@QBEABQAUVector2D@@XZ ; std::_Vector_alloc<std::_Vec_base_types<Vector2D,std::allocator<Vector2D> > >::_Myfirst
	mov	ecx, DWORD PTR __Pos$[ebp]
	shl	ecx, 4
	add	ecx, DWORD PTR [eax]
	mov	eax, ecx

; 1225 : 		}

	add	esp, 4
	cmp	ebp, esp
	call	__RTC_CheckEsp
	mov	esp, ebp
	pop	ebp
	ret	4
??A?$vector@UVector2D@@V?$allocator@UVector2D@@@std@@@std@@QBEABUVector2D@@I@Z ENDP ; std::vector<Vector2D,std::allocator<Vector2D> >::operator[]
_TEXT	ENDS
; Function compile flags: /Odtp /RTCsu
; File d:\microsoft visual studio 14.0\vc\include\vector
;	COMDAT ?max_size@?$vector@UVector2D@@V?$allocator@UVector2D@@@std@@@std@@QBEIXZ
_TEXT	SEGMENT
$T1 = -5						; size = 1
_this$ = -4						; size = 4
?max_size@?$vector@UVector2D@@V?$allocator@UVector2D@@@std@@@std@@QBEIXZ PROC ; std::vector<Vector2D,std::allocator<Vector2D> >::max_size, COMDAT
; _this$ = ecx

; 1183 : 		{	// return maximum possible length of sequence

	push	ebp
	mov	ebp, esp
	sub	esp, 8
	mov	DWORD PTR [ebp-8], -858993460		; ccccccccH
	mov	DWORD PTR [ebp-4], -858993460		; ccccccccH
	mov	DWORD PTR _this$[ebp], ecx

; 1184 : 		return (this->_Getal().max_size());

	movzx	eax, BYTE PTR $T1[ebp]
	push	eax
	mov	ecx, DWORD PTR _this$[ebp]
	call	?_Getal@?$_Vector_alloc@U?$_Vec_base_types@UVector2D@@V?$allocator@UVector2D@@@std@@@std@@@std@@QBEABU?$_Wrap_alloc@V?$allocator@UVector2D@@@std@@@2@XZ ; std::_Vector_alloc<std::_Vec_base_types<Vector2D,std::allocator<Vector2D> > >::_Getal
	mov	ecx, eax
	call	?max_size@?$_Wrap_alloc@V?$allocator@UVector2D@@@std@@@std@@QBEIU_Nil@2@@Z ; std::_Wrap_alloc<std::allocator<Vector2D> >::max_size

; 1185 : 		}

	add	esp, 8
	cmp	ebp, esp
	call	__RTC_CheckEsp
	mov	esp, ebp
	pop	ebp
	ret	0
?max_size@?$vector@UVector2D@@V?$allocator@UVector2D@@@std@@@std@@QBEIXZ ENDP ; std::vector<Vector2D,std::allocator<Vector2D> >::max_size
_TEXT	ENDS
; Function compile flags: /Odtp /RTCsu
; File d:\microsoft visual studio 14.0\vc\include\vector
;	COMDAT ?size@?$vector@UVector2D@@V?$allocator@UVector2D@@@std@@@std@@QBEIXZ
_TEXT	SEGMENT
_this$ = -4						; size = 4
?size@?$vector@UVector2D@@V?$allocator@UVector2D@@@std@@@std@@QBEIXZ PROC ; std::vector<Vector2D,std::allocator<Vector2D> >::size, COMDAT
; _this$ = ecx

; 1178 : 		{	// return length of sequence

	push	ebp
	mov	ebp, esp
	push	ecx
	push	esi
	mov	DWORD PTR [ebp-4], -858993460		; ccccccccH
	mov	DWORD PTR _this$[ebp], ecx

; 1179 : 		return (this->_Mylast() - this->_Myfirst());

	mov	ecx, DWORD PTR _this$[ebp]
	call	?_Mylast@?$_Vector_alloc@U?$_Vec_base_types@UVector2D@@V?$allocator@UVector2D@@@std@@@std@@@std@@QBEABQAUVector2D@@XZ ; std::_Vector_alloc<std::_Vec_base_types<Vector2D,std::allocator<Vector2D> > >::_Mylast
	mov	esi, eax
	mov	ecx, DWORD PTR _this$[ebp]
	call	?_Myfirst@?$_Vector_alloc@U?$_Vec_base_types@UVector2D@@V?$allocator@UVector2D@@@std@@@std@@@std@@QBEABQAUVector2D@@XZ ; std::_Vector_alloc<std::_Vec_base_types<Vector2D,std::allocator<Vector2D> > >::_Myfirst
	mov	ecx, DWORD PTR [esi]
	sub	ecx, DWORD PTR [eax]
	sar	ecx, 4
	mov	eax, ecx

; 1180 : 		}

	pop	esi
	add	esp, 4
	cmp	ebp, esp
	call	__RTC_CheckEsp
	mov	esp, ebp
	pop	ebp
	ret	0
?size@?$vector@UVector2D@@V?$allocator@UVector2D@@@std@@@std@@QBEIXZ ENDP ; std::vector<Vector2D,std::allocator<Vector2D> >::size
_TEXT	ENDS
; Function compile flags: /Odtp /RTCsu
; File d:\microsoft visual studio 14.0\vc\include\vector
;	COMDAT ?end@?$vector@UVector2D@@V?$allocator@UVector2D@@@std@@@std@@QBE?AV?$_Vector_const_iterator@V?$_Vector_val@U?$_Simple_types@UVector2D@@@std@@@std@@@2@XZ
_TEXT	SEGMENT
_this$ = -16						; size = 4
__$EHRec$ = -12						; size = 12
___$ReturnUdt$ = 8					; size = 4
?end@?$vector@UVector2D@@V?$allocator@UVector2D@@@std@@@std@@QBE?AV?$_Vector_const_iterator@V?$_Vector_val@U?$_Simple_types@UVector2D@@@std@@@std@@@2@XZ PROC ; std::vector<Vector2D,std::allocator<Vector2D> >::end, COMDAT
; _this$ = ecx

; 1071 : 		{	// return iterator for end of nonmutable sequence

	push	ebp
	mov	ebp, esp
	push	-1
	push	__ehhandler$?end@?$vector@UVector2D@@V?$allocator@UVector2D@@@std@@@std@@QBE?AV?$_Vector_const_iterator@V?$_Vector_val@U?$_Simple_types@UVector2D@@@std@@@std@@@2@XZ
	mov	eax, DWORD PTR fs:0
	push	eax
	push	ecx
	mov	DWORD PTR [ebp-16], -858993460		; ccccccccH
	mov	eax, DWORD PTR ___security_cookie
	xor	eax, ebp
	push	eax
	lea	eax, DWORD PTR __$EHRec$[ebp]
	mov	DWORD PTR fs:0, eax
	mov	DWORD PTR _this$[ebp], ecx

; 1072 : 		return (const_iterator(this->_Mylast(), &this->_Get_data()));

	mov	ecx, DWORD PTR _this$[ebp]
	call	?_Get_data@?$_Vector_alloc@U?$_Vec_base_types@UVector2D@@V?$allocator@UVector2D@@@std@@@std@@@std@@QBEABV?$_Vector_val@U?$_Simple_types@UVector2D@@@std@@@2@XZ ; std::_Vector_alloc<std::_Vec_base_types<Vector2D,std::allocator<Vector2D> > >::_Get_data
	push	eax
	mov	ecx, DWORD PTR _this$[ebp]
	call	?_Mylast@?$_Vector_alloc@U?$_Vec_base_types@UVector2D@@V?$allocator@UVector2D@@@std@@@std@@@std@@QBEABQAUVector2D@@XZ ; std::_Vector_alloc<std::_Vec_base_types<Vector2D,std::allocator<Vector2D> > >::_Mylast
	mov	eax, DWORD PTR [eax]
	push	eax
	mov	ecx, DWORD PTR ___$ReturnUdt$[ebp]
	call	??0?$_Vector_const_iterator@V?$_Vector_val@U?$_Simple_types@UVector2D@@@std@@@std@@@std@@QAE@PAUVector2D@@PBU_Container_base12@1@@Z ; std::_Vector_const_iterator<std::_Vector_val<std::_Simple_types<Vector2D> > >::_Vector_const_iterator<std::_Vector_val<std::_Simple_types<Vector2D> > >
	mov	eax, DWORD PTR ___$ReturnUdt$[ebp]

; 1073 : 		}

	mov	ecx, DWORD PTR __$EHRec$[ebp]
	mov	DWORD PTR fs:0, ecx
	pop	ecx
	add	esp, 16					; 00000010H
	cmp	ebp, esp
	call	__RTC_CheckEsp
	mov	esp, ebp
	pop	ebp
	ret	4
_TEXT	ENDS
;	COMDAT text$x
text$x	SEGMENT
__ehhandler$?end@?$vector@UVector2D@@V?$allocator@UVector2D@@@std@@@std@@QBE?AV?$_Vector_const_iterator@V?$_Vector_val@U?$_Simple_types@UVector2D@@@std@@@std@@@2@XZ:
	mov	edx, DWORD PTR [esp+8]
	lea	eax, DWORD PTR [edx+12]
	mov	ecx, DWORD PTR [edx-8]
	xor	ecx, eax
	call	@__security_check_cookie@4
	mov	eax, OFFSET __ehfuncinfo$?end@?$vector@UVector2D@@V?$allocator@UVector2D@@@std@@@std@@QBE?AV?$_Vector_const_iterator@V?$_Vector_val@U?$_Simple_types@UVector2D@@@std@@@std@@@2@XZ
	jmp	___CxxFrameHandler3
text$x	ENDS
?end@?$vector@UVector2D@@V?$allocator@UVector2D@@@std@@@std@@QBE?AV?$_Vector_const_iterator@V?$_Vector_val@U?$_Simple_types@UVector2D@@@std@@@std@@@2@XZ ENDP ; std::vector<Vector2D,std::allocator<Vector2D> >::end
; Function compile flags: /Odtp /RTCsu
; File d:\microsoft visual studio 14.0\vc\include\vector
;	COMDAT ?begin@?$vector@UVector2D@@V?$allocator@UVector2D@@@std@@@std@@QBE?AV?$_Vector_const_iterator@V?$_Vector_val@U?$_Simple_types@UVector2D@@@std@@@std@@@2@XZ
_TEXT	SEGMENT
_this$ = -16						; size = 4
__$EHRec$ = -12						; size = 12
___$ReturnUdt$ = 8					; size = 4
?begin@?$vector@UVector2D@@V?$allocator@UVector2D@@@std@@@std@@QBE?AV?$_Vector_const_iterator@V?$_Vector_val@U?$_Simple_types@UVector2D@@@std@@@std@@@2@XZ PROC ; std::vector<Vector2D,std::allocator<Vector2D> >::begin, COMDAT
; _this$ = ecx

; 1061 : 		{	// return iterator for beginning of nonmutable sequence

	push	ebp
	mov	ebp, esp
	push	-1
	push	__ehhandler$?begin@?$vector@UVector2D@@V?$allocator@UVector2D@@@std@@@std@@QBE?AV?$_Vector_const_iterator@V?$_Vector_val@U?$_Simple_types@UVector2D@@@std@@@std@@@2@XZ
	mov	eax, DWORD PTR fs:0
	push	eax
	push	ecx
	mov	DWORD PTR [ebp-16], -858993460		; ccccccccH
	mov	eax, DWORD PTR ___security_cookie
	xor	eax, ebp
	push	eax
	lea	eax, DWORD PTR __$EHRec$[ebp]
	mov	DWORD PTR fs:0, eax
	mov	DWORD PTR _this$[ebp], ecx

; 1062 : 		return (const_iterator(this->_Myfirst(), &this->_Get_data()));

	mov	ecx, DWORD PTR _this$[ebp]
	call	?_Get_data@?$_Vector_alloc@U?$_Vec_base_types@UVector2D@@V?$allocator@UVector2D@@@std@@@std@@@std@@QBEABV?$_Vector_val@U?$_Simple_types@UVector2D@@@std@@@2@XZ ; std::_Vector_alloc<std::_Vec_base_types<Vector2D,std::allocator<Vector2D> > >::_Get_data
	push	eax
	mov	ecx, DWORD PTR _this$[ebp]
	call	?_Myfirst@?$_Vector_alloc@U?$_Vec_base_types@UVector2D@@V?$allocator@UVector2D@@@std@@@std@@@std@@QBEABQAUVector2D@@XZ ; std::_Vector_alloc<std::_Vec_base_types<Vector2D,std::allocator<Vector2D> > >::_Myfirst
	mov	eax, DWORD PTR [eax]
	push	eax
	mov	ecx, DWORD PTR ___$ReturnUdt$[ebp]
	call	??0?$_Vector_const_iterator@V?$_Vector_val@U?$_Simple_types@UVector2D@@@std@@@std@@@std@@QAE@PAUVector2D@@PBU_Container_base12@1@@Z ; std::_Vector_const_iterator<std::_Vector_val<std::_Simple_types<Vector2D> > >::_Vector_const_iterator<std::_Vector_val<std::_Simple_types<Vector2D> > >
	mov	eax, DWORD PTR ___$ReturnUdt$[ebp]

; 1063 : 		}

	mov	ecx, DWORD PTR __$EHRec$[ebp]
	mov	DWORD PTR fs:0, ecx
	pop	ecx
	add	esp, 16					; 00000010H
	cmp	ebp, esp
	call	__RTC_CheckEsp
	mov	esp, ebp
	pop	ebp
	ret	4
_TEXT	ENDS
;	COMDAT text$x
text$x	SEGMENT
__ehhandler$?begin@?$vector@UVector2D@@V?$allocator@UVector2D@@@std@@@std@@QBE?AV?$_Vector_const_iterator@V?$_Vector_val@U?$_Simple_types@UVector2D@@@std@@@std@@@2@XZ:
	mov	edx, DWORD PTR [esp+8]
	lea	eax, DWORD PTR [edx+12]
	mov	ecx, DWORD PTR [edx-8]
	xor	ecx, eax
	call	@__security_check_cookie@4
	mov	eax, OFFSET __ehfuncinfo$?begin@?$vector@UVector2D@@V?$allocator@UVector2D@@@std@@@std@@QBE?AV?$_Vector_const_iterator@V?$_Vector_val@U?$_Simple_types@UVector2D@@@std@@@std@@@2@XZ
	jmp	___CxxFrameHandler3
text$x	ENDS
?begin@?$vector@UVector2D@@V?$allocator@UVector2D@@@std@@@std@@QBE?AV?$_Vector_const_iterator@V?$_Vector_val@U?$_Simple_types@UVector2D@@@std@@@std@@@2@XZ ENDP ; std::vector<Vector2D,std::allocator<Vector2D> >::begin
; Function compile flags: /Odtp /RTCsu
; File d:\microsoft visual studio 14.0\vc\include\vector
;	COMDAT ?_Unused_capacity@?$vector@UVector2D@@V?$allocator@UVector2D@@@std@@@std@@QBEIXZ
_TEXT	SEGMENT
_this$ = -4						; size = 4
?_Unused_capacity@?$vector@UVector2D@@V?$allocator@UVector2D@@@std@@@std@@QBEIXZ PROC ; std::vector<Vector2D,std::allocator<Vector2D> >::_Unused_capacity, COMDAT
; _this$ = ecx

; 1046 : 		{	// micro-optimization for capacity() - size()

	push	ebp
	mov	ebp, esp
	push	ecx
	push	esi
	mov	DWORD PTR [ebp-4], -858993460		; ccccccccH
	mov	DWORD PTR _this$[ebp], ecx

; 1047 : 		return (this->_Myend() - this->_Mylast());

	mov	ecx, DWORD PTR _this$[ebp]
	call	?_Myend@?$_Vector_alloc@U?$_Vec_base_types@UVector2D@@V?$allocator@UVector2D@@@std@@@std@@@std@@QBEABQAUVector2D@@XZ ; std::_Vector_alloc<std::_Vec_base_types<Vector2D,std::allocator<Vector2D> > >::_Myend
	mov	esi, eax
	mov	ecx, DWORD PTR _this$[ebp]
	call	?_Mylast@?$_Vector_alloc@U?$_Vec_base_types@UVector2D@@V?$allocator@UVector2D@@@std@@@std@@@std@@QBEABQAUVector2D@@XZ ; std::_Vector_alloc<std::_Vec_base_types<Vector2D,std::allocator<Vector2D> > >::_Mylast
	mov	ecx, DWORD PTR [esi]
	sub	ecx, DWORD PTR [eax]
	sar	ecx, 4
	mov	eax, ecx

; 1048 : 		}

	pop	esi
	add	esp, 4
	cmp	ebp, esp
	call	__RTC_CheckEsp
	mov	esp, ebp
	pop	ebp
	ret	0
?_Unused_capacity@?$vector@UVector2D@@V?$allocator@UVector2D@@@std@@@std@@QBEIXZ ENDP ; std::vector<Vector2D,std::allocator<Vector2D> >::_Unused_capacity
_TEXT	ENDS
; Function compile flags: /Odtp /RTCsu
; File d:\microsoft visual studio 14.0\vc\include\vector
;	COMDAT ?capacity@?$vector@UVector2D@@V?$allocator@UVector2D@@@std@@@std@@QBEIXZ
_TEXT	SEGMENT
_this$ = -4						; size = 4
?capacity@?$vector@UVector2D@@V?$allocator@UVector2D@@@std@@@std@@QBEIXZ PROC ; std::vector<Vector2D,std::allocator<Vector2D> >::capacity, COMDAT
; _this$ = ecx

; 1041 : 		{	// return current length of allocated storage

	push	ebp
	mov	ebp, esp
	push	ecx
	push	esi
	mov	DWORD PTR [ebp-4], -858993460		; ccccccccH
	mov	DWORD PTR _this$[ebp], ecx

; 1042 : 		return (this->_Myend() - this->_Myfirst());

	mov	ecx, DWORD PTR _this$[ebp]
	call	?_Myend@?$_Vector_alloc@U?$_Vec_base_types@UVector2D@@V?$allocator@UVector2D@@@std@@@std@@@std@@QBEABQAUVector2D@@XZ ; std::_Vector_alloc<std::_Vec_base_types<Vector2D,std::allocator<Vector2D> > >::_Myend
	mov	esi, eax
	mov	ecx, DWORD PTR _this$[ebp]
	call	?_Myfirst@?$_Vector_alloc@U?$_Vec_base_types@UVector2D@@V?$allocator@UVector2D@@@std@@@std@@@std@@QBEABQAUVector2D@@XZ ; std::_Vector_alloc<std::_Vec_base_types<Vector2D,std::allocator<Vector2D> > >::_Myfirst
	mov	ecx, DWORD PTR [esi]
	sub	ecx, DWORD PTR [eax]
	sar	ecx, 4
	mov	eax, ecx

; 1043 : 		}

	pop	esi
	add	esp, 4
	cmp	ebp, esp
	call	__RTC_CheckEsp
	mov	esp, ebp
	pop	ebp
	ret	0
?capacity@?$vector@UVector2D@@V?$allocator@UVector2D@@@std@@@std@@QBEIXZ ENDP ; std::vector<Vector2D,std::allocator<Vector2D> >::capacity
_TEXT	ENDS
; Function compile flags: /Odtp /RTCsu
; File d:\microsoft visual studio 14.0\vc\include\vector
;	COMDAT ??1?$vector@UVector2D@@V?$allocator@UVector2D@@@std@@@std@@QAE@XZ
_TEXT	SEGMENT
_this$ = -16						; size = 4
__$EHRec$ = -12						; size = 12
??1?$vector@UVector2D@@V?$allocator@UVector2D@@@std@@@std@@QAE@XZ PROC ; std::vector<Vector2D,std::allocator<Vector2D> >::~vector<Vector2D,std::allocator<Vector2D> >, COMDAT
; _this$ = ecx

; 974  : 		{	// destroy the object

	push	ebp
	mov	ebp, esp
	push	-1
	push	__ehhandler$??1?$vector@UVector2D@@V?$allocator@UVector2D@@@std@@@std@@QAE@XZ
	mov	eax, DWORD PTR fs:0
	push	eax
	push	ecx
	mov	DWORD PTR [ebp-16], -858993460		; ccccccccH
	mov	eax, DWORD PTR ___security_cookie
	xor	eax, ebp
	push	eax
	lea	eax, DWORD PTR __$EHRec$[ebp]
	mov	DWORD PTR fs:0, eax
	mov	DWORD PTR _this$[ebp], ecx

; 975  : 		_Tidy();

	mov	ecx, DWORD PTR _this$[ebp]
	call	?_Tidy@?$vector@UVector2D@@V?$allocator@UVector2D@@@std@@@std@@IAEXXZ ; std::vector<Vector2D,std::allocator<Vector2D> >::_Tidy

; 976  : 		}

	mov	ecx, DWORD PTR _this$[ebp]
	call	??1?$_Vector_alloc@U?$_Vec_base_types@UVector2D@@V?$allocator@UVector2D@@@std@@@std@@@std@@QAE@XZ ; std::_Vector_alloc<std::_Vec_base_types<Vector2D,std::allocator<Vector2D> > >::~_Vector_alloc<std::_Vec_base_types<Vector2D,std::allocator<Vector2D> > >
	mov	ecx, DWORD PTR __$EHRec$[ebp]
	mov	DWORD PTR fs:0, ecx
	pop	ecx
	add	esp, 16					; 00000010H
	cmp	ebp, esp
	call	__RTC_CheckEsp
	mov	esp, ebp
	pop	ebp
	ret	0
_TEXT	ENDS
;	COMDAT text$x
text$x	SEGMENT
__ehhandler$??1?$vector@UVector2D@@V?$allocator@UVector2D@@@std@@@std@@QAE@XZ:
	mov	edx, DWORD PTR [esp+8]
	lea	eax, DWORD PTR [edx+12]
	mov	ecx, DWORD PTR [edx-8]
	xor	ecx, eax
	call	@__security_check_cookie@4
	mov	eax, OFFSET __ehfuncinfo$??1?$vector@UVector2D@@V?$allocator@UVector2D@@@std@@@std@@QAE@XZ
	jmp	___CxxFrameHandler3
text$x	ENDS
??1?$vector@UVector2D@@V?$allocator@UVector2D@@@std@@@std@@QAE@XZ ENDP ; std::vector<Vector2D,std::allocator<Vector2D> >::~vector<Vector2D,std::allocator<Vector2D> >
; Function compile flags: /Odtp /RTCsu
; File d:\microsoft visual studio 14.0\vc\include\vector
;	COMDAT ?_Assign_rv@?$vector@UVector2D@@V?$allocator@UVector2D@@@std@@@std@@QAEX$$QAV12@@Z
_TEXT	SEGMENT
$T1 = -5						; size = 1
_this$ = -4						; size = 4
__Right$ = 8						; size = 4
?_Assign_rv@?$vector@UVector2D@@V?$allocator@UVector2D@@@std@@@std@@QAEX$$QAV12@@Z PROC ; std::vector<Vector2D,std::allocator<Vector2D> >::_Assign_rv, COMDAT
; _this$ = ecx

; 888  : 		{	// assign by moving _Right

	push	ebp
	mov	ebp, esp
	sub	esp, 8
	mov	DWORD PTR [ebp-8], -858993460		; ccccccccH
	mov	DWORD PTR [ebp-4], -858993460		; ccccccccH
	mov	DWORD PTR _this$[ebp], ecx

; 889  : 		_Assign_rv(_STD forward<_Myt>(_Right),

	movzx	eax, BYTE PTR $T1[ebp]
	push	eax
	mov	ecx, DWORD PTR __Right$[ebp]
	push	ecx
	call	??$forward@V?$vector@UVector2D@@V?$allocator@UVector2D@@@std@@@std@@@std@@YA$$QAV?$vector@UVector2D@@V?$allocator@UVector2D@@@std@@@0@AAV10@@Z ; std::forward<std::vector<Vector2D,std::allocator<Vector2D> > >
	add	esp, 4
	push	eax
	mov	ecx, DWORD PTR _this$[ebp]
	call	?_Assign_rv@?$vector@UVector2D@@V?$allocator@UVector2D@@@std@@@std@@QAEX$$QAV12@U?$integral_constant@_N$00@2@@Z ; std::vector<Vector2D,std::allocator<Vector2D> >::_Assign_rv

; 890  : 			typename _Alty::propagate_on_container_move_assignment());
; 891  : 		}

	add	esp, 8
	cmp	ebp, esp
	call	__RTC_CheckEsp
	mov	esp, ebp
	pop	ebp
	ret	4
?_Assign_rv@?$vector@UVector2D@@V?$allocator@UVector2D@@@std@@@std@@QAEX$$QAV12@@Z ENDP ; std::vector<Vector2D,std::allocator<Vector2D> >::_Assign_rv
_TEXT	ENDS
; Function compile flags: /Odtp /RTCsu
; File d:\microsoft visual studio 14.0\vc\include\vector
;	COMDAT ?_Assign_rv@?$vector@UVector2D@@V?$allocator@UVector2D@@@std@@@std@@QAEX$$QAV12@U?$integral_constant@_N$00@2@@Z
_TEXT	SEGMENT
_this$ = -4						; size = 4
__Right$ = 8						; size = 4
___formal$ = 12						; size = 1
?_Assign_rv@?$vector@UVector2D@@V?$allocator@UVector2D@@@std@@@std@@QAEX$$QAV12@U?$integral_constant@_N$00@2@@Z PROC ; std::vector<Vector2D,std::allocator<Vector2D> >::_Assign_rv, COMDAT
; _this$ = ecx

; 867  : 		{	// move from _Right, stealing its contents

	push	ebp
	mov	ebp, esp
	push	ecx
	push	esi
	mov	DWORD PTR [ebp-4], -858993460		; ccccccccH
	mov	DWORD PTR _this$[ebp], ecx

; 868  : 		this->_Swap_all((_Myt&)_Right);

	mov	eax, DWORD PTR __Right$[ebp]
	push	eax
	mov	ecx, DWORD PTR _this$[ebp]
	call	?_Swap_all@?$_Vector_alloc@U?$_Vec_base_types@UVector2D@@V?$allocator@UVector2D@@@std@@@std@@@std@@QAEXAAV12@@Z ; std::_Vector_alloc<std::_Vec_base_types<Vector2D,std::allocator<Vector2D> > >::_Swap_all

; 869  : 		this->_Myfirst() = _Right._Myfirst();

	mov	ecx, DWORD PTR __Right$[ebp]
	call	?_Myfirst@?$_Vector_alloc@U?$_Vec_base_types@UVector2D@@V?$allocator@UVector2D@@@std@@@std@@@std@@QAEAAPAUVector2D@@XZ ; std::_Vector_alloc<std::_Vec_base_types<Vector2D,std::allocator<Vector2D> > >::_Myfirst
	mov	esi, eax
	mov	ecx, DWORD PTR _this$[ebp]
	call	?_Myfirst@?$_Vector_alloc@U?$_Vec_base_types@UVector2D@@V?$allocator@UVector2D@@@std@@@std@@@std@@QAEAAPAUVector2D@@XZ ; std::_Vector_alloc<std::_Vec_base_types<Vector2D,std::allocator<Vector2D> > >::_Myfirst
	mov	ecx, DWORD PTR [esi]
	mov	DWORD PTR [eax], ecx

; 870  : 		this->_Mylast() = _Right._Mylast();

	mov	ecx, DWORD PTR __Right$[ebp]
	call	?_Mylast@?$_Vector_alloc@U?$_Vec_base_types@UVector2D@@V?$allocator@UVector2D@@@std@@@std@@@std@@QAEAAPAUVector2D@@XZ ; std::_Vector_alloc<std::_Vec_base_types<Vector2D,std::allocator<Vector2D> > >::_Mylast
	mov	esi, eax
	mov	ecx, DWORD PTR _this$[ebp]
	call	?_Mylast@?$_Vector_alloc@U?$_Vec_base_types@UVector2D@@V?$allocator@UVector2D@@@std@@@std@@@std@@QAEAAPAUVector2D@@XZ ; std::_Vector_alloc<std::_Vec_base_types<Vector2D,std::allocator<Vector2D> > >::_Mylast
	mov	edx, DWORD PTR [esi]
	mov	DWORD PTR [eax], edx

; 871  : 		this->_Myend() = _Right._Myend();

	mov	ecx, DWORD PTR __Right$[ebp]
	call	?_Myend@?$_Vector_alloc@U?$_Vec_base_types@UVector2D@@V?$allocator@UVector2D@@@std@@@std@@@std@@QAEAAPAUVector2D@@XZ ; std::_Vector_alloc<std::_Vec_base_types<Vector2D,std::allocator<Vector2D> > >::_Myend
	mov	esi, eax
	mov	ecx, DWORD PTR _this$[ebp]
	call	?_Myend@?$_Vector_alloc@U?$_Vec_base_types@UVector2D@@V?$allocator@UVector2D@@@std@@@std@@@std@@QAEAAPAUVector2D@@XZ ; std::_Vector_alloc<std::_Vec_base_types<Vector2D,std::allocator<Vector2D> > >::_Myend
	mov	ecx, DWORD PTR [esi]
	mov	DWORD PTR [eax], ecx

; 872  : 
; 873  : 		_Right._Myfirst() = pointer();

	mov	ecx, DWORD PTR __Right$[ebp]
	call	?_Myfirst@?$_Vector_alloc@U?$_Vec_base_types@UVector2D@@V?$allocator@UVector2D@@@std@@@std@@@std@@QAEAAPAUVector2D@@XZ ; std::_Vector_alloc<std::_Vec_base_types<Vector2D,std::allocator<Vector2D> > >::_Myfirst
	mov	DWORD PTR [eax], 0

; 874  : 		_Right._Mylast() = pointer();

	mov	ecx, DWORD PTR __Right$[ebp]
	call	?_Mylast@?$_Vector_alloc@U?$_Vec_base_types@UVector2D@@V?$allocator@UVector2D@@@std@@@std@@@std@@QAEAAPAUVector2D@@XZ ; std::_Vector_alloc<std::_Vec_base_types<Vector2D,std::allocator<Vector2D> > >::_Mylast
	mov	DWORD PTR [eax], 0

; 875  : 		_Right._Myend() = pointer();

	mov	ecx, DWORD PTR __Right$[ebp]
	call	?_Myend@?$_Vector_alloc@U?$_Vec_base_types@UVector2D@@V?$allocator@UVector2D@@@std@@@std@@@std@@QAEAAPAUVector2D@@XZ ; std::_Vector_alloc<std::_Vec_base_types<Vector2D,std::allocator<Vector2D> > >::_Myend
	mov	DWORD PTR [eax], 0

; 876  : 		}

	pop	esi
	add	esp, 4
	cmp	ebp, esp
	call	__RTC_CheckEsp
	mov	esp, ebp
	pop	ebp
	ret	8
?_Assign_rv@?$vector@UVector2D@@V?$allocator@UVector2D@@@std@@@std@@QAEX$$QAV12@U?$integral_constant@_N$00@2@@Z ENDP ; std::vector<Vector2D,std::allocator<Vector2D> >::_Assign_rv
_TEXT	ENDS
; Function compile flags: /Odtp /RTCsu
; File d:\microsoft visual studio 14.0\vc\include\vector
;	COMDAT ??4?$vector@UVector2D@@V?$allocator@UVector2D@@@std@@@std@@QAEAAV01@$$QAV01@@Z
_TEXT	SEGMENT
_this$ = -16						; size = 4
__$EHRec$ = -12						; size = 12
__Right$ = 8						; size = 4
??4?$vector@UVector2D@@V?$allocator@UVector2D@@@std@@@std@@QAEAAV01@$$QAV01@@Z PROC ; std::vector<Vector2D,std::allocator<Vector2D> >::operator=, COMDAT
; _this$ = ecx

; 853  : 		{	// assign by moving _Right

	push	ebp
	mov	ebp, esp
	push	-1
	push	__ehhandler$??4?$vector@UVector2D@@V?$allocator@UVector2D@@@std@@@std@@QAEAAV01@$$QAV01@@Z
	mov	eax, DWORD PTR fs:0
	push	eax
	push	ecx
	mov	DWORD PTR [ebp-16], -858993460		; ccccccccH
	mov	eax, DWORD PTR ___security_cookie
	xor	eax, ebp
	push	eax
	lea	eax, DWORD PTR __$EHRec$[ebp]
	mov	DWORD PTR fs:0, eax
	mov	DWORD PTR _this$[ebp], ecx

; 854  : 		if (this != &_Right)

	mov	eax, DWORD PTR _this$[ebp]
	cmp	eax, DWORD PTR __Right$[ebp]
	je	SHORT $LN2@operator

; 855  : 			{	// different, assign it
; 856  : 			_Tidy();

	mov	ecx, DWORD PTR _this$[ebp]
	call	?_Tidy@?$vector@UVector2D@@V?$allocator@UVector2D@@@std@@@std@@IAEXXZ ; std::vector<Vector2D,std::allocator<Vector2D> >::_Tidy

; 857  : 			if (_Alty::propagate_on_container_move_assignment::value
; 858  : 				&& this->_Getal() != _Right._Getal())

	mov	ecx, 1
	test	ecx, ecx
	je	SHORT $LN3@operator
	mov	ecx, DWORD PTR __Right$[ebp]
	call	?_Getal@?$_Vector_alloc@U?$_Vec_base_types@UVector2D@@V?$allocator@UVector2D@@@std@@@std@@@std@@QAEAAU?$_Wrap_alloc@V?$allocator@UVector2D@@@std@@@2@XZ ; std::_Vector_alloc<std::_Vec_base_types<Vector2D,std::allocator<Vector2D> > >::_Getal
	push	eax
	mov	ecx, DWORD PTR _this$[ebp]
	call	?_Getal@?$_Vector_alloc@U?$_Vec_base_types@UVector2D@@V?$allocator@UVector2D@@@std@@@std@@@std@@QAEAAU?$_Wrap_alloc@V?$allocator@UVector2D@@@std@@@2@XZ ; std::_Vector_alloc<std::_Vec_base_types<Vector2D,std::allocator<Vector2D> > >::_Getal
	push	eax
	call	??$?9V?$allocator@UVector2D@@@std@@V01@@std@@YA_NABU?$_Wrap_alloc@V?$allocator@UVector2D@@@std@@@0@0@Z ; std::operator!=<std::allocator<Vector2D>,std::allocator<Vector2D> >
	add	esp, 8
	movzx	edx, al
	test	edx, edx
	je	SHORT $LN3@operator

; 859  : 				this->_Move_alloc(_Right._Getal());

	mov	ecx, DWORD PTR __Right$[ebp]
	call	?_Getal@?$_Vector_alloc@U?$_Vec_base_types@UVector2D@@V?$allocator@UVector2D@@@std@@@std@@@std@@QAEAAU?$_Wrap_alloc@V?$allocator@UVector2D@@@std@@@2@XZ ; std::_Vector_alloc<std::_Vec_base_types<Vector2D,std::allocator<Vector2D> > >::_Getal
	push	eax
	mov	ecx, DWORD PTR _this$[ebp]
	call	?_Move_alloc@?$_Vector_alloc@U?$_Vec_base_types@UVector2D@@V?$allocator@UVector2D@@@std@@@std@@@std@@QAEXAAU?$_Wrap_alloc@V?$allocator@UVector2D@@@std@@@2@@Z ; std::_Vector_alloc<std::_Vec_base_types<Vector2D,std::allocator<Vector2D> > >::_Move_alloc
$LN3@operator:

; 860  : 
; 861  : 			_Assign_rv(_STD forward<_Myt>(_Right));

	mov	eax, DWORD PTR __Right$[ebp]
	push	eax
	call	??$forward@V?$vector@UVector2D@@V?$allocator@UVector2D@@@std@@@std@@@std@@YA$$QAV?$vector@UVector2D@@V?$allocator@UVector2D@@@std@@@0@AAV10@@Z ; std::forward<std::vector<Vector2D,std::allocator<Vector2D> > >
	add	esp, 4
	push	eax
	mov	ecx, DWORD PTR _this$[ebp]
	call	?_Assign_rv@?$vector@UVector2D@@V?$allocator@UVector2D@@@std@@@std@@QAEX$$QAV12@@Z ; std::vector<Vector2D,std::allocator<Vector2D> >::_Assign_rv
$LN2@operator:

; 862  : 			}
; 863  : 		return (*this);

	mov	eax, DWORD PTR _this$[ebp]

; 864  : 		}

	mov	ecx, DWORD PTR __$EHRec$[ebp]
	mov	DWORD PTR fs:0, ecx
	pop	ecx
	add	esp, 16					; 00000010H
	cmp	ebp, esp
	call	__RTC_CheckEsp
	mov	esp, ebp
	pop	ebp
	ret	4
_TEXT	ENDS
;	COMDAT text$x
text$x	SEGMENT
__ehhandler$??4?$vector@UVector2D@@V?$allocator@UVector2D@@@std@@@std@@QAEAAV01@$$QAV01@@Z:
	mov	edx, DWORD PTR [esp+8]
	lea	eax, DWORD PTR [edx+12]
	mov	ecx, DWORD PTR [edx-8]
	xor	ecx, eax
	call	@__security_check_cookie@4
	mov	eax, OFFSET __ehfuncinfo$??4?$vector@UVector2D@@V?$allocator@UVector2D@@@std@@@std@@QAEAAV01@$$QAV01@@Z
	jmp	___CxxFrameHandler3
text$x	ENDS
??4?$vector@UVector2D@@V?$allocator@UVector2D@@@std@@@std@@QAEAAV01@$$QAV01@@Z ENDP ; std::vector<Vector2D,std::allocator<Vector2D> >::operator=
; Function compile flags: /Odtp /RTCsu
; File d:\microsoft visual studio 14.0\vc\include\vector
;	COMDAT ??0?$vector@UVector2D@@V?$allocator@UVector2D@@@std@@@std@@QAE@$$QAV01@@Z
_TEXT	SEGMENT
$T2 = -17						; size = 1
_this$ = -16						; size = 4
__$EHRec$ = -12						; size = 12
__Right$ = 8						; size = 4
??0?$vector@UVector2D@@V?$allocator@UVector2D@@@std@@@std@@QAE@$$QAV01@@Z PROC ; std::vector<Vector2D,std::allocator<Vector2D> >::vector<Vector2D,std::allocator<Vector2D> >, COMDAT
; _this$ = ecx

; 840  : 		{	// construct by moving _Right

	push	ebp
	mov	ebp, esp
	push	-1
	push	__ehhandler$??0?$vector@UVector2D@@V?$allocator@UVector2D@@@std@@@std@@QAE@$$QAV01@@Z
	mov	eax, DWORD PTR fs:0
	push	eax
	sub	esp, 8
	mov	DWORD PTR [ebp-20], -858993460		; ccccccccH
	mov	DWORD PTR [ebp-16], -858993460		; ccccccccH
	mov	eax, DWORD PTR ___security_cookie
	xor	eax, ebp
	push	eax
	lea	eax, DWORD PTR __$EHRec$[ebp]
	mov	DWORD PTR fs:0, eax
	mov	DWORD PTR _this$[ebp], ecx

; 839  : 		: _Mybase(_STD move(_Right._Getal()))

	mov	ecx, DWORD PTR __Right$[ebp]
	call	?_Getal@?$_Vector_alloc@U?$_Vec_base_types@UVector2D@@V?$allocator@UVector2D@@@std@@@std@@@std@@QAEAAU?$_Wrap_alloc@V?$allocator@UVector2D@@@std@@@2@XZ ; std::_Vector_alloc<std::_Vec_base_types<Vector2D,std::allocator<Vector2D> > >::_Getal
	push	eax
	call	??$move@AAU?$_Wrap_alloc@V?$allocator@UVector2D@@@std@@@std@@@std@@YA$$QAU?$_Wrap_alloc@V?$allocator@UVector2D@@@std@@@0@AAU10@@Z ; std::move<std::_Wrap_alloc<std::allocator<Vector2D> > &>
	add	esp, 4
	push	eax
	mov	ecx, DWORD PTR _this$[ebp]
	call	??0?$_Vector_alloc@U?$_Vec_base_types@UVector2D@@V?$allocator@UVector2D@@@std@@@std@@@std@@QAE@$$QAV?$allocator@UVector2D@@@1@@Z ; std::_Vector_alloc<std::_Vec_base_types<Vector2D,std::allocator<Vector2D> > >::_Vector_alloc<std::_Vec_base_types<Vector2D,std::allocator<Vector2D> > >

; 841  : 		_Assign_rv(_STD forward<_Myt>(_Right), true_type());

	movzx	eax, BYTE PTR $T2[ebp]
	push	eax
	mov	ecx, DWORD PTR __Right$[ebp]
	push	ecx
	call	??$forward@V?$vector@UVector2D@@V?$allocator@UVector2D@@@std@@@std@@@std@@YA$$QAV?$vector@UVector2D@@V?$allocator@UVector2D@@@std@@@0@AAV10@@Z ; std::forward<std::vector<Vector2D,std::allocator<Vector2D> > >
	add	esp, 4
	push	eax
	mov	ecx, DWORD PTR _this$[ebp]
	call	?_Assign_rv@?$vector@UVector2D@@V?$allocator@UVector2D@@@std@@@std@@QAEX$$QAV12@U?$integral_constant@_N$00@2@@Z ; std::vector<Vector2D,std::allocator<Vector2D> >::_Assign_rv

; 842  : 		}

	mov	eax, DWORD PTR _this$[ebp]
	mov	ecx, DWORD PTR __$EHRec$[ebp]
	mov	DWORD PTR fs:0, ecx
	pop	ecx
	add	esp, 20					; 00000014H
	cmp	ebp, esp
	call	__RTC_CheckEsp
	mov	esp, ebp
	pop	ebp
	ret	4
_TEXT	ENDS
;	COMDAT text$x
text$x	SEGMENT
__ehhandler$??0?$vector@UVector2D@@V?$allocator@UVector2D@@@std@@@std@@QAE@$$QAV01@@Z:
	mov	edx, DWORD PTR [esp+8]
	lea	eax, DWORD PTR [edx+12]
	mov	ecx, DWORD PTR [edx-12]
	xor	ecx, eax
	call	@__security_check_cookie@4
	mov	eax, OFFSET __ehfuncinfo$??0?$vector@UVector2D@@V?$allocator@UVector2D@@@std@@@std@@QAE@$$QAV01@@Z
	jmp	___CxxFrameHandler3
text$x	ENDS
??0?$vector@UVector2D@@V?$allocator@UVector2D@@@std@@@std@@QAE@$$QAV01@@Z ENDP ; std::vector<Vector2D,std::allocator<Vector2D> >::vector<Vector2D,std::allocator<Vector2D> >
; Function compile flags: /Odtp /RTCsu
; File d:\microsoft visual studio 14.0\vc\include\vector
;	COMDAT ??0?$vector@UVector2D@@V?$allocator@UVector2D@@@std@@@std@@QAE@ABV01@@Z
_TEXT	SEGMENT
tv136 = -44						; size = 4
tv180 = -40						; size = 4
tv177 = -36						; size = 4
$T2 = -32						; size = 4
$T3 = -28						; size = 4
$T4 = -22						; size = 1
$T5 = -21						; size = 1
_this$ = -20						; size = 4
__$EHRec$ = -16						; size = 16
__Right$ = 8						; size = 4
??0?$vector@UVector2D@@V?$allocator@UVector2D@@@std@@@std@@QAE@ABV01@@Z PROC ; std::vector<Vector2D,std::allocator<Vector2D> >::vector<Vector2D,std::allocator<Vector2D> >, COMDAT
; _this$ = ecx

; 747  : 		{	// construct by copying _Right

	push	ebp
	mov	ebp, esp
	push	-1
	push	__ehhandler$??0?$vector@UVector2D@@V?$allocator@UVector2D@@@std@@@std@@QAE@ABV01@@Z
	mov	eax, DWORD PTR fs:0
	push	eax
	push	ecx
	sub	esp, 28					; 0000001cH
	push	ebx
	push	esi
	push	edi
	mov	eax, -858993460				; ccccccccH
	mov	DWORD PTR [ebp-44], eax
	mov	DWORD PTR [ebp-40], eax
	mov	DWORD PTR [ebp-36], eax
	mov	DWORD PTR [ebp-32], eax
	mov	DWORD PTR [ebp-28], eax
	mov	DWORD PTR [ebp-24], eax
	mov	DWORD PTR [ebp-20], eax
	mov	eax, DWORD PTR ___security_cookie
	xor	eax, ebp
	push	eax
	lea	eax, DWORD PTR __$EHRec$[ebp+4]
	mov	DWORD PTR fs:0, eax
	mov	DWORD PTR __$EHRec$[ebp], esp
	mov	DWORD PTR _this$[ebp], ecx

; 744  : 		: _Mybase(_Right._Getal().select_on_container_copy_construction())

	movzx	eax, BYTE PTR $T5[ebp]
	push	eax
	lea	ecx, DWORD PTR $T4[ebp]
	push	ecx
	mov	ecx, DWORD PTR __Right$[ebp]
	call	?_Getal@?$_Vector_alloc@U?$_Vec_base_types@UVector2D@@V?$allocator@UVector2D@@@std@@@std@@@std@@QBEABU?$_Wrap_alloc@V?$allocator@UVector2D@@@std@@@2@XZ ; std::_Vector_alloc<std::_Vec_base_types<Vector2D,std::allocator<Vector2D> > >::_Getal
	mov	ecx, eax
	call	?select_on_container_copy_construction@?$_Wrap_alloc@V?$allocator@UVector2D@@@std@@@std@@QBE?AU12@U_Nil@2@@Z ; std::_Wrap_alloc<std::allocator<Vector2D> >::select_on_container_copy_construction
	push	eax
	mov	ecx, DWORD PTR _this$[ebp]
	call	??0?$_Vector_alloc@U?$_Vec_base_types@UVector2D@@V?$allocator@UVector2D@@@std@@@std@@@std@@QAE@$$QAV?$allocator@UVector2D@@@1@@Z ; std::_Vector_alloc<std::_Vec_base_types<Vector2D,std::allocator<Vector2D> > >::_Vector_alloc<std::_Vec_base_types<Vector2D,std::allocator<Vector2D> > >
	mov	DWORD PTR __$EHRec$[ebp+12], 0

; 748  : 		if (_Buy(_Right.size()))

	mov	ecx, DWORD PTR __Right$[ebp]
	call	?size@?$vector@UVector2D@@V?$allocator@UVector2D@@@std@@@std@@QBEIXZ ; std::vector<Vector2D,std::allocator<Vector2D> >::size
	push	eax
	mov	ecx, DWORD PTR _this$[ebp]
	call	?_Buy@?$vector@UVector2D@@V?$allocator@UVector2D@@@std@@@std@@IAE_NI@Z ; std::vector<Vector2D,std::allocator<Vector2D> >::_Buy
	movzx	edx, al
	test	edx, edx
	je	SHORT $LN1@vector

; 749  : 			_TRY_BEGIN

	mov	BYTE PTR __$EHRec$[ebp+12], 1

; 750  : 			this->_Mylast() = _Ucopy(_Right.begin(), _Right.end(),

	mov	ecx, DWORD PTR _this$[ebp]
	call	?_Myfirst@?$_Vector_alloc@U?$_Vec_base_types@UVector2D@@V?$allocator@UVector2D@@@std@@@std@@@std@@QAEAAPAUVector2D@@XZ ; std::_Vector_alloc<std::_Vec_base_types<Vector2D,std::allocator<Vector2D> > >::_Myfirst
	mov	eax, DWORD PTR [eax]
	push	eax
	sub	esp, 12					; 0000000cH
	mov	ecx, esp
	mov	DWORD PTR $T3[ebp], esp
	push	ecx
	mov	ecx, DWORD PTR __Right$[ebp]
	call	?end@?$vector@UVector2D@@V?$allocator@UVector2D@@@std@@@std@@QBE?AV?$_Vector_const_iterator@V?$_Vector_val@U?$_Simple_types@UVector2D@@@std@@@std@@@2@XZ ; std::vector<Vector2D,std::allocator<Vector2D> >::end
	mov	DWORD PTR tv177[ebp], eax
	sub	esp, 12					; 0000000cH
	mov	edx, esp
	mov	DWORD PTR $T2[ebp], esp
	push	edx
	mov	ecx, DWORD PTR __Right$[ebp]
	call	?begin@?$vector@UVector2D@@V?$allocator@UVector2D@@@std@@@std@@QBE?AV?$_Vector_const_iterator@V?$_Vector_val@U?$_Simple_types@UVector2D@@@std@@@std@@@2@XZ ; std::vector<Vector2D,std::allocator<Vector2D> >::begin
	mov	DWORD PTR tv180[ebp], eax
	mov	ecx, DWORD PTR _this$[ebp]
	call	??$_Ucopy@V?$_Vector_const_iterator@V?$_Vector_val@U?$_Simple_types@UVector2D@@@std@@@std@@@std@@@?$vector@UVector2D@@V?$allocator@UVector2D@@@std@@@std@@IAEPAUVector2D@@V?$_Vector_const_iterator@V?$_Vector_val@U?$_Simple_types@UVector2D@@@std@@@std@@@1@0PAU2@@Z ; std::vector<Vector2D,std::allocator<Vector2D> >::_Ucopy<std::_Vector_const_iterator<std::_Vector_val<std::_Simple_types<Vector2D> > > >
	mov	DWORD PTR tv136[ebp], eax
	mov	ecx, DWORD PTR _this$[ebp]
	call	?_Mylast@?$_Vector_alloc@U?$_Vec_base_types@UVector2D@@V?$allocator@UVector2D@@@std@@@std@@@std@@QAEAAPAUVector2D@@XZ ; std::_Vector_alloc<std::_Vec_base_types<Vector2D,std::allocator<Vector2D> > >::_Mylast
	mov	ecx, DWORD PTR tv136[ebp]
	mov	DWORD PTR [eax], ecx
	jmp	SHORT $LN5@vector
__catch$??0?$vector@UVector2D@@V?$allocator@UVector2D@@@std@@@std@@QAE@ABV01@@Z$0:

; 751  : 				this->_Myfirst());
; 752  : 			_CATCH_ALL
; 753  : 			_Tidy();

	mov	ecx, DWORD PTR _this$[ebp]
	call	?_Tidy@?$vector@UVector2D@@V?$allocator@UVector2D@@@std@@@std@@IAEXXZ ; std::vector<Vector2D,std::allocator<Vector2D> >::_Tidy

; 754  : 			_RERAISE;

	push	0
	push	0
	call	__CxxThrowException@8

; 755  : 			_CATCH_END

	mov	eax, $LN11@vector
	ret	0
$LN5@vector:
	mov	DWORD PTR __$EHRec$[ebp+12], 0
	jmp	SHORT $LN1@vector
$LN11@vector:
	mov	DWORD PTR __$EHRec$[ebp+12], 0
$LN1@vector:

; 756  : 		}

	mov	DWORD PTR __$EHRec$[ebp+12], -1
	mov	eax, DWORD PTR _this$[ebp]
$LN4@vector:
	mov	ecx, DWORD PTR __$EHRec$[ebp+4]
	mov	DWORD PTR fs:0, ecx
	pop	ecx
	pop	edi
	pop	esi
	pop	ebx
	add	esp, 44					; 0000002cH
	cmp	ebp, esp
	call	__RTC_CheckEsp
	mov	esp, ebp
	pop	ebp
	ret	4
_TEXT	ENDS
;	COMDAT text$x
text$x	SEGMENT
__unwindfunclet$??0?$vector@UVector2D@@V?$allocator@UVector2D@@@std@@@std@@QAE@ABV01@@Z$2:
	mov	ecx, DWORD PTR _this$[ebp]
	jmp	??1?$_Vector_alloc@U?$_Vec_base_types@UVector2D@@V?$allocator@UVector2D@@@std@@@std@@@std@@QAE@XZ ; std::_Vector_alloc<std::_Vec_base_types<Vector2D,std::allocator<Vector2D> > >::~_Vector_alloc<std::_Vec_base_types<Vector2D,std::allocator<Vector2D> > >
__ehhandler$??0?$vector@UVector2D@@V?$allocator@UVector2D@@@std@@@std@@QAE@ABV01@@Z:
	mov	edx, DWORD PTR [esp+8]
	lea	eax, DWORD PTR [edx+12]
	mov	ecx, DWORD PTR [edx-48]
	xor	ecx, eax
	call	@__security_check_cookie@4
	mov	eax, OFFSET __ehfuncinfo$??0?$vector@UVector2D@@V?$allocator@UVector2D@@@std@@@std@@QAE@ABV01@@Z
	jmp	___CxxFrameHandler3
text$x	ENDS
??0?$vector@UVector2D@@V?$allocator@UVector2D@@@std@@@std@@QAE@ABV01@@Z ENDP ; std::vector<Vector2D,std::allocator<Vector2D> >::vector<Vector2D,std::allocator<Vector2D> >
; Function compile flags: /Odtp /RTCsu
; File d:\microsoft visual studio 14.0\vc\include\vector
;	COMDAT ??0?$vector@UVector2D@@V?$allocator@UVector2D@@@std@@@std@@QAE@XZ
_TEXT	SEGMENT
$T2 = -17						; size = 1
_this$ = -16						; size = 4
__$EHRec$ = -12						; size = 12
??0?$vector@UVector2D@@V?$allocator@UVector2D@@@std@@@std@@QAE@XZ PROC ; std::vector<Vector2D,std::allocator<Vector2D> >::vector<Vector2D,std::allocator<Vector2D> >, COMDAT
; _this$ = ecx

; 706  : 		{	// construct empty vector

	push	ebp
	mov	ebp, esp
	push	-1
	push	__ehhandler$??0?$vector@UVector2D@@V?$allocator@UVector2D@@@std@@@std@@QAE@XZ
	mov	eax, DWORD PTR fs:0
	push	eax
	sub	esp, 8
	mov	DWORD PTR [ebp-20], -858993460		; ccccccccH
	mov	DWORD PTR [ebp-16], -858993460		; ccccccccH
	mov	eax, DWORD PTR ___security_cookie
	xor	eax, ebp
	push	eax
	lea	eax, DWORD PTR __$EHRec$[ebp]
	mov	DWORD PTR fs:0, eax
	mov	DWORD PTR _this$[ebp], ecx

; 705  : 		: _Mybase()

	lea	ecx, DWORD PTR $T2[ebp]
	call	??0?$allocator@UVector2D@@@std@@QAE@XZ	; std::allocator<Vector2D>::allocator<Vector2D>
	push	eax
	mov	ecx, DWORD PTR _this$[ebp]
	call	??0?$_Vector_alloc@U?$_Vec_base_types@UVector2D@@V?$allocator@UVector2D@@@std@@@std@@@std@@QAE@ABV?$allocator@UVector2D@@@1@@Z ; std::_Vector_alloc<std::_Vec_base_types<Vector2D,std::allocator<Vector2D> > >::_Vector_alloc<std::_Vec_base_types<Vector2D,std::allocator<Vector2D> > >

; 707  : 		}

	mov	eax, DWORD PTR _this$[ebp]
	mov	ecx, DWORD PTR __$EHRec$[ebp]
	mov	DWORD PTR fs:0, ecx
	pop	ecx
	add	esp, 20					; 00000014H
	cmp	ebp, esp
	call	__RTC_CheckEsp
	mov	esp, ebp
	pop	ebp
	ret	0
_TEXT	ENDS
;	COMDAT text$x
text$x	SEGMENT
__ehhandler$??0?$vector@UVector2D@@V?$allocator@UVector2D@@@std@@@std@@QAE@XZ:
	mov	edx, DWORD PTR [esp+8]
	lea	eax, DWORD PTR [edx+12]
	mov	ecx, DWORD PTR [edx-12]
	xor	ecx, eax
	call	@__security_check_cookie@4
	mov	eax, OFFSET __ehfuncinfo$??0?$vector@UVector2D@@V?$allocator@UVector2D@@@std@@@std@@QAE@XZ
	jmp	___CxxFrameHandler3
text$x	ENDS
??0?$vector@UVector2D@@V?$allocator@UVector2D@@@std@@@std@@QAE@XZ ENDP ; std::vector<Vector2D,std::allocator<Vector2D> >::vector<Vector2D,std::allocator<Vector2D> >
; Function compile flags: /Odtp /RTCsu
;	COMDAT ??1?$_Compressed_pair@U?$_Wrap_alloc@V?$allocator@UVector2D@@@std@@@std@@V?$_Vector_val@U?$_Simple_types@UVector2D@@@std@@@2@$00@std@@QAE@XZ
_TEXT	SEGMENT
_this$ = -4						; size = 4
??1?$_Compressed_pair@U?$_Wrap_alloc@V?$allocator@UVector2D@@@std@@@std@@V?$_Vector_val@U?$_Simple_types@UVector2D@@@std@@@2@$00@std@@QAE@XZ PROC ; std::_Compressed_pair<std::_Wrap_alloc<std::allocator<Vector2D> >,std::_Vector_val<std::_Simple_types<Vector2D> >,1>::~_Compressed_pair<std::_Wrap_alloc<std::allocator<Vector2D> >,std::_Vector_val<std::_Simple_types<Vector2D> >,1>, COMDAT
; _this$ = ecx
	push	ebp
	mov	ebp, esp
	push	ecx
	mov	DWORD PTR [ebp-4], -858993460		; ccccccccH
	mov	DWORD PTR _this$[ebp], ecx
	mov	ecx, DWORD PTR _this$[ebp]
	call	??1?$_Vector_val@U?$_Simple_types@UVector2D@@@std@@@std@@QAE@XZ
	add	esp, 4
	cmp	ebp, esp
	call	__RTC_CheckEsp
	mov	esp, ebp
	pop	ebp
	ret	0
??1?$_Compressed_pair@U?$_Wrap_alloc@V?$allocator@UVector2D@@@std@@@std@@V?$_Vector_val@U?$_Simple_types@UVector2D@@@std@@@2@$00@std@@QAE@XZ ENDP ; std::_Compressed_pair<std::_Wrap_alloc<std::allocator<Vector2D> >,std::_Vector_val<std::_Simple_types<Vector2D> >,1>::~_Compressed_pair<std::_Wrap_alloc<std::allocator<Vector2D> >,std::_Vector_val<std::_Simple_types<Vector2D> >,1>
_TEXT	ENDS
; Function compile flags: /Odtp /RTCsu
; File d:\microsoft visual studio 14.0\vc\include\xutility
;	COMDAT ?_Get_second@?$_Compressed_pair@U?$_Wrap_alloc@V?$allocator@UVector2D@@@std@@@std@@V?$_Vector_val@U?$_Simple_types@UVector2D@@@std@@@2@$00@std@@QBEABV?$_Vector_val@U?$_Simple_types@UVector2D@@@std@@@2@XZ
_TEXT	SEGMENT
_this$ = -4						; size = 4
?_Get_second@?$_Compressed_pair@U?$_Wrap_alloc@V?$allocator@UVector2D@@@std@@@std@@V?$_Vector_val@U?$_Simple_types@UVector2D@@@std@@@2@$00@std@@QBEABV?$_Vector_val@U?$_Simple_types@UVector2D@@@std@@@2@XZ PROC ; std::_Compressed_pair<std::_Wrap_alloc<std::allocator<Vector2D> >,std::_Vector_val<std::_Simple_types<Vector2D> >,1>::_Get_second, COMDAT
; _this$ = ecx

; 318  : 		{	// return const reference to second

	push	ebp
	mov	ebp, esp
	push	ecx
	mov	DWORD PTR [ebp-4], -858993460		; ccccccccH
	mov	DWORD PTR _this$[ebp], ecx

; 319  : 		return (_Myval2);

	mov	eax, DWORD PTR _this$[ebp]

; 320  : 		}

	mov	esp, ebp
	pop	ebp
	ret	0
?_Get_second@?$_Compressed_pair@U?$_Wrap_alloc@V?$allocator@UVector2D@@@std@@@std@@V?$_Vector_val@U?$_Simple_types@UVector2D@@@std@@@2@$00@std@@QBEABV?$_Vector_val@U?$_Simple_types@UVector2D@@@std@@@2@XZ ENDP ; std::_Compressed_pair<std::_Wrap_alloc<std::allocator<Vector2D> >,std::_Vector_val<std::_Simple_types<Vector2D> >,1>::_Get_second
_TEXT	ENDS
; Function compile flags: /Odtp /RTCsu
; File d:\microsoft visual studio 14.0\vc\include\xutility
;	COMDAT ?_Get_second@?$_Compressed_pair@U?$_Wrap_alloc@V?$allocator@UVector2D@@@std@@@std@@V?$_Vector_val@U?$_Simple_types@UVector2D@@@std@@@2@$00@std@@QAEAAV?$_Vector_val@U?$_Simple_types@UVector2D@@@std@@@2@XZ
_TEXT	SEGMENT
_this$ = -4						; size = 4
?_Get_second@?$_Compressed_pair@U?$_Wrap_alloc@V?$allocator@UVector2D@@@std@@@std@@V?$_Vector_val@U?$_Simple_types@UVector2D@@@std@@@2@$00@std@@QAEAAV?$_Vector_val@U?$_Simple_types@UVector2D@@@std@@@2@XZ PROC ; std::_Compressed_pair<std::_Wrap_alloc<std::allocator<Vector2D> >,std::_Vector_val<std::_Simple_types<Vector2D> >,1>::_Get_second, COMDAT
; _this$ = ecx

; 313  : 		{	// return reference to second

	push	ebp
	mov	ebp, esp
	push	ecx
	mov	DWORD PTR [ebp-4], -858993460		; ccccccccH
	mov	DWORD PTR _this$[ebp], ecx

; 314  : 		return (_Myval2);

	mov	eax, DWORD PTR _this$[ebp]

; 315  : 		}

	mov	esp, ebp
	pop	ebp
	ret	0
?_Get_second@?$_Compressed_pair@U?$_Wrap_alloc@V?$allocator@UVector2D@@@std@@@std@@V?$_Vector_val@U?$_Simple_types@UVector2D@@@std@@@2@$00@std@@QAEAAV?$_Vector_val@U?$_Simple_types@UVector2D@@@std@@@2@XZ ENDP ; std::_Compressed_pair<std::_Wrap_alloc<std::allocator<Vector2D> >,std::_Vector_val<std::_Simple_types<Vector2D> >,1>::_Get_second
_TEXT	ENDS
; Function compile flags: /Odtp /RTCsu
; File d:\microsoft visual studio 14.0\vc\include\xutility
;	COMDAT ?_Get_first@?$_Compressed_pair@U?$_Wrap_alloc@V?$allocator@UVector2D@@@std@@@std@@V?$_Vector_val@U?$_Simple_types@UVector2D@@@std@@@2@$00@std@@QBEABU?$_Wrap_alloc@V?$allocator@UVector2D@@@std@@@2@XZ
_TEXT	SEGMENT
_this$ = -4						; size = 4
?_Get_first@?$_Compressed_pair@U?$_Wrap_alloc@V?$allocator@UVector2D@@@std@@@std@@V?$_Vector_val@U?$_Simple_types@UVector2D@@@std@@@2@$00@std@@QBEABU?$_Wrap_alloc@V?$allocator@UVector2D@@@std@@@2@XZ PROC ; std::_Compressed_pair<std::_Wrap_alloc<std::allocator<Vector2D> >,std::_Vector_val<std::_Simple_types<Vector2D> >,1>::_Get_first, COMDAT
; _this$ = ecx

; 298  : 		{	// return const reference to first

	push	ebp
	mov	ebp, esp
	push	ecx
	mov	DWORD PTR [ebp-4], -858993460		; ccccccccH
	mov	DWORD PTR _this$[ebp], ecx

; 299  : 		return (*this);

	mov	eax, DWORD PTR _this$[ebp]

; 300  : 		}

	mov	esp, ebp
	pop	ebp
	ret	0
?_Get_first@?$_Compressed_pair@U?$_Wrap_alloc@V?$allocator@UVector2D@@@std@@@std@@V?$_Vector_val@U?$_Simple_types@UVector2D@@@std@@@2@$00@std@@QBEABU?$_Wrap_alloc@V?$allocator@UVector2D@@@std@@@2@XZ ENDP ; std::_Compressed_pair<std::_Wrap_alloc<std::allocator<Vector2D> >,std::_Vector_val<std::_Simple_types<Vector2D> >,1>::_Get_first
_TEXT	ENDS
; Function compile flags: /Odtp /RTCsu
; File d:\microsoft visual studio 14.0\vc\include\xutility
;	COMDAT ?_Get_first@?$_Compressed_pair@U?$_Wrap_alloc@V?$allocator@UVector2D@@@std@@@std@@V?$_Vector_val@U?$_Simple_types@UVector2D@@@std@@@2@$00@std@@QAEAAU?$_Wrap_alloc@V?$allocator@UVector2D@@@std@@@2@XZ
_TEXT	SEGMENT
_this$ = -4						; size = 4
?_Get_first@?$_Compressed_pair@U?$_Wrap_alloc@V?$allocator@UVector2D@@@std@@@std@@V?$_Vector_val@U?$_Simple_types@UVector2D@@@std@@@2@$00@std@@QAEAAU?$_Wrap_alloc@V?$allocator@UVector2D@@@std@@@2@XZ PROC ; std::_Compressed_pair<std::_Wrap_alloc<std::allocator<Vector2D> >,std::_Vector_val<std::_Simple_types<Vector2D> >,1>::_Get_first, COMDAT
; _this$ = ecx

; 293  : 		{	// return reference to first

	push	ebp
	mov	ebp, esp
	push	ecx
	mov	DWORD PTR [ebp-4], -858993460		; ccccccccH
	mov	DWORD PTR _this$[ebp], ecx

; 294  : 		return (*this);

	mov	eax, DWORD PTR _this$[ebp]

; 295  : 		}

	mov	esp, ebp
	pop	ebp
	ret	0
?_Get_first@?$_Compressed_pair@U?$_Wrap_alloc@V?$allocator@UVector2D@@@std@@@std@@V?$_Vector_val@U?$_Simple_types@UVector2D@@@std@@@2@$00@std@@QAEAAU?$_Wrap_alloc@V?$allocator@UVector2D@@@std@@@2@XZ ENDP ; std::_Compressed_pair<std::_Wrap_alloc<std::allocator<Vector2D> >,std::_Vector_val<std::_Simple_types<Vector2D> >,1>::_Get_first
_TEXT	ENDS
; Function compile flags: /Odtp /RTCsu
;	COMDAT ??1?$_Vector_val@U?$_Simple_types@UVector2D@@@std@@@std@@QAE@XZ
_TEXT	SEGMENT
_this$ = -4						; size = 4
??1?$_Vector_val@U?$_Simple_types@UVector2D@@@std@@@std@@QAE@XZ PROC ; std::_Vector_val<std::_Simple_types<Vector2D> >::~_Vector_val<std::_Simple_types<Vector2D> >, COMDAT
; _this$ = ecx
	push	ebp
	mov	ebp, esp
	push	ecx
	mov	DWORD PTR [ebp-4], -858993460		; ccccccccH
	mov	DWORD PTR _this$[ebp], ecx
	mov	ecx, DWORD PTR _this$[ebp]
	call	??1_Container_base12@std@@QAE@XZ	; std::_Container_base12::~_Container_base12
	add	esp, 4
	cmp	ebp, esp
	call	__RTC_CheckEsp
	mov	esp, ebp
	pop	ebp
	ret	0
??1?$_Vector_val@U?$_Simple_types@UVector2D@@@std@@@std@@QAE@XZ ENDP ; std::_Vector_val<std::_Simple_types<Vector2D> >::~_Vector_val<std::_Simple_types<Vector2D> >
_TEXT	ENDS
; Function compile flags: /Odtp /RTCsu
; File d:\microsoft visual studio 14.0\vc\include\vector
;	COMDAT ??0?$_Vector_val@U?$_Simple_types@UVector2D@@@std@@@std@@QAE@XZ
_TEXT	SEGMENT
_this$ = -4						; size = 4
??0?$_Vector_val@U?$_Simple_types@UVector2D@@@std@@@std@@QAE@XZ PROC ; std::_Vector_val<std::_Simple_types<Vector2D> >::_Vector_val<std::_Simple_types<Vector2D> >, COMDAT
; _this$ = ecx

; 478  : 	_Vector_val()

	push	ebp
	mov	ebp, esp
	push	ecx
	mov	DWORD PTR [ebp-4], -858993460		; ccccccccH
	mov	DWORD PTR _this$[ebp], ecx

; 479  : 		{	// initialize values

	mov	ecx, DWORD PTR _this$[ebp]
	call	??0_Container_base12@std@@QAE@XZ	; std::_Container_base12::_Container_base12

; 480  : 		_Myfirst = pointer();

	mov	eax, DWORD PTR _this$[ebp]
	mov	DWORD PTR [eax+4], 0

; 481  : 		_Mylast = pointer();

	mov	ecx, DWORD PTR _this$[ebp]
	mov	DWORD PTR [ecx+8], 0

; 482  : 		_Myend = pointer();

	mov	edx, DWORD PTR _this$[ebp]
	mov	DWORD PTR [edx+12], 0

; 483  : 		}

	mov	eax, DWORD PTR _this$[ebp]
	add	esp, 4
	cmp	ebp, esp
	call	__RTC_CheckEsp
	mov	esp, ebp
	pop	ebp
	ret	0
??0?$_Vector_val@U?$_Simple_types@UVector2D@@@std@@@std@@QAE@XZ ENDP ; std::_Vector_val<std::_Simple_types<Vector2D> >::_Vector_val<std::_Simple_types<Vector2D> >
_TEXT	ENDS
; Function compile flags: /Odtp /RTCsu
; File d:\microsoft visual studio 14.0\vc\include\vector
;	COMDAT ?_Myend@?$_Vector_alloc@U?$_Vec_base_types@UVector2D@@V?$allocator@UVector2D@@@std@@@std@@@std@@QBEABQAUVector2D@@XZ
_TEXT	SEGMENT
_this$ = -4						; size = 4
?_Myend@?$_Vector_alloc@U?$_Vec_base_types@UVector2D@@V?$allocator@UVector2D@@@std@@@std@@@std@@QBEABQAUVector2D@@XZ PROC ; std::_Vector_alloc<std::_Vec_base_types<Vector2D,std::allocator<Vector2D> > >::_Myend, COMDAT
; _this$ = ecx

; 666  : 		{	// return const reference to _Myend

	push	ebp
	mov	ebp, esp
	push	ecx
	mov	DWORD PTR [ebp-4], -858993460		; ccccccccH
	mov	DWORD PTR _this$[ebp], ecx

; 667  : 		return (_Get_data()._Myend);

	mov	ecx, DWORD PTR _this$[ebp]
	call	?_Get_data@?$_Vector_alloc@U?$_Vec_base_types@UVector2D@@V?$allocator@UVector2D@@@std@@@std@@@std@@QBEABV?$_Vector_val@U?$_Simple_types@UVector2D@@@std@@@2@XZ ; std::_Vector_alloc<std::_Vec_base_types<Vector2D,std::allocator<Vector2D> > >::_Get_data
	add	eax, 12					; 0000000cH

; 668  : 		}

	add	esp, 4
	cmp	ebp, esp
	call	__RTC_CheckEsp
	mov	esp, ebp
	pop	ebp
	ret	0
?_Myend@?$_Vector_alloc@U?$_Vec_base_types@UVector2D@@V?$allocator@UVector2D@@@std@@@std@@@std@@QBEABQAUVector2D@@XZ ENDP ; std::_Vector_alloc<std::_Vec_base_types<Vector2D,std::allocator<Vector2D> > >::_Myend
_TEXT	ENDS
; Function compile flags: /Odtp /RTCsu
; File d:\microsoft visual studio 14.0\vc\include\vector
;	COMDAT ?_Myend@?$_Vector_alloc@U?$_Vec_base_types@UVector2D@@V?$allocator@UVector2D@@@std@@@std@@@std@@QAEAAPAUVector2D@@XZ
_TEXT	SEGMENT
_this$ = -4						; size = 4
?_Myend@?$_Vector_alloc@U?$_Vec_base_types@UVector2D@@V?$allocator@UVector2D@@@std@@@std@@@std@@QAEAAPAUVector2D@@XZ PROC ; std::_Vector_alloc<std::_Vec_base_types<Vector2D,std::allocator<Vector2D> > >::_Myend, COMDAT
; _this$ = ecx

; 661  : 		{	// return reference to _Myend

	push	ebp
	mov	ebp, esp
	push	ecx
	mov	DWORD PTR [ebp-4], -858993460		; ccccccccH
	mov	DWORD PTR _this$[ebp], ecx

; 662  : 		return (_Get_data()._Myend);

	mov	ecx, DWORD PTR _this$[ebp]
	call	?_Get_data@?$_Vector_alloc@U?$_Vec_base_types@UVector2D@@V?$allocator@UVector2D@@@std@@@std@@@std@@QAEAAV?$_Vector_val@U?$_Simple_types@UVector2D@@@std@@@2@XZ ; std::_Vector_alloc<std::_Vec_base_types<Vector2D,std::allocator<Vector2D> > >::_Get_data
	add	eax, 12					; 0000000cH

; 663  : 		}

	add	esp, 4
	cmp	ebp, esp
	call	__RTC_CheckEsp
	mov	esp, ebp
	pop	ebp
	ret	0
?_Myend@?$_Vector_alloc@U?$_Vec_base_types@UVector2D@@V?$allocator@UVector2D@@@std@@@std@@@std@@QAEAAPAUVector2D@@XZ ENDP ; std::_Vector_alloc<std::_Vec_base_types<Vector2D,std::allocator<Vector2D> > >::_Myend
_TEXT	ENDS
; Function compile flags: /Odtp /RTCsu
; File d:\microsoft visual studio 14.0\vc\include\vector
;	COMDAT ?_Mylast@?$_Vector_alloc@U?$_Vec_base_types@UVector2D@@V?$allocator@UVector2D@@@std@@@std@@@std@@QBEABQAUVector2D@@XZ
_TEXT	SEGMENT
_this$ = -4						; size = 4
?_Mylast@?$_Vector_alloc@U?$_Vec_base_types@UVector2D@@V?$allocator@UVector2D@@@std@@@std@@@std@@QBEABQAUVector2D@@XZ PROC ; std::_Vector_alloc<std::_Vec_base_types<Vector2D,std::allocator<Vector2D> > >::_Mylast, COMDAT
; _this$ = ecx

; 656  : 		{	// return const reference to _Mylast

	push	ebp
	mov	ebp, esp
	push	ecx
	mov	DWORD PTR [ebp-4], -858993460		; ccccccccH
	mov	DWORD PTR _this$[ebp], ecx

; 657  : 		return (_Get_data()._Mylast);

	mov	ecx, DWORD PTR _this$[ebp]
	call	?_Get_data@?$_Vector_alloc@U?$_Vec_base_types@UVector2D@@V?$allocator@UVector2D@@@std@@@std@@@std@@QBEABV?$_Vector_val@U?$_Simple_types@UVector2D@@@std@@@2@XZ ; std::_Vector_alloc<std::_Vec_base_types<Vector2D,std::allocator<Vector2D> > >::_Get_data
	add	eax, 8

; 658  : 		}

	add	esp, 4
	cmp	ebp, esp
	call	__RTC_CheckEsp
	mov	esp, ebp
	pop	ebp
	ret	0
?_Mylast@?$_Vector_alloc@U?$_Vec_base_types@UVector2D@@V?$allocator@UVector2D@@@std@@@std@@@std@@QBEABQAUVector2D@@XZ ENDP ; std::_Vector_alloc<std::_Vec_base_types<Vector2D,std::allocator<Vector2D> > >::_Mylast
_TEXT	ENDS
; Function compile flags: /Odtp /RTCsu
; File d:\microsoft visual studio 14.0\vc\include\vector
;	COMDAT ?_Mylast@?$_Vector_alloc@U?$_Vec_base_types@UVector2D@@V?$allocator@UVector2D@@@std@@@std@@@std@@QAEAAPAUVector2D@@XZ
_TEXT	SEGMENT
_this$ = -4						; size = 4
?_Mylast@?$_Vector_alloc@U?$_Vec_base_types@UVector2D@@V?$allocator@UVector2D@@@std@@@std@@@std@@QAEAAPAUVector2D@@XZ PROC ; std::_Vector_alloc<std::_Vec_base_types<Vector2D,std::allocator<Vector2D> > >::_Mylast, COMDAT
; _this$ = ecx

; 651  : 		{	// return reference to _Mylast

	push	ebp
	mov	ebp, esp
	push	ecx
	mov	DWORD PTR [ebp-4], -858993460		; ccccccccH
	mov	DWORD PTR _this$[ebp], ecx

; 652  : 		return (_Get_data()._Mylast);

	mov	ecx, DWORD PTR _this$[ebp]
	call	?_Get_data@?$_Vector_alloc@U?$_Vec_base_types@UVector2D@@V?$allocator@UVector2D@@@std@@@std@@@std@@QAEAAV?$_Vector_val@U?$_Simple_types@UVector2D@@@std@@@2@XZ ; std::_Vector_alloc<std::_Vec_base_types<Vector2D,std::allocator<Vector2D> > >::_Get_data
	add	eax, 8

; 653  : 		}

	add	esp, 4
	cmp	ebp, esp
	call	__RTC_CheckEsp
	mov	esp, ebp
	pop	ebp
	ret	0
?_Mylast@?$_Vector_alloc@U?$_Vec_base_types@UVector2D@@V?$allocator@UVector2D@@@std@@@std@@@std@@QAEAAPAUVector2D@@XZ ENDP ; std::_Vector_alloc<std::_Vec_base_types<Vector2D,std::allocator<Vector2D> > >::_Mylast
_TEXT	ENDS
; Function compile flags: /Odtp /RTCsu
; File d:\microsoft visual studio 14.0\vc\include\vector
;	COMDAT ?_Myfirst@?$_Vector_alloc@U?$_Vec_base_types@UVector2D@@V?$allocator@UVector2D@@@std@@@std@@@std@@QBEABQAUVector2D@@XZ
_TEXT	SEGMENT
_this$ = -4						; size = 4
?_Myfirst@?$_Vector_alloc@U?$_Vec_base_types@UVector2D@@V?$allocator@UVector2D@@@std@@@std@@@std@@QBEABQAUVector2D@@XZ PROC ; std::_Vector_alloc<std::_Vec_base_types<Vector2D,std::allocator<Vector2D> > >::_Myfirst, COMDAT
; _this$ = ecx

; 646  : 		{	// return const reference to _Myfirst

	push	ebp
	mov	ebp, esp
	push	ecx
	mov	DWORD PTR [ebp-4], -858993460		; ccccccccH
	mov	DWORD PTR _this$[ebp], ecx

; 647  : 		return (_Get_data()._Myfirst);

	mov	ecx, DWORD PTR _this$[ebp]
	call	?_Get_data@?$_Vector_alloc@U?$_Vec_base_types@UVector2D@@V?$allocator@UVector2D@@@std@@@std@@@std@@QBEABV?$_Vector_val@U?$_Simple_types@UVector2D@@@std@@@2@XZ ; std::_Vector_alloc<std::_Vec_base_types<Vector2D,std::allocator<Vector2D> > >::_Get_data
	add	eax, 4

; 648  : 		}

	add	esp, 4
	cmp	ebp, esp
	call	__RTC_CheckEsp
	mov	esp, ebp
	pop	ebp
	ret	0
?_Myfirst@?$_Vector_alloc@U?$_Vec_base_types@UVector2D@@V?$allocator@UVector2D@@@std@@@std@@@std@@QBEABQAUVector2D@@XZ ENDP ; std::_Vector_alloc<std::_Vec_base_types<Vector2D,std::allocator<Vector2D> > >::_Myfirst
_TEXT	ENDS
; Function compile flags: /Odtp /RTCsu
; File d:\microsoft visual studio 14.0\vc\include\vector
;	COMDAT ?_Myfirst@?$_Vector_alloc@U?$_Vec_base_types@UVector2D@@V?$allocator@UVector2D@@@std@@@std@@@std@@QAEAAPAUVector2D@@XZ
_TEXT	SEGMENT
_this$ = -4						; size = 4
?_Myfirst@?$_Vector_alloc@U?$_Vec_base_types@UVector2D@@V?$allocator@UVector2D@@@std@@@std@@@std@@QAEAAPAUVector2D@@XZ PROC ; std::_Vector_alloc<std::_Vec_base_types<Vector2D,std::allocator<Vector2D> > >::_Myfirst, COMDAT
; _this$ = ecx

; 641  : 		{	// return reference to _Myfirst

	push	ebp
	mov	ebp, esp
	push	ecx
	mov	DWORD PTR [ebp-4], -858993460		; ccccccccH
	mov	DWORD PTR _this$[ebp], ecx

; 642  : 		return (_Get_data()._Myfirst);

	mov	ecx, DWORD PTR _this$[ebp]
	call	?_Get_data@?$_Vector_alloc@U?$_Vec_base_types@UVector2D@@V?$allocator@UVector2D@@@std@@@std@@@std@@QAEAAV?$_Vector_val@U?$_Simple_types@UVector2D@@@std@@@2@XZ ; std::_Vector_alloc<std::_Vec_base_types<Vector2D,std::allocator<Vector2D> > >::_Get_data
	add	eax, 4

; 643  : 		}

	add	esp, 4
	cmp	ebp, esp
	call	__RTC_CheckEsp
	mov	esp, ebp
	pop	ebp
	ret	0
?_Myfirst@?$_Vector_alloc@U?$_Vec_base_types@UVector2D@@V?$allocator@UVector2D@@@std@@@std@@@std@@QAEAAPAUVector2D@@XZ ENDP ; std::_Vector_alloc<std::_Vec_base_types<Vector2D,std::allocator<Vector2D> > >::_Myfirst
_TEXT	ENDS
; Function compile flags: /Odtp /RTCsu
; File d:\microsoft visual studio 14.0\vc\include\vector
;	COMDAT ?_Get_data@?$_Vector_alloc@U?$_Vec_base_types@UVector2D@@V?$allocator@UVector2D@@@std@@@std@@@std@@QBEABV?$_Vector_val@U?$_Simple_types@UVector2D@@@std@@@2@XZ
_TEXT	SEGMENT
_this$ = -4						; size = 4
?_Get_data@?$_Vector_alloc@U?$_Vec_base_types@UVector2D@@V?$allocator@UVector2D@@@std@@@std@@@std@@QBEABV?$_Vector_val@U?$_Simple_types@UVector2D@@@std@@@2@XZ PROC ; std::_Vector_alloc<std::_Vec_base_types<Vector2D,std::allocator<Vector2D> > >::_Get_data, COMDAT
; _this$ = ecx

; 636  : 		{	// return const reference to _Vector_val

	push	ebp
	mov	ebp, esp
	push	ecx
	mov	DWORD PTR [ebp-4], -858993460		; ccccccccH
	mov	DWORD PTR _this$[ebp], ecx

; 637  : 		return (_Mypair._Get_second());

	mov	ecx, DWORD PTR _this$[ebp]
	call	?_Get_second@?$_Compressed_pair@U?$_Wrap_alloc@V?$allocator@UVector2D@@@std@@@std@@V?$_Vector_val@U?$_Simple_types@UVector2D@@@std@@@2@$00@std@@QBEABV?$_Vector_val@U?$_Simple_types@UVector2D@@@std@@@2@XZ ; std::_Compressed_pair<std::_Wrap_alloc<std::allocator<Vector2D> >,std::_Vector_val<std::_Simple_types<Vector2D> >,1>::_Get_second

; 638  : 		}

	add	esp, 4
	cmp	ebp, esp
	call	__RTC_CheckEsp
	mov	esp, ebp
	pop	ebp
	ret	0
?_Get_data@?$_Vector_alloc@U?$_Vec_base_types@UVector2D@@V?$allocator@UVector2D@@@std@@@std@@@std@@QBEABV?$_Vector_val@U?$_Simple_types@UVector2D@@@std@@@2@XZ ENDP ; std::_Vector_alloc<std::_Vec_base_types<Vector2D,std::allocator<Vector2D> > >::_Get_data
_TEXT	ENDS
; Function compile flags: /Odtp /RTCsu
; File d:\microsoft visual studio 14.0\vc\include\vector
;	COMDAT ?_Get_data@?$_Vector_alloc@U?$_Vec_base_types@UVector2D@@V?$allocator@UVector2D@@@std@@@std@@@std@@QAEAAV?$_Vector_val@U?$_Simple_types@UVector2D@@@std@@@2@XZ
_TEXT	SEGMENT
_this$ = -4						; size = 4
?_Get_data@?$_Vector_alloc@U?$_Vec_base_types@UVector2D@@V?$allocator@UVector2D@@@std@@@std@@@std@@QAEAAV?$_Vector_val@U?$_Simple_types@UVector2D@@@std@@@2@XZ PROC ; std::_Vector_alloc<std::_Vec_base_types<Vector2D,std::allocator<Vector2D> > >::_Get_data, COMDAT
; _this$ = ecx

; 631  : 		{	// return reference to _Vector_val

	push	ebp
	mov	ebp, esp
	push	ecx
	mov	DWORD PTR [ebp-4], -858993460		; ccccccccH
	mov	DWORD PTR _this$[ebp], ecx

; 632  : 		return (_Mypair._Get_second());

	mov	ecx, DWORD PTR _this$[ebp]
	call	?_Get_second@?$_Compressed_pair@U?$_Wrap_alloc@V?$allocator@UVector2D@@@std@@@std@@V?$_Vector_val@U?$_Simple_types@UVector2D@@@std@@@2@$00@std@@QAEAAV?$_Vector_val@U?$_Simple_types@UVector2D@@@std@@@2@XZ ; std::_Compressed_pair<std::_Wrap_alloc<std::allocator<Vector2D> >,std::_Vector_val<std::_Simple_types<Vector2D> >,1>::_Get_second

; 633  : 		}

	add	esp, 4
	cmp	ebp, esp
	call	__RTC_CheckEsp
	mov	esp, ebp
	pop	ebp
	ret	0
?_Get_data@?$_Vector_alloc@U?$_Vec_base_types@UVector2D@@V?$allocator@UVector2D@@@std@@@std@@@std@@QAEAAV?$_Vector_val@U?$_Simple_types@UVector2D@@@std@@@2@XZ ENDP ; std::_Vector_alloc<std::_Vec_base_types<Vector2D,std::allocator<Vector2D> > >::_Get_data
_TEXT	ENDS
; Function compile flags: /Odtp /RTCsu
; File d:\microsoft visual studio 14.0\vc\include\vector
;	COMDAT ?_Getal@?$_Vector_alloc@U?$_Vec_base_types@UVector2D@@V?$allocator@UVector2D@@@std@@@std@@@std@@QBEABU?$_Wrap_alloc@V?$allocator@UVector2D@@@std@@@2@XZ
_TEXT	SEGMENT
_this$ = -4						; size = 4
?_Getal@?$_Vector_alloc@U?$_Vec_base_types@UVector2D@@V?$allocator@UVector2D@@@std@@@std@@@std@@QBEABU?$_Wrap_alloc@V?$allocator@UVector2D@@@std@@@2@XZ PROC ; std::_Vector_alloc<std::_Vec_base_types<Vector2D,std::allocator<Vector2D> > >::_Getal, COMDAT
; _this$ = ecx

; 626  : 		{	// return const reference to allocator

	push	ebp
	mov	ebp, esp
	push	ecx
	mov	DWORD PTR [ebp-4], -858993460		; ccccccccH
	mov	DWORD PTR _this$[ebp], ecx

; 627  : 		return (_Mypair._Get_first());

	mov	ecx, DWORD PTR _this$[ebp]
	call	?_Get_first@?$_Compressed_pair@U?$_Wrap_alloc@V?$allocator@UVector2D@@@std@@@std@@V?$_Vector_val@U?$_Simple_types@UVector2D@@@std@@@2@$00@std@@QBEABU?$_Wrap_alloc@V?$allocator@UVector2D@@@std@@@2@XZ ; std::_Compressed_pair<std::_Wrap_alloc<std::allocator<Vector2D> >,std::_Vector_val<std::_Simple_types<Vector2D> >,1>::_Get_first

; 628  : 		}

	add	esp, 4
	cmp	ebp, esp
	call	__RTC_CheckEsp
	mov	esp, ebp
	pop	ebp
	ret	0
?_Getal@?$_Vector_alloc@U?$_Vec_base_types@UVector2D@@V?$allocator@UVector2D@@@std@@@std@@@std@@QBEABU?$_Wrap_alloc@V?$allocator@UVector2D@@@std@@@2@XZ ENDP ; std::_Vector_alloc<std::_Vec_base_types<Vector2D,std::allocator<Vector2D> > >::_Getal
_TEXT	ENDS
; Function compile flags: /Odtp /RTCsu
; File d:\microsoft visual studio 14.0\vc\include\vector
;	COMDAT ?_Getal@?$_Vector_alloc@U?$_Vec_base_types@UVector2D@@V?$allocator@UVector2D@@@std@@@std@@@std@@QAEAAU?$_Wrap_alloc@V?$allocator@UVector2D@@@std@@@2@XZ
_TEXT	SEGMENT
_this$ = -4						; size = 4
?_Getal@?$_Vector_alloc@U?$_Vec_base_types@UVector2D@@V?$allocator@UVector2D@@@std@@@std@@@std@@QAEAAU?$_Wrap_alloc@V?$allocator@UVector2D@@@std@@@2@XZ PROC ; std::_Vector_alloc<std::_Vec_base_types<Vector2D,std::allocator<Vector2D> > >::_Getal, COMDAT
; _this$ = ecx

; 621  : 		{	// return reference to allocator

	push	ebp
	mov	ebp, esp
	push	ecx
	mov	DWORD PTR [ebp-4], -858993460		; ccccccccH
	mov	DWORD PTR _this$[ebp], ecx

; 622  : 		return (_Mypair._Get_first());

	mov	ecx, DWORD PTR _this$[ebp]
	call	?_Get_first@?$_Compressed_pair@U?$_Wrap_alloc@V?$allocator@UVector2D@@@std@@@std@@V?$_Vector_val@U?$_Simple_types@UVector2D@@@std@@@2@$00@std@@QAEAAU?$_Wrap_alloc@V?$allocator@UVector2D@@@std@@@2@XZ ; std::_Compressed_pair<std::_Wrap_alloc<std::allocator<Vector2D> >,std::_Vector_val<std::_Simple_types<Vector2D> >,1>::_Get_first

; 623  : 		}

	add	esp, 4
	cmp	ebp, esp
	call	__RTC_CheckEsp
	mov	esp, ebp
	pop	ebp
	ret	0
?_Getal@?$_Vector_alloc@U?$_Vec_base_types@UVector2D@@V?$allocator@UVector2D@@@std@@@std@@@std@@QAEAAU?$_Wrap_alloc@V?$allocator@UVector2D@@@std@@@2@XZ ENDP ; std::_Vector_alloc<std::_Vec_base_types<Vector2D,std::allocator<Vector2D> > >::_Getal
_TEXT	ENDS
; Function compile flags: /Odtp /RTCsu
; File d:\microsoft visual studio 14.0\vc\include\vector
;	COMDAT ?_Swap_all@?$_Vector_alloc@U?$_Vec_base_types@UVector2D@@V?$allocator@UVector2D@@@std@@@std@@@std@@QAEXAAV12@@Z
_TEXT	SEGMENT
_this$ = -4						; size = 4
__Right$ = 8						; size = 4
?_Swap_all@?$_Vector_alloc@U?$_Vec_base_types@UVector2D@@V?$allocator@UVector2D@@@std@@@std@@@std@@QAEXAAV12@@Z PROC ; std::_Vector_alloc<std::_Vec_base_types<Vector2D,std::allocator<Vector2D> > >::_Swap_all, COMDAT
; _this$ = ecx

; 616  : 		{	// swap all iterators

	push	ebp
	mov	ebp, esp
	push	ecx
	mov	DWORD PTR [ebp-4], -858993460		; ccccccccH
	mov	DWORD PTR _this$[ebp], ecx

; 617  : 		_Get_data()._Swap_all(_Right._Get_data());

	mov	ecx, DWORD PTR __Right$[ebp]
	call	?_Get_data@?$_Vector_alloc@U?$_Vec_base_types@UVector2D@@V?$allocator@UVector2D@@@std@@@std@@@std@@QAEAAV?$_Vector_val@U?$_Simple_types@UVector2D@@@std@@@2@XZ ; std::_Vector_alloc<std::_Vec_base_types<Vector2D,std::allocator<Vector2D> > >::_Get_data
	push	eax
	mov	ecx, DWORD PTR _this$[ebp]
	call	?_Get_data@?$_Vector_alloc@U?$_Vec_base_types@UVector2D@@V?$allocator@UVector2D@@@std@@@std@@@std@@QAEAAV?$_Vector_val@U?$_Simple_types@UVector2D@@@std@@@2@XZ ; std::_Vector_alloc<std::_Vec_base_types<Vector2D,std::allocator<Vector2D> > >::_Get_data
	mov	ecx, eax
	call	?_Swap_all@_Container_base12@std@@QAEXAAU12@@Z ; std::_Container_base12::_Swap_all

; 618  : 		}

	add	esp, 4
	cmp	ebp, esp
	call	__RTC_CheckEsp
	mov	esp, ebp
	pop	ebp
	ret	4
?_Swap_all@?$_Vector_alloc@U?$_Vec_base_types@UVector2D@@V?$allocator@UVector2D@@@std@@@std@@@std@@QAEXAAV12@@Z ENDP ; std::_Vector_alloc<std::_Vec_base_types<Vector2D,std::allocator<Vector2D> > >::_Swap_all
_TEXT	ENDS
; Function compile flags: /Odtp /RTCsu
; File d:\microsoft visual studio 14.0\vc\include\vector
;	COMDAT ?_Orphan_all@?$_Vector_alloc@U?$_Vec_base_types@UVector2D@@V?$allocator@UVector2D@@@std@@@std@@@std@@QAEXXZ
_TEXT	SEGMENT
_this$ = -4						; size = 4
?_Orphan_all@?$_Vector_alloc@U?$_Vec_base_types@UVector2D@@V?$allocator@UVector2D@@@std@@@std@@@std@@QAEXXZ PROC ; std::_Vector_alloc<std::_Vec_base_types<Vector2D,std::allocator<Vector2D> > >::_Orphan_all, COMDAT
; _this$ = ecx

; 611  : 		{	// orphan all iterators

	push	ebp
	mov	ebp, esp
	push	ecx
	mov	DWORD PTR [ebp-4], -858993460		; ccccccccH
	mov	DWORD PTR _this$[ebp], ecx

; 612  : 		_Get_data()._Orphan_all();

	mov	ecx, DWORD PTR _this$[ebp]
	call	?_Get_data@?$_Vector_alloc@U?$_Vec_base_types@UVector2D@@V?$allocator@UVector2D@@@std@@@std@@@std@@QAEAAV?$_Vector_val@U?$_Simple_types@UVector2D@@@std@@@2@XZ ; std::_Vector_alloc<std::_Vec_base_types<Vector2D,std::allocator<Vector2D> > >::_Get_data
	mov	ecx, eax
	call	?_Orphan_all@_Container_base12@std@@QAEXXZ ; std::_Container_base12::_Orphan_all

; 613  : 		}

	add	esp, 4
	cmp	ebp, esp
	call	__RTC_CheckEsp
	mov	esp, ebp
	pop	ebp
	ret	0
?_Orphan_all@?$_Vector_alloc@U?$_Vec_base_types@UVector2D@@V?$allocator@UVector2D@@@std@@@std@@@std@@QAEXXZ ENDP ; std::_Vector_alloc<std::_Vec_base_types<Vector2D,std::allocator<Vector2D> > >::_Orphan_all
_TEXT	ENDS
; Function compile flags: /Odtp /RTCsu
; File d:\microsoft visual studio 14.0\vc\include\vector
;	COMDAT ?_Myproxy@?$_Vector_alloc@U?$_Vec_base_types@UVector2D@@V?$allocator@UVector2D@@@std@@@std@@@std@@QAEAAPAU_Container_proxy@2@XZ
_TEXT	SEGMENT
_this$ = -4						; size = 4
?_Myproxy@?$_Vector_alloc@U?$_Vec_base_types@UVector2D@@V?$allocator@UVector2D@@@std@@@std@@@std@@QAEAAPAU_Container_proxy@2@XZ PROC ; std::_Vector_alloc<std::_Vec_base_types<Vector2D,std::allocator<Vector2D> > >::_Myproxy, COMDAT
; _this$ = ecx

; 600  : 		{	// return reference to _Myproxy

	push	ebp
	mov	ebp, esp
	push	ecx
	mov	DWORD PTR [ebp-4], -858993460		; ccccccccH
	mov	DWORD PTR _this$[ebp], ecx

; 601  : 		return (_Get_data()._Myproxy);

	mov	ecx, DWORD PTR _this$[ebp]
	call	?_Get_data@?$_Vector_alloc@U?$_Vec_base_types@UVector2D@@V?$allocator@UVector2D@@@std@@@std@@@std@@QAEAAV?$_Vector_val@U?$_Simple_types@UVector2D@@@std@@@2@XZ ; std::_Vector_alloc<std::_Vec_base_types<Vector2D,std::allocator<Vector2D> > >::_Get_data

; 602  : 		}

	add	esp, 4
	cmp	ebp, esp
	call	__RTC_CheckEsp
	mov	esp, ebp
	pop	ebp
	ret	0
?_Myproxy@?$_Vector_alloc@U?$_Vec_base_types@UVector2D@@V?$allocator@UVector2D@@@std@@@std@@@std@@QAEAAPAU_Container_proxy@2@XZ ENDP ; std::_Vector_alloc<std::_Vec_base_types<Vector2D,std::allocator<Vector2D> > >::_Myproxy
_TEXT	ENDS
; Function compile flags: /Odtp /RTCsu
; File d:\microsoft visual studio 14.0\vc\include\vector
;	COMDAT ?_Getpfirst@?$_Vector_alloc@U?$_Vec_base_types@UVector2D@@V?$allocator@UVector2D@@@std@@@std@@@std@@QBEPAPAU_Iterator_base12@2@XZ
_TEXT	SEGMENT
_this$ = -4						; size = 4
?_Getpfirst@?$_Vector_alloc@U?$_Vec_base_types@UVector2D@@V?$allocator@UVector2D@@@std@@@std@@@std@@QBEPAPAU_Iterator_base12@2@XZ PROC ; std::_Vector_alloc<std::_Vec_base_types<Vector2D,std::allocator<Vector2D> > >::_Getpfirst, COMDAT
; _this$ = ecx

; 595  : 		{	// get address of iterator chain

	push	ebp
	mov	ebp, esp
	push	ecx
	mov	DWORD PTR [ebp-4], -858993460		; ccccccccH
	mov	DWORD PTR _this$[ebp], ecx

; 596  : 		return (_Get_data()._Getpfirst());

	mov	ecx, DWORD PTR _this$[ebp]
	call	?_Get_data@?$_Vector_alloc@U?$_Vec_base_types@UVector2D@@V?$allocator@UVector2D@@@std@@@std@@@std@@QBEABV?$_Vector_val@U?$_Simple_types@UVector2D@@@std@@@2@XZ ; std::_Vector_alloc<std::_Vec_base_types<Vector2D,std::allocator<Vector2D> > >::_Get_data
	mov	ecx, eax
	call	?_Getpfirst@_Container_base12@std@@QBEPAPAU_Iterator_base12@2@XZ ; std::_Container_base12::_Getpfirst

; 597  : 		}

	add	esp, 4
	cmp	ebp, esp
	call	__RTC_CheckEsp
	mov	esp, ebp
	pop	ebp
	ret	0
?_Getpfirst@?$_Vector_alloc@U?$_Vec_base_types@UVector2D@@V?$allocator@UVector2D@@@std@@@std@@@std@@QBEPAPAU_Iterator_base12@2@XZ ENDP ; std::_Vector_alloc<std::_Vec_base_types<Vector2D,std::allocator<Vector2D> > >::_Getpfirst
_TEXT	ENDS
; Function compile flags: /Odtp /RTCsu
; File d:\microsoft visual studio 14.0\vc\include\vector
;	COMDAT ?_Free_proxy@?$_Vector_alloc@U?$_Vec_base_types@UVector2D@@V?$allocator@UVector2D@@@std@@@std@@@std@@QAEXXZ
_TEXT	SEGMENT
__Alproxy$ = -9						; size = 1
_this$ = -4						; size = 4
?_Free_proxy@?$_Vector_alloc@U?$_Vec_base_types@UVector2D@@V?$allocator@UVector2D@@@std@@@std@@@std@@QAEXXZ PROC ; std::_Vector_alloc<std::_Vec_base_types<Vector2D,std::allocator<Vector2D> > >::_Free_proxy, COMDAT
; _this$ = ecx

; 585  : 		{	// destroy proxy

	push	ebp
	mov	ebp, esp
	sub	esp, 16					; 00000010H
	mov	eax, -858993460				; ccccccccH
	mov	DWORD PTR [ebp-16], eax
	mov	DWORD PTR [ebp-12], eax
	mov	DWORD PTR [ebp-8], eax
	mov	DWORD PTR [ebp-4], eax
	mov	DWORD PTR _this$[ebp], ecx

; 586  : 		typename _Alty::template rebind<_Container_proxy>::other
; 587  : 			_Alproxy(_Getal());

	mov	ecx, DWORD PTR _this$[ebp]
	call	?_Getal@?$_Vector_alloc@U?$_Vec_base_types@UVector2D@@V?$allocator@UVector2D@@@std@@@std@@@std@@QAEAAU?$_Wrap_alloc@V?$allocator@UVector2D@@@std@@@2@XZ ; std::_Vector_alloc<std::_Vec_base_types<Vector2D,std::allocator<Vector2D> > >::_Getal
	push	eax
	lea	ecx, DWORD PTR __Alproxy$[ebp]
	call	??$?0U?$_Wrap_alloc@V?$allocator@UVector2D@@@std@@@std@@@?$_Wrap_alloc@V?$allocator@U_Container_proxy@std@@@std@@@std@@QAE@AAU?$_Wrap_alloc@V?$allocator@UVector2D@@@std@@@1@@Z ; std::_Wrap_alloc<std::allocator<std::_Container_proxy> >::_Wrap_alloc<std::allocator<std::_Container_proxy> ><std::_Wrap_alloc<std::allocator<Vector2D> > >

; 588  : 		_Orphan_all();

	mov	ecx, DWORD PTR _this$[ebp]
	call	?_Orphan_all@?$_Vector_alloc@U?$_Vec_base_types@UVector2D@@V?$allocator@UVector2D@@@std@@@std@@@std@@QAEXXZ ; std::_Vector_alloc<std::_Vec_base_types<Vector2D,std::allocator<Vector2D> > >::_Orphan_all

; 589  : 		_Alproxy.destroy(_Myproxy());

	mov	ecx, DWORD PTR _this$[ebp]
	call	?_Myproxy@?$_Vector_alloc@U?$_Vec_base_types@UVector2D@@V?$allocator@UVector2D@@@std@@@std@@@std@@QAEAAPAU_Container_proxy@2@XZ ; std::_Vector_alloc<std::_Vec_base_types<Vector2D,std::allocator<Vector2D> > >::_Myproxy
	mov	eax, DWORD PTR [eax]
	push	eax
	lea	ecx, DWORD PTR __Alproxy$[ebp]
	call	??$destroy@U_Container_proxy@std@@@?$_Wrap_alloc@V?$allocator@U_Container_proxy@std@@@std@@@std@@QAEXPAU_Container_proxy@1@@Z ; std::_Wrap_alloc<std::allocator<std::_Container_proxy> >::destroy<std::_Container_proxy>

; 590  : 		_Alproxy.deallocate(_Myproxy(), 1);

	push	1
	mov	ecx, DWORD PTR _this$[ebp]
	call	?_Myproxy@?$_Vector_alloc@U?$_Vec_base_types@UVector2D@@V?$allocator@UVector2D@@@std@@@std@@@std@@QAEAAPAU_Container_proxy@2@XZ ; std::_Vector_alloc<std::_Vec_base_types<Vector2D,std::allocator<Vector2D> > >::_Myproxy
	mov	ecx, DWORD PTR [eax]
	push	ecx
	lea	ecx, DWORD PTR __Alproxy$[ebp]
	call	?deallocate@?$_Wrap_alloc@V?$allocator@U_Container_proxy@std@@@std@@@std@@QAEXPAU_Container_proxy@2@I@Z ; std::_Wrap_alloc<std::allocator<std::_Container_proxy> >::deallocate

; 591  : 		_Myproxy() = 0;

	mov	ecx, DWORD PTR _this$[ebp]
	call	?_Myproxy@?$_Vector_alloc@U?$_Vec_base_types@UVector2D@@V?$allocator@UVector2D@@@std@@@std@@@std@@QAEAAPAU_Container_proxy@2@XZ ; std::_Vector_alloc<std::_Vec_base_types<Vector2D,std::allocator<Vector2D> > >::_Myproxy
	mov	DWORD PTR [eax], 0

; 592  : 		}

	push	edx
	mov	ecx, ebp
	push	eax
	lea	edx, DWORD PTR $LN5@Free_proxy
	call	@_RTC_CheckStackVars@8
	pop	eax
	pop	edx
	add	esp, 16					; 00000010H
	cmp	ebp, esp
	call	__RTC_CheckEsp
	mov	esp, ebp
	pop	ebp
	ret	0
$LN5@Free_proxy:
	DD	1
	DD	$LN4@Free_proxy
$LN4@Free_proxy:
	DD	-9					; fffffff7H
	DD	1
	DD	$LN3@Free_proxy
$LN3@Free_proxy:
	DB	95					; 0000005fH
	DB	65					; 00000041H
	DB	108					; 0000006cH
	DB	112					; 00000070H
	DB	114					; 00000072H
	DB	111					; 0000006fH
	DB	120					; 00000078H
	DB	121					; 00000079H
	DB	0
?_Free_proxy@?$_Vector_alloc@U?$_Vec_base_types@UVector2D@@V?$allocator@UVector2D@@@std@@@std@@@std@@QAEXXZ ENDP ; std::_Vector_alloc<std::_Vec_base_types<Vector2D,std::allocator<Vector2D> > >::_Free_proxy
_TEXT	ENDS
; Function compile flags: /Odtp /RTCsu
; File d:\microsoft visual studio 14.0\vc\include\vector
;	COMDAT ?_Alloc_proxy@?$_Vector_alloc@U?$_Vec_base_types@UVector2D@@V?$allocator@UVector2D@@@std@@@std@@@std@@QAEXXZ
_TEXT	SEGMENT
$T1 = -24						; size = 8
__Alproxy$ = -9						; size = 1
_this$ = -4						; size = 4
?_Alloc_proxy@?$_Vector_alloc@U?$_Vec_base_types@UVector2D@@V?$allocator@UVector2D@@@std@@@std@@@std@@QAEXXZ PROC ; std::_Vector_alloc<std::_Vec_base_types<Vector2D,std::allocator<Vector2D> > >::_Alloc_proxy, COMDAT
; _this$ = ecx

; 576  : 		{	// construct proxy

	push	ebp
	mov	ebp, esp
	sub	esp, 24					; 00000018H
	push	esi
	mov	eax, -858993460				; ccccccccH
	mov	DWORD PTR [ebp-24], eax
	mov	DWORD PTR [ebp-20], eax
	mov	DWORD PTR [ebp-16], eax
	mov	DWORD PTR [ebp-12], eax
	mov	DWORD PTR [ebp-8], eax
	mov	DWORD PTR [ebp-4], eax
	mov	DWORD PTR _this$[ebp], ecx

; 577  : 		typename _Alty::template rebind<_Container_proxy>::other
; 578  : 			_Alproxy(_Getal());

	mov	ecx, DWORD PTR _this$[ebp]
	call	?_Getal@?$_Vector_alloc@U?$_Vec_base_types@UVector2D@@V?$allocator@UVector2D@@@std@@@std@@@std@@QAEAAU?$_Wrap_alloc@V?$allocator@UVector2D@@@std@@@2@XZ ; std::_Vector_alloc<std::_Vec_base_types<Vector2D,std::allocator<Vector2D> > >::_Getal
	push	eax
	lea	ecx, DWORD PTR __Alproxy$[ebp]
	call	??$?0U?$_Wrap_alloc@V?$allocator@UVector2D@@@std@@@std@@@?$_Wrap_alloc@V?$allocator@U_Container_proxy@std@@@std@@@std@@QAE@AAU?$_Wrap_alloc@V?$allocator@UVector2D@@@std@@@1@@Z ; std::_Wrap_alloc<std::allocator<std::_Container_proxy> >::_Wrap_alloc<std::allocator<std::_Container_proxy> ><std::_Wrap_alloc<std::allocator<Vector2D> > >

; 579  : 		_Myproxy() = _Alproxy.allocate(1);

	push	1
	lea	ecx, DWORD PTR __Alproxy$[ebp]
	call	?allocate@?$_Wrap_alloc@V?$allocator@U_Container_proxy@std@@@std@@@std@@QAEPAU_Container_proxy@2@I@Z ; std::_Wrap_alloc<std::allocator<std::_Container_proxy> >::allocate
	mov	esi, eax
	mov	ecx, DWORD PTR _this$[ebp]
	call	?_Myproxy@?$_Vector_alloc@U?$_Vec_base_types@UVector2D@@V?$allocator@UVector2D@@@std@@@std@@@std@@QAEAAPAU_Container_proxy@2@XZ ; std::_Vector_alloc<std::_Vec_base_types<Vector2D,std::allocator<Vector2D> > >::_Myproxy
	mov	DWORD PTR [eax], esi

; 580  : 		_Alproxy.construct(_Myproxy(), _Container_proxy());

	lea	ecx, DWORD PTR $T1[ebp]
	call	??0_Container_proxy@std@@QAE@XZ		; std::_Container_proxy::_Container_proxy
	push	eax
	mov	ecx, DWORD PTR _this$[ebp]
	call	?_Myproxy@?$_Vector_alloc@U?$_Vec_base_types@UVector2D@@V?$allocator@UVector2D@@@std@@@std@@@std@@QAEAAPAU_Container_proxy@2@XZ ; std::_Vector_alloc<std::_Vec_base_types<Vector2D,std::allocator<Vector2D> > >::_Myproxy
	mov	eax, DWORD PTR [eax]
	push	eax
	lea	ecx, DWORD PTR __Alproxy$[ebp]
	call	??$construct@U_Container_proxy@std@@U12@@?$_Wrap_alloc@V?$allocator@U_Container_proxy@std@@@std@@@std@@QAEXPAU_Container_proxy@1@$$QAU21@@Z ; std::_Wrap_alloc<std::allocator<std::_Container_proxy> >::construct<std::_Container_proxy,std::_Container_proxy>

; 581  : 		_Myproxy()->_Mycont = &_Get_data();

	mov	ecx, DWORD PTR _this$[ebp]
	call	?_Get_data@?$_Vector_alloc@U?$_Vec_base_types@UVector2D@@V?$allocator@UVector2D@@@std@@@std@@@std@@QAEAAV?$_Vector_val@U?$_Simple_types@UVector2D@@@std@@@2@XZ ; std::_Vector_alloc<std::_Vec_base_types<Vector2D,std::allocator<Vector2D> > >::_Get_data
	mov	esi, eax
	mov	ecx, DWORD PTR _this$[ebp]
	call	?_Myproxy@?$_Vector_alloc@U?$_Vec_base_types@UVector2D@@V?$allocator@UVector2D@@@std@@@std@@@std@@QAEAAPAU_Container_proxy@2@XZ ; std::_Vector_alloc<std::_Vec_base_types<Vector2D,std::allocator<Vector2D> > >::_Myproxy
	mov	ecx, DWORD PTR [eax]
	mov	DWORD PTR [ecx], esi

; 582  : 		}

	push	edx
	mov	ecx, ebp
	push	eax
	lea	edx, DWORD PTR $LN5@Alloc_prox
	call	@_RTC_CheckStackVars@8
	pop	eax
	pop	edx
	pop	esi
	add	esp, 24					; 00000018H
	cmp	ebp, esp
	call	__RTC_CheckEsp
	mov	esp, ebp
	pop	ebp
	ret	0
	npad	2
$LN5@Alloc_prox:
	DD	1
	DD	$LN4@Alloc_prox
$LN4@Alloc_prox:
	DD	-9					; fffffff7H
	DD	1
	DD	$LN3@Alloc_prox
$LN3@Alloc_prox:
	DB	95					; 0000005fH
	DB	65					; 00000041H
	DB	108					; 0000006cH
	DB	112					; 00000070H
	DB	114					; 00000072H
	DB	111					; 0000006fH
	DB	120					; 00000078H
	DB	121					; 00000079H
	DB	0
?_Alloc_proxy@?$_Vector_alloc@U?$_Vec_base_types@UVector2D@@V?$allocator@UVector2D@@@std@@@std@@@std@@QAEXXZ ENDP ; std::_Vector_alloc<std::_Vec_base_types<Vector2D,std::allocator<Vector2D> > >::_Alloc_proxy
_TEXT	ENDS
; Function compile flags: /Odtp /RTCsu
; File d:\microsoft visual studio 14.0\vc\include\vector
;	COMDAT ?_Move_alloc@?$_Vector_alloc@U?$_Vec_base_types@UVector2D@@V?$allocator@UVector2D@@@std@@@std@@@std@@QAEXAAU?$_Wrap_alloc@V?$allocator@UVector2D@@@std@@@2@@Z
_TEXT	SEGMENT
_this$ = -4						; size = 4
__Al$ = 8						; size = 4
?_Move_alloc@?$_Vector_alloc@U?$_Vec_base_types@UVector2D@@V?$allocator@UVector2D@@@std@@@std@@@std@@QAEXAAU?$_Wrap_alloc@V?$allocator@UVector2D@@@std@@@2@@Z PROC ; std::_Vector_alloc<std::_Vec_base_types<Vector2D,std::allocator<Vector2D> > >::_Move_alloc, COMDAT
; _this$ = ecx

; 563  : 		{	// replace old allocator

	push	ebp
	mov	ebp, esp
	push	ecx
	mov	DWORD PTR [ebp-4], -858993460		; ccccccccH
	mov	DWORD PTR _this$[ebp], ecx

; 564  : 		_Free_proxy();

	mov	ecx, DWORD PTR _this$[ebp]
	call	?_Free_proxy@?$_Vector_alloc@U?$_Vec_base_types@UVector2D@@V?$allocator@UVector2D@@@std@@@std@@@std@@QAEXXZ ; std::_Vector_alloc<std::_Vec_base_types<Vector2D,std::allocator<Vector2D> > >::_Free_proxy

; 565  : 		_Pocma(_Getal(), _Al);

	mov	eax, DWORD PTR __Al$[ebp]
	push	eax
	mov	ecx, DWORD PTR _this$[ebp]
	call	?_Getal@?$_Vector_alloc@U?$_Vec_base_types@UVector2D@@V?$allocator@UVector2D@@@std@@@std@@@std@@QAEAAU?$_Wrap_alloc@V?$allocator@UVector2D@@@std@@@2@XZ ; std::_Vector_alloc<std::_Vec_base_types<Vector2D,std::allocator<Vector2D> > >::_Getal
	push	eax
	call	??$_Pocma@U?$_Wrap_alloc@V?$allocator@UVector2D@@@std@@@std@@@std@@YAXAAU?$_Wrap_alloc@V?$allocator@UVector2D@@@std@@@0@0@Z ; std::_Pocma<std::_Wrap_alloc<std::allocator<Vector2D> > >
	add	esp, 8

; 566  : 		_Alloc_proxy();

	mov	ecx, DWORD PTR _this$[ebp]
	call	?_Alloc_proxy@?$_Vector_alloc@U?$_Vec_base_types@UVector2D@@V?$allocator@UVector2D@@@std@@@std@@@std@@QAEXXZ ; std::_Vector_alloc<std::_Vec_base_types<Vector2D,std::allocator<Vector2D> > >::_Alloc_proxy

; 567  : 		}

	add	esp, 4
	cmp	ebp, esp
	call	__RTC_CheckEsp
	mov	esp, ebp
	pop	ebp
	ret	4
?_Move_alloc@?$_Vector_alloc@U?$_Vec_base_types@UVector2D@@V?$allocator@UVector2D@@@std@@@std@@@std@@QAEXAAU?$_Wrap_alloc@V?$allocator@UVector2D@@@std@@@2@@Z ENDP ; std::_Vector_alloc<std::_Vec_base_types<Vector2D,std::allocator<Vector2D> > >::_Move_alloc
_TEXT	ENDS
; Function compile flags: /Odtp /RTCsu
; File d:\microsoft visual studio 14.0\vc\include\vector
;	COMDAT ??1?$_Vector_alloc@U?$_Vec_base_types@UVector2D@@V?$allocator@UVector2D@@@std@@@std@@@std@@QAE@XZ
_TEXT	SEGMENT
_this$ = -16						; size = 4
__$EHRec$ = -12						; size = 12
??1?$_Vector_alloc@U?$_Vec_base_types@UVector2D@@V?$allocator@UVector2D@@@std@@@std@@@std@@QAE@XZ PROC ; std::_Vector_alloc<std::_Vec_base_types<Vector2D,std::allocator<Vector2D> > >::~_Vector_alloc<std::_Vec_base_types<Vector2D,std::allocator<Vector2D> > >, COMDAT
; _this$ = ecx

; 551  : 		{	// destroy proxy

	push	ebp
	mov	ebp, esp
	push	-1
	push	__ehhandler$??1?$_Vector_alloc@U?$_Vec_base_types@UVector2D@@V?$allocator@UVector2D@@@std@@@std@@@std@@QAE@XZ
	mov	eax, DWORD PTR fs:0
	push	eax
	push	ecx
	mov	DWORD PTR [ebp-16], -858993460		; ccccccccH
	mov	eax, DWORD PTR ___security_cookie
	xor	eax, ebp
	push	eax
	lea	eax, DWORD PTR __$EHRec$[ebp]
	mov	DWORD PTR fs:0, eax
	mov	DWORD PTR _this$[ebp], ecx

; 552  : 		_Free_proxy();

	mov	ecx, DWORD PTR _this$[ebp]
	call	?_Free_proxy@?$_Vector_alloc@U?$_Vec_base_types@UVector2D@@V?$allocator@UVector2D@@@std@@@std@@@std@@QAEXXZ ; std::_Vector_alloc<std::_Vec_base_types<Vector2D,std::allocator<Vector2D> > >::_Free_proxy

; 553  : 		}

	mov	ecx, DWORD PTR _this$[ebp]
	call	??1?$_Compressed_pair@U?$_Wrap_alloc@V?$allocator@UVector2D@@@std@@@std@@V?$_Vector_val@U?$_Simple_types@UVector2D@@@std@@@2@$00@std@@QAE@XZ
	mov	ecx, DWORD PTR __$EHRec$[ebp]
	mov	DWORD PTR fs:0, ecx
	pop	ecx
	add	esp, 16					; 00000010H
	cmp	ebp, esp
	call	__RTC_CheckEsp
	mov	esp, ebp
	pop	ebp
	ret	0
_TEXT	ENDS
;	COMDAT text$x
text$x	SEGMENT
__ehhandler$??1?$_Vector_alloc@U?$_Vec_base_types@UVector2D@@V?$allocator@UVector2D@@@std@@@std@@@std@@QAE@XZ:
	mov	edx, DWORD PTR [esp+8]
	lea	eax, DWORD PTR [edx+12]
	mov	ecx, DWORD PTR [edx-8]
	xor	ecx, eax
	call	@__security_check_cookie@4
	mov	eax, OFFSET __ehfuncinfo$??1?$_Vector_alloc@U?$_Vec_base_types@UVector2D@@V?$allocator@UVector2D@@@std@@@std@@@std@@QAE@XZ
	jmp	___CxxFrameHandler3
text$x	ENDS
??1?$_Vector_alloc@U?$_Vec_base_types@UVector2D@@V?$allocator@UVector2D@@@std@@@std@@@std@@QAE@XZ ENDP ; std::_Vector_alloc<std::_Vec_base_types<Vector2D,std::allocator<Vector2D> > >::~_Vector_alloc<std::_Vec_base_types<Vector2D,std::allocator<Vector2D> > >
; Function compile flags: /Odtp /RTCsu
; File d:\microsoft visual studio 14.0\vc\include\vector
;	COMDAT ??0?$_Vector_alloc@U?$_Vec_base_types@UVector2D@@V?$allocator@UVector2D@@@std@@@std@@@std@@QAE@$$QAV?$allocator@UVector2D@@@1@@Z
_TEXT	SEGMENT
$T2 = -17						; size = 1
_this$ = -16						; size = 4
__$EHRec$ = -12						; size = 12
__Al$ = 8						; size = 4
??0?$_Vector_alloc@U?$_Vec_base_types@UVector2D@@V?$allocator@UVector2D@@@std@@@std@@@std@@QAE@$$QAV?$allocator@UVector2D@@@1@@Z PROC ; std::_Vector_alloc<std::_Vec_base_types<Vector2D,std::allocator<Vector2D> > >::_Vector_alloc<std::_Vec_base_types<Vector2D,std::allocator<Vector2D> > >, COMDAT
; _this$ = ecx

; 546  : 		{	// construct allocator from _Al

	push	ebp
	mov	ebp, esp
	push	-1
	push	__ehhandler$??0?$_Vector_alloc@U?$_Vec_base_types@UVector2D@@V?$allocator@UVector2D@@@std@@@std@@@std@@QAE@$$QAV?$allocator@UVector2D@@@1@@Z
	mov	eax, DWORD PTR fs:0
	push	eax
	sub	esp, 8
	mov	DWORD PTR [ebp-20], -858993460		; ccccccccH
	mov	DWORD PTR [ebp-16], -858993460		; ccccccccH
	mov	eax, DWORD PTR ___security_cookie
	xor	eax, ebp
	push	eax
	lea	eax, DWORD PTR __$EHRec$[ebp]
	mov	DWORD PTR fs:0, eax
	mov	DWORD PTR _this$[ebp], ecx

; 545  : 		: _Mypair(_One_then_variadic_args_t(), _STD move(_Al))

	mov	eax, DWORD PTR __Al$[ebp]
	push	eax
	call	??$move@AAV?$allocator@UVector2D@@@std@@@std@@YA$$QAV?$allocator@UVector2D@@@0@AAV10@@Z ; std::move<std::allocator<Vector2D> &>
	add	esp, 4
	push	eax
	movzx	ecx, BYTE PTR $T2[ebp]
	push	ecx
	mov	ecx, DWORD PTR _this$[ebp]
	call	??$?0V?$allocator@UVector2D@@@std@@$$V@?$_Compressed_pair@U?$_Wrap_alloc@V?$allocator@UVector2D@@@std@@@std@@V?$_Vector_val@U?$_Simple_types@UVector2D@@@std@@@2@$00@std@@QAE@U_One_then_variadic_args_t@1@$$QAV?$allocator@UVector2D@@@1@@Z ; std::_Compressed_pair<std::_Wrap_alloc<std::allocator<Vector2D> >,std::_Vector_val<std::_Simple_types<Vector2D> >,1>::_Compressed_pair<std::_Wrap_alloc<std::allocator<Vector2D> >,std::_Vector_val<std::_Simple_types<Vector2D> >,1><std::allocator<Vector2D> >
	mov	DWORD PTR __$EHRec$[ebp+8], 0

; 547  : 		_Alloc_proxy();

	mov	ecx, DWORD PTR _this$[ebp]
	call	?_Alloc_proxy@?$_Vector_alloc@U?$_Vec_base_types@UVector2D@@V?$allocator@UVector2D@@@std@@@std@@@std@@QAEXXZ ; std::_Vector_alloc<std::_Vec_base_types<Vector2D,std::allocator<Vector2D> > >::_Alloc_proxy

; 548  : 		}

	mov	DWORD PTR __$EHRec$[ebp+8], -1
	mov	eax, DWORD PTR _this$[ebp]
	mov	ecx, DWORD PTR __$EHRec$[ebp]
	mov	DWORD PTR fs:0, ecx
	pop	ecx
	add	esp, 20					; 00000014H
	cmp	ebp, esp
	call	__RTC_CheckEsp
	mov	esp, ebp
	pop	ebp
	ret	4
_TEXT	ENDS
;	COMDAT text$x
text$x	SEGMENT
__unwindfunclet$??0?$_Vector_alloc@U?$_Vec_base_types@UVector2D@@V?$allocator@UVector2D@@@std@@@std@@@std@@QAE@$$QAV?$allocator@UVector2D@@@1@@Z$0:
	mov	ecx, DWORD PTR _this$[ebp]
	jmp	??1?$_Compressed_pair@U?$_Wrap_alloc@V?$allocator@UVector2D@@@std@@@std@@V?$_Vector_val@U?$_Simple_types@UVector2D@@@std@@@2@$00@std@@QAE@XZ
__ehhandler$??0?$_Vector_alloc@U?$_Vec_base_types@UVector2D@@V?$allocator@UVector2D@@@std@@@std@@@std@@QAE@$$QAV?$allocator@UVector2D@@@1@@Z:
	mov	edx, DWORD PTR [esp+8]
	lea	eax, DWORD PTR [edx+12]
	mov	ecx, DWORD PTR [edx-12]
	xor	ecx, eax
	call	@__security_check_cookie@4
	mov	eax, OFFSET __ehfuncinfo$??0?$_Vector_alloc@U?$_Vec_base_types@UVector2D@@V?$allocator@UVector2D@@@std@@@std@@@std@@QAE@$$QAV?$allocator@UVector2D@@@1@@Z
	jmp	___CxxFrameHandler3
text$x	ENDS
??0?$_Vector_alloc@U?$_Vec_base_types@UVector2D@@V?$allocator@UVector2D@@@std@@@std@@@std@@QAE@$$QAV?$allocator@UVector2D@@@1@@Z ENDP ; std::_Vector_alloc<std::_Vec_base_types<Vector2D,std::allocator<Vector2D> > >::_Vector_alloc<std::_Vec_base_types<Vector2D,std::allocator<Vector2D> > >
; Function compile flags: /Odtp /RTCsu
; File d:\microsoft visual studio 14.0\vc\include\vector
;	COMDAT ??0?$_Vector_alloc@U?$_Vec_base_types@UVector2D@@V?$allocator@UVector2D@@@std@@@std@@@std@@QAE@ABV?$allocator@UVector2D@@@1@@Z
_TEXT	SEGMENT
$T2 = -17						; size = 1
_this$ = -16						; size = 4
__$EHRec$ = -12						; size = 12
__Al$ = 8						; size = 4
??0?$_Vector_alloc@U?$_Vec_base_types@UVector2D@@V?$allocator@UVector2D@@@std@@@std@@@std@@QAE@ABV?$allocator@UVector2D@@@1@@Z PROC ; std::_Vector_alloc<std::_Vec_base_types<Vector2D,std::allocator<Vector2D> > >::_Vector_alloc<std::_Vec_base_types<Vector2D,std::allocator<Vector2D> > >, COMDAT
; _this$ = ecx

; 540  : 		{	// construct allocator from _Al

	push	ebp
	mov	ebp, esp
	push	-1
	push	__ehhandler$??0?$_Vector_alloc@U?$_Vec_base_types@UVector2D@@V?$allocator@UVector2D@@@std@@@std@@@std@@QAE@ABV?$allocator@UVector2D@@@1@@Z
	mov	eax, DWORD PTR fs:0
	push	eax
	sub	esp, 8
	mov	DWORD PTR [ebp-20], -858993460		; ccccccccH
	mov	DWORD PTR [ebp-16], -858993460		; ccccccccH
	mov	eax, DWORD PTR ___security_cookie
	xor	eax, ebp
	push	eax
	lea	eax, DWORD PTR __$EHRec$[ebp]
	mov	DWORD PTR fs:0, eax
	mov	DWORD PTR _this$[ebp], ecx

; 539  : 		: _Mypair(_One_then_variadic_args_t(), _Al)

	mov	eax, DWORD PTR __Al$[ebp]
	push	eax
	movzx	ecx, BYTE PTR $T2[ebp]
	push	ecx
	mov	ecx, DWORD PTR _this$[ebp]
	call	??$?0ABV?$allocator@UVector2D@@@std@@$$V@?$_Compressed_pair@U?$_Wrap_alloc@V?$allocator@UVector2D@@@std@@@std@@V?$_Vector_val@U?$_Simple_types@UVector2D@@@std@@@2@$00@std@@QAE@U_One_then_variadic_args_t@1@ABV?$allocator@UVector2D@@@1@@Z ; std::_Compressed_pair<std::_Wrap_alloc<std::allocator<Vector2D> >,std::_Vector_val<std::_Simple_types<Vector2D> >,1>::_Compressed_pair<std::_Wrap_alloc<std::allocator<Vector2D> >,std::_Vector_val<std::_Simple_types<Vector2D> >,1><std::allocator<Vector2D> const &>
	mov	DWORD PTR __$EHRec$[ebp+8], 0

; 541  : 		_Alloc_proxy();

	mov	ecx, DWORD PTR _this$[ebp]
	call	?_Alloc_proxy@?$_Vector_alloc@U?$_Vec_base_types@UVector2D@@V?$allocator@UVector2D@@@std@@@std@@@std@@QAEXXZ ; std::_Vector_alloc<std::_Vec_base_types<Vector2D,std::allocator<Vector2D> > >::_Alloc_proxy

; 542  : 		}

	mov	DWORD PTR __$EHRec$[ebp+8], -1
	mov	eax, DWORD PTR _this$[ebp]
	mov	ecx, DWORD PTR __$EHRec$[ebp]
	mov	DWORD PTR fs:0, ecx
	pop	ecx
	add	esp, 20					; 00000014H
	cmp	ebp, esp
	call	__RTC_CheckEsp
	mov	esp, ebp
	pop	ebp
	ret	4
_TEXT	ENDS
;	COMDAT text$x
text$x	SEGMENT
__unwindfunclet$??0?$_Vector_alloc@U?$_Vec_base_types@UVector2D@@V?$allocator@UVector2D@@@std@@@std@@@std@@QAE@ABV?$allocator@UVector2D@@@1@@Z$0:
	mov	ecx, DWORD PTR _this$[ebp]
	jmp	??1?$_Compressed_pair@U?$_Wrap_alloc@V?$allocator@UVector2D@@@std@@@std@@V?$_Vector_val@U?$_Simple_types@UVector2D@@@std@@@2@$00@std@@QAE@XZ
__ehhandler$??0?$_Vector_alloc@U?$_Vec_base_types@UVector2D@@V?$allocator@UVector2D@@@std@@@std@@@std@@QAE@ABV?$allocator@UVector2D@@@1@@Z:
	mov	edx, DWORD PTR [esp+8]
	lea	eax, DWORD PTR [edx+12]
	mov	ecx, DWORD PTR [edx-12]
	xor	ecx, eax
	call	@__security_check_cookie@4
	mov	eax, OFFSET __ehfuncinfo$??0?$_Vector_alloc@U?$_Vec_base_types@UVector2D@@V?$allocator@UVector2D@@@std@@@std@@@std@@QAE@ABV?$allocator@UVector2D@@@1@@Z
	jmp	___CxxFrameHandler3
text$x	ENDS
??0?$_Vector_alloc@U?$_Vec_base_types@UVector2D@@V?$allocator@UVector2D@@@std@@@std@@@std@@QAE@ABV?$allocator@UVector2D@@@1@@Z ENDP ; std::_Vector_alloc<std::_Vec_base_types<Vector2D,std::allocator<Vector2D> > >::_Vector_alloc<std::_Vec_base_types<Vector2D,std::allocator<Vector2D> > >
; Function compile flags: /Odtp /RTCsu
; File d:\microsoft visual studio 14.0\vc\include\xmemory0
;	COMDAT ?max_size@?$_Wrap_alloc@V?$allocator@UVector2D@@@std@@@std@@QBEIU_Nil@2@@Z
_TEXT	SEGMENT
_this$ = -4						; size = 4
___formal$ = 8						; size = 1
?max_size@?$_Wrap_alloc@V?$allocator@UVector2D@@@std@@@std@@QBEIU_Nil@2@@Z PROC ; std::_Wrap_alloc<std::allocator<Vector2D> >::max_size, COMDAT
; _this$ = ecx

; 931  : 		{	// get maximum size

	push	ebp
	mov	ebp, esp
	push	ecx
	mov	DWORD PTR [ebp-4], -858993460		; ccccccccH
	mov	DWORD PTR _this$[ebp], ecx

; 932  : 		return (_Mytraits::max_size(*this));

	mov	eax, DWORD PTR _this$[ebp]
	push	eax
	call	?max_size@?$allocator_traits@V?$allocator@UVector2D@@@std@@@std@@SAIABV?$allocator@UVector2D@@@2@@Z ; std::allocator_traits<std::allocator<Vector2D> >::max_size
	add	esp, 4

; 933  : 		}

	add	esp, 4
	cmp	ebp, esp
	call	__RTC_CheckEsp
	mov	esp, ebp
	pop	ebp
	ret	4
?max_size@?$_Wrap_alloc@V?$allocator@UVector2D@@@std@@@std@@QBEIU_Nil@2@@Z ENDP ; std::_Wrap_alloc<std::allocator<Vector2D> >::max_size
_TEXT	ENDS
; Function compile flags: /Odtp /RTCsu
; File d:\microsoft visual studio 14.0\vc\include\xmemory0
;	COMDAT ?deallocate@?$_Wrap_alloc@V?$allocator@UVector2D@@@std@@@std@@QAEXPAUVector2D@@I@Z
_TEXT	SEGMENT
_this$ = -4						; size = 4
__Ptr$ = 8						; size = 4
__Count$ = 12						; size = 4
?deallocate@?$_Wrap_alloc@V?$allocator@UVector2D@@@std@@@std@@QAEXPAUVector2D@@I@Z PROC ; std::_Wrap_alloc<std::allocator<Vector2D> >::deallocate, COMDAT
; _this$ = ecx

; 910  : 		{	// deallocate object at _Ptr, ignore size

	push	ebp
	mov	ebp, esp
	push	ecx
	mov	DWORD PTR [ebp-4], -858993460		; ccccccccH
	mov	DWORD PTR _this$[ebp], ecx

; 911  : 		_Mybase::deallocate(_Ptr, _Count);

	mov	eax, DWORD PTR __Count$[ebp]
	push	eax
	mov	ecx, DWORD PTR __Ptr$[ebp]
	push	ecx
	mov	ecx, DWORD PTR _this$[ebp]
	call	?deallocate@?$allocator@UVector2D@@@std@@QAEXPAUVector2D@@I@Z ; std::allocator<Vector2D>::deallocate

; 912  : 		}

	add	esp, 4
	cmp	ebp, esp
	call	__RTC_CheckEsp
	mov	esp, ebp
	pop	ebp
	ret	8
?deallocate@?$_Wrap_alloc@V?$allocator@UVector2D@@@std@@@std@@QAEXPAUVector2D@@I@Z ENDP ; std::_Wrap_alloc<std::allocator<Vector2D> >::deallocate
_TEXT	ENDS
; Function compile flags: /Odtp /RTCsu
; File d:\microsoft visual studio 14.0\vc\include\xmemory0
;	COMDAT ?allocate@?$_Wrap_alloc@V?$allocator@UVector2D@@@std@@@std@@QAEPAUVector2D@@I@Z
_TEXT	SEGMENT
_this$ = -4						; size = 4
__Count$ = 8						; size = 4
?allocate@?$_Wrap_alloc@V?$allocator@UVector2D@@@std@@@std@@QAEPAUVector2D@@I@Z PROC ; std::_Wrap_alloc<std::allocator<Vector2D> >::allocate, COMDAT
; _this$ = ecx

; 899  : 		{	// allocate array of _Count elements

	push	ebp
	mov	ebp, esp
	push	ecx
	mov	DWORD PTR [ebp-4], -858993460		; ccccccccH
	mov	DWORD PTR _this$[ebp], ecx

; 900  : 		return (_Mybase::allocate(_Count));

	mov	eax, DWORD PTR __Count$[ebp]
	push	eax
	mov	ecx, DWORD PTR _this$[ebp]
	call	?allocate@?$allocator@UVector2D@@@std@@QAEPAUVector2D@@I@Z ; std::allocator<Vector2D>::allocate

; 901  : 		}

	add	esp, 4
	cmp	ebp, esp
	call	__RTC_CheckEsp
	mov	esp, ebp
	pop	ebp
	ret	4
?allocate@?$_Wrap_alloc@V?$allocator@UVector2D@@@std@@@std@@QAEPAUVector2D@@I@Z ENDP ; std::_Wrap_alloc<std::allocator<Vector2D> >::allocate
_TEXT	ENDS
; Function compile flags: /Odtp /RTCsu
; File d:\microsoft visual studio 14.0\vc\include\xmemory0
;	COMDAT ??4?$_Wrap_alloc@V?$allocator@UVector2D@@@std@@@std@@QAEAAU01@ABU01@@Z
_TEXT	SEGMENT
_this$ = -4						; size = 4
__Right$ = 8						; size = 4
??4?$_Wrap_alloc@V?$allocator@UVector2D@@@std@@@std@@QAEAAU01@ABU01@@Z PROC ; std::_Wrap_alloc<std::allocator<Vector2D> >::operator=, COMDAT
; _this$ = ecx

; 886  : 		{	// construct by copying

	push	ebp
	mov	ebp, esp
	push	ecx
	mov	DWORD PTR [ebp-4], -858993460		; ccccccccH
	mov	DWORD PTR _this$[ebp], ecx

; 887  : 		_Mybase::operator=(_Right);
; 888  : 		return (*this);

	mov	eax, DWORD PTR _this$[ebp]

; 889  : 		}

	mov	esp, ebp
	pop	ebp
	ret	4
??4?$_Wrap_alloc@V?$allocator@UVector2D@@@std@@@std@@QAEAAU01@ABU01@@Z ENDP ; std::_Wrap_alloc<std::allocator<Vector2D> >::operator=
_TEXT	ENDS
; Function compile flags: /Odtp /RTCsu
; File d:\microsoft visual studio 14.0\vc\include\xmemory0
;	COMDAT ??0?$_Wrap_alloc@V?$allocator@UVector2D@@@std@@@std@@QAE@ABV?$allocator@UVector2D@@@1@@Z
_TEXT	SEGMENT
_this$ = -4						; size = 4
__Right$ = 8						; size = 4
??0?$_Wrap_alloc@V?$allocator@UVector2D@@@std@@@std@@QAE@ABV?$allocator@UVector2D@@@1@@Z PROC ; std::_Wrap_alloc<std::allocator<Vector2D> >::_Wrap_alloc<std::allocator<Vector2D> >, COMDAT
; _this$ = ecx

; 859  : 		{	// construct by copying base

	push	ebp
	mov	ebp, esp
	push	ecx
	mov	DWORD PTR [ebp-4], -858993460		; ccccccccH
	mov	DWORD PTR _this$[ebp], ecx

; 858  : 		: _Mybase(_Right)

	mov	eax, DWORD PTR __Right$[ebp]
	push	eax
	mov	ecx, DWORD PTR _this$[ebp]
	call	??0?$allocator@UVector2D@@@std@@QAE@ABV01@@Z ; std::allocator<Vector2D>::allocator<Vector2D>

; 860  : 		}

	mov	eax, DWORD PTR _this$[ebp]
	add	esp, 4
	cmp	ebp, esp
	call	__RTC_CheckEsp
	mov	esp, ebp
	pop	ebp
	ret	4
??0?$_Wrap_alloc@V?$allocator@UVector2D@@@std@@@std@@QAE@ABV?$allocator@UVector2D@@@1@@Z ENDP ; std::_Wrap_alloc<std::allocator<Vector2D> >::_Wrap_alloc<std::allocator<Vector2D> >
_TEXT	ENDS
; Function compile flags: /Odtp /RTCsu
; File d:\microsoft visual studio 14.0\vc\include\xmemory0
;	COMDAT ?select_on_container_copy_construction@?$_Wrap_alloc@V?$allocator@UVector2D@@@std@@@std@@QBE?AU12@U_Nil@2@@Z
_TEXT	SEGMENT
$T1 = -5						; size = 1
_this$ = -4						; size = 4
___$ReturnUdt$ = 8					; size = 4
___formal$ = 12						; size = 1
?select_on_container_copy_construction@?$_Wrap_alloc@V?$allocator@UVector2D@@@std@@@std@@QBE?AU12@U_Nil@2@@Z PROC ; std::_Wrap_alloc<std::allocator<Vector2D> >::select_on_container_copy_construction, COMDAT
; _this$ = ecx

; 830  : 		{	// get allocator to use

	push	ebp
	mov	ebp, esp
	sub	esp, 8
	mov	DWORD PTR [ebp-8], -858993460		; ccccccccH
	mov	DWORD PTR [ebp-4], -858993460		; ccccccccH
	mov	DWORD PTR _this$[ebp], ecx

; 831  : 		return (_Mytraits::select_on_container_copy_construction(*this));

	mov	eax, DWORD PTR _this$[ebp]
	push	eax
	lea	ecx, DWORD PTR $T1[ebp]
	push	ecx
	call	?select_on_container_copy_construction@?$allocator_traits@V?$allocator@UVector2D@@@std@@@std@@SA?AV?$allocator@UVector2D@@@2@ABV32@@Z ; std::allocator_traits<std::allocator<Vector2D> >::select_on_container_copy_construction
	add	esp, 8
	push	eax
	mov	ecx, DWORD PTR ___$ReturnUdt$[ebp]
	call	??0?$_Wrap_alloc@V?$allocator@UVector2D@@@std@@@std@@QAE@ABV?$allocator@UVector2D@@@1@@Z ; std::_Wrap_alloc<std::allocator<Vector2D> >::_Wrap_alloc<std::allocator<Vector2D> >
	mov	eax, DWORD PTR ___$ReturnUdt$[ebp]

; 832  : 		}

	add	esp, 8
	cmp	ebp, esp
	call	__RTC_CheckEsp
	mov	esp, ebp
	pop	ebp
	ret	8
?select_on_container_copy_construction@?$_Wrap_alloc@V?$allocator@UVector2D@@@std@@@std@@QBE?AU12@U_Nil@2@@Z ENDP ; std::_Wrap_alloc<std::allocator<Vector2D> >::select_on_container_copy_construction
_TEXT	ENDS
; Function compile flags: /Odtp /RTCsu
; File d:\microsoft visual studio 14.0\vc\include\xmemory0
;	COMDAT ?select_on_container_copy_construction@?$allocator_traits@V?$allocator@UVector2D@@@std@@@std@@SA?AV?$allocator@UVector2D@@@2@ABV32@@Z
_TEXT	SEGMENT
___$ReturnUdt$ = 8					; size = 4
__Al$ = 12						; size = 4
?select_on_container_copy_construction@?$allocator_traits@V?$allocator@UVector2D@@@std@@@std@@SA?AV?$allocator@UVector2D@@@2@ABV32@@Z PROC ; std::allocator_traits<std::allocator<Vector2D> >::select_on_container_copy_construction, COMDAT

; 792  : 		{	// get allocator to use

	push	ebp
	mov	ebp, esp

; 793  : 		return (_Al);

	mov	eax, DWORD PTR __Al$[ebp]
	push	eax
	mov	ecx, DWORD PTR ___$ReturnUdt$[ebp]
	call	??0?$allocator@UVector2D@@@std@@QAE@ABV01@@Z ; std::allocator<Vector2D>::allocator<Vector2D>
	mov	eax, DWORD PTR ___$ReturnUdt$[ebp]

; 794  : 		}

	cmp	ebp, esp
	call	__RTC_CheckEsp
	pop	ebp
	ret	0
?select_on_container_copy_construction@?$allocator_traits@V?$allocator@UVector2D@@@std@@@std@@SA?AV?$allocator@UVector2D@@@2@ABV32@@Z ENDP ; std::allocator_traits<std::allocator<Vector2D> >::select_on_container_copy_construction
_TEXT	ENDS
; Function compile flags: /Odtp /RTCsu
; File d:\microsoft visual studio 14.0\vc\include\xmemory0
;	COMDAT ?max_size@?$allocator_traits@V?$allocator@UVector2D@@@std@@@std@@SAIABV?$allocator@UVector2D@@@2@@Z
_TEXT	SEGMENT
__Al$ = 8						; size = 4
?max_size@?$allocator_traits@V?$allocator@UVector2D@@@std@@@std@@SAIABV?$allocator@UVector2D@@@2@@Z PROC ; std::allocator_traits<std::allocator<Vector2D> >::max_size, COMDAT

; 786  : 		{	// get maximum size

	push	ebp
	mov	ebp, esp

; 787  : 		return (_Al.max_size());

	mov	ecx, DWORD PTR __Al$[ebp]
	call	?max_size@?$allocator@UVector2D@@@std@@QBEIXZ ; std::allocator<Vector2D>::max_size

; 788  : 		}

	cmp	ebp, esp
	call	__RTC_CheckEsp
	pop	ebp
	ret	0
?max_size@?$allocator_traits@V?$allocator@UVector2D@@@std@@@std@@SAIABV?$allocator@UVector2D@@@2@@Z ENDP ; std::allocator_traits<std::allocator<Vector2D> >::max_size
_TEXT	ENDS
; Function compile flags: /Odtp /RTCsu
; File d:\microsoft visual studio 14.0\vc\include\xmemory0
;	COMDAT ?max_size@?$allocator@UVector2D@@@std@@QBEIXZ
_TEXT	SEGMENT
_this$ = -4						; size = 4
?max_size@?$allocator@UVector2D@@@std@@QBEIXZ PROC	; std::allocator<Vector2D>::max_size, COMDAT
; _this$ = ecx

; 668  : 		{	// estimate maximum array size

	push	ebp
	mov	ebp, esp
	push	ecx
	mov	DWORD PTR [ebp-4], -858993460		; ccccccccH
	mov	DWORD PTR _this$[ebp], ecx

; 669  : 		return ((size_t)(-1) / sizeof (_Ty));

	mov	eax, 268435455				; 0fffffffH

; 670  : 		}

	mov	esp, ebp
	pop	ebp
	ret	0
?max_size@?$allocator@UVector2D@@@std@@QBEIXZ ENDP	; std::allocator<Vector2D>::max_size
_TEXT	ENDS
; Function compile flags: /Odtp /RTCsu
; File d:\microsoft visual studio 14.0\vc\include\xmemory0
;	COMDAT ?allocate@?$allocator@UVector2D@@@std@@QAEPAUVector2D@@I@Z
_TEXT	SEGMENT
_this$ = -4						; size = 4
__Count$ = 8						; size = 4
?allocate@?$allocator@UVector2D@@@std@@QAEPAUVector2D@@I@Z PROC ; std::allocator<Vector2D>::allocate, COMDAT
; _this$ = ecx

; 644  : 		{	// allocate array of _Count elements

	push	ebp
	mov	ebp, esp
	push	ecx
	mov	DWORD PTR [ebp-4], -858993460		; ccccccccH
	mov	DWORD PTR _this$[ebp], ecx

; 645  : 		return (_Allocate(_Count, (pointer)0));

	push	1
	push	0
	mov	eax, DWORD PTR __Count$[ebp]
	push	eax
	call	??$_Allocate@UVector2D@@@std@@YAPAUVector2D@@IPAU1@_N@Z ; std::_Allocate<Vector2D>
	add	esp, 12					; 0000000cH

; 646  : 		}

	add	esp, 4
	cmp	ebp, esp
	call	__RTC_CheckEsp
	mov	esp, ebp
	pop	ebp
	ret	4
?allocate@?$allocator@UVector2D@@@std@@QAEPAUVector2D@@I@Z ENDP ; std::allocator<Vector2D>::allocate
_TEXT	ENDS
; Function compile flags: /Odtp /RTCsu
; File d:\microsoft visual studio 14.0\vc\include\xmemory0
;	COMDAT ?deallocate@?$allocator@UVector2D@@@std@@QAEXPAUVector2D@@I@Z
_TEXT	SEGMENT
_this$ = -4						; size = 4
__Ptr$ = 8						; size = 4
__Count$ = 12						; size = 4
?deallocate@?$allocator@UVector2D@@@std@@QAEXPAUVector2D@@I@Z PROC ; std::allocator<Vector2D>::deallocate, COMDAT
; _this$ = ecx

; 639  : 		{	// deallocate object at _Ptr

	push	ebp
	mov	ebp, esp
	push	ecx
	mov	DWORD PTR [ebp-4], -858993460		; ccccccccH
	mov	DWORD PTR _this$[ebp], ecx

; 640  : 		_Deallocate(_Ptr, _Count);

	mov	eax, DWORD PTR __Count$[ebp]
	push	eax
	mov	ecx, DWORD PTR __Ptr$[ebp]
	push	ecx
	call	??$_Deallocate@UVector2D@@@std@@YAXPAUVector2D@@I@Z ; std::_Deallocate<Vector2D>
	add	esp, 8

; 641  : 		}

	add	esp, 4
	cmp	ebp, esp
	call	__RTC_CheckEsp
	mov	esp, ebp
	pop	ebp
	ret	8
?deallocate@?$allocator@UVector2D@@@std@@QAEXPAUVector2D@@I@Z ENDP ; std::allocator<Vector2D>::deallocate
_TEXT	ENDS
; Function compile flags: /Odtp /RTCsu
; File d:\microsoft visual studio 14.0\vc\include\xmemory0
;	COMDAT ??0?$allocator@UVector2D@@@std@@QAE@ABV01@@Z
_TEXT	SEGMENT
_this$ = -4						; size = 4
___formal$ = 8						; size = 4
??0?$allocator@UVector2D@@@std@@QAE@ABV01@@Z PROC	; std::allocator<Vector2D>::allocator<Vector2D>, COMDAT
; _this$ = ecx

; 623  : 	allocator(const allocator<_Ty>&) _THROW0()

	push	ebp
	mov	ebp, esp
	push	ecx
	mov	DWORD PTR [ebp-4], -858993460		; ccccccccH
	mov	DWORD PTR _this$[ebp], ecx

; 624  : 		{	// construct by copying (do nothing)
; 625  : 		}

	mov	eax, DWORD PTR _this$[ebp]
	mov	esp, ebp
	pop	ebp
	ret	4
??0?$allocator@UVector2D@@@std@@QAE@ABV01@@Z ENDP	; std::allocator<Vector2D>::allocator<Vector2D>
_TEXT	ENDS
; Function compile flags: /Odtp /RTCsu
; File d:\microsoft visual studio 14.0\vc\include\xmemory0
;	COMDAT ??0?$allocator@UVector2D@@@std@@QAE@XZ
_TEXT	SEGMENT
_this$ = -4						; size = 4
??0?$allocator@UVector2D@@@std@@QAE@XZ PROC		; std::allocator<Vector2D>::allocator<Vector2D>, COMDAT
; _this$ = ecx

; 619  : 	allocator() _THROW0()

	push	ebp
	mov	ebp, esp
	push	ecx
	mov	DWORD PTR [ebp-4], -858993460		; ccccccccH
	mov	DWORD PTR _this$[ebp], ecx

; 620  : 		{	// construct default allocator (do nothing)
; 621  : 		}

	mov	eax, DWORD PTR _this$[ebp]
	mov	esp, ebp
	pop	ebp
	ret	0
??0?$allocator@UVector2D@@@std@@QAE@XZ ENDP		; std::allocator<Vector2D>::allocator<Vector2D>
_TEXT	ENDS
; Function compile flags: /Odtp /RTCsu
; File d:\cours\uqac\intelligence artificielle - jeux vidéos\buckland_aisource\mini_projet_raven\gravemarkers.h
;	COMDAT ??0GraveRecord@GraveMarkers@@QAE@UVector2D@@@Z
_TEXT	SEGMENT
_this$ = -4						; size = 4
_pos$ = 8						; size = 16
??0GraveRecord@GraveMarkers@@QAE@UVector2D@@@Z PROC	; GraveMarkers::GraveRecord::GraveRecord, COMDAT
; _this$ = ecx

; 29   :     {}

	push	ebp
	mov	ebp, esp
	push	ecx
	mov	DWORD PTR [ebp-4], -858993460		; ccccccccH
	mov	DWORD PTR _this$[ebp], ecx

; 27   :     GraveRecord(Vector2D pos):Position(pos),

	mov	eax, DWORD PTR _this$[ebp]
	mov	ecx, DWORD PTR _pos$[ebp]
	mov	DWORD PTR [eax], ecx
	mov	edx, DWORD PTR _pos$[ebp+4]
	mov	DWORD PTR [eax+4], edx
	mov	ecx, DWORD PTR _pos$[ebp+8]
	mov	DWORD PTR [eax+8], ecx
	mov	edx, DWORD PTR _pos$[ebp+12]
	mov	DWORD PTR [eax+12], edx

; 28   :                               TimeCreated(Clock->GetCurrentTime())

	call	?Instance@CrudeTimer@@SAPAV1@XZ		; CrudeTimer::Instance
	mov	ecx, eax
	call	?GetTickCount@CrudeTimer@@QAENXZ	; CrudeTimer::GetTickCount
	mov	eax, DWORD PTR _this$[ebp]
	fstp	QWORD PTR [eax+16]

; 29   :     {}

	mov	eax, DWORD PTR _this$[ebp]
	add	esp, 4
	cmp	ebp, esp
	call	__RTC_CheckEsp
	mov	esp, ebp
	pop	ebp
	ret	16					; 00000010H
??0GraveRecord@GraveMarkers@@QAE@UVector2D@@@Z ENDP	; GraveMarkers::GraveRecord::GraveRecord
_TEXT	ENDS
; Function compile flags: /Odtp /RTCsu
; File d:\cours\uqac\intelligence artificielle - jeux vidéos\buckland_aisource\mini_projet_raven\common\time\crudetimer.h
;	COMDAT ?GetTickCount@CrudeTimer@@QAENXZ
_TEXT	SEGMENT
tv78 = -16						; size = 8
tv73 = -8						; size = 4
_this$ = -4						; size = 4
?GetTickCount@CrudeTimer@@QAENXZ PROC			; CrudeTimer::GetTickCount, COMDAT
; _this$ = ecx

; 42   :   double GetCurrentTime(){return timeGetTime() * 0.001 - m_dStartTime;}

	push	ebp
	mov	ebp, esp
	sub	esp, 16					; 00000010H
	push	esi
	mov	eax, -858993460				; ccccccccH
	mov	DWORD PTR [ebp-16], eax
	mov	DWORD PTR [ebp-12], eax
	mov	DWORD PTR [ebp-8], eax
	mov	DWORD PTR [ebp-4], eax
	mov	DWORD PTR _this$[ebp], ecx
	mov	esi, esp
	call	DWORD PTR __imp__timeGetTime@0
	cmp	esi, esp
	call	__RTC_CheckEsp
	mov	DWORD PTR tv73[ebp], eax
	cvtsi2sd xmm0, DWORD PTR tv73[ebp]
	mov	eax, DWORD PTR tv73[ebp]
	shr	eax, 31					; 0000001fH
	addsd	xmm0, QWORD PTR __xmm@41f00000000000000000000000000000[eax*8]
	mulsd	xmm0, QWORD PTR __real@3f50624dd2f1a9fc
	mov	ecx, DWORD PTR _this$[ebp]
	subsd	xmm0, QWORD PTR [ecx]
	movsd	QWORD PTR tv78[ebp], xmm0
	fld	QWORD PTR tv78[ebp]
	pop	esi
	add	esp, 16					; 00000010H
	cmp	ebp, esp
	call	__RTC_CheckEsp
	mov	esp, ebp
	pop	ebp
	ret	0
?GetTickCount@CrudeTimer@@QAENXZ ENDP			; CrudeTimer::GetTickCount
_TEXT	ENDS
; Function compile flags: /Odtp /RTCsu
; File d:\cours\uqac\intelligence artificielle - jeux vidéos\buckland_aisource\mini_projet_raven\common\2d\vector2d.h
;	COMDAT ?Perp@Vector2D@@QBE?AU1@XZ
_TEXT	SEGMENT
_this$ = -4						; size = 4
___$ReturnUdt$ = 8					; size = 4
?Perp@Vector2D@@QBE?AU1@XZ PROC				; Vector2D::Perp, COMDAT
; _this$ = ecx

; 176  : {

	push	ebp
	mov	ebp, esp
	push	ecx
	mov	DWORD PTR [ebp-4], -858993460		; ccccccccH
	mov	DWORD PTR _this$[ebp], ecx

; 177  :   return Vector2D(-y, x);

	mov	eax, DWORD PTR _this$[ebp]
	sub	esp, 8
	movsd	xmm0, QWORD PTR [eax]
	movsd	QWORD PTR [esp], xmm0
	mov	ecx, DWORD PTR _this$[ebp]
	movsd	xmm0, QWORD PTR [ecx+8]
	xorps	xmm0, QWORD PTR __xmm@80000000000000008000000000000000
	sub	esp, 8
	movsd	QWORD PTR [esp], xmm0
	mov	ecx, DWORD PTR ___$ReturnUdt$[ebp]
	call	??0Vector2D@@QAE@NN@Z			; Vector2D::Vector2D
	mov	eax, DWORD PTR ___$ReturnUdt$[ebp]

; 178  : }

	add	esp, 4
	cmp	ebp, esp
	call	__RTC_CheckEsp
	mov	esp, ebp
	pop	ebp
	ret	4
?Perp@Vector2D@@QBE?AU1@XZ ENDP				; Vector2D::Perp
_TEXT	ENDS
; Function compile flags: /Odtp /RTCsu
; File d:\cours\uqac\intelligence artificielle - jeux vidéos\buckland_aisource\mini_projet_raven\common\2d\vector2d.h
;	COMDAT ??0Vector2D@@QAE@NN@Z
_TEXT	SEGMENT
_this$ = -4						; size = 4
_a$ = 8							; size = 8
_b$ = 16						; size = 8
??0Vector2D@@QAE@NN@Z PROC				; Vector2D::Vector2D, COMDAT
; _this$ = ecx

; 25   :   Vector2D(double a, double b):x(a),y(b){}

	push	ebp
	mov	ebp, esp
	push	ecx
	mov	DWORD PTR [ebp-4], -858993460		; ccccccccH
	mov	DWORD PTR _this$[ebp], ecx
	mov	eax, DWORD PTR _this$[ebp]
	movsd	xmm0, QWORD PTR _a$[ebp]
	movsd	QWORD PTR [eax], xmm0
	mov	ecx, DWORD PTR _this$[ebp]
	movsd	xmm0, QWORD PTR _b$[ebp]
	movsd	QWORD PTR [ecx+8], xmm0
	mov	eax, DWORD PTR _this$[ebp]
	mov	esp, ebp
	pop	ebp
	ret	16					; 00000010H
??0Vector2D@@QAE@NN@Z ENDP				; Vector2D::Vector2D
_TEXT	ENDS
; Function compile flags: /Odtp /RTCsu
; File d:\cours\uqac\intelligence artificielle - jeux vidéos\buckland_aisource\mini_projet_raven\common\misc\utils.h
;	COMDAT ??__EMinFloat@@YAXXZ
text$di	SEGMENT
??__EMinFloat@@YAXXZ PROC				; `dynamic initializer for 'MinFloat'', COMDAT

; 27   : const float   MinFloat  = (std::numeric_limits<float>::min)();

	push	ebp
	mov	ebp, esp
	call	?min@?$numeric_limits@M@std@@SAMXZ	; std::numeric_limits<float>::min
	fstp	DWORD PTR ?MinFloat@@3MB
	cmp	ebp, esp
	call	__RTC_CheckEsp
	pop	ebp
	ret	0
??__EMinFloat@@YAXXZ ENDP				; `dynamic initializer for 'MinFloat''
text$di	ENDS
; Function compile flags: /Odtp /RTCsu
; File d:\cours\uqac\intelligence artificielle - jeux vidéos\buckland_aisource\mini_projet_raven\common\misc\utils.h
;	COMDAT ??__EMaxFloat@@YAXXZ
text$di	SEGMENT
??__EMaxFloat@@YAXXZ PROC				; `dynamic initializer for 'MaxFloat'', COMDAT

; 26   : const float   MaxFloat  = (std::numeric_limits<float>::max)();

	push	ebp
	mov	ebp, esp
	call	?max@?$numeric_limits@M@std@@SAMXZ	; std::numeric_limits<float>::max
	fstp	DWORD PTR ?MaxFloat@@3MB
	cmp	ebp, esp
	call	__RTC_CheckEsp
	pop	ebp
	ret	0
??__EMaxFloat@@YAXXZ ENDP				; `dynamic initializer for 'MaxFloat''
text$di	ENDS
; Function compile flags: /Odtp /RTCsu
; File d:\cours\uqac\intelligence artificielle - jeux vidéos\buckland_aisource\mini_projet_raven\common\misc\utils.h
;	COMDAT ??__EMinDouble@@YAXXZ
text$di	SEGMENT
??__EMinDouble@@YAXXZ PROC				; `dynamic initializer for 'MinDouble'', COMDAT

; 25   : const double  MinDouble = (std::numeric_limits<double>::min)();

	push	ebp
	mov	ebp, esp
	call	?min@?$numeric_limits@N@std@@SANXZ	; std::numeric_limits<double>::min
	fstp	QWORD PTR ?MinDouble@@3NB
	cmp	ebp, esp
	call	__RTC_CheckEsp
	pop	ebp
	ret	0
??__EMinDouble@@YAXXZ ENDP				; `dynamic initializer for 'MinDouble''
text$di	ENDS
; Function compile flags: /Odtp /RTCsu
; File d:\cours\uqac\intelligence artificielle - jeux vidéos\buckland_aisource\mini_projet_raven\common\misc\utils.h
;	COMDAT ??__EMaxDouble@@YAXXZ
text$di	SEGMENT
??__EMaxDouble@@YAXXZ PROC				; `dynamic initializer for 'MaxDouble'', COMDAT

; 24   : const double  MaxDouble = (std::numeric_limits<double>::max)();

	push	ebp
	mov	ebp, esp
	call	?max@?$numeric_limits@N@std@@SANXZ	; std::numeric_limits<double>::max
	fstp	QWORD PTR ?MaxDouble@@3NB
	cmp	ebp, esp
	call	__RTC_CheckEsp
	pop	ebp
	ret	0
??__EMaxDouble@@YAXXZ ENDP				; `dynamic initializer for 'MaxDouble''
text$di	ENDS
; Function compile flags: /Odtp /RTCsu
; File d:\cours\uqac\intelligence artificielle - jeux vidéos\buckland_aisource\mini_projet_raven\common\misc\utils.h
;	COMDAT ??__EMaxInt@@YAXXZ
text$di	SEGMENT
??__EMaxInt@@YAXXZ PROC					; `dynamic initializer for 'MaxInt'', COMDAT

; 23   : const int     MaxInt    = (std::numeric_limits<int>::max)();

	push	ebp
	mov	ebp, esp
	call	?max@?$numeric_limits@H@std@@SAHXZ	; std::numeric_limits<int>::max
	mov	DWORD PTR ?MaxInt@@3HB, eax
	cmp	ebp, esp
	call	__RTC_CheckEsp
	pop	ebp
	ret	0
??__EMaxInt@@YAXXZ ENDP					; `dynamic initializer for 'MaxInt''
text$di	ENDS
; Function compile flags: /Odtp /RTCsu
; File d:\microsoft visual studio 14.0\vc\include\xstring
;	COMDAT ?_Xran@?$basic_string@DU?$char_traits@D@std@@V?$allocator@D@2@@std@@QBEXXZ
_TEXT	SEGMENT
_this$ = -4						; size = 4
?_Xran@?$basic_string@DU?$char_traits@D@std@@V?$allocator@D@2@@std@@QBEXXZ PROC ; std::basic_string<char,std::char_traits<char>,std::allocator<char> >::_Xran, COMDAT
; _this$ = ecx

; 2251 : 		{	// report an out_of_range error

	push	ebp
	mov	ebp, esp
	push	ecx
	mov	DWORD PTR [ebp-4], -858993460		; ccccccccH
	mov	DWORD PTR _this$[ebp], ecx

; 2252 : 		_Xout_of_range("invalid string position");

	push	OFFSET ??_C@_0BI@CFPLBAOH@invalid?5string?5position?$AA@
	call	?_Xout_of_range@std@@YAXPBD@Z		; std::_Xout_of_range
$LN2@Xran:

; 2253 : 		}

	add	esp, 4
	cmp	ebp, esp
	call	__RTC_CheckEsp
	mov	esp, ebp
	pop	ebp
	ret	0
?_Xran@?$basic_string@DU?$char_traits@D@std@@V?$allocator@D@2@@std@@QBEXXZ ENDP ; std::basic_string<char,std::char_traits<char>,std::allocator<char> >::_Xran
_TEXT	ENDS
; Function compile flags: /Odtp /RTCsu
; File d:\microsoft visual studio 14.0\vc\include\xstring
;	COMDAT ?_Xlen@?$basic_string@DU?$char_traits@D@std@@V?$allocator@D@2@@std@@QBEXXZ
_TEXT	SEGMENT
_this$ = -4						; size = 4
?_Xlen@?$basic_string@DU?$char_traits@D@std@@V?$allocator@D@2@@std@@QBEXXZ PROC ; std::basic_string<char,std::char_traits<char>,std::allocator<char> >::_Xlen, COMDAT
; _this$ = ecx

; 2246 : 		{	// report a length_error

	push	ebp
	mov	ebp, esp
	push	ecx
	mov	DWORD PTR [ebp-4], -858993460		; ccccccccH
	mov	DWORD PTR _this$[ebp], ecx

; 2247 : 		_Xlength_error("string too long");

	push	OFFSET ??_C@_0BA@JFNIOLAK@string?5too?5long?$AA@
	call	?_Xlength_error@std@@YAXPBD@Z		; std::_Xlength_error
$LN2@Xlen:

; 2248 : 		}

	add	esp, 4
	cmp	ebp, esp
	call	__RTC_CheckEsp
	mov	esp, ebp
	pop	ebp
	ret	0
?_Xlen@?$basic_string@DU?$char_traits@D@std@@V?$allocator@D@2@@std@@QBEXXZ ENDP ; std::basic_string<char,std::char_traits<char>,std::allocator<char> >::_Xlen
_TEXT	ENDS
; Function compile flags: /Odtp /RTCsu
; File d:\microsoft visual studio 14.0\vc\include\xstring
;	COMDAT ?_Tidy@?$basic_string@DU?$char_traits@D@std@@V?$allocator@D@2@@std@@QAEX_NI@Z
_TEXT	SEGMENT
__Ptr$1 = -8						; size = 4
_this$ = -4						; size = 4
__Built$ = 8						; size = 1
__Newsize$ = 12						; size = 4
?_Tidy@?$basic_string@DU?$char_traits@D@std@@V?$allocator@D@2@@std@@QAEX_NI@Z PROC ; std::basic_string<char,std::char_traits<char>,std::allocator<char> >::_Tidy, COMDAT
; _this$ = ecx

; 2229 : 		{	// initialize buffer, deallocating any storage

	push	ebp
	mov	ebp, esp
	sub	esp, 8
	mov	DWORD PTR [ebp-8], -858993460		; ccccccccH
	mov	DWORD PTR [ebp-4], -858993460		; ccccccccH
	mov	DWORD PTR _this$[ebp], ecx

; 2230 : 		if (!_Built)

	movzx	eax, BYTE PTR __Built$[ebp]
	test	eax, eax
	jne	SHORT $LN2@Tidy
	jmp	SHORT $LN3@Tidy
$LN2@Tidy:

; 2231 : 			;
; 2232 : 		else if (this->_BUF_SIZE <= this->_Myres())

	mov	ecx, DWORD PTR _this$[ebp]
	call	?_Myres@?$_String_alloc@U?$_String_base_types@DV?$allocator@D@std@@@std@@@std@@QAEAAIXZ ; std::_String_alloc<std::_String_base_types<char,std::allocator<char> > >::_Myres
	cmp	DWORD PTR [eax], 16			; 00000010H
	jb	SHORT $LN3@Tidy

; 2233 : 			{	// copy any leftovers to small buffer and deallocate
; 2234 : 			pointer _Ptr = this->_Bx()._Ptr;

	mov	ecx, DWORD PTR _this$[ebp]
	call	?_Bx@?$_String_alloc@U?$_String_base_types@DV?$allocator@D@std@@@std@@@std@@QAEAAT_Bxty@?$_String_val@U?$_Simple_types@D@std@@@2@XZ ; std::_String_alloc<std::_String_base_types<char,std::allocator<char> > >::_Bx
	mov	ecx, DWORD PTR [eax]
	mov	DWORD PTR __Ptr$1[ebp], ecx

; 2235 : 			this->_Getal().destroy(&this->_Bx()._Ptr);

	mov	ecx, DWORD PTR _this$[ebp]
	call	?_Bx@?$_String_alloc@U?$_String_base_types@DV?$allocator@D@std@@@std@@@std@@QAEAAT_Bxty@?$_String_val@U?$_Simple_types@D@std@@@2@XZ ; std::_String_alloc<std::_String_base_types<char,std::allocator<char> > >::_Bx
	push	eax
	mov	ecx, DWORD PTR _this$[ebp]
	call	?_Getal@?$_String_alloc@U?$_String_base_types@DV?$allocator@D@std@@@std@@@std@@QAEAAU?$_Wrap_alloc@V?$allocator@D@std@@@2@XZ ; std::_String_alloc<std::_String_base_types<char,std::allocator<char> > >::_Getal
	mov	ecx, eax
	call	??$destroy@PAD@?$_Wrap_alloc@V?$allocator@D@std@@@std@@QAEXPAPAD@Z ; std::_Wrap_alloc<std::allocator<char> >::destroy<char *>

; 2236 : 			if (0 < _Newsize)

	cmp	DWORD PTR __Newsize$[ebp], 0
	jbe	SHORT $LN5@Tidy

; 2237 : 				_Traits::copy(this->_Bx()._Buf,

	mov	edx, DWORD PTR __Newsize$[ebp]
	push	edx
	mov	eax, DWORD PTR __Ptr$1[ebp]
	push	eax
	call	??$addressof@D@std@@YAPADAAD@Z		; std::addressof<char>
	add	esp, 4
	push	eax
	mov	ecx, DWORD PTR _this$[ebp]
	call	?_Bx@?$_String_alloc@U?$_String_base_types@DV?$allocator@D@std@@@std@@@std@@QAEAAT_Bxty@?$_String_val@U?$_Simple_types@D@std@@@2@XZ ; std::_String_alloc<std::_String_base_types<char,std::allocator<char> > >::_Bx
	push	eax
	call	?copy@?$char_traits@D@std@@SAPADPADPBDI@Z ; std::char_traits<char>::copy
	add	esp, 12					; 0000000cH
$LN5@Tidy:

; 2238 : 					_STD addressof(*_Ptr), _Newsize);
; 2239 : 			this->_Getal().deallocate(_Ptr, this->_Myres() + 1);

	mov	ecx, DWORD PTR _this$[ebp]
	call	?_Myres@?$_String_alloc@U?$_String_base_types@DV?$allocator@D@std@@@std@@@std@@QAEAAIXZ ; std::_String_alloc<std::_String_base_types<char,std::allocator<char> > >::_Myres
	mov	ecx, DWORD PTR [eax]
	add	ecx, 1
	push	ecx
	mov	edx, DWORD PTR __Ptr$1[ebp]
	push	edx
	mov	ecx, DWORD PTR _this$[ebp]
	call	?_Getal@?$_String_alloc@U?$_String_base_types@DV?$allocator@D@std@@@std@@@std@@QAEAAU?$_Wrap_alloc@V?$allocator@D@std@@@2@XZ ; std::_String_alloc<std::_String_base_types<char,std::allocator<char> > >::_Getal
	mov	ecx, eax
	call	?deallocate@?$_Wrap_alloc@V?$allocator@D@std@@@std@@QAEXPADI@Z ; std::_Wrap_alloc<std::allocator<char> >::deallocate
$LN3@Tidy:

; 2240 : 			}
; 2241 : 		this->_Myres() = this->_BUF_SIZE - 1;

	mov	ecx, DWORD PTR _this$[ebp]
	call	?_Myres@?$_String_alloc@U?$_String_base_types@DV?$allocator@D@std@@@std@@@std@@QAEAAIXZ ; std::_String_alloc<std::_String_base_types<char,std::allocator<char> > >::_Myres
	mov	DWORD PTR [eax], 15			; 0000000fH

; 2242 : 		_Eos(_Newsize);

	mov	eax, DWORD PTR __Newsize$[ebp]
	push	eax
	mov	ecx, DWORD PTR _this$[ebp]
	call	?_Eos@?$basic_string@DU?$char_traits@D@std@@V?$allocator@D@2@@std@@QAEXI@Z ; std::basic_string<char,std::char_traits<char>,std::allocator<char> >::_Eos

; 2243 : 		}

	add	esp, 8
	cmp	ebp, esp
	call	__RTC_CheckEsp
	mov	esp, ebp
	pop	ebp
	ret	8
?_Tidy@?$basic_string@DU?$char_traits@D@std@@V?$allocator@D@2@@std@@QAEX_NI@Z ENDP ; std::basic_string<char,std::char_traits<char>,std::allocator<char> >::_Tidy
_TEXT	ENDS
; Function compile flags: /Odtp /RTCsu
; File d:\microsoft visual studio 14.0\vc\include\xstring
;	COMDAT ?_Inside@?$basic_string@DU?$char_traits@D@std@@V?$allocator@D@2@@std@@QAE_NPBD@Z
_TEXT	SEGMENT
_this$ = -4						; size = 4
__Ptr$ = 8						; size = 4
?_Inside@?$basic_string@DU?$char_traits@D@std@@V?$allocator@D@2@@std@@QAE_NPBD@Z PROC ; std::basic_string<char,std::char_traits<char>,std::allocator<char> >::_Inside, COMDAT
; _this$ = ecx

; 2219 : 		{	// test if _Ptr points inside string

	push	ebp
	mov	ebp, esp
	push	ecx
	push	esi
	mov	DWORD PTR [ebp-4], -858993460		; ccccccccH
	mov	DWORD PTR _this$[ebp], ecx

; 2220 : 		if (_Ptr == 0 || _Ptr < this->_Myptr()
; 2221 : 			|| this->_Myptr() + this->_Mysize() <= _Ptr)

	cmp	DWORD PTR __Ptr$[ebp], 0
	je	SHORT $LN4@Inside
	mov	ecx, DWORD PTR _this$[ebp]
	call	?_Myptr@?$_String_alloc@U?$_String_base_types@DV?$allocator@D@std@@@std@@@std@@QAEPADXZ ; std::_String_alloc<std::_String_base_types<char,std::allocator<char> > >::_Myptr
	cmp	DWORD PTR __Ptr$[ebp], eax
	jb	SHORT $LN4@Inside
	mov	ecx, DWORD PTR _this$[ebp]
	call	?_Myptr@?$_String_alloc@U?$_String_base_types@DV?$allocator@D@std@@@std@@@std@@QAEPADXZ ; std::_String_alloc<std::_String_base_types<char,std::allocator<char> > >::_Myptr
	mov	esi, eax
	mov	ecx, DWORD PTR _this$[ebp]
	call	?_Mysize@?$_String_alloc@U?$_String_base_types@DV?$allocator@D@std@@@std@@@std@@QAEAAIXZ ; std::_String_alloc<std::_String_base_types<char,std::allocator<char> > >::_Mysize
	add	esi, DWORD PTR [eax]
	cmp	esi, DWORD PTR __Ptr$[ebp]
	ja	SHORT $LN2@Inside
$LN4@Inside:

; 2222 : 			return (false);	// don't ask

	xor	al, al
	jmp	SHORT $LN1@Inside

; 2223 : 		else

	jmp	SHORT $LN1@Inside
$LN2@Inside:

; 2224 : 			return (true);

	mov	al, 1
$LN1@Inside:

; 2225 : 		}

	pop	esi
	add	esp, 4
	cmp	ebp, esp
	call	__RTC_CheckEsp
	mov	esp, ebp
	pop	ebp
	ret	4
?_Inside@?$basic_string@DU?$char_traits@D@std@@V?$allocator@D@2@@std@@QAE_NPBD@Z ENDP ; std::basic_string<char,std::char_traits<char>,std::allocator<char> >::_Inside
_TEXT	ENDS
; Function compile flags: /Odtp /RTCsu
; File d:\microsoft visual studio 14.0\vc\include\xstring
;	COMDAT ?_Grow@?$basic_string@DU?$char_traits@D@std@@V?$allocator@D@2@@std@@QAE_NI_N@Z
_TEXT	SEGMENT
tv140 = -12						; size = 4
tv133 = -8						; size = 4
_this$ = -4						; size = 4
__Newsize$ = 8						; size = 4
__Trim$ = 12						; size = 1
?_Grow@?$basic_string@DU?$char_traits@D@std@@V?$allocator@D@2@@std@@QAE_NI_N@Z PROC ; std::basic_string<char,std::char_traits<char>,std::allocator<char> >::_Grow, COMDAT
; _this$ = ecx

; 2205 : 		{	// ensure buffer is big enough, trim to size if _Trim is true

	push	ebp
	mov	ebp, esp
	sub	esp, 12					; 0000000cH
	mov	DWORD PTR [ebp-12], -858993460		; ccccccccH
	mov	DWORD PTR [ebp-8], -858993460		; ccccccccH
	mov	DWORD PTR [ebp-4], -858993460		; ccccccccH
	mov	DWORD PTR _this$[ebp], ecx

; 2206 : 		if (max_size() < _Newsize)

	mov	ecx, DWORD PTR _this$[ebp]
	call	?max_size@?$basic_string@DU?$char_traits@D@std@@V?$allocator@D@2@@std@@QBEIXZ ; std::basic_string<char,std::char_traits<char>,std::allocator<char> >::max_size
	cmp	eax, DWORD PTR __Newsize$[ebp]
	jae	SHORT $LN2@Grow

; 2207 : 			_Xlen();	// result too long

	mov	ecx, DWORD PTR _this$[ebp]
	call	?_Xlen@?$basic_string@DU?$char_traits@D@std@@V?$allocator@D@2@@std@@QBEXXZ ; std::basic_string<char,std::char_traits<char>,std::allocator<char> >::_Xlen
$LN2@Grow:

; 2208 : 		if (this->_Myres() < _Newsize)

	mov	ecx, DWORD PTR _this$[ebp]
	call	?_Myres@?$_String_alloc@U?$_String_base_types@DV?$allocator@D@std@@@std@@@std@@QAEAAIXZ ; std::_String_alloc<std::_String_base_types<char,std::allocator<char> > >::_Myres
	mov	eax, DWORD PTR [eax]
	cmp	eax, DWORD PTR __Newsize$[ebp]
	jae	SHORT $LN3@Grow

; 2209 : 			_Copy(_Newsize, this->_Mysize());	// reallocate to grow

	mov	ecx, DWORD PTR _this$[ebp]
	call	?_Mysize@?$_String_alloc@U?$_String_base_types@DV?$allocator@D@std@@@std@@@std@@QAEAAIXZ ; std::_String_alloc<std::_String_base_types<char,std::allocator<char> > >::_Mysize
	mov	ecx, DWORD PTR [eax]
	push	ecx
	mov	edx, DWORD PTR __Newsize$[ebp]
	push	edx
	mov	ecx, DWORD PTR _this$[ebp]
	call	?_Copy@?$basic_string@DU?$char_traits@D@std@@V?$allocator@D@2@@std@@QAEXII@Z ; std::basic_string<char,std::char_traits<char>,std::allocator<char> >::_Copy
	jmp	SHORT $LN4@Grow
$LN3@Grow:

; 2210 : 		else if (_Trim && _Newsize < this->_BUF_SIZE)

	movzx	eax, BYTE PTR __Trim$[ebp]
	test	eax, eax
	je	SHORT $LN5@Grow
	cmp	DWORD PTR __Newsize$[ebp], 16		; 00000010H
	jae	SHORT $LN5@Grow

; 2211 : 			_Tidy(true,	// copy and deallocate if trimming to small string

	mov	ecx, DWORD PTR _this$[ebp]
	call	?_Mysize@?$_String_alloc@U?$_String_base_types@DV?$allocator@D@std@@@std@@@std@@QAEAAIXZ ; std::_String_alloc<std::_String_base_types<char,std::allocator<char> > >::_Mysize
	mov	ecx, DWORD PTR __Newsize$[ebp]
	cmp	ecx, DWORD PTR [eax]
	jae	SHORT $LN9@Grow
	mov	edx, DWORD PTR __Newsize$[ebp]
	mov	DWORD PTR tv133[ebp], edx
	jmp	SHORT $LN10@Grow
$LN9@Grow:
	mov	ecx, DWORD PTR _this$[ebp]
	call	?_Mysize@?$_String_alloc@U?$_String_base_types@DV?$allocator@D@std@@@std@@@std@@QAEAAIXZ ; std::_String_alloc<std::_String_base_types<char,std::allocator<char> > >::_Mysize
	mov	eax, DWORD PTR [eax]
	mov	DWORD PTR tv133[ebp], eax
$LN10@Grow:
	mov	ecx, DWORD PTR tv133[ebp]
	push	ecx
	push	1
	mov	ecx, DWORD PTR _this$[ebp]
	call	?_Tidy@?$basic_string@DU?$char_traits@D@std@@V?$allocator@D@2@@std@@QAEX_NI@Z ; std::basic_string<char,std::char_traits<char>,std::allocator<char> >::_Tidy
	jmp	SHORT $LN4@Grow
$LN5@Grow:

; 2212 : 				_Newsize < this->_Mysize() ? _Newsize : this->_Mysize());
; 2213 : 		else if (_Newsize == 0)

	cmp	DWORD PTR __Newsize$[ebp], 0
	jne	SHORT $LN4@Grow

; 2214 : 			_Eos(0);	// new size is zero, just null terminate

	push	0
	mov	ecx, DWORD PTR _this$[ebp]
	call	?_Eos@?$basic_string@DU?$char_traits@D@std@@V?$allocator@D@2@@std@@QAEXI@Z ; std::basic_string<char,std::char_traits<char>,std::allocator<char> >::_Eos
$LN4@Grow:

; 2215 : 		return (0 < _Newsize);	// return true only if more work to do

	cmp	DWORD PTR __Newsize$[ebp], 0
	jbe	SHORT $LN11@Grow
	mov	DWORD PTR tv140[ebp], 1
	jmp	SHORT $LN12@Grow
$LN11@Grow:
	mov	DWORD PTR tv140[ebp], 0
$LN12@Grow:
	mov	al, BYTE PTR tv140[ebp]
$LN8@Grow:

; 2216 : 		}

	add	esp, 12					; 0000000cH
	cmp	ebp, esp
	call	__RTC_CheckEsp
	mov	esp, ebp
	pop	ebp
	ret	8
?_Grow@?$basic_string@DU?$char_traits@D@std@@V?$allocator@D@2@@std@@QAE_NI_N@Z ENDP ; std::basic_string<char,std::char_traits<char>,std::allocator<char> >::_Grow
_TEXT	ENDS
; Function compile flags: /Odtp /RTCsu
; File d:\microsoft visual studio 14.0\vc\include\xstring
;	COMDAT ?_Eos@?$basic_string@DU?$char_traits@D@std@@V?$allocator@D@2@@std@@QAEXI@Z
_TEXT	SEGMENT
$T1 = -5						; size = 1
_this$ = -4						; size = 4
__Newsize$ = 8						; size = 4
?_Eos@?$basic_string@DU?$char_traits@D@std@@V?$allocator@D@2@@std@@QAEXI@Z PROC ; std::basic_string<char,std::char_traits<char>,std::allocator<char> >::_Eos, COMDAT
; _this$ = ecx

; 2199 : 		{	// set new length and null terminator

	push	ebp
	mov	ebp, esp
	sub	esp, 8
	mov	DWORD PTR [ebp-8], -858993460		; ccccccccH
	mov	DWORD PTR [ebp-4], -858993460		; ccccccccH
	mov	DWORD PTR _this$[ebp], ecx

; 2200 : 		_Traits::assign(this->_Myptr()[this->_Mysize() = _Newsize], _Elem());

	mov	BYTE PTR $T1[ebp], 0
	mov	ecx, DWORD PTR _this$[ebp]
	call	?_Mysize@?$_String_alloc@U?$_String_base_types@DV?$allocator@D@std@@@std@@@std@@QAEAAIXZ ; std::_String_alloc<std::_String_base_types<char,std::allocator<char> > >::_Mysize
	mov	ecx, DWORD PTR __Newsize$[ebp]
	mov	DWORD PTR [eax], ecx
	lea	edx, DWORD PTR $T1[ebp]
	push	edx
	mov	ecx, DWORD PTR _this$[ebp]
	call	?_Myptr@?$_String_alloc@U?$_String_base_types@DV?$allocator@D@std@@@std@@@std@@QAEPADXZ ; std::_String_alloc<std::_String_base_types<char,std::allocator<char> > >::_Myptr
	add	eax, DWORD PTR __Newsize$[ebp]
	push	eax
	call	?assign@?$char_traits@D@std@@SAXAADABD@Z ; std::char_traits<char>::assign
	add	esp, 8

; 2201 : 		}

	add	esp, 8
	cmp	ebp, esp
	call	__RTC_CheckEsp
	mov	esp, ebp
	pop	ebp
	ret	4
?_Eos@?$basic_string@DU?$char_traits@D@std@@V?$allocator@D@2@@std@@QAEXI@Z ENDP ; std::basic_string<char,std::char_traits<char>,std::allocator<char> >::_Eos
_TEXT	ENDS
; Function compile flags: /Odtp /RTCsu
; File d:\microsoft visual studio 14.0\vc\include\xstring
;	COMDAT ?_Copy@?$basic_string@DU?$char_traits@D@std@@V?$allocator@D@2@@std@@QAEXII@Z
_TEXT	SEGMENT
tv213 = -44						; size = 4
tv212 = -40						; size = 4
__Ptr$ = -32						; size = 4
__Newres$ = -24						; size = 4
_this$ = -20						; size = 4
__$EHRec$ = -16						; size = 16
__Newsize$ = 8						; size = 4
__Oldlen$ = 12						; size = 4
?_Copy@?$basic_string@DU?$char_traits@D@std@@V?$allocator@D@2@@std@@QAEXII@Z PROC ; std::basic_string<char,std::char_traits<char>,std::allocator<char> >::_Copy, COMDAT
; _this$ = ecx

; 2164 : 		{	// copy _Oldlen elements to newly allocated buffer

	push	ebp
	mov	ebp, esp
	push	-1
	push	__ehhandler$?_Copy@?$basic_string@DU?$char_traits@D@std@@V?$allocator@D@2@@std@@QAEXII@Z
	mov	eax, DWORD PTR fs:0
	push	eax
	push	ecx
	sub	esp, 28					; 0000001cH
	push	ebx
	push	esi
	push	edi
	mov	eax, -858993460				; ccccccccH
	mov	DWORD PTR [ebp-44], eax
	mov	DWORD PTR [ebp-40], eax
	mov	DWORD PTR [ebp-36], eax
	mov	DWORD PTR [ebp-32], eax
	mov	DWORD PTR [ebp-28], eax
	mov	DWORD PTR [ebp-24], eax
	mov	DWORD PTR [ebp-20], eax
	mov	eax, DWORD PTR ___security_cookie
	xor	eax, ebp
	push	eax
	lea	eax, DWORD PTR __$EHRec$[ebp+4]
	mov	DWORD PTR fs:0, eax
	mov	DWORD PTR __$EHRec$[ebp], esp
	mov	DWORD PTR _this$[ebp], ecx

; 2165 : 		size_type _Newres = _Newsize | this->_ALLOC_MASK;

	mov	eax, DWORD PTR __Newsize$[ebp]
	or	eax, 15					; 0000000fH
	mov	DWORD PTR __Newres$[ebp], eax

; 2166 : 		if (max_size() < _Newres)

	mov	ecx, DWORD PTR _this$[ebp]
	call	?max_size@?$basic_string@DU?$char_traits@D@std@@V?$allocator@D@2@@std@@QBEIXZ ; std::basic_string<char,std::char_traits<char>,std::allocator<char> >::max_size
	cmp	eax, DWORD PTR __Newres$[ebp]
	jae	SHORT $LN2@Copy

; 2167 : 			_Newres = _Newsize;	// undo roundup if too big

	mov	ecx, DWORD PTR __Newsize$[ebp]
	mov	DWORD PTR __Newres$[ebp], ecx
	jmp	SHORT $LN3@Copy
$LN2@Copy:

; 2168 : 		else if (this->_Myres() / 2 <= _Newres / 3)

	mov	eax, DWORD PTR __Newres$[ebp]
	xor	edx, edx
	mov	ecx, 3
	div	ecx
	mov	esi, eax
	mov	ecx, DWORD PTR _this$[ebp]
	call	?_Myres@?$_String_alloc@U?$_String_base_types@DV?$allocator@D@std@@@std@@@std@@QAEAAIXZ ; std::_String_alloc<std::_String_base_types<char,std::allocator<char> > >::_Myres
	mov	edx, DWORD PTR [eax]
	shr	edx, 1
	cmp	edx, esi
	ja	SHORT $LN4@Copy
	jmp	SHORT $LN3@Copy
$LN4@Copy:

; 2169 : 			;
; 2170 : 		else if (this->_Myres() <= max_size() - this->_Myres() / 2)

	mov	ecx, DWORD PTR _this$[ebp]
	call	?_Myres@?$_String_alloc@U?$_String_base_types@DV?$allocator@D@std@@@std@@@std@@QAEAAIXZ ; std::_String_alloc<std::_String_base_types<char,std::allocator<char> > >::_Myres
	mov	esi, DWORD PTR [eax]
	shr	esi, 1
	mov	ecx, DWORD PTR _this$[ebp]
	call	?max_size@?$basic_string@DU?$char_traits@D@std@@V?$allocator@D@2@@std@@QBEIXZ ; std::basic_string<char,std::char_traits<char>,std::allocator<char> >::max_size
	mov	edi, eax
	sub	edi, esi
	mov	ecx, DWORD PTR _this$[ebp]
	call	?_Myres@?$_String_alloc@U?$_String_base_types@DV?$allocator@D@std@@@std@@@std@@QAEAAIXZ ; std::_String_alloc<std::_String_base_types<char,std::allocator<char> > >::_Myres
	cmp	DWORD PTR [eax], edi
	ja	SHORT $LN6@Copy

; 2171 : 			_Newres = this->_Myres()

	mov	ecx, DWORD PTR _this$[ebp]
	call	?_Myres@?$_String_alloc@U?$_String_base_types@DV?$allocator@D@std@@@std@@@std@@QAEAAIXZ ; std::_String_alloc<std::_String_base_types<char,std::allocator<char> > >::_Myres
	mov	esi, DWORD PTR [eax]
	shr	esi, 1
	mov	ecx, DWORD PTR _this$[ebp]
	call	?_Myres@?$_String_alloc@U?$_String_base_types@DV?$allocator@D@std@@@std@@@std@@QAEAAIXZ ; std::_String_alloc<std::_String_base_types<char,std::allocator<char> > >::_Myres
	add	esi, DWORD PTR [eax]
	mov	DWORD PTR __Newres$[ebp], esi

; 2172 : 				+ this->_Myres() / 2;	// grow exponentially if possible
; 2173 : 		else

	jmp	SHORT $LN3@Copy
$LN6@Copy:

; 2174 : 			_Newres = max_size();	// settle for max_size()

	mov	ecx, DWORD PTR _this$[ebp]
	call	?max_size@?$basic_string@DU?$char_traits@D@std@@V?$allocator@D@2@@std@@QBEIXZ ; std::basic_string<char,std::char_traits<char>,std::allocator<char> >::max_size
	mov	DWORD PTR __Newres$[ebp], eax
$LN3@Copy:

; 2175 : 
; 2176 : 		_Elem *_Ptr;
; 2177 : 		_TRY_BEGIN

	mov	DWORD PTR __$EHRec$[ebp+12], 0

; 2178 : 			_Ptr = this->_Getal().allocate(_Newres + 1);

	mov	eax, DWORD PTR __Newres$[ebp]
	add	eax, 1
	push	eax
	mov	ecx, DWORD PTR _this$[ebp]
	call	?_Getal@?$_String_alloc@U?$_String_base_types@DV?$allocator@D@std@@@std@@@std@@QAEAAU?$_Wrap_alloc@V?$allocator@D@std@@@2@XZ ; std::_String_alloc<std::_String_base_types<char,std::allocator<char> > >::_Getal
	mov	ecx, eax
	call	?allocate@?$_Wrap_alloc@V?$allocator@D@std@@@std@@QAEPADI@Z ; std::_Wrap_alloc<std::allocator<char> >::allocate
	mov	DWORD PTR tv212[ebp], eax
	mov	ecx, DWORD PTR tv212[ebp]
	mov	DWORD PTR __Ptr$[ebp], ecx
	jmp	SHORT $LN12@Copy
__catch$?_Copy@?$basic_string@DU?$char_traits@D@std@@V?$allocator@D@2@@std@@QAEXII@Z$0:

; 2179 : 		_CATCH_ALL

	mov	DWORD PTR __$EHRec$[ebp], esp

; 2180 : 			_Newres = _Newsize;	// allocation failed, undo roundup and retry

	mov	edx, DWORD PTR __Newsize$[ebp]
	mov	DWORD PTR __Newres$[ebp], edx

; 2181 : 			_TRY_BEGIN

	mov	BYTE PTR __$EHRec$[ebp+12], 2

; 2182 : 				_Ptr = this->_Getal().allocate(_Newres + 1);

	mov	eax, DWORD PTR __Newres$[ebp]
	add	eax, 1
	push	eax
	mov	ecx, DWORD PTR _this$[ebp]
	call	?_Getal@?$_String_alloc@U?$_String_base_types@DV?$allocator@D@std@@@std@@@std@@QAEAAU?$_Wrap_alloc@V?$allocator@D@std@@@2@XZ ; std::_String_alloc<std::_String_base_types<char,std::allocator<char> > >::_Getal
	mov	ecx, eax
	call	?allocate@?$_Wrap_alloc@V?$allocator@D@std@@@std@@QAEPADI@Z ; std::_Wrap_alloc<std::allocator<char> >::allocate
	mov	DWORD PTR tv213[ebp], eax
	mov	ecx, DWORD PTR tv213[ebp]
	mov	DWORD PTR __Ptr$[ebp], ecx
	jmp	SHORT $LN14@Copy
__catch$?_Copy@?$basic_string@DU?$char_traits@D@std@@V?$allocator@D@2@@std@@QAEXII@Z$1:

; 2183 : 			_CATCH_ALL
; 2184 : 			_Tidy(true);	// failed again, discard storage and reraise

	push	0
	push	1
	mov	ecx, DWORD PTR _this$[ebp]
	call	?_Tidy@?$basic_string@DU?$char_traits@D@std@@V?$allocator@D@2@@std@@QAEX_NI@Z ; std::basic_string<char,std::char_traits<char>,std::allocator<char> >::_Tidy

; 2185 : 			_RERAISE;

	push	0
	push	0
	call	__CxxThrowException@8

; 2186 : 			_CATCH_END

	mov	eax, $LN17@Copy
	ret	0
$LN14@Copy:
	mov	DWORD PTR __$EHRec$[ebp+12], 1
	jmp	SHORT __tryend$?_Copy@?$basic_string@DU?$char_traits@D@std@@V?$allocator@D@2@@std@@QAEXII@Z$2
$LN17@Copy:
	mov	DWORD PTR __$EHRec$[ebp+12], 1
__tryend$?_Copy@?$basic_string@DU?$char_traits@D@std@@V?$allocator@D@2@@std@@QAEXII@Z$2:

; 2187 : 		_CATCH_END

	mov	eax, $LN19@Copy
	ret	0
$LN12@Copy:
	mov	DWORD PTR __$EHRec$[ebp+12], -1
	jmp	SHORT __tryend$?_Copy@?$basic_string@DU?$char_traits@D@std@@V?$allocator@D@2@@std@@QAEXII@Z$3
$LN19@Copy:
	mov	DWORD PTR __$EHRec$[ebp+12], -1
__tryend$?_Copy@?$basic_string@DU?$char_traits@D@std@@V?$allocator@D@2@@std@@QAEXII@Z$3:

; 2188 : 
; 2189 : 		if (0 < _Oldlen)

	cmp	DWORD PTR __Oldlen$[ebp], 0
	jbe	SHORT $LN10@Copy

; 2190 : 			_Traits::copy(_Ptr, this->_Myptr(),

	mov	edx, DWORD PTR __Oldlen$[ebp]
	push	edx
	mov	ecx, DWORD PTR _this$[ebp]
	call	?_Myptr@?$_String_alloc@U?$_String_base_types@DV?$allocator@D@std@@@std@@@std@@QAEPADXZ ; std::_String_alloc<std::_String_base_types<char,std::allocator<char> > >::_Myptr
	push	eax
	mov	eax, DWORD PTR __Ptr$[ebp]
	push	eax
	call	?copy@?$char_traits@D@std@@SAPADPADPBDI@Z ; std::char_traits<char>::copy
	add	esp, 12					; 0000000cH
$LN10@Copy:

; 2191 : 				_Oldlen);	// copy existing elements
; 2192 : 		_Tidy(true);

	push	0
	push	1
	mov	ecx, DWORD PTR _this$[ebp]
	call	?_Tidy@?$basic_string@DU?$char_traits@D@std@@V?$allocator@D@2@@std@@QAEX_NI@Z ; std::basic_string<char,std::char_traits<char>,std::allocator<char> >::_Tidy

; 2193 : 		this->_Getal().construct(&this->_Bx()._Ptr, _Ptr);

	lea	ecx, DWORD PTR __Ptr$[ebp]
	push	ecx
	mov	ecx, DWORD PTR _this$[ebp]
	call	?_Bx@?$_String_alloc@U?$_String_base_types@DV?$allocator@D@std@@@std@@@std@@QAEAAT_Bxty@?$_String_val@U?$_Simple_types@D@std@@@2@XZ ; std::_String_alloc<std::_String_base_types<char,std::allocator<char> > >::_Bx
	push	eax
	mov	ecx, DWORD PTR _this$[ebp]
	call	?_Getal@?$_String_alloc@U?$_String_base_types@DV?$allocator@D@std@@@std@@@std@@QAEAAU?$_Wrap_alloc@V?$allocator@D@std@@@2@XZ ; std::_String_alloc<std::_String_base_types<char,std::allocator<char> > >::_Getal
	mov	ecx, eax
	call	??$construct@PADAAPAD@?$_Wrap_alloc@V?$allocator@D@std@@@std@@QAEXPAPADAAPAD@Z ; std::_Wrap_alloc<std::allocator<char> >::construct<char *,char * &>

; 2194 : 		this->_Myres() = _Newres;

	mov	ecx, DWORD PTR _this$[ebp]
	call	?_Myres@?$_String_alloc@U?$_String_base_types@DV?$allocator@D@std@@@std@@@std@@QAEAAIXZ ; std::_String_alloc<std::_String_base_types<char,std::allocator<char> > >::_Myres
	mov	edx, DWORD PTR __Newres$[ebp]
	mov	DWORD PTR [eax], edx

; 2195 : 		_Eos(_Oldlen);

	mov	eax, DWORD PTR __Oldlen$[ebp]
	push	eax
	mov	ecx, DWORD PTR _this$[ebp]
	call	?_Eos@?$basic_string@DU?$char_traits@D@std@@V?$allocator@D@2@@std@@QAEXI@Z ; std::basic_string<char,std::char_traits<char>,std::allocator<char> >::_Eos
$LN11@Copy:

; 2196 : 		}

	push	edx
	mov	ecx, ebp
	push	eax
	lea	edx, DWORD PTR $LN23@Copy
	call	@_RTC_CheckStackVars@8
	pop	eax
	pop	edx
	mov	ecx, DWORD PTR __$EHRec$[ebp+4]
	mov	DWORD PTR fs:0, ecx
	pop	ecx
	pop	edi
	pop	esi
	pop	ebx
	add	esp, 44					; 0000002cH
	cmp	ebp, esp
	call	__RTC_CheckEsp
	mov	esp, ebp
	pop	ebp
	ret	8
	npad	1
$LN23@Copy:
	DD	1
	DD	$LN22@Copy
$LN22@Copy:
	DD	-32					; ffffffe0H
	DD	4
	DD	$LN20@Copy
$LN20@Copy:
	DB	95					; 0000005fH
	DB	80					; 00000050H
	DB	116					; 00000074H
	DB	114					; 00000072H
	DB	0
_TEXT	ENDS
;	COMDAT text$x
text$x	SEGMENT
__ehhandler$?_Copy@?$basic_string@DU?$char_traits@D@std@@V?$allocator@D@2@@std@@QAEXII@Z:
	mov	edx, DWORD PTR [esp+8]
	lea	eax, DWORD PTR [edx+12]
	mov	ecx, DWORD PTR [edx-48]
	xor	ecx, eax
	call	@__security_check_cookie@4
	mov	eax, OFFSET __ehfuncinfo$?_Copy@?$basic_string@DU?$char_traits@D@std@@V?$allocator@D@2@@std@@QAEXII@Z
	jmp	___CxxFrameHandler3
text$x	ENDS
?_Copy@?$basic_string@DU?$char_traits@D@std@@V?$allocator@D@2@@std@@QAEXII@Z ENDP ; std::basic_string<char,std::char_traits<char>,std::allocator<char> >::_Copy
; Function compile flags: /Odtp /RTCsu
; File d:\microsoft visual studio 14.0\vc\include\xstring
;	COMDAT ?max_size@?$basic_string@DU?$char_traits@D@std@@V?$allocator@D@2@@std@@QBEIXZ
_TEXT	SEGMENT
tv75 = -16						; size = 4
$T1 = -9						; size = 1
__Num$ = -8						; size = 4
_this$ = -4						; size = 4
?max_size@?$basic_string@DU?$char_traits@D@std@@V?$allocator@D@2@@std@@QBEIXZ PROC ; std::basic_string<char,std::char_traits<char>,std::allocator<char> >::max_size, COMDAT
; _this$ = ecx

; 1754 : 		{	// return maximum possible length of sequence

	push	ebp
	mov	ebp, esp
	sub	esp, 16					; 00000010H
	mov	eax, -858993460				; ccccccccH
	mov	DWORD PTR [ebp-16], eax
	mov	DWORD PTR [ebp-12], eax
	mov	DWORD PTR [ebp-8], eax
	mov	DWORD PTR [ebp-4], eax
	mov	DWORD PTR _this$[ebp], ecx

; 1755 : 		size_type _Num = this->_Getal().max_size();

	movzx	eax, BYTE PTR $T1[ebp]
	push	eax
	mov	ecx, DWORD PTR _this$[ebp]
	call	?_Getal@?$_String_alloc@U?$_String_base_types@DV?$allocator@D@std@@@std@@@std@@QBEABU?$_Wrap_alloc@V?$allocator@D@std@@@2@XZ ; std::_String_alloc<std::_String_base_types<char,std::allocator<char> > >::_Getal
	mov	ecx, eax
	call	?max_size@?$_Wrap_alloc@V?$allocator@D@std@@@std@@QBEIU_Nil@2@@Z ; std::_Wrap_alloc<std::allocator<char> >::max_size
	mov	DWORD PTR __Num$[ebp], eax

; 1756 : 		return (_Num <= 1 ? 1 : _Num - 1);

	cmp	DWORD PTR __Num$[ebp], 1
	ja	SHORT $LN3@max_size
	mov	DWORD PTR tv75[ebp], 1
	jmp	SHORT $LN4@max_size
$LN3@max_size:
	mov	ecx, DWORD PTR __Num$[ebp]
	sub	ecx, 1
	mov	DWORD PTR tv75[ebp], ecx
$LN4@max_size:
	mov	eax, DWORD PTR tv75[ebp]

; 1757 : 		}

	add	esp, 16					; 00000010H
	cmp	ebp, esp
	call	__RTC_CheckEsp
	mov	esp, ebp
	pop	ebp
	ret	0
?max_size@?$basic_string@DU?$char_traits@D@std@@V?$allocator@D@2@@std@@QBEIXZ ENDP ; std::basic_string<char,std::char_traits<char>,std::allocator<char> >::max_size
_TEXT	ENDS
; Function compile flags: /Odtp /RTCsu
; File d:\microsoft visual studio 14.0\vc\include\xstring
;	COMDAT ?size@?$basic_string@DU?$char_traits@D@std@@V?$allocator@D@2@@std@@QBEIXZ
_TEXT	SEGMENT
_this$ = -4						; size = 4
?size@?$basic_string@DU?$char_traits@D@std@@V?$allocator@D@2@@std@@QBEIXZ PROC ; std::basic_string<char,std::char_traits<char>,std::allocator<char> >::size, COMDAT
; _this$ = ecx

; 1749 : 		{	// return length of sequence

	push	ebp
	mov	ebp, esp
	push	ecx
	mov	DWORD PTR [ebp-4], -858993460		; ccccccccH
	mov	DWORD PTR _this$[ebp], ecx

; 1750 : 		return (this->_Mysize());

	mov	ecx, DWORD PTR _this$[ebp]
	call	?_Mysize@?$_String_alloc@U?$_String_base_types@DV?$allocator@D@std@@@std@@@std@@QBEABIXZ ; std::_String_alloc<std::_String_base_types<char,std::allocator<char> > >::_Mysize
	mov	eax, DWORD PTR [eax]

; 1751 : 		}

	add	esp, 4
	cmp	ebp, esp
	call	__RTC_CheckEsp
	mov	esp, ebp
	pop	ebp
	ret	0
?size@?$basic_string@DU?$char_traits@D@std@@V?$allocator@D@2@@std@@QBEIXZ ENDP ; std::basic_string<char,std::char_traits<char>,std::allocator<char> >::size
_TEXT	ENDS
; Function compile flags: /Odtp /RTCsu
; File d:\microsoft visual studio 14.0\vc\include\xstring
;	COMDAT ?c_str@?$basic_string@DU?$char_traits@D@std@@V?$allocator@D@2@@std@@QBEPBDXZ
_TEXT	SEGMENT
_this$ = -16						; size = 4
__$EHRec$ = -12						; size = 12
?c_str@?$basic_string@DU?$char_traits@D@std@@V?$allocator@D@2@@std@@QBEPBDXZ PROC ; std::basic_string<char,std::char_traits<char>,std::allocator<char> >::c_str, COMDAT
; _this$ = ecx

; 1734 : 		{	// return pointer to null-terminated nonmutable array

	push	ebp
	mov	ebp, esp
	push	-1
	push	__ehhandler$?c_str@?$basic_string@DU?$char_traits@D@std@@V?$allocator@D@2@@std@@QBEPBDXZ
	mov	eax, DWORD PTR fs:0
	push	eax
	push	ecx
	mov	DWORD PTR [ebp-16], -858993460		; ccccccccH
	mov	eax, DWORD PTR ___security_cookie
	xor	eax, ebp
	push	eax
	lea	eax, DWORD PTR __$EHRec$[ebp]
	mov	DWORD PTR fs:0, eax
	mov	DWORD PTR _this$[ebp], ecx

; 1735 : 		return (this->_Myptr());

	mov	ecx, DWORD PTR _this$[ebp]
	call	?_Myptr@?$_String_alloc@U?$_String_base_types@DV?$allocator@D@std@@@std@@@std@@QBEPBDXZ ; std::_String_alloc<std::_String_base_types<char,std::allocator<char> > >::_Myptr

; 1736 : 		}

	mov	ecx, DWORD PTR __$EHRec$[ebp]
	mov	DWORD PTR fs:0, ecx
	pop	ecx
	add	esp, 16					; 00000010H
	cmp	ebp, esp
	call	__RTC_CheckEsp
	mov	esp, ebp
	pop	ebp
	ret	0
_TEXT	ENDS
;	COMDAT text$x
text$x	SEGMENT
__ehhandler$?c_str@?$basic_string@DU?$char_traits@D@std@@V?$allocator@D@2@@std@@QBEPBDXZ:
	mov	edx, DWORD PTR [esp+8]
	lea	eax, DWORD PTR [edx+12]
	mov	ecx, DWORD PTR [edx-8]
	xor	ecx, eax
	call	@__security_check_cookie@4
	mov	eax, OFFSET __ehfuncinfo$?c_str@?$basic_string@DU?$char_traits@D@std@@V?$allocator@D@2@@std@@QBEPBDXZ
	jmp	___CxxFrameHandler3
text$x	ENDS
?c_str@?$basic_string@DU?$char_traits@D@std@@V?$allocator@D@2@@std@@QBEPBDXZ ENDP ; std::basic_string<char,std::char_traits<char>,std::allocator<char> >::c_str
; Function compile flags: /Odtp /RTCsu
; File d:\microsoft visual studio 14.0\vc\include\xstring
;	COMDAT ?erase@?$basic_string@DU?$char_traits@D@std@@V?$allocator@D@2@@std@@QAEAAV12@II@Z
_TEXT	SEGMENT
__Newsize$1 = -12					; size = 4
__Ptr$2 = -8						; size = 4
_this$ = -4						; size = 4
__Off$ = 8						; size = 4
__Count$ = 12						; size = 4
?erase@?$basic_string@DU?$char_traits@D@std@@V?$allocator@D@2@@std@@QAEAAV12@II@Z PROC ; std::basic_string<char,std::char_traits<char>,std::allocator<char> >::erase, COMDAT
; _this$ = ecx

; 1345 : 		{	// erase elements [_Off, _Off + _Count)

	push	ebp
	mov	ebp, esp
	sub	esp, 12					; 0000000cH
	mov	DWORD PTR [ebp-12], -858993460		; ccccccccH
	mov	DWORD PTR [ebp-8], -858993460		; ccccccccH
	mov	DWORD PTR [ebp-4], -858993460		; ccccccccH
	mov	DWORD PTR _this$[ebp], ecx

; 1346 : 		if (this->_Mysize() < _Off)

	mov	ecx, DWORD PTR _this$[ebp]
	call	?_Mysize@?$_String_alloc@U?$_String_base_types@DV?$allocator@D@std@@@std@@@std@@QAEAAIXZ ; std::_String_alloc<std::_String_base_types<char,std::allocator<char> > >::_Mysize
	mov	eax, DWORD PTR [eax]
	cmp	eax, DWORD PTR __Off$[ebp]
	jae	SHORT $LN2@erase

; 1347 : 			_Xran();	// _Off off end

	mov	ecx, DWORD PTR _this$[ebp]
	call	?_Xran@?$basic_string@DU?$char_traits@D@std@@V?$allocator@D@2@@std@@QBEXXZ ; std::basic_string<char,std::char_traits<char>,std::allocator<char> >::_Xran
$LN2@erase:

; 1348 : 		if (this->_Mysize() - _Off <= _Count)

	mov	ecx, DWORD PTR _this$[ebp]
	call	?_Mysize@?$_String_alloc@U?$_String_base_types@DV?$allocator@D@std@@@std@@@std@@QAEAAIXZ ; std::_String_alloc<std::_String_base_types<char,std::allocator<char> > >::_Mysize
	mov	ecx, DWORD PTR [eax]
	sub	ecx, DWORD PTR __Off$[ebp]
	cmp	ecx, DWORD PTR __Count$[ebp]
	ja	SHORT $LN3@erase

; 1349 : 			_Eos(_Off);	// erase elements [_Off, ...)

	mov	edx, DWORD PTR __Off$[ebp]
	push	edx
	mov	ecx, DWORD PTR _this$[ebp]
	call	?_Eos@?$basic_string@DU?$char_traits@D@std@@V?$allocator@D@2@@std@@QAEXI@Z ; std::basic_string<char,std::char_traits<char>,std::allocator<char> >::_Eos
	jmp	SHORT $LN4@erase
$LN3@erase:

; 1350 : 		else if (0 < _Count)

	cmp	DWORD PTR __Count$[ebp], 0
	jbe	SHORT $LN4@erase

; 1351 : 			{	// move elements down
; 1352 : 			value_type *_Ptr = this->_Myptr() + _Off;

	mov	ecx, DWORD PTR _this$[ebp]
	call	?_Myptr@?$_String_alloc@U?$_String_base_types@DV?$allocator@D@std@@@std@@@std@@QAEPADXZ ; std::_String_alloc<std::_String_base_types<char,std::allocator<char> > >::_Myptr
	add	eax, DWORD PTR __Off$[ebp]
	mov	DWORD PTR __Ptr$2[ebp], eax

; 1353 : 			size_type _Newsize = this->_Mysize() - _Count;

	mov	ecx, DWORD PTR _this$[ebp]
	call	?_Mysize@?$_String_alloc@U?$_String_base_types@DV?$allocator@D@std@@@std@@@std@@QAEAAIXZ ; std::_String_alloc<std::_String_base_types<char,std::allocator<char> > >::_Mysize
	mov	eax, DWORD PTR [eax]
	sub	eax, DWORD PTR __Count$[ebp]
	mov	DWORD PTR __Newsize$1[ebp], eax

; 1354 : 			_Traits::move(_Ptr, _Ptr + _Count, _Newsize - _Off);

	mov	ecx, DWORD PTR __Newsize$1[ebp]
	sub	ecx, DWORD PTR __Off$[ebp]
	push	ecx
	mov	edx, DWORD PTR __Ptr$2[ebp]
	add	edx, DWORD PTR __Count$[ebp]
	push	edx
	mov	eax, DWORD PTR __Ptr$2[ebp]
	push	eax
	call	?move@?$char_traits@D@std@@SAPADPADPBDI@Z ; std::char_traits<char>::move
	add	esp, 12					; 0000000cH

; 1355 : 			_Eos(_Newsize);

	mov	ecx, DWORD PTR __Newsize$1[ebp]
	push	ecx
	mov	ecx, DWORD PTR _this$[ebp]
	call	?_Eos@?$basic_string@DU?$char_traits@D@std@@V?$allocator@D@2@@std@@QAEXI@Z ; std::basic_string<char,std::char_traits<char>,std::allocator<char> >::_Eos
$LN4@erase:

; 1356 : 			}
; 1357 : 		return (*this);

	mov	eax, DWORD PTR _this$[ebp]
$LN6@erase:

; 1358 : 		}

	add	esp, 12					; 0000000cH
	cmp	ebp, esp
	call	__RTC_CheckEsp
	mov	esp, ebp
	pop	ebp
	ret	8
?erase@?$basic_string@DU?$char_traits@D@std@@V?$allocator@D@2@@std@@QAEAAV12@II@Z ENDP ; std::basic_string<char,std::char_traits<char>,std::allocator<char> >::erase
_TEXT	ENDS
; Function compile flags: /Odtp /RTCsu
; File d:\microsoft visual studio 14.0\vc\include\xstring
;	COMDAT ?erase@?$basic_string@DU?$char_traits@D@std@@V?$allocator@D@2@@std@@QAEAAV12@I@Z
_TEXT	SEGMENT
_this$ = -4						; size = 4
__Off$ = 8						; size = 4
?erase@?$basic_string@DU?$char_traits@D@std@@V?$allocator@D@2@@std@@QAEAAV12@I@Z PROC ; std::basic_string<char,std::char_traits<char>,std::allocator<char> >::erase, COMDAT
; _this$ = ecx

; 1337 : 		{	// erase elements [_Off, ...)

	push	ebp
	mov	ebp, esp
	push	ecx
	mov	DWORD PTR [ebp-4], -858993460		; ccccccccH
	mov	DWORD PTR _this$[ebp], ecx

; 1338 : 		if (this->_Mysize() < _Off)

	mov	ecx, DWORD PTR _this$[ebp]
	call	?_Mysize@?$_String_alloc@U?$_String_base_types@DV?$allocator@D@std@@@std@@@std@@QAEAAIXZ ; std::_String_alloc<std::_String_base_types<char,std::allocator<char> > >::_Mysize
	mov	eax, DWORD PTR [eax]
	cmp	eax, DWORD PTR __Off$[ebp]
	jae	SHORT $LN2@erase

; 1339 : 			_Xran();	// _Off off end

	mov	ecx, DWORD PTR _this$[ebp]
	call	?_Xran@?$basic_string@DU?$char_traits@D@std@@V?$allocator@D@2@@std@@QBEXXZ ; std::basic_string<char,std::char_traits<char>,std::allocator<char> >::_Xran
$LN2@erase:

; 1340 : 		_Eos(_Off);

	mov	ecx, DWORD PTR __Off$[ebp]
	push	ecx
	mov	ecx, DWORD PTR _this$[ebp]
	call	?_Eos@?$basic_string@DU?$char_traits@D@std@@V?$allocator@D@2@@std@@QAEXI@Z ; std::basic_string<char,std::char_traits<char>,std::allocator<char> >::_Eos

; 1341 : 		return (*this);

	mov	eax, DWORD PTR _this$[ebp]
$LN3@erase:

; 1342 : 		}

	add	esp, 4
	cmp	ebp, esp
	call	__RTC_CheckEsp
	mov	esp, ebp
	pop	ebp
	ret	4
?erase@?$basic_string@DU?$char_traits@D@std@@V?$allocator@D@2@@std@@QAEAAV12@I@Z ENDP ; std::basic_string<char,std::char_traits<char>,std::allocator<char> >::erase
_TEXT	ENDS
; Function compile flags: /Odtp /RTCsu
; File d:\microsoft visual studio 14.0\vc\include\xstring
;	COMDAT ?assign@?$basic_string@DU?$char_traits@D@std@@V?$allocator@D@2@@std@@QAEAAV12@PBD@Z
_TEXT	SEGMENT
_this$ = -4						; size = 4
__Ptr$ = 8						; size = 4
?assign@?$basic_string@DU?$char_traits@D@std@@V?$allocator@D@2@@std@@QAEAAV12@PBD@Z PROC ; std::basic_string<char,std::char_traits<char>,std::allocator<char> >::assign, COMDAT
; _this$ = ecx

; 1174 : 		{	// assign [_Ptr, <null>)

	push	ebp
	mov	ebp, esp
	push	ecx
	mov	DWORD PTR [ebp-4], -858993460		; ccccccccH
	mov	DWORD PTR _this$[ebp], ecx

; 1175 : 		_DEBUG_POINTER(_Ptr);

	push	1175					; 00000497H
	push	OFFSET ??_C@_1GG@PGPFJPKM@?$AAD?$AA?3?$AA?2?$AAM?$AAi?$AAc?$AAr?$AAo?$AAs?$AAo?$AAf?$AAt?$AA?5?$AAV?$AAi?$AAs?$AAu?$AAa?$AAl?$AA?5?$AAS?$AAt?$AAu?$AAd?$AAi?$AAo?$AA?5?$AA1?$AA4?$AA?4?$AA0?$AA?2@
	mov	eax, DWORD PTR __Ptr$[ebp]
	push	eax
	call	??$_Debug_pointer@$$CBD@std@@YAXPBDPB_WI@Z ; std::_Debug_pointer<char const >
	add	esp, 12					; 0000000cH

; 1176 : 		return (assign(_Ptr, _Traits::length(_Ptr)));

	mov	ecx, DWORD PTR __Ptr$[ebp]
	push	ecx
	call	?length@?$char_traits@D@std@@SAIPBD@Z	; std::char_traits<char>::length
	add	esp, 4
	push	eax
	mov	edx, DWORD PTR __Ptr$[ebp]
	push	edx
	mov	ecx, DWORD PTR _this$[ebp]
	call	?assign@?$basic_string@DU?$char_traits@D@std@@V?$allocator@D@2@@std@@QAEAAV12@PBDI@Z ; std::basic_string<char,std::char_traits<char>,std::allocator<char> >::assign

; 1177 : 		}

	add	esp, 4
	cmp	ebp, esp
	call	__RTC_CheckEsp
	mov	esp, ebp
	pop	ebp
	ret	4
?assign@?$basic_string@DU?$char_traits@D@std@@V?$allocator@D@2@@std@@QAEAAV12@PBD@Z ENDP ; std::basic_string<char,std::char_traits<char>,std::allocator<char> >::assign
_TEXT	ENDS
; Function compile flags: /Odtp /RTCsu
; File d:\microsoft visual studio 14.0\vc\include\xstring
;	COMDAT ?assign@?$basic_string@DU?$char_traits@D@std@@V?$allocator@D@2@@std@@QAEAAV12@PBDI@Z
_TEXT	SEGMENT
tv68 = -5						; size = 1
_this$ = -4						; size = 4
__Ptr$ = 8						; size = 4
__Count$ = 12						; size = 4
?assign@?$basic_string@DU?$char_traits@D@std@@V?$allocator@D@2@@std@@QAEAAV12@PBDI@Z PROC ; std::basic_string<char,std::char_traits<char>,std::allocator<char> >::assign, COMDAT
; _this$ = ecx

; 1159 : 		{	// assign [_Ptr, _Ptr + _Count)

	push	ebp
	mov	ebp, esp
	sub	esp, 8
	mov	DWORD PTR [ebp-8], -858993460		; ccccccccH
	mov	DWORD PTR [ebp-4], -858993460		; ccccccccH
	mov	DWORD PTR _this$[ebp], ecx

; 1160 : 		_DEBUG_POINTER_IF(_Count != 0, _Ptr);

	cmp	DWORD PTR __Count$[ebp], 0
	je	SHORT $LN5@assign
	mov	BYTE PTR tv68[ebp], 1
	jmp	SHORT $LN6@assign
$LN5@assign:
	mov	BYTE PTR tv68[ebp], 0
$LN6@assign:
	push	1160					; 00000488H
	push	OFFSET ??_C@_1GG@PGPFJPKM@?$AAD?$AA?3?$AA?2?$AAM?$AAi?$AAc?$AAr?$AAo?$AAs?$AAo?$AAf?$AAt?$AA?5?$AAV?$AAi?$AAs?$AAu?$AAa?$AAl?$AA?5?$AAS?$AAt?$AAu?$AAd?$AAi?$AAo?$AA?5?$AA1?$AA4?$AA?4?$AA0?$AA?2@
	mov	eax, DWORD PTR __Ptr$[ebp]
	push	eax
	movzx	ecx, BYTE PTR tv68[ebp]
	push	ecx
	call	??$_Debug_pointer_if@$$CBD@std@@YAX_NPBDPB_WI@Z ; std::_Debug_pointer_if<char const >
	add	esp, 16					; 00000010H

; 1161 : 		if (_Inside(_Ptr))

	mov	edx, DWORD PTR __Ptr$[ebp]
	push	edx
	mov	ecx, DWORD PTR _this$[ebp]
	call	?_Inside@?$basic_string@DU?$char_traits@D@std@@V?$allocator@D@2@@std@@QAE_NPBD@Z ; std::basic_string<char,std::char_traits<char>,std::allocator<char> >::_Inside
	movzx	eax, al
	test	eax, eax
	je	SHORT $LN2@assign

; 1162 : 			return (assign(*this,

	mov	ecx, DWORD PTR __Count$[ebp]
	push	ecx
	mov	ecx, DWORD PTR _this$[ebp]
	call	?_Myptr@?$_String_alloc@U?$_String_base_types@DV?$allocator@D@std@@@std@@@std@@QAEPADXZ ; std::_String_alloc<std::_String_base_types<char,std::allocator<char> > >::_Myptr
	mov	edx, DWORD PTR __Ptr$[ebp]
	sub	edx, eax
	push	edx
	mov	eax, DWORD PTR _this$[ebp]
	push	eax
	mov	ecx, DWORD PTR _this$[ebp]
	call	?assign@?$basic_string@DU?$char_traits@D@std@@V?$allocator@D@2@@std@@QAEAAV12@ABV12@II@Z ; std::basic_string<char,std::char_traits<char>,std::allocator<char> >::assign
	jmp	SHORT $LN1@assign
$LN2@assign:

; 1163 : 				_Ptr - this->_Myptr(), _Count));	// substring
; 1164 : 
; 1165 : 		if (_Grow(_Count))

	push	0
	mov	ecx, DWORD PTR __Count$[ebp]
	push	ecx
	mov	ecx, DWORD PTR _this$[ebp]
	call	?_Grow@?$basic_string@DU?$char_traits@D@std@@V?$allocator@D@2@@std@@QAE_NI_N@Z ; std::basic_string<char,std::char_traits<char>,std::allocator<char> >::_Grow
	movzx	edx, al
	test	edx, edx
	je	SHORT $LN3@assign

; 1166 : 			{	// make room and assign new stuff
; 1167 : 			_Traits::copy(this->_Myptr(), _Ptr, _Count);

	mov	eax, DWORD PTR __Count$[ebp]
	push	eax
	mov	ecx, DWORD PTR __Ptr$[ebp]
	push	ecx
	mov	ecx, DWORD PTR _this$[ebp]
	call	?_Myptr@?$_String_alloc@U?$_String_base_types@DV?$allocator@D@std@@@std@@@std@@QAEPADXZ ; std::_String_alloc<std::_String_base_types<char,std::allocator<char> > >::_Myptr
	push	eax
	call	?copy@?$char_traits@D@std@@SAPADPADPBDI@Z ; std::char_traits<char>::copy
	add	esp, 12					; 0000000cH

; 1168 : 			_Eos(_Count);

	mov	edx, DWORD PTR __Count$[ebp]
	push	edx
	mov	ecx, DWORD PTR _this$[ebp]
	call	?_Eos@?$basic_string@DU?$char_traits@D@std@@V?$allocator@D@2@@std@@QAEXI@Z ; std::basic_string<char,std::char_traits<char>,std::allocator<char> >::_Eos
$LN3@assign:

; 1169 : 			}
; 1170 : 		return (*this);

	mov	eax, DWORD PTR _this$[ebp]
$LN1@assign:

; 1171 : 		}

	add	esp, 8
	cmp	ebp, esp
	call	__RTC_CheckEsp
	mov	esp, ebp
	pop	ebp
	ret	8
?assign@?$basic_string@DU?$char_traits@D@std@@V?$allocator@D@2@@std@@QAEAAV12@PBDI@Z ENDP ; std::basic_string<char,std::char_traits<char>,std::allocator<char> >::assign
_TEXT	ENDS
; Function compile flags: /Odtp /RTCsu
; File d:\microsoft visual studio 14.0\vc\include\xstring
;	COMDAT ?assign@?$basic_string@DU?$char_traits@D@std@@V?$allocator@D@2@@std@@QAEAAV12@ABV12@II@Z
_TEXT	SEGMENT
__Num$ = -8						; size = 4
_this$ = -4						; size = 4
__Right$ = 8						; size = 4
__Roff$ = 12						; size = 4
__Count$ = 16						; size = 4
?assign@?$basic_string@DU?$char_traits@D@std@@V?$allocator@D@2@@std@@QAEAAV12@ABV12@II@Z PROC ; std::basic_string<char,std::char_traits<char>,std::allocator<char> >::assign, COMDAT
; _this$ = ecx

; 1140 : 		{	// assign _Right [_Roff, _Roff + _Count)

	push	ebp
	mov	ebp, esp
	sub	esp, 8
	mov	DWORD PTR [ebp-8], -858993460		; ccccccccH
	mov	DWORD PTR [ebp-4], -858993460		; ccccccccH
	mov	DWORD PTR _this$[ebp], ecx

; 1141 : 		if (_Right.size() < _Roff)

	mov	ecx, DWORD PTR __Right$[ebp]
	call	?size@?$basic_string@DU?$char_traits@D@std@@V?$allocator@D@2@@std@@QBEIXZ ; std::basic_string<char,std::char_traits<char>,std::allocator<char> >::size
	cmp	eax, DWORD PTR __Roff$[ebp]
	jae	SHORT $LN2@assign

; 1142 : 			_Xran();	// _Roff off end

	mov	ecx, DWORD PTR _this$[ebp]
	call	?_Xran@?$basic_string@DU?$char_traits@D@std@@V?$allocator@D@2@@std@@QBEXXZ ; std::basic_string<char,std::char_traits<char>,std::allocator<char> >::_Xran
$LN2@assign:

; 1143 : 		size_type _Num = _Right.size() - _Roff;

	mov	ecx, DWORD PTR __Right$[ebp]
	call	?size@?$basic_string@DU?$char_traits@D@std@@V?$allocator@D@2@@std@@QBEIXZ ; std::basic_string<char,std::char_traits<char>,std::allocator<char> >::size
	sub	eax, DWORD PTR __Roff$[ebp]
	mov	DWORD PTR __Num$[ebp], eax

; 1144 : 		if (_Count < _Num)

	mov	eax, DWORD PTR __Count$[ebp]
	cmp	eax, DWORD PTR __Num$[ebp]
	jae	SHORT $LN3@assign

; 1145 : 			_Num = _Count;	// trim _Num to size

	mov	ecx, DWORD PTR __Count$[ebp]
	mov	DWORD PTR __Num$[ebp], ecx
$LN3@assign:

; 1146 : 
; 1147 : 		if (this == &_Right)

	mov	edx, DWORD PTR _this$[ebp]
	cmp	edx, DWORD PTR __Right$[ebp]
	jne	SHORT $LN4@assign

; 1148 : 			erase((size_type)(_Roff + _Num)), erase(0, _Roff);	// substring

	mov	eax, DWORD PTR __Roff$[ebp]
	add	eax, DWORD PTR __Num$[ebp]
	push	eax
	mov	ecx, DWORD PTR _this$[ebp]
	call	?erase@?$basic_string@DU?$char_traits@D@std@@V?$allocator@D@2@@std@@QAEAAV12@I@Z ; std::basic_string<char,std::char_traits<char>,std::allocator<char> >::erase
	mov	ecx, DWORD PTR __Roff$[ebp]
	push	ecx
	push	0
	mov	ecx, DWORD PTR _this$[ebp]
	call	?erase@?$basic_string@DU?$char_traits@D@std@@V?$allocator@D@2@@std@@QAEAAV12@II@Z ; std::basic_string<char,std::char_traits<char>,std::allocator<char> >::erase
	jmp	SHORT $LN5@assign
$LN4@assign:

; 1149 : 		else if (_Grow(_Num))

	push	0
	mov	edx, DWORD PTR __Num$[ebp]
	push	edx
	mov	ecx, DWORD PTR _this$[ebp]
	call	?_Grow@?$basic_string@DU?$char_traits@D@std@@V?$allocator@D@2@@std@@QAE_NI_N@Z ; std::basic_string<char,std::char_traits<char>,std::allocator<char> >::_Grow
	movzx	eax, al
	test	eax, eax
	je	SHORT $LN5@assign

; 1150 : 			{	// make room and assign new stuff
; 1151 : 			_Traits::copy(this->_Myptr(),

	mov	ecx, DWORD PTR __Num$[ebp]
	push	ecx
	mov	ecx, DWORD PTR __Right$[ebp]
	call	?_Myptr@?$_String_alloc@U?$_String_base_types@DV?$allocator@D@std@@@std@@@std@@QBEPBDXZ ; std::_String_alloc<std::_String_base_types<char,std::allocator<char> > >::_Myptr
	add	eax, DWORD PTR __Roff$[ebp]
	push	eax
	mov	ecx, DWORD PTR _this$[ebp]
	call	?_Myptr@?$_String_alloc@U?$_String_base_types@DV?$allocator@D@std@@@std@@@std@@QAEPADXZ ; std::_String_alloc<std::_String_base_types<char,std::allocator<char> > >::_Myptr
	push	eax
	call	?copy@?$char_traits@D@std@@SAPADPADPBDI@Z ; std::char_traits<char>::copy
	add	esp, 12					; 0000000cH

; 1152 : 				_Right._Myptr() + _Roff, _Num);
; 1153 : 			_Eos(_Num);

	mov	edx, DWORD PTR __Num$[ebp]
	push	edx
	mov	ecx, DWORD PTR _this$[ebp]
	call	?_Eos@?$basic_string@DU?$char_traits@D@std@@V?$allocator@D@2@@std@@QAEXI@Z ; std::basic_string<char,std::char_traits<char>,std::allocator<char> >::_Eos
$LN5@assign:

; 1154 : 			}
; 1155 : 		return (*this);

	mov	eax, DWORD PTR _this$[ebp]
$LN7@assign:

; 1156 : 		}

	add	esp, 8
	cmp	ebp, esp
	call	__RTC_CheckEsp
	mov	esp, ebp
	pop	ebp
	ret	12					; 0000000cH
?assign@?$basic_string@DU?$char_traits@D@std@@V?$allocator@D@2@@std@@QAEAAV12@ABV12@II@Z ENDP ; std::basic_string<char,std::char_traits<char>,std::allocator<char> >::assign
_TEXT	ENDS
; Function compile flags: /Odtp /RTCsu
; File d:\microsoft visual studio 14.0\vc\include\xstring
;	COMDAT ??1?$basic_string@DU?$char_traits@D@std@@V?$allocator@D@2@@std@@QAE@XZ
_TEXT	SEGMENT
_this$ = -16						; size = 4
__$EHRec$ = -12						; size = 12
??1?$basic_string@DU?$char_traits@D@std@@V?$allocator@D@2@@std@@QAE@XZ PROC ; std::basic_string<char,std::char_traits<char>,std::allocator<char> >::~basic_string<char,std::char_traits<char>,std::allocator<char> >, COMDAT
; _this$ = ecx

; 1005 : 		{	// destroy the string

	push	ebp
	mov	ebp, esp
	push	-1
	push	__ehhandler$??1?$basic_string@DU?$char_traits@D@std@@V?$allocator@D@2@@std@@QAE@XZ
	mov	eax, DWORD PTR fs:0
	push	eax
	push	ecx
	mov	DWORD PTR [ebp-16], -858993460		; ccccccccH
	mov	eax, DWORD PTR ___security_cookie
	xor	eax, ebp
	push	eax
	lea	eax, DWORD PTR __$EHRec$[ebp]
	mov	DWORD PTR fs:0, eax
	mov	DWORD PTR _this$[ebp], ecx

; 1006 : 		_Tidy(true);

	push	0
	push	1
	mov	ecx, DWORD PTR _this$[ebp]
	call	?_Tidy@?$basic_string@DU?$char_traits@D@std@@V?$allocator@D@2@@std@@QAEX_NI@Z ; std::basic_string<char,std::char_traits<char>,std::allocator<char> >::_Tidy

; 1007 : 		}

	mov	ecx, DWORD PTR _this$[ebp]
	call	??1?$_String_alloc@U?$_String_base_types@DV?$allocator@D@std@@@std@@@std@@QAE@XZ ; std::_String_alloc<std::_String_base_types<char,std::allocator<char> > >::~_String_alloc<std::_String_base_types<char,std::allocator<char> > >
	mov	ecx, DWORD PTR __$EHRec$[ebp]
	mov	DWORD PTR fs:0, ecx
	pop	ecx
	add	esp, 16					; 00000010H
	cmp	ebp, esp
	call	__RTC_CheckEsp
	mov	esp, ebp
	pop	ebp
	ret	0
_TEXT	ENDS
;	COMDAT text$x
text$x	SEGMENT
__ehhandler$??1?$basic_string@DU?$char_traits@D@std@@V?$allocator@D@2@@std@@QAE@XZ:
	mov	edx, DWORD PTR [esp+8]
	lea	eax, DWORD PTR [edx+12]
	mov	ecx, DWORD PTR [edx-8]
	xor	ecx, eax
	call	@__security_check_cookie@4
	mov	eax, OFFSET __ehfuncinfo$??1?$basic_string@DU?$char_traits@D@std@@V?$allocator@D@2@@std@@QAE@XZ
	jmp	___CxxFrameHandler3
text$x	ENDS
??1?$basic_string@DU?$char_traits@D@std@@V?$allocator@D@2@@std@@QAE@XZ ENDP ; std::basic_string<char,std::char_traits<char>,std::allocator<char> >::~basic_string<char,std::char_traits<char>,std::allocator<char> >
; Function compile flags: /Odtp /RTCsu
; File d:\microsoft visual studio 14.0\vc\include\xstring
;	COMDAT ??0?$basic_string@DU?$char_traits@D@std@@V?$allocator@D@2@@std@@QAE@PBD@Z
_TEXT	SEGMENT
$T2 = -17						; size = 1
_this$ = -16						; size = 4
__$EHRec$ = -12						; size = 12
__Ptr$ = 8						; size = 4
??0?$basic_string@DU?$char_traits@D@std@@V?$allocator@D@2@@std@@QAE@PBD@Z PROC ; std::basic_string<char,std::char_traits<char>,std::allocator<char> >::basic_string<char,std::char_traits<char>,std::allocator<char> >, COMDAT
; _this$ = ecx

; 824  : 		{	// construct from [_Ptr, <null>)

	push	ebp
	mov	ebp, esp
	push	-1
	push	__ehhandler$??0?$basic_string@DU?$char_traits@D@std@@V?$allocator@D@2@@std@@QAE@PBD@Z
	mov	eax, DWORD PTR fs:0
	push	eax
	sub	esp, 8
	mov	DWORD PTR [ebp-20], -858993460		; ccccccccH
	mov	DWORD PTR [ebp-16], -858993460		; ccccccccH
	mov	eax, DWORD PTR ___security_cookie
	xor	eax, ebp
	push	eax
	lea	eax, DWORD PTR __$EHRec$[ebp]
	mov	DWORD PTR fs:0, eax
	mov	DWORD PTR _this$[ebp], ecx

; 823  : 		: _Mybase()

	lea	ecx, DWORD PTR $T2[ebp]
	call	??0?$allocator@D@std@@QAE@XZ		; std::allocator<char>::allocator<char>
	push	eax
	mov	ecx, DWORD PTR _this$[ebp]
	call	??0?$_String_alloc@U?$_String_base_types@DV?$allocator@D@std@@@std@@@std@@QAE@ABV?$allocator@D@1@@Z ; std::_String_alloc<std::_String_base_types<char,std::allocator<char> > >::_String_alloc<std::_String_base_types<char,std::allocator<char> > >
	mov	DWORD PTR __$EHRec$[ebp+8], 0

; 825  : 		_Tidy();

	push	0
	push	0
	mov	ecx, DWORD PTR _this$[ebp]
	call	?_Tidy@?$basic_string@DU?$char_traits@D@std@@V?$allocator@D@2@@std@@QAEX_NI@Z ; std::basic_string<char,std::char_traits<char>,std::allocator<char> >::_Tidy

; 826  : 		assign(_Ptr);

	mov	eax, DWORD PTR __Ptr$[ebp]
	push	eax
	mov	ecx, DWORD PTR _this$[ebp]
	call	?assign@?$basic_string@DU?$char_traits@D@std@@V?$allocator@D@2@@std@@QAEAAV12@PBD@Z ; std::basic_string<char,std::char_traits<char>,std::allocator<char> >::assign

; 827  : 		}

	mov	DWORD PTR __$EHRec$[ebp+8], -1
	mov	eax, DWORD PTR _this$[ebp]
	mov	ecx, DWORD PTR __$EHRec$[ebp]
	mov	DWORD PTR fs:0, ecx
	pop	ecx
	add	esp, 20					; 00000014H
	cmp	ebp, esp
	call	__RTC_CheckEsp
	mov	esp, ebp
	pop	ebp
	ret	4
_TEXT	ENDS
;	COMDAT text$x
text$x	SEGMENT
__unwindfunclet$??0?$basic_string@DU?$char_traits@D@std@@V?$allocator@D@2@@std@@QAE@PBD@Z$0:
	mov	ecx, DWORD PTR _this$[ebp]
	jmp	??1?$_String_alloc@U?$_String_base_types@DV?$allocator@D@std@@@std@@@std@@QAE@XZ ; std::_String_alloc<std::_String_base_types<char,std::allocator<char> > >::~_String_alloc<std::_String_base_types<char,std::allocator<char> > >
__ehhandler$??0?$basic_string@DU?$char_traits@D@std@@V?$allocator@D@2@@std@@QAE@PBD@Z:
	mov	edx, DWORD PTR [esp+8]
	lea	eax, DWORD PTR [edx+12]
	mov	ecx, DWORD PTR [edx-12]
	xor	ecx, eax
	call	@__security_check_cookie@4
	mov	eax, OFFSET __ehfuncinfo$??0?$basic_string@DU?$char_traits@D@std@@V?$allocator@D@2@@std@@QAE@PBD@Z
	jmp	___CxxFrameHandler3
text$x	ENDS
??0?$basic_string@DU?$char_traits@D@std@@V?$allocator@D@2@@std@@QAE@PBD@Z ENDP ; std::basic_string<char,std::char_traits<char>,std::allocator<char> >::basic_string<char,std::char_traits<char>,std::allocator<char> >
; Function compile flags: /Odtp /RTCsu
;	COMDAT ??1?$_Compressed_pair@U?$_Wrap_alloc@V?$allocator@D@std@@@std@@V?$_String_val@U?$_Simple_types@D@std@@@2@$00@std@@QAE@XZ
_TEXT	SEGMENT
_this$ = -4						; size = 4
??1?$_Compressed_pair@U?$_Wrap_alloc@V?$allocator@D@std@@@std@@V?$_String_val@U?$_Simple_types@D@std@@@2@$00@std@@QAE@XZ PROC ; std::_Compressed_pair<std::_Wrap_alloc<std::allocator<char> >,std::_String_val<std::_Simple_types<char> >,1>::~_Compressed_pair<std::_Wrap_alloc<std::allocator<char> >,std::_String_val<std::_Simple_types<char> >,1>, COMDAT
; _this$ = ecx
	push	ebp
	mov	ebp, esp
	push	ecx
	mov	DWORD PTR [ebp-4], -858993460		; ccccccccH
	mov	DWORD PTR _this$[ebp], ecx
	mov	ecx, DWORD PTR _this$[ebp]
	call	??1?$_String_val@U?$_Simple_types@D@std@@@std@@QAE@XZ
	add	esp, 4
	cmp	ebp, esp
	call	__RTC_CheckEsp
	mov	esp, ebp
	pop	ebp
	ret	0
??1?$_Compressed_pair@U?$_Wrap_alloc@V?$allocator@D@std@@@std@@V?$_String_val@U?$_Simple_types@D@std@@@2@$00@std@@QAE@XZ ENDP ; std::_Compressed_pair<std::_Wrap_alloc<std::allocator<char> >,std::_String_val<std::_Simple_types<char> >,1>::~_Compressed_pair<std::_Wrap_alloc<std::allocator<char> >,std::_String_val<std::_Simple_types<char> >,1>
_TEXT	ENDS
; Function compile flags: /Odtp /RTCsu
; File d:\microsoft visual studio 14.0\vc\include\xutility
;	COMDAT ?_Get_second@?$_Compressed_pair@U?$_Wrap_alloc@V?$allocator@D@std@@@std@@V?$_String_val@U?$_Simple_types@D@std@@@2@$00@std@@QBEABV?$_String_val@U?$_Simple_types@D@std@@@2@XZ
_TEXT	SEGMENT
_this$ = -4						; size = 4
?_Get_second@?$_Compressed_pair@U?$_Wrap_alloc@V?$allocator@D@std@@@std@@V?$_String_val@U?$_Simple_types@D@std@@@2@$00@std@@QBEABV?$_String_val@U?$_Simple_types@D@std@@@2@XZ PROC ; std::_Compressed_pair<std::_Wrap_alloc<std::allocator<char> >,std::_String_val<std::_Simple_types<char> >,1>::_Get_second, COMDAT
; _this$ = ecx

; 318  : 		{	// return const reference to second

	push	ebp
	mov	ebp, esp
	push	ecx
	mov	DWORD PTR [ebp-4], -858993460		; ccccccccH
	mov	DWORD PTR _this$[ebp], ecx

; 319  : 		return (_Myval2);

	mov	eax, DWORD PTR _this$[ebp]

; 320  : 		}

	mov	esp, ebp
	pop	ebp
	ret	0
?_Get_second@?$_Compressed_pair@U?$_Wrap_alloc@V?$allocator@D@std@@@std@@V?$_String_val@U?$_Simple_types@D@std@@@2@$00@std@@QBEABV?$_String_val@U?$_Simple_types@D@std@@@2@XZ ENDP ; std::_Compressed_pair<std::_Wrap_alloc<std::allocator<char> >,std::_String_val<std::_Simple_types<char> >,1>::_Get_second
_TEXT	ENDS
; Function compile flags: /Odtp /RTCsu
; File d:\microsoft visual studio 14.0\vc\include\xutility
;	COMDAT ?_Get_second@?$_Compressed_pair@U?$_Wrap_alloc@V?$allocator@D@std@@@std@@V?$_String_val@U?$_Simple_types@D@std@@@2@$00@std@@QAEAAV?$_String_val@U?$_Simple_types@D@std@@@2@XZ
_TEXT	SEGMENT
_this$ = -4						; size = 4
?_Get_second@?$_Compressed_pair@U?$_Wrap_alloc@V?$allocator@D@std@@@std@@V?$_String_val@U?$_Simple_types@D@std@@@2@$00@std@@QAEAAV?$_String_val@U?$_Simple_types@D@std@@@2@XZ PROC ; std::_Compressed_pair<std::_Wrap_alloc<std::allocator<char> >,std::_String_val<std::_Simple_types<char> >,1>::_Get_second, COMDAT
; _this$ = ecx

; 313  : 		{	// return reference to second

	push	ebp
	mov	ebp, esp
	push	ecx
	mov	DWORD PTR [ebp-4], -858993460		; ccccccccH
	mov	DWORD PTR _this$[ebp], ecx

; 314  : 		return (_Myval2);

	mov	eax, DWORD PTR _this$[ebp]

; 315  : 		}

	mov	esp, ebp
	pop	ebp
	ret	0
?_Get_second@?$_Compressed_pair@U?$_Wrap_alloc@V?$allocator@D@std@@@std@@V?$_String_val@U?$_Simple_types@D@std@@@2@$00@std@@QAEAAV?$_String_val@U?$_Simple_types@D@std@@@2@XZ ENDP ; std::_Compressed_pair<std::_Wrap_alloc<std::allocator<char> >,std::_String_val<std::_Simple_types<char> >,1>::_Get_second
_TEXT	ENDS
; Function compile flags: /Odtp /RTCsu
; File d:\microsoft visual studio 14.0\vc\include\xutility
;	COMDAT ?_Get_first@?$_Compressed_pair@U?$_Wrap_alloc@V?$allocator@D@std@@@std@@V?$_String_val@U?$_Simple_types@D@std@@@2@$00@std@@QBEABU?$_Wrap_alloc@V?$allocator@D@std@@@2@XZ
_TEXT	SEGMENT
_this$ = -4						; size = 4
?_Get_first@?$_Compressed_pair@U?$_Wrap_alloc@V?$allocator@D@std@@@std@@V?$_String_val@U?$_Simple_types@D@std@@@2@$00@std@@QBEABU?$_Wrap_alloc@V?$allocator@D@std@@@2@XZ PROC ; std::_Compressed_pair<std::_Wrap_alloc<std::allocator<char> >,std::_String_val<std::_Simple_types<char> >,1>::_Get_first, COMDAT
; _this$ = ecx

; 298  : 		{	// return const reference to first

	push	ebp
	mov	ebp, esp
	push	ecx
	mov	DWORD PTR [ebp-4], -858993460		; ccccccccH
	mov	DWORD PTR _this$[ebp], ecx

; 299  : 		return (*this);

	mov	eax, DWORD PTR _this$[ebp]

; 300  : 		}

	mov	esp, ebp
	pop	ebp
	ret	0
?_Get_first@?$_Compressed_pair@U?$_Wrap_alloc@V?$allocator@D@std@@@std@@V?$_String_val@U?$_Simple_types@D@std@@@2@$00@std@@QBEABU?$_Wrap_alloc@V?$allocator@D@std@@@2@XZ ENDP ; std::_Compressed_pair<std::_Wrap_alloc<std::allocator<char> >,std::_String_val<std::_Simple_types<char> >,1>::_Get_first
_TEXT	ENDS
; Function compile flags: /Odtp /RTCsu
; File d:\microsoft visual studio 14.0\vc\include\xutility
;	COMDAT ?_Get_first@?$_Compressed_pair@U?$_Wrap_alloc@V?$allocator@D@std@@@std@@V?$_String_val@U?$_Simple_types@D@std@@@2@$00@std@@QAEAAU?$_Wrap_alloc@V?$allocator@D@std@@@2@XZ
_TEXT	SEGMENT
_this$ = -4						; size = 4
?_Get_first@?$_Compressed_pair@U?$_Wrap_alloc@V?$allocator@D@std@@@std@@V?$_String_val@U?$_Simple_types@D@std@@@2@$00@std@@QAEAAU?$_Wrap_alloc@V?$allocator@D@std@@@2@XZ PROC ; std::_Compressed_pair<std::_Wrap_alloc<std::allocator<char> >,std::_String_val<std::_Simple_types<char> >,1>::_Get_first, COMDAT
; _this$ = ecx

; 293  : 		{	// return reference to first

	push	ebp
	mov	ebp, esp
	push	ecx
	mov	DWORD PTR [ebp-4], -858993460		; ccccccccH
	mov	DWORD PTR _this$[ebp], ecx

; 294  : 		return (*this);

	mov	eax, DWORD PTR _this$[ebp]

; 295  : 		}

	mov	esp, ebp
	pop	ebp
	ret	0
?_Get_first@?$_Compressed_pair@U?$_Wrap_alloc@V?$allocator@D@std@@@std@@V?$_String_val@U?$_Simple_types@D@std@@@2@$00@std@@QAEAAU?$_Wrap_alloc@V?$allocator@D@std@@@2@XZ ENDP ; std::_Compressed_pair<std::_Wrap_alloc<std::allocator<char> >,std::_String_val<std::_Simple_types<char> >,1>::_Get_first
_TEXT	ENDS
; Function compile flags: /Odtp /RTCsu
; File d:\microsoft visual studio 14.0\vc\include\xstring
;	COMDAT ?_Myres@?$_String_alloc@U?$_String_base_types@DV?$allocator@D@std@@@std@@@std@@QAEAAIXZ
_TEXT	SEGMENT
_this$ = -4						; size = 4
?_Myres@?$_String_alloc@U?$_String_base_types@DV?$allocator@D@std@@@std@@@std@@QAEAAIXZ PROC ; std::_String_alloc<std::_String_base_types<char,std::allocator<char> > >::_Myres, COMDAT
; _this$ = ecx

; 721  : 		{	// return reference to _Myres

	push	ebp
	mov	ebp, esp
	push	ecx
	mov	DWORD PTR [ebp-4], -858993460		; ccccccccH
	mov	DWORD PTR _this$[ebp], ecx

; 722  : 		return (_Get_data()._Myres);

	mov	ecx, DWORD PTR _this$[ebp]
	call	?_Get_data@?$_String_alloc@U?$_String_base_types@DV?$allocator@D@std@@@std@@@std@@QAEAAV?$_String_val@U?$_Simple_types@D@std@@@2@XZ ; std::_String_alloc<std::_String_base_types<char,std::allocator<char> > >::_Get_data
	add	eax, 24					; 00000018H

; 723  : 		}

	add	esp, 4
	cmp	ebp, esp
	call	__RTC_CheckEsp
	mov	esp, ebp
	pop	ebp
	ret	0
?_Myres@?$_String_alloc@U?$_String_base_types@DV?$allocator@D@std@@@std@@@std@@QAEAAIXZ ENDP ; std::_String_alloc<std::_String_base_types<char,std::allocator<char> > >::_Myres
_TEXT	ENDS
; Function compile flags: /Odtp /RTCsu
; File d:\microsoft visual studio 14.0\vc\include\xstring
;	COMDAT ?_Mysize@?$_String_alloc@U?$_String_base_types@DV?$allocator@D@std@@@std@@@std@@QBEABIXZ
_TEXT	SEGMENT
_this$ = -4						; size = 4
?_Mysize@?$_String_alloc@U?$_String_base_types@DV?$allocator@D@std@@@std@@@std@@QBEABIXZ PROC ; std::_String_alloc<std::_String_base_types<char,std::allocator<char> > >::_Mysize, COMDAT
; _this$ = ecx

; 716  : 		{	// return const reference to _Mysize

	push	ebp
	mov	ebp, esp
	push	ecx
	mov	DWORD PTR [ebp-4], -858993460		; ccccccccH
	mov	DWORD PTR _this$[ebp], ecx

; 717  : 		return (_Get_data()._Mysize);

	mov	ecx, DWORD PTR _this$[ebp]
	call	?_Get_data@?$_String_alloc@U?$_String_base_types@DV?$allocator@D@std@@@std@@@std@@QBEABV?$_String_val@U?$_Simple_types@D@std@@@2@XZ ; std::_String_alloc<std::_String_base_types<char,std::allocator<char> > >::_Get_data
	add	eax, 20					; 00000014H

; 718  : 		}

	add	esp, 4
	cmp	ebp, esp
	call	__RTC_CheckEsp
	mov	esp, ebp
	pop	ebp
	ret	0
?_Mysize@?$_String_alloc@U?$_String_base_types@DV?$allocator@D@std@@@std@@@std@@QBEABIXZ ENDP ; std::_String_alloc<std::_String_base_types<char,std::allocator<char> > >::_Mysize
_TEXT	ENDS
; Function compile flags: /Odtp /RTCsu
; File d:\microsoft visual studio 14.0\vc\include\xstring
;	COMDAT ?_Mysize@?$_String_alloc@U?$_String_base_types@DV?$allocator@D@std@@@std@@@std@@QAEAAIXZ
_TEXT	SEGMENT
_this$ = -4						; size = 4
?_Mysize@?$_String_alloc@U?$_String_base_types@DV?$allocator@D@std@@@std@@@std@@QAEAAIXZ PROC ; std::_String_alloc<std::_String_base_types<char,std::allocator<char> > >::_Mysize, COMDAT
; _this$ = ecx

; 711  : 		{	// return reference to _Mysize

	push	ebp
	mov	ebp, esp
	push	ecx
	mov	DWORD PTR [ebp-4], -858993460		; ccccccccH
	mov	DWORD PTR _this$[ebp], ecx

; 712  : 		return (_Get_data()._Mysize);

	mov	ecx, DWORD PTR _this$[ebp]
	call	?_Get_data@?$_String_alloc@U?$_String_base_types@DV?$allocator@D@std@@@std@@@std@@QAEAAV?$_String_val@U?$_Simple_types@D@std@@@2@XZ ; std::_String_alloc<std::_String_base_types<char,std::allocator<char> > >::_Get_data
	add	eax, 20					; 00000014H

; 713  : 		}

	add	esp, 4
	cmp	ebp, esp
	call	__RTC_CheckEsp
	mov	esp, ebp
	pop	ebp
	ret	0
?_Mysize@?$_String_alloc@U?$_String_base_types@DV?$allocator@D@std@@@std@@@std@@QAEAAIXZ ENDP ; std::_String_alloc<std::_String_base_types<char,std::allocator<char> > >::_Mysize
_TEXT	ENDS
; Function compile flags: /Odtp /RTCsu
; File d:\microsoft visual studio 14.0\vc\include\xstring
;	COMDAT ?_Bx@?$_String_alloc@U?$_String_base_types@DV?$allocator@D@std@@@std@@@std@@QAEAAT_Bxty@?$_String_val@U?$_Simple_types@D@std@@@2@XZ
_TEXT	SEGMENT
_this$ = -4						; size = 4
?_Bx@?$_String_alloc@U?$_String_base_types@DV?$allocator@D@std@@@std@@@std@@QAEAAT_Bxty@?$_String_val@U?$_Simple_types@D@std@@@2@XZ PROC ; std::_String_alloc<std::_String_base_types<char,std::allocator<char> > >::_Bx, COMDAT
; _this$ = ecx

; 701  : 		{	// return reference to _Bx

	push	ebp
	mov	ebp, esp
	push	ecx
	mov	DWORD PTR [ebp-4], -858993460		; ccccccccH
	mov	DWORD PTR _this$[ebp], ecx

; 702  : 		return (_Get_data()._Bx);

	mov	ecx, DWORD PTR _this$[ebp]
	call	?_Get_data@?$_String_alloc@U?$_String_base_types@DV?$allocator@D@std@@@std@@@std@@QAEAAV?$_String_val@U?$_Simple_types@D@std@@@2@XZ ; std::_String_alloc<std::_String_base_types<char,std::allocator<char> > >::_Get_data
	add	eax, 4

; 703  : 		}

	add	esp, 4
	cmp	ebp, esp
	call	__RTC_CheckEsp
	mov	esp, ebp
	pop	ebp
	ret	0
?_Bx@?$_String_alloc@U?$_String_base_types@DV?$allocator@D@std@@@std@@@std@@QAEAAT_Bxty@?$_String_val@U?$_Simple_types@D@std@@@2@XZ ENDP ; std::_String_alloc<std::_String_base_types<char,std::allocator<char> > >::_Bx
_TEXT	ENDS
; Function compile flags: /Odtp /RTCsu
; File d:\microsoft visual studio 14.0\vc\include\xstring
;	COMDAT ?_Get_data@?$_String_alloc@U?$_String_base_types@DV?$allocator@D@std@@@std@@@std@@QBEABV?$_String_val@U?$_Simple_types@D@std@@@2@XZ
_TEXT	SEGMENT
_this$ = -4						; size = 4
?_Get_data@?$_String_alloc@U?$_String_base_types@DV?$allocator@D@std@@@std@@@std@@QBEABV?$_String_val@U?$_Simple_types@D@std@@@2@XZ PROC ; std::_String_alloc<std::_String_base_types<char,std::allocator<char> > >::_Get_data, COMDAT
; _this$ = ecx

; 694  : 		{	// return const reference to _String_val

	push	ebp
	mov	ebp, esp
	push	ecx
	mov	DWORD PTR [ebp-4], -858993460		; ccccccccH
	mov	DWORD PTR _this$[ebp], ecx

; 695  : 		return (_Mypair._Get_second());

	mov	ecx, DWORD PTR _this$[ebp]
	call	?_Get_second@?$_Compressed_pair@U?$_Wrap_alloc@V?$allocator@D@std@@@std@@V?$_String_val@U?$_Simple_types@D@std@@@2@$00@std@@QBEABV?$_String_val@U?$_Simple_types@D@std@@@2@XZ ; std::_Compressed_pair<std::_Wrap_alloc<std::allocator<char> >,std::_String_val<std::_Simple_types<char> >,1>::_Get_second

; 696  : 		}

	add	esp, 4
	cmp	ebp, esp
	call	__RTC_CheckEsp
	mov	esp, ebp
	pop	ebp
	ret	0
?_Get_data@?$_String_alloc@U?$_String_base_types@DV?$allocator@D@std@@@std@@@std@@QBEABV?$_String_val@U?$_Simple_types@D@std@@@2@XZ ENDP ; std::_String_alloc<std::_String_base_types<char,std::allocator<char> > >::_Get_data
_TEXT	ENDS
; Function compile flags: /Odtp /RTCsu
; File d:\microsoft visual studio 14.0\vc\include\xstring
;	COMDAT ?_Get_data@?$_String_alloc@U?$_String_base_types@DV?$allocator@D@std@@@std@@@std@@QAEAAV?$_String_val@U?$_Simple_types@D@std@@@2@XZ
_TEXT	SEGMENT
_this$ = -4						; size = 4
?_Get_data@?$_String_alloc@U?$_String_base_types@DV?$allocator@D@std@@@std@@@std@@QAEAAV?$_String_val@U?$_Simple_types@D@std@@@2@XZ PROC ; std::_String_alloc<std::_String_base_types<char,std::allocator<char> > >::_Get_data, COMDAT
; _this$ = ecx

; 689  : 		{	// return reference to _String_val

	push	ebp
	mov	ebp, esp
	push	ecx
	mov	DWORD PTR [ebp-4], -858993460		; ccccccccH
	mov	DWORD PTR _this$[ebp], ecx

; 690  : 		return (_Mypair._Get_second());

	mov	ecx, DWORD PTR _this$[ebp]
	call	?_Get_second@?$_Compressed_pair@U?$_Wrap_alloc@V?$allocator@D@std@@@std@@V?$_String_val@U?$_Simple_types@D@std@@@2@$00@std@@QAEAAV?$_String_val@U?$_Simple_types@D@std@@@2@XZ ; std::_Compressed_pair<std::_Wrap_alloc<std::allocator<char> >,std::_String_val<std::_Simple_types<char> >,1>::_Get_second

; 691  : 		}

	add	esp, 4
	cmp	ebp, esp
	call	__RTC_CheckEsp
	mov	esp, ebp
	pop	ebp
	ret	0
?_Get_data@?$_String_alloc@U?$_String_base_types@DV?$allocator@D@std@@@std@@@std@@QAEAAV?$_String_val@U?$_Simple_types@D@std@@@2@XZ ENDP ; std::_String_alloc<std::_String_base_types<char,std::allocator<char> > >::_Get_data
_TEXT	ENDS
; Function compile flags: /Odtp /RTCsu
; File d:\microsoft visual studio 14.0\vc\include\xstring
;	COMDAT ?_Getal@?$_String_alloc@U?$_String_base_types@DV?$allocator@D@std@@@std@@@std@@QBEABU?$_Wrap_alloc@V?$allocator@D@std@@@2@XZ
_TEXT	SEGMENT
_this$ = -4						; size = 4
?_Getal@?$_String_alloc@U?$_String_base_types@DV?$allocator@D@std@@@std@@@std@@QBEABU?$_Wrap_alloc@V?$allocator@D@std@@@2@XZ PROC ; std::_String_alloc<std::_String_base_types<char,std::allocator<char> > >::_Getal, COMDAT
; _this$ = ecx

; 684  : 		{	// return const reference to allocator

	push	ebp
	mov	ebp, esp
	push	ecx
	mov	DWORD PTR [ebp-4], -858993460		; ccccccccH
	mov	DWORD PTR _this$[ebp], ecx

; 685  : 		return (_Mypair._Get_first());

	mov	ecx, DWORD PTR _this$[ebp]
	call	?_Get_first@?$_Compressed_pair@U?$_Wrap_alloc@V?$allocator@D@std@@@std@@V?$_String_val@U?$_Simple_types@D@std@@@2@$00@std@@QBEABU?$_Wrap_alloc@V?$allocator@D@std@@@2@XZ ; std::_Compressed_pair<std::_Wrap_alloc<std::allocator<char> >,std::_String_val<std::_Simple_types<char> >,1>::_Get_first

; 686  : 		}

	add	esp, 4
	cmp	ebp, esp
	call	__RTC_CheckEsp
	mov	esp, ebp
	pop	ebp
	ret	0
?_Getal@?$_String_alloc@U?$_String_base_types@DV?$allocator@D@std@@@std@@@std@@QBEABU?$_Wrap_alloc@V?$allocator@D@std@@@2@XZ ENDP ; std::_String_alloc<std::_String_base_types<char,std::allocator<char> > >::_Getal
_TEXT	ENDS
; Function compile flags: /Odtp /RTCsu
; File d:\microsoft visual studio 14.0\vc\include\xstring
;	COMDAT ?_Getal@?$_String_alloc@U?$_String_base_types@DV?$allocator@D@std@@@std@@@std@@QAEAAU?$_Wrap_alloc@V?$allocator@D@std@@@2@XZ
_TEXT	SEGMENT
_this$ = -4						; size = 4
?_Getal@?$_String_alloc@U?$_String_base_types@DV?$allocator@D@std@@@std@@@std@@QAEAAU?$_Wrap_alloc@V?$allocator@D@std@@@2@XZ PROC ; std::_String_alloc<std::_String_base_types<char,std::allocator<char> > >::_Getal, COMDAT
; _this$ = ecx

; 679  : 		{	// return reference to allocator

	push	ebp
	mov	ebp, esp
	push	ecx
	mov	DWORD PTR [ebp-4], -858993460		; ccccccccH
	mov	DWORD PTR _this$[ebp], ecx

; 680  : 		return (_Mypair._Get_first());

	mov	ecx, DWORD PTR _this$[ebp]
	call	?_Get_first@?$_Compressed_pair@U?$_Wrap_alloc@V?$allocator@D@std@@@std@@V?$_String_val@U?$_Simple_types@D@std@@@2@$00@std@@QAEAAU?$_Wrap_alloc@V?$allocator@D@std@@@2@XZ ; std::_Compressed_pair<std::_Wrap_alloc<std::allocator<char> >,std::_String_val<std::_Simple_types<char> >,1>::_Get_first

; 681  : 		}

	add	esp, 4
	cmp	ebp, esp
	call	__RTC_CheckEsp
	mov	esp, ebp
	pop	ebp
	ret	0
?_Getal@?$_String_alloc@U?$_String_base_types@DV?$allocator@D@std@@@std@@@std@@QAEAAU?$_Wrap_alloc@V?$allocator@D@std@@@2@XZ ENDP ; std::_String_alloc<std::_String_base_types<char,std::allocator<char> > >::_Getal
_TEXT	ENDS
; Function compile flags: /Odtp /RTCsu
; File d:\microsoft visual studio 14.0\vc\include\xstring
;	COMDAT ?_Orphan_all@?$_String_alloc@U?$_String_base_types@DV?$allocator@D@std@@@std@@@std@@QAEXXZ
_TEXT	SEGMENT
_this$ = -4						; size = 4
?_Orphan_all@?$_String_alloc@U?$_String_base_types@DV?$allocator@D@std@@@std@@@std@@QAEXXZ PROC ; std::_String_alloc<std::_String_base_types<char,std::allocator<char> > >::_Orphan_all, COMDAT
; _this$ = ecx

; 669  : 		{	// orphan all iterators

	push	ebp
	mov	ebp, esp
	push	ecx
	mov	DWORD PTR [ebp-4], -858993460		; ccccccccH
	mov	DWORD PTR _this$[ebp], ecx

; 670  : 		_Get_data()._Orphan_all();

	mov	ecx, DWORD PTR _this$[ebp]
	call	?_Get_data@?$_String_alloc@U?$_String_base_types@DV?$allocator@D@std@@@std@@@std@@QAEAAV?$_String_val@U?$_Simple_types@D@std@@@2@XZ ; std::_String_alloc<std::_String_base_types<char,std::allocator<char> > >::_Get_data
	mov	ecx, eax
	call	?_Orphan_all@_Container_base12@std@@QAEXXZ ; std::_Container_base12::_Orphan_all

; 671  : 		}

	add	esp, 4
	cmp	ebp, esp
	call	__RTC_CheckEsp
	mov	esp, ebp
	pop	ebp
	ret	0
?_Orphan_all@?$_String_alloc@U?$_String_base_types@DV?$allocator@D@std@@@std@@@std@@QAEXXZ ENDP ; std::_String_alloc<std::_String_base_types<char,std::allocator<char> > >::_Orphan_all
_TEXT	ENDS
; Function compile flags: /Odtp /RTCsu
; File d:\microsoft visual studio 14.0\vc\include\xstring
;	COMDAT ?_Myproxy@?$_String_alloc@U?$_String_base_types@DV?$allocator@D@std@@@std@@@std@@QAEAAPAU_Container_proxy@2@XZ
_TEXT	SEGMENT
_this$ = -4						; size = 4
?_Myproxy@?$_String_alloc@U?$_String_base_types@DV?$allocator@D@std@@@std@@@std@@QAEAAPAU_Container_proxy@2@XZ PROC ; std::_String_alloc<std::_String_base_types<char,std::allocator<char> > >::_Myproxy, COMDAT
; _this$ = ecx

; 658  : 		{	// return reference to _Myproxy

	push	ebp
	mov	ebp, esp
	push	ecx
	mov	DWORD PTR [ebp-4], -858993460		; ccccccccH
	mov	DWORD PTR _this$[ebp], ecx

; 659  : 		return (_Get_data()._Myproxy);

	mov	ecx, DWORD PTR _this$[ebp]
	call	?_Get_data@?$_String_alloc@U?$_String_base_types@DV?$allocator@D@std@@@std@@@std@@QAEAAV?$_String_val@U?$_Simple_types@D@std@@@2@XZ ; std::_String_alloc<std::_String_base_types<char,std::allocator<char> > >::_Get_data

; 660  : 		}

	add	esp, 4
	cmp	ebp, esp
	call	__RTC_CheckEsp
	mov	esp, ebp
	pop	ebp
	ret	0
?_Myproxy@?$_String_alloc@U?$_String_base_types@DV?$allocator@D@std@@@std@@@std@@QAEAAPAU_Container_proxy@2@XZ ENDP ; std::_String_alloc<std::_String_base_types<char,std::allocator<char> > >::_Myproxy
_TEXT	ENDS
; Function compile flags: /Odtp /RTCsu
; File d:\microsoft visual studio 14.0\vc\include\xstring
;	COMDAT ?_Free_proxy@?$_String_alloc@U?$_String_base_types@DV?$allocator@D@std@@@std@@@std@@QAEXXZ
_TEXT	SEGMENT
__Alproxy$ = -9						; size = 1
_this$ = -4						; size = 4
?_Free_proxy@?$_String_alloc@U?$_String_base_types@DV?$allocator@D@std@@@std@@@std@@QAEXXZ PROC ; std::_String_alloc<std::_String_base_types<char,std::allocator<char> > >::_Free_proxy, COMDAT
; _this$ = ecx

; 643  : 		{	// destroy proxy

	push	ebp
	mov	ebp, esp
	sub	esp, 16					; 00000010H
	mov	eax, -858993460				; ccccccccH
	mov	DWORD PTR [ebp-16], eax
	mov	DWORD PTR [ebp-12], eax
	mov	DWORD PTR [ebp-8], eax
	mov	DWORD PTR [ebp-4], eax
	mov	DWORD PTR _this$[ebp], ecx

; 644  : 		typename _Alty::template rebind<_Container_proxy>::other
; 645  : 			_Alproxy(_Getal());

	mov	ecx, DWORD PTR _this$[ebp]
	call	?_Getal@?$_String_alloc@U?$_String_base_types@DV?$allocator@D@std@@@std@@@std@@QAEAAU?$_Wrap_alloc@V?$allocator@D@std@@@2@XZ ; std::_String_alloc<std::_String_base_types<char,std::allocator<char> > >::_Getal
	push	eax
	lea	ecx, DWORD PTR __Alproxy$[ebp]
	call	??$?0U?$_Wrap_alloc@V?$allocator@D@std@@@std@@@?$_Wrap_alloc@V?$allocator@U_Container_proxy@std@@@std@@@std@@QAE@AAU?$_Wrap_alloc@V?$allocator@D@std@@@1@@Z ; std::_Wrap_alloc<std::allocator<std::_Container_proxy> >::_Wrap_alloc<std::allocator<std::_Container_proxy> ><std::_Wrap_alloc<std::allocator<char> > >

; 646  : 		_Orphan_all();

	mov	ecx, DWORD PTR _this$[ebp]
	call	?_Orphan_all@?$_String_alloc@U?$_String_base_types@DV?$allocator@D@std@@@std@@@std@@QAEXXZ ; std::_String_alloc<std::_String_base_types<char,std::allocator<char> > >::_Orphan_all

; 647  : 		_Alproxy.destroy(_Myproxy());

	mov	ecx, DWORD PTR _this$[ebp]
	call	?_Myproxy@?$_String_alloc@U?$_String_base_types@DV?$allocator@D@std@@@std@@@std@@QAEAAPAU_Container_proxy@2@XZ ; std::_String_alloc<std::_String_base_types<char,std::allocator<char> > >::_Myproxy
	mov	eax, DWORD PTR [eax]
	push	eax
	lea	ecx, DWORD PTR __Alproxy$[ebp]
	call	??$destroy@U_Container_proxy@std@@@?$_Wrap_alloc@V?$allocator@U_Container_proxy@std@@@std@@@std@@QAEXPAU_Container_proxy@1@@Z ; std::_Wrap_alloc<std::allocator<std::_Container_proxy> >::destroy<std::_Container_proxy>

; 648  : 		_Alproxy.deallocate(_Myproxy(), 1);

	push	1
	mov	ecx, DWORD PTR _this$[ebp]
	call	?_Myproxy@?$_String_alloc@U?$_String_base_types@DV?$allocator@D@std@@@std@@@std@@QAEAAPAU_Container_proxy@2@XZ ; std::_String_alloc<std::_String_base_types<char,std::allocator<char> > >::_Myproxy
	mov	ecx, DWORD PTR [eax]
	push	ecx
	lea	ecx, DWORD PTR __Alproxy$[ebp]
	call	?deallocate@?$_Wrap_alloc@V?$allocator@U_Container_proxy@std@@@std@@@std@@QAEXPAU_Container_proxy@2@I@Z ; std::_Wrap_alloc<std::allocator<std::_Container_proxy> >::deallocate

; 649  : 		_Myproxy() = 0;

	mov	ecx, DWORD PTR _this$[ebp]
	call	?_Myproxy@?$_String_alloc@U?$_String_base_types@DV?$allocator@D@std@@@std@@@std@@QAEAAPAU_Container_proxy@2@XZ ; std::_String_alloc<std::_String_base_types<char,std::allocator<char> > >::_Myproxy
	mov	DWORD PTR [eax], 0

; 650  : 		}

	push	edx
	mov	ecx, ebp
	push	eax
	lea	edx, DWORD PTR $LN5@Free_proxy
	call	@_RTC_CheckStackVars@8
	pop	eax
	pop	edx
	add	esp, 16					; 00000010H
	cmp	ebp, esp
	call	__RTC_CheckEsp
	mov	esp, ebp
	pop	ebp
	ret	0
$LN5@Free_proxy:
	DD	1
	DD	$LN4@Free_proxy
$LN4@Free_proxy:
	DD	-9					; fffffff7H
	DD	1
	DD	$LN3@Free_proxy
$LN3@Free_proxy:
	DB	95					; 0000005fH
	DB	65					; 00000041H
	DB	108					; 0000006cH
	DB	112					; 00000070H
	DB	114					; 00000072H
	DB	111					; 0000006fH
	DB	120					; 00000078H
	DB	121					; 00000079H
	DB	0
?_Free_proxy@?$_String_alloc@U?$_String_base_types@DV?$allocator@D@std@@@std@@@std@@QAEXXZ ENDP ; std::_String_alloc<std::_String_base_types<char,std::allocator<char> > >::_Free_proxy
_TEXT	ENDS
; Function compile flags: /Odtp /RTCsu
; File d:\microsoft visual studio 14.0\vc\include\xstring
;	COMDAT ?_Alloc_proxy@?$_String_alloc@U?$_String_base_types@DV?$allocator@D@std@@@std@@@std@@QAEXXZ
_TEXT	SEGMENT
$T1 = -24						; size = 8
__Alproxy$ = -9						; size = 1
_this$ = -4						; size = 4
?_Alloc_proxy@?$_String_alloc@U?$_String_base_types@DV?$allocator@D@std@@@std@@@std@@QAEXXZ PROC ; std::_String_alloc<std::_String_base_types<char,std::allocator<char> > >::_Alloc_proxy, COMDAT
; _this$ = ecx

; 634  : 		{	// construct proxy

	push	ebp
	mov	ebp, esp
	sub	esp, 24					; 00000018H
	push	esi
	mov	eax, -858993460				; ccccccccH
	mov	DWORD PTR [ebp-24], eax
	mov	DWORD PTR [ebp-20], eax
	mov	DWORD PTR [ebp-16], eax
	mov	DWORD PTR [ebp-12], eax
	mov	DWORD PTR [ebp-8], eax
	mov	DWORD PTR [ebp-4], eax
	mov	DWORD PTR _this$[ebp], ecx

; 635  : 		typename _Alty::template rebind<_Container_proxy>::other
; 636  : 			_Alproxy(_Getal());

	mov	ecx, DWORD PTR _this$[ebp]
	call	?_Getal@?$_String_alloc@U?$_String_base_types@DV?$allocator@D@std@@@std@@@std@@QAEAAU?$_Wrap_alloc@V?$allocator@D@std@@@2@XZ ; std::_String_alloc<std::_String_base_types<char,std::allocator<char> > >::_Getal
	push	eax
	lea	ecx, DWORD PTR __Alproxy$[ebp]
	call	??$?0U?$_Wrap_alloc@V?$allocator@D@std@@@std@@@?$_Wrap_alloc@V?$allocator@U_Container_proxy@std@@@std@@@std@@QAE@AAU?$_Wrap_alloc@V?$allocator@D@std@@@1@@Z ; std::_Wrap_alloc<std::allocator<std::_Container_proxy> >::_Wrap_alloc<std::allocator<std::_Container_proxy> ><std::_Wrap_alloc<std::allocator<char> > >

; 637  : 		_Myproxy() = _Alproxy.allocate(1);

	push	1
	lea	ecx, DWORD PTR __Alproxy$[ebp]
	call	?allocate@?$_Wrap_alloc@V?$allocator@U_Container_proxy@std@@@std@@@std@@QAEPAU_Container_proxy@2@I@Z ; std::_Wrap_alloc<std::allocator<std::_Container_proxy> >::allocate
	mov	esi, eax
	mov	ecx, DWORD PTR _this$[ebp]
	call	?_Myproxy@?$_String_alloc@U?$_String_base_types@DV?$allocator@D@std@@@std@@@std@@QAEAAPAU_Container_proxy@2@XZ ; std::_String_alloc<std::_String_base_types<char,std::allocator<char> > >::_Myproxy
	mov	DWORD PTR [eax], esi

; 638  : 		_Alproxy.construct(_Myproxy(), _Container_proxy());

	lea	ecx, DWORD PTR $T1[ebp]
	call	??0_Container_proxy@std@@QAE@XZ		; std::_Container_proxy::_Container_proxy
	push	eax
	mov	ecx, DWORD PTR _this$[ebp]
	call	?_Myproxy@?$_String_alloc@U?$_String_base_types@DV?$allocator@D@std@@@std@@@std@@QAEAAPAU_Container_proxy@2@XZ ; std::_String_alloc<std::_String_base_types<char,std::allocator<char> > >::_Myproxy
	mov	eax, DWORD PTR [eax]
	push	eax
	lea	ecx, DWORD PTR __Alproxy$[ebp]
	call	??$construct@U_Container_proxy@std@@U12@@?$_Wrap_alloc@V?$allocator@U_Container_proxy@std@@@std@@@std@@QAEXPAU_Container_proxy@1@$$QAU21@@Z ; std::_Wrap_alloc<std::allocator<std::_Container_proxy> >::construct<std::_Container_proxy,std::_Container_proxy>

; 639  : 		_Myproxy()->_Mycont = &_Get_data();

	mov	ecx, DWORD PTR _this$[ebp]
	call	?_Get_data@?$_String_alloc@U?$_String_base_types@DV?$allocator@D@std@@@std@@@std@@QAEAAV?$_String_val@U?$_Simple_types@D@std@@@2@XZ ; std::_String_alloc<std::_String_base_types<char,std::allocator<char> > >::_Get_data
	mov	esi, eax
	mov	ecx, DWORD PTR _this$[ebp]
	call	?_Myproxy@?$_String_alloc@U?$_String_base_types@DV?$allocator@D@std@@@std@@@std@@QAEAAPAU_Container_proxy@2@XZ ; std::_String_alloc<std::_String_base_types<char,std::allocator<char> > >::_Myproxy
	mov	ecx, DWORD PTR [eax]
	mov	DWORD PTR [ecx], esi

; 640  : 		}

	push	edx
	mov	ecx, ebp
	push	eax
	lea	edx, DWORD PTR $LN5@Alloc_prox
	call	@_RTC_CheckStackVars@8
	pop	eax
	pop	edx
	pop	esi
	add	esp, 24					; 00000018H
	cmp	ebp, esp
	call	__RTC_CheckEsp
	mov	esp, ebp
	pop	ebp
	ret	0
	npad	2
$LN5@Alloc_prox:
	DD	1
	DD	$LN4@Alloc_prox
$LN4@Alloc_prox:
	DD	-9					; fffffff7H
	DD	1
	DD	$LN3@Alloc_prox
$LN3@Alloc_prox:
	DB	95					; 0000005fH
	DB	65					; 00000041H
	DB	108					; 0000006cH
	DB	112					; 00000070H
	DB	114					; 00000072H
	DB	111					; 0000006fH
	DB	120					; 00000078H
	DB	121					; 00000079H
	DB	0
?_Alloc_proxy@?$_String_alloc@U?$_String_base_types@DV?$allocator@D@std@@@std@@@std@@QAEXXZ ENDP ; std::_String_alloc<std::_String_base_types<char,std::allocator<char> > >::_Alloc_proxy
_TEXT	ENDS
; Function compile flags: /Odtp /RTCsu
; File d:\microsoft visual studio 14.0\vc\include\xstring
;	COMDAT ??1?$_String_alloc@U?$_String_base_types@DV?$allocator@D@std@@@std@@@std@@QAE@XZ
_TEXT	SEGMENT
_this$ = -16						; size = 4
__$EHRec$ = -12						; size = 12
??1?$_String_alloc@U?$_String_base_types@DV?$allocator@D@std@@@std@@@std@@QAE@XZ PROC ; std::_String_alloc<std::_String_base_types<char,std::allocator<char> > >::~_String_alloc<std::_String_base_types<char,std::allocator<char> > >, COMDAT
; _this$ = ecx

; 609  : 		{	// destroy the object

	push	ebp
	mov	ebp, esp
	push	-1
	push	__ehhandler$??1?$_String_alloc@U?$_String_base_types@DV?$allocator@D@std@@@std@@@std@@QAE@XZ
	mov	eax, DWORD PTR fs:0
	push	eax
	push	ecx
	mov	DWORD PTR [ebp-16], -858993460		; ccccccccH
	mov	eax, DWORD PTR ___security_cookie
	xor	eax, ebp
	push	eax
	lea	eax, DWORD PTR __$EHRec$[ebp]
	mov	DWORD PTR fs:0, eax
	mov	DWORD PTR _this$[ebp], ecx

; 610  : 		_Free_proxy();

	mov	ecx, DWORD PTR _this$[ebp]
	call	?_Free_proxy@?$_String_alloc@U?$_String_base_types@DV?$allocator@D@std@@@std@@@std@@QAEXXZ ; std::_String_alloc<std::_String_base_types<char,std::allocator<char> > >::_Free_proxy

; 611  : 		}

	mov	ecx, DWORD PTR _this$[ebp]
	call	??1?$_Compressed_pair@U?$_Wrap_alloc@V?$allocator@D@std@@@std@@V?$_String_val@U?$_Simple_types@D@std@@@2@$00@std@@QAE@XZ
	mov	ecx, DWORD PTR __$EHRec$[ebp]
	mov	DWORD PTR fs:0, ecx
	pop	ecx
	add	esp, 16					; 00000010H
	cmp	ebp, esp
	call	__RTC_CheckEsp
	mov	esp, ebp
	pop	ebp
	ret	0
_TEXT	ENDS
;	COMDAT text$x
text$x	SEGMENT
__ehhandler$??1?$_String_alloc@U?$_String_base_types@DV?$allocator@D@std@@@std@@@std@@QAE@XZ:
	mov	edx, DWORD PTR [esp+8]
	lea	eax, DWORD PTR [edx+12]
	mov	ecx, DWORD PTR [edx-8]
	xor	ecx, eax
	call	@__security_check_cookie@4
	mov	eax, OFFSET __ehfuncinfo$??1?$_String_alloc@U?$_String_base_types@DV?$allocator@D@std@@@std@@@std@@QAE@XZ
	jmp	___CxxFrameHandler3
text$x	ENDS
??1?$_String_alloc@U?$_String_base_types@DV?$allocator@D@std@@@std@@@std@@QAE@XZ ENDP ; std::_String_alloc<std::_String_base_types<char,std::allocator<char> > >::~_String_alloc<std::_String_base_types<char,std::allocator<char> > >
; Function compile flags: /Odtp /RTCsu
; File d:\microsoft visual studio 14.0\vc\include\xstring
;	COMDAT ??0?$_String_alloc@U?$_String_base_types@DV?$allocator@D@std@@@std@@@std@@QAE@ABV?$allocator@D@1@@Z
_TEXT	SEGMENT
$T2 = -17						; size = 1
_this$ = -16						; size = 4
__$EHRec$ = -12						; size = 12
__Al$ = 8						; size = 4
??0?$_String_alloc@U?$_String_base_types@DV?$allocator@D@std@@@std@@@std@@QAE@ABV?$allocator@D@1@@Z PROC ; std::_String_alloc<std::_String_base_types<char,std::allocator<char> > >::_String_alloc<std::_String_base_types<char,std::allocator<char> > >, COMDAT
; _this$ = ecx

; 598  : 		{	// construct allocator from _Al

	push	ebp
	mov	ebp, esp
	push	-1
	push	__ehhandler$??0?$_String_alloc@U?$_String_base_types@DV?$allocator@D@std@@@std@@@std@@QAE@ABV?$allocator@D@1@@Z
	mov	eax, DWORD PTR fs:0
	push	eax
	sub	esp, 8
	mov	DWORD PTR [ebp-20], -858993460		; ccccccccH
	mov	DWORD PTR [ebp-16], -858993460		; ccccccccH
	mov	eax, DWORD PTR ___security_cookie
	xor	eax, ebp
	push	eax
	lea	eax, DWORD PTR __$EHRec$[ebp]
	mov	DWORD PTR fs:0, eax
	mov	DWORD PTR _this$[ebp], ecx

; 597  : 		: _Mypair(_One_then_variadic_args_t(), _Al)

	mov	eax, DWORD PTR __Al$[ebp]
	push	eax
	movzx	ecx, BYTE PTR $T2[ebp]
	push	ecx
	mov	ecx, DWORD PTR _this$[ebp]
	call	??$?0ABV?$allocator@D@std@@$$V@?$_Compressed_pair@U?$_Wrap_alloc@V?$allocator@D@std@@@std@@V?$_String_val@U?$_Simple_types@D@std@@@2@$00@std@@QAE@U_One_then_variadic_args_t@1@ABV?$allocator@D@1@@Z ; std::_Compressed_pair<std::_Wrap_alloc<std::allocator<char> >,std::_String_val<std::_Simple_types<char> >,1>::_Compressed_pair<std::_Wrap_alloc<std::allocator<char> >,std::_String_val<std::_Simple_types<char> >,1><std::allocator<char> const &>
	mov	DWORD PTR __$EHRec$[ebp+8], 0

; 599  : 		_Alloc_proxy();

	mov	ecx, DWORD PTR _this$[ebp]
	call	?_Alloc_proxy@?$_String_alloc@U?$_String_base_types@DV?$allocator@D@std@@@std@@@std@@QAEXXZ ; std::_String_alloc<std::_String_base_types<char,std::allocator<char> > >::_Alloc_proxy

; 600  : 		}

	mov	DWORD PTR __$EHRec$[ebp+8], -1
	mov	eax, DWORD PTR _this$[ebp]
	mov	ecx, DWORD PTR __$EHRec$[ebp]
	mov	DWORD PTR fs:0, ecx
	pop	ecx
	add	esp, 20					; 00000014H
	cmp	ebp, esp
	call	__RTC_CheckEsp
	mov	esp, ebp
	pop	ebp
	ret	4
_TEXT	ENDS
;	COMDAT text$x
text$x	SEGMENT
__unwindfunclet$??0?$_String_alloc@U?$_String_base_types@DV?$allocator@D@std@@@std@@@std@@QAE@ABV?$allocator@D@1@@Z$0:
	mov	ecx, DWORD PTR _this$[ebp]
	jmp	??1?$_Compressed_pair@U?$_Wrap_alloc@V?$allocator@D@std@@@std@@V?$_String_val@U?$_Simple_types@D@std@@@2@$00@std@@QAE@XZ
__ehhandler$??0?$_String_alloc@U?$_String_base_types@DV?$allocator@D@std@@@std@@@std@@QAE@ABV?$allocator@D@1@@Z:
	mov	edx, DWORD PTR [esp+8]
	lea	eax, DWORD PTR [edx+12]
	mov	ecx, DWORD PTR [edx-12]
	xor	ecx, eax
	call	@__security_check_cookie@4
	mov	eax, OFFSET __ehfuncinfo$??0?$_String_alloc@U?$_String_base_types@DV?$allocator@D@std@@@std@@@std@@QAE@ABV?$allocator@D@1@@Z
	jmp	___CxxFrameHandler3
text$x	ENDS
??0?$_String_alloc@U?$_String_base_types@DV?$allocator@D@std@@@std@@@std@@QAE@ABV?$allocator@D@1@@Z ENDP ; std::_String_alloc<std::_String_base_types<char,std::allocator<char> > >::_String_alloc<std::_String_base_types<char,std::allocator<char> > >
; Function compile flags: /Odtp /RTCsu
; File d:\microsoft visual studio 14.0\vc\include\xstring
;	COMDAT ?_Myptr@?$_String_alloc@U?$_String_base_types@DV?$allocator@D@std@@@std@@@std@@QBEPBDXZ
_TEXT	SEGMENT
_this$ = -4						; size = 4
?_Myptr@?$_String_alloc@U?$_String_base_types@DV?$allocator@D@std@@@std@@@std@@QBEPBDXZ PROC ; std::_String_alloc<std::_String_base_types<char,std::allocator<char> > >::_Myptr, COMDAT
; _this$ = ecx

; 565  : 		{	// determine current pointer to buffer for nonmutable string

	push	ebp
	mov	ebp, esp
	push	ecx
	mov	DWORD PTR [ebp-4], -858993460		; ccccccccH
	mov	DWORD PTR _this$[ebp], ecx

; 566  : 		return (_Get_data()._Myptr());

	mov	ecx, DWORD PTR _this$[ebp]
	call	?_Get_data@?$_String_alloc@U?$_String_base_types@DV?$allocator@D@std@@@std@@@std@@QBEABV?$_String_val@U?$_Simple_types@D@std@@@2@XZ ; std::_String_alloc<std::_String_base_types<char,std::allocator<char> > >::_Get_data
	mov	ecx, eax
	call	?_Myptr@?$_String_val@U?$_Simple_types@D@std@@@std@@QBEPBDXZ ; std::_String_val<std::_Simple_types<char> >::_Myptr

; 567  : 		}

	add	esp, 4
	cmp	ebp, esp
	call	__RTC_CheckEsp
	mov	esp, ebp
	pop	ebp
	ret	0
?_Myptr@?$_String_alloc@U?$_String_base_types@DV?$allocator@D@std@@@std@@@std@@QBEPBDXZ ENDP ; std::_String_alloc<std::_String_base_types<char,std::allocator<char> > >::_Myptr
_TEXT	ENDS
; Function compile flags: /Odtp /RTCsu
; File d:\microsoft visual studio 14.0\vc\include\xstring
;	COMDAT ?_Myptr@?$_String_alloc@U?$_String_base_types@DV?$allocator@D@std@@@std@@@std@@QAEPADXZ
_TEXT	SEGMENT
_this$ = -4						; size = 4
?_Myptr@?$_String_alloc@U?$_String_base_types@DV?$allocator@D@std@@@std@@@std@@QAEPADXZ PROC ; std::_String_alloc<std::_String_base_types<char,std::allocator<char> > >::_Myptr, COMDAT
; _this$ = ecx

; 560  : 		{	// determine current pointer to buffer for mutable string

	push	ebp
	mov	ebp, esp
	push	ecx
	mov	DWORD PTR [ebp-4], -858993460		; ccccccccH
	mov	DWORD PTR _this$[ebp], ecx

; 561  : 		return (_Get_data()._Myptr());

	mov	ecx, DWORD PTR _this$[ebp]
	call	?_Get_data@?$_String_alloc@U?$_String_base_types@DV?$allocator@D@std@@@std@@@std@@QAEAAV?$_String_val@U?$_Simple_types@D@std@@@2@XZ ; std::_String_alloc<std::_String_base_types<char,std::allocator<char> > >::_Get_data
	mov	ecx, eax
	call	?_Myptr@?$_String_val@U?$_Simple_types@D@std@@@std@@QAEPADXZ ; std::_String_val<std::_Simple_types<char> >::_Myptr

; 562  : 		}

	add	esp, 4
	cmp	ebp, esp
	call	__RTC_CheckEsp
	mov	esp, ebp
	pop	ebp
	ret	0
?_Myptr@?$_String_alloc@U?$_String_base_types@DV?$allocator@D@std@@@std@@@std@@QAEPADXZ ENDP ; std::_String_alloc<std::_String_base_types<char,std::allocator<char> > >::_Myptr
_TEXT	ENDS
; Function compile flags: /Odtp /RTCsu
;	COMDAT ??1?$_String_val@U?$_Simple_types@D@std@@@std@@QAE@XZ
_TEXT	SEGMENT
_this$ = -4						; size = 4
??1?$_String_val@U?$_Simple_types@D@std@@@std@@QAE@XZ PROC ; std::_String_val<std::_Simple_types<char> >::~_String_val<std::_Simple_types<char> >, COMDAT
; _this$ = ecx
	push	ebp
	mov	ebp, esp
	push	ecx
	mov	DWORD PTR [ebp-4], -858993460		; ccccccccH
	mov	DWORD PTR _this$[ebp], ecx
	mov	ecx, DWORD PTR _this$[ebp]
	call	??1_Container_base12@std@@QAE@XZ	; std::_Container_base12::~_Container_base12
	add	esp, 4
	cmp	ebp, esp
	call	__RTC_CheckEsp
	mov	esp, ebp
	pop	ebp
	ret	0
??1?$_String_val@U?$_Simple_types@D@std@@@std@@QAE@XZ ENDP ; std::_String_val<std::_Simple_types<char> >::~_String_val<std::_Simple_types<char> >
_TEXT	ENDS
; Function compile flags: /Odtp /RTCsu
; File d:\microsoft visual studio 14.0\vc\include\xstring
;	COMDAT ?_Myptr@?$_String_val@U?$_Simple_types@D@std@@@std@@QBEPBDXZ
_TEXT	SEGMENT
tv72 = -8						; size = 4
_this$ = -4						; size = 4
?_Myptr@?$_String_val@U?$_Simple_types@D@std@@@std@@QBEPBDXZ PROC ; std::_String_val<std::_Simple_types<char> >::_Myptr, COMDAT
; _this$ = ecx

; 511  : 		{	// determine current pointer to buffer for nonmutable string

	push	ebp
	mov	ebp, esp
	sub	esp, 8
	mov	DWORD PTR [ebp-8], -858993460		; ccccccccH
	mov	DWORD PTR [ebp-4], -858993460		; ccccccccH
	mov	DWORD PTR _this$[ebp], ecx

; 512  : 		return (this->_BUF_SIZE <= this->_Myres

	mov	eax, DWORD PTR _this$[ebp]
	cmp	DWORD PTR [eax+24], 16			; 00000010H
	jb	SHORT $LN3@Myptr
	mov	ecx, DWORD PTR _this$[ebp]
	mov	edx, DWORD PTR [ecx+4]
	push	edx
	call	??$addressof@D@std@@YAPADAAD@Z		; std::addressof<char>
	add	esp, 4
	mov	DWORD PTR tv72[ebp], eax
	jmp	SHORT $LN4@Myptr
$LN3@Myptr:
	mov	eax, DWORD PTR _this$[ebp]
	add	eax, 4
	mov	DWORD PTR tv72[ebp], eax
$LN4@Myptr:
	mov	eax, DWORD PTR tv72[ebp]

; 513  : 			? _STD addressof(*this->_Bx._Ptr)
; 514  : 			: this->_Bx._Buf);
; 515  : 		}

	add	esp, 8
	cmp	ebp, esp
	call	__RTC_CheckEsp
	mov	esp, ebp
	pop	ebp
	ret	0
?_Myptr@?$_String_val@U?$_Simple_types@D@std@@@std@@QBEPBDXZ ENDP ; std::_String_val<std::_Simple_types<char> >::_Myptr
_TEXT	ENDS
; Function compile flags: /Odtp /RTCsu
; File d:\microsoft visual studio 14.0\vc\include\xstring
;	COMDAT ?_Myptr@?$_String_val@U?$_Simple_types@D@std@@@std@@QAEPADXZ
_TEXT	SEGMENT
tv72 = -8						; size = 4
_this$ = -4						; size = 4
?_Myptr@?$_String_val@U?$_Simple_types@D@std@@@std@@QAEPADXZ PROC ; std::_String_val<std::_Simple_types<char> >::_Myptr, COMDAT
; _this$ = ecx

; 504  : 		{	// determine current pointer to buffer for mutable string

	push	ebp
	mov	ebp, esp
	sub	esp, 8
	mov	DWORD PTR [ebp-8], -858993460		; ccccccccH
	mov	DWORD PTR [ebp-4], -858993460		; ccccccccH
	mov	DWORD PTR _this$[ebp], ecx

; 505  : 		return (this->_BUF_SIZE <= this->_Myres

	mov	eax, DWORD PTR _this$[ebp]
	cmp	DWORD PTR [eax+24], 16			; 00000010H
	jb	SHORT $LN3@Myptr
	mov	ecx, DWORD PTR _this$[ebp]
	mov	edx, DWORD PTR [ecx+4]
	push	edx
	call	??$addressof@D@std@@YAPADAAD@Z		; std::addressof<char>
	add	esp, 4
	mov	DWORD PTR tv72[ebp], eax
	jmp	SHORT $LN4@Myptr
$LN3@Myptr:
	mov	eax, DWORD PTR _this$[ebp]
	add	eax, 4
	mov	DWORD PTR tv72[ebp], eax
$LN4@Myptr:
	mov	eax, DWORD PTR tv72[ebp]

; 506  : 			? _STD addressof(*this->_Bx._Ptr)
; 507  : 			: this->_Bx._Buf);
; 508  : 		}

	add	esp, 8
	cmp	ebp, esp
	call	__RTC_CheckEsp
	mov	esp, ebp
	pop	ebp
	ret	0
?_Myptr@?$_String_val@U?$_Simple_types@D@std@@@std@@QAEPADXZ ENDP ; std::_String_val<std::_Simple_types<char> >::_Myptr
_TEXT	ENDS
; Function compile flags: /Odtp /RTCsu
; File d:\microsoft visual studio 14.0\vc\include\xstring
;	COMDAT ??0?$_String_val@U?$_Simple_types@D@std@@@std@@QAE@XZ
_TEXT	SEGMENT
_this$ = -4						; size = 4
??0?$_String_val@U?$_Simple_types@D@std@@@std@@QAE@XZ PROC ; std::_String_val<std::_Simple_types<char> >::_String_val<std::_Simple_types<char> >, COMDAT
; _this$ = ecx

; 486  : 	_String_val()

	push	ebp
	mov	ebp, esp
	push	ecx
	mov	DWORD PTR [ebp-4], -858993460		; ccccccccH
	mov	DWORD PTR _this$[ebp], ecx

; 487  : 		{	// initialize values

	mov	ecx, DWORD PTR _this$[ebp]
	call	??0_Container_base12@std@@QAE@XZ	; std::_Container_base12::_Container_base12

; 488  : 		_Mysize = 0;

	mov	eax, DWORD PTR _this$[ebp]
	mov	DWORD PTR [eax+20], 0

; 489  : 		_Myres = 0;

	mov	ecx, DWORD PTR _this$[ebp]
	mov	DWORD PTR [ecx+24], 0

; 490  : 		}

	mov	eax, DWORD PTR _this$[ebp]
	add	esp, 4
	cmp	ebp, esp
	call	__RTC_CheckEsp
	mov	esp, ebp
	pop	ebp
	ret	0
??0?$_String_val@U?$_Simple_types@D@std@@@std@@QAE@XZ ENDP ; std::_String_val<std::_Simple_types<char> >::_String_val<std::_Simple_types<char> >
_TEXT	ENDS
; Function compile flags: /Odtp /RTCsu
; File d:\microsoft visual studio 14.0\vc\include\xmemory0
;	COMDAT ?max_size@?$_Wrap_alloc@V?$allocator@D@std@@@std@@QBEIU_Nil@2@@Z
_TEXT	SEGMENT
_this$ = -4						; size = 4
___formal$ = 8						; size = 1
?max_size@?$_Wrap_alloc@V?$allocator@D@std@@@std@@QBEIU_Nil@2@@Z PROC ; std::_Wrap_alloc<std::allocator<char> >::max_size, COMDAT
; _this$ = ecx

; 931  : 		{	// get maximum size

	push	ebp
	mov	ebp, esp
	push	ecx
	mov	DWORD PTR [ebp-4], -858993460		; ccccccccH
	mov	DWORD PTR _this$[ebp], ecx

; 932  : 		return (_Mytraits::max_size(*this));

	mov	eax, DWORD PTR _this$[ebp]
	push	eax
	call	?max_size@?$allocator_traits@V?$allocator@D@std@@@std@@SAIABV?$allocator@D@2@@Z ; std::allocator_traits<std::allocator<char> >::max_size
	add	esp, 4

; 933  : 		}

	add	esp, 4
	cmp	ebp, esp
	call	__RTC_CheckEsp
	mov	esp, ebp
	pop	ebp
	ret	4
?max_size@?$_Wrap_alloc@V?$allocator@D@std@@@std@@QBEIU_Nil@2@@Z ENDP ; std::_Wrap_alloc<std::allocator<char> >::max_size
_TEXT	ENDS
; Function compile flags: /Odtp /RTCsu
; File d:\microsoft visual studio 14.0\vc\include\xmemory0
;	COMDAT ?deallocate@?$_Wrap_alloc@V?$allocator@D@std@@@std@@QAEXPADI@Z
_TEXT	SEGMENT
_this$ = -4						; size = 4
__Ptr$ = 8						; size = 4
__Count$ = 12						; size = 4
?deallocate@?$_Wrap_alloc@V?$allocator@D@std@@@std@@QAEXPADI@Z PROC ; std::_Wrap_alloc<std::allocator<char> >::deallocate, COMDAT
; _this$ = ecx

; 910  : 		{	// deallocate object at _Ptr, ignore size

	push	ebp
	mov	ebp, esp
	push	ecx
	mov	DWORD PTR [ebp-4], -858993460		; ccccccccH
	mov	DWORD PTR _this$[ebp], ecx

; 911  : 		_Mybase::deallocate(_Ptr, _Count);

	mov	eax, DWORD PTR __Count$[ebp]
	push	eax
	mov	ecx, DWORD PTR __Ptr$[ebp]
	push	ecx
	mov	ecx, DWORD PTR _this$[ebp]
	call	?deallocate@?$allocator@D@std@@QAEXPADI@Z ; std::allocator<char>::deallocate

; 912  : 		}

	add	esp, 4
	cmp	ebp, esp
	call	__RTC_CheckEsp
	mov	esp, ebp
	pop	ebp
	ret	8
?deallocate@?$_Wrap_alloc@V?$allocator@D@std@@@std@@QAEXPADI@Z ENDP ; std::_Wrap_alloc<std::allocator<char> >::deallocate
_TEXT	ENDS
; Function compile flags: /Odtp /RTCsu
; File d:\microsoft visual studio 14.0\vc\include\xmemory0
;	COMDAT ?allocate@?$_Wrap_alloc@V?$allocator@D@std@@@std@@QAEPADI@Z
_TEXT	SEGMENT
_this$ = -4						; size = 4
__Count$ = 8						; size = 4
?allocate@?$_Wrap_alloc@V?$allocator@D@std@@@std@@QAEPADI@Z PROC ; std::_Wrap_alloc<std::allocator<char> >::allocate, COMDAT
; _this$ = ecx

; 899  : 		{	// allocate array of _Count elements

	push	ebp
	mov	ebp, esp
	push	ecx
	mov	DWORD PTR [ebp-4], -858993460		; ccccccccH
	mov	DWORD PTR _this$[ebp], ecx

; 900  : 		return (_Mybase::allocate(_Count));

	mov	eax, DWORD PTR __Count$[ebp]
	push	eax
	mov	ecx, DWORD PTR _this$[ebp]
	call	?allocate@?$allocator@D@std@@QAEPADI@Z	; std::allocator<char>::allocate

; 901  : 		}

	add	esp, 4
	cmp	ebp, esp
	call	__RTC_CheckEsp
	mov	esp, ebp
	pop	ebp
	ret	4
?allocate@?$_Wrap_alloc@V?$allocator@D@std@@@std@@QAEPADI@Z ENDP ; std::_Wrap_alloc<std::allocator<char> >::allocate
_TEXT	ENDS
; Function compile flags: /Odtp /RTCsu
; File d:\microsoft visual studio 14.0\vc\include\xmemory0
;	COMDAT ??0?$_Wrap_alloc@V?$allocator@D@std@@@std@@QAE@ABV?$allocator@D@1@@Z
_TEXT	SEGMENT
_this$ = -4						; size = 4
__Right$ = 8						; size = 4
??0?$_Wrap_alloc@V?$allocator@D@std@@@std@@QAE@ABV?$allocator@D@1@@Z PROC ; std::_Wrap_alloc<std::allocator<char> >::_Wrap_alloc<std::allocator<char> >, COMDAT
; _this$ = ecx

; 859  : 		{	// construct by copying base

	push	ebp
	mov	ebp, esp
	push	ecx
	mov	DWORD PTR [ebp-4], -858993460		; ccccccccH
	mov	DWORD PTR _this$[ebp], ecx

; 858  : 		: _Mybase(_Right)

	mov	eax, DWORD PTR __Right$[ebp]
	push	eax
	mov	ecx, DWORD PTR _this$[ebp]
	call	??0?$allocator@D@std@@QAE@ABV01@@Z	; std::allocator<char>::allocator<char>

; 860  : 		}

	mov	eax, DWORD PTR _this$[ebp]
	add	esp, 4
	cmp	ebp, esp
	call	__RTC_CheckEsp
	mov	esp, ebp
	pop	ebp
	ret	4
??0?$_Wrap_alloc@V?$allocator@D@std@@@std@@QAE@ABV?$allocator@D@1@@Z ENDP ; std::_Wrap_alloc<std::allocator<char> >::_Wrap_alloc<std::allocator<char> >
_TEXT	ENDS
; Function compile flags: /Odtp /RTCsu
; File d:\microsoft visual studio 14.0\vc\include\xmemory0
;	COMDAT ?max_size@?$allocator_traits@V?$allocator@D@std@@@std@@SAIABV?$allocator@D@2@@Z
_TEXT	SEGMENT
__Al$ = 8						; size = 4
?max_size@?$allocator_traits@V?$allocator@D@std@@@std@@SAIABV?$allocator@D@2@@Z PROC ; std::allocator_traits<std::allocator<char> >::max_size, COMDAT

; 786  : 		{	// get maximum size

	push	ebp
	mov	ebp, esp

; 787  : 		return (_Al.max_size());

	mov	ecx, DWORD PTR __Al$[ebp]
	call	?max_size@?$allocator@D@std@@QBEIXZ	; std::allocator<char>::max_size

; 788  : 		}

	cmp	ebp, esp
	call	__RTC_CheckEsp
	pop	ebp
	ret	0
?max_size@?$allocator_traits@V?$allocator@D@std@@@std@@SAIABV?$allocator@D@2@@Z ENDP ; std::allocator_traits<std::allocator<char> >::max_size
_TEXT	ENDS
; Function compile flags: /Odtp /RTCsu
; File d:\microsoft visual studio 14.0\vc\include\xmemory0
;	COMDAT ?max_size@?$allocator@D@std@@QBEIXZ
_TEXT	SEGMENT
_this$ = -4						; size = 4
?max_size@?$allocator@D@std@@QBEIXZ PROC		; std::allocator<char>::max_size, COMDAT
; _this$ = ecx

; 668  : 		{	// estimate maximum array size

	push	ebp
	mov	ebp, esp
	push	ecx
	mov	DWORD PTR [ebp-4], -858993460		; ccccccccH
	mov	DWORD PTR _this$[ebp], ecx

; 669  : 		return ((size_t)(-1) / sizeof (_Ty));

	or	eax, -1

; 670  : 		}

	mov	esp, ebp
	pop	ebp
	ret	0
?max_size@?$allocator@D@std@@QBEIXZ ENDP		; std::allocator<char>::max_size
_TEXT	ENDS
; Function compile flags: /Odtp /RTCsu
; File d:\microsoft visual studio 14.0\vc\include\xmemory0
;	COMDAT ?allocate@?$allocator@D@std@@QAEPADI@Z
_TEXT	SEGMENT
_this$ = -4						; size = 4
__Count$ = 8						; size = 4
?allocate@?$allocator@D@std@@QAEPADI@Z PROC		; std::allocator<char>::allocate, COMDAT
; _this$ = ecx

; 644  : 		{	// allocate array of _Count elements

	push	ebp
	mov	ebp, esp
	push	ecx
	mov	DWORD PTR [ebp-4], -858993460		; ccccccccH
	mov	DWORD PTR _this$[ebp], ecx

; 645  : 		return (_Allocate(_Count, (pointer)0));

	push	1
	push	0
	mov	eax, DWORD PTR __Count$[ebp]
	push	eax
	call	??$_Allocate@D@std@@YAPADIPAD_N@Z	; std::_Allocate<char>
	add	esp, 12					; 0000000cH

; 646  : 		}

	add	esp, 4
	cmp	ebp, esp
	call	__RTC_CheckEsp
	mov	esp, ebp
	pop	ebp
	ret	4
?allocate@?$allocator@D@std@@QAEPADI@Z ENDP		; std::allocator<char>::allocate
_TEXT	ENDS
; Function compile flags: /Odtp /RTCsu
; File d:\microsoft visual studio 14.0\vc\include\xmemory0
;	COMDAT ?deallocate@?$allocator@D@std@@QAEXPADI@Z
_TEXT	SEGMENT
_this$ = -4						; size = 4
__Ptr$ = 8						; size = 4
__Count$ = 12						; size = 4
?deallocate@?$allocator@D@std@@QAEXPADI@Z PROC		; std::allocator<char>::deallocate, COMDAT
; _this$ = ecx

; 639  : 		{	// deallocate object at _Ptr

	push	ebp
	mov	ebp, esp
	push	ecx
	mov	DWORD PTR [ebp-4], -858993460		; ccccccccH
	mov	DWORD PTR _this$[ebp], ecx

; 640  : 		_Deallocate(_Ptr, _Count);

	mov	eax, DWORD PTR __Count$[ebp]
	push	eax
	mov	ecx, DWORD PTR __Ptr$[ebp]
	push	ecx
	call	??$_Deallocate@D@std@@YAXPADI@Z		; std::_Deallocate<char>
	add	esp, 8

; 641  : 		}

	add	esp, 4
	cmp	ebp, esp
	call	__RTC_CheckEsp
	mov	esp, ebp
	pop	ebp
	ret	8
?deallocate@?$allocator@D@std@@QAEXPADI@Z ENDP		; std::allocator<char>::deallocate
_TEXT	ENDS
; Function compile flags: /Odtp /RTCsu
; File d:\microsoft visual studio 14.0\vc\include\xmemory0
;	COMDAT ??0?$allocator@D@std@@QAE@ABV01@@Z
_TEXT	SEGMENT
_this$ = -4						; size = 4
___formal$ = 8						; size = 4
??0?$allocator@D@std@@QAE@ABV01@@Z PROC			; std::allocator<char>::allocator<char>, COMDAT
; _this$ = ecx

; 623  : 	allocator(const allocator<_Ty>&) _THROW0()

	push	ebp
	mov	ebp, esp
	push	ecx
	mov	DWORD PTR [ebp-4], -858993460		; ccccccccH
	mov	DWORD PTR _this$[ebp], ecx

; 624  : 		{	// construct by copying (do nothing)
; 625  : 		}

	mov	eax, DWORD PTR _this$[ebp]
	mov	esp, ebp
	pop	ebp
	ret	4
??0?$allocator@D@std@@QAE@ABV01@@Z ENDP			; std::allocator<char>::allocator<char>
_TEXT	ENDS
; Function compile flags: /Odtp /RTCsu
; File d:\microsoft visual studio 14.0\vc\include\xmemory0
;	COMDAT ??0?$allocator@D@std@@QAE@XZ
_TEXT	SEGMENT
_this$ = -4						; size = 4
??0?$allocator@D@std@@QAE@XZ PROC			; std::allocator<char>::allocator<char>, COMDAT
; _this$ = ecx

; 619  : 	allocator() _THROW0()

	push	ebp
	mov	ebp, esp
	push	ecx
	mov	DWORD PTR [ebp-4], -858993460		; ccccccccH
	mov	DWORD PTR _this$[ebp], ecx

; 620  : 		{	// construct default allocator (do nothing)
; 621  : 		}

	mov	eax, DWORD PTR _this$[ebp]
	mov	esp, ebp
	pop	ebp
	ret	0
??0?$allocator@D@std@@QAE@XZ ENDP			; std::allocator<char>::allocator<char>
_TEXT	ENDS
; Function compile flags: /Odtp /RTCsu
; File d:\microsoft visual studio 14.0\vc\include\xutility
;	COMDAT ?_Orphan_me@_Iterator_base12@std@@QAEXXZ
_TEXT	SEGMENT
__Pnext$1 = -8						; size = 4
_this$ = -4						; size = 4
?_Orphan_me@_Iterator_base12@std@@QAEXXZ PROC		; std::_Iterator_base12::_Orphan_me, COMDAT
; _this$ = ecx

; 192  : 		{	// cut ties with parent

	push	ebp
	mov	ebp, esp
	sub	esp, 8
	mov	DWORD PTR [ebp-8], -858993460		; ccccccccH
	mov	DWORD PTR [ebp-4], -858993460		; ccccccccH
	mov	DWORD PTR _this$[ebp], ecx

; 193  :  #if _ITERATOR_DEBUG_LEVEL == 2
; 194  : 		if (_Myproxy != 0)

	mov	eax, DWORD PTR _this$[ebp]
	cmp	DWORD PTR [eax], 0
	je	SHORT $LN1@Orphan_me

; 195  : 			{	// adopted, remove self from list
; 196  : 			_Iterator_base12 **_Pnext = &_Myproxy->_Myfirstiter;

	mov	ecx, DWORD PTR _this$[ebp]
	mov	edx, DWORD PTR [ecx]
	add	edx, 4
	mov	DWORD PTR __Pnext$1[ebp], edx
$LN2@Orphan_me:

; 197  : 			while (*_Pnext != 0 && *_Pnext != this)

	mov	eax, DWORD PTR __Pnext$1[ebp]
	cmp	DWORD PTR [eax], 0
	je	SHORT $LN3@Orphan_me
	mov	ecx, DWORD PTR __Pnext$1[ebp]
	mov	edx, DWORD PTR [ecx]
	cmp	edx, DWORD PTR _this$[ebp]
	je	SHORT $LN3@Orphan_me

; 198  : 				_Pnext = &(*_Pnext)->_Mynextiter;

	mov	eax, DWORD PTR __Pnext$1[ebp]
	mov	ecx, DWORD PTR [eax]
	add	ecx, 4
	mov	DWORD PTR __Pnext$1[ebp], ecx
	jmp	SHORT $LN2@Orphan_me
$LN3@Orphan_me:

; 199  : 
; 200  : 			if (*_Pnext == 0)

	mov	edx, DWORD PTR __Pnext$1[ebp]
	cmp	DWORD PTR [edx], 0
	jne	SHORT $LN5@Orphan_me

; 201  : 				_DEBUG_ERROR("ITERATOR LIST CORRUPTED!");

	push	201					; 000000c9H
	push	OFFSET ??_C@_1GI@DDIAPGKN@?$AAD?$AA?3?$AA?2?$AAM?$AAi?$AAc?$AAr?$AAo?$AAs?$AAo?$AAf?$AAt?$AA?5?$AAV?$AAi?$AAs?$AAu?$AAa?$AAl?$AA?5?$AAS?$AAt?$AAu?$AAd?$AAi?$AAo?$AA?5?$AA1?$AA4?$AA?4?$AA0?$AA?2@
	push	OFFSET ??_C@_1DC@POOIKBAO@?$AAI?$AAT?$AAE?$AAR?$AAA?$AAT?$AAO?$AAR?$AA?5?$AAL?$AAI?$AAS?$AAT?$AA?5?$AAC?$AAO?$AAR?$AAR?$AAU?$AAP?$AAT?$AAE?$AAD?$AA?$CB?$AA?$AA@
	call	?_Debug_message@std@@YAXPB_W0I@Z	; std::_Debug_message
	add	esp, 12					; 0000000cH
$LN5@Orphan_me:

; 202  : 			*_Pnext = _Mynextiter;

	mov	eax, DWORD PTR __Pnext$1[ebp]
	mov	ecx, DWORD PTR _this$[ebp]
	mov	edx, DWORD PTR [ecx+4]
	mov	DWORD PTR [eax], edx

; 203  : 			_Myproxy = 0;

	mov	eax, DWORD PTR _this$[ebp]
	mov	DWORD PTR [eax], 0
$LN1@Orphan_me:

; 204  : 			}
; 205  :  #endif /* _ITERATOR_DEBUG_LEVEL == 2 */
; 206  : 		}

	add	esp, 8
	cmp	ebp, esp
	call	__RTC_CheckEsp
	mov	esp, ebp
	pop	ebp
	ret	0
?_Orphan_me@_Iterator_base12@std@@QAEXXZ ENDP		; std::_Iterator_base12::_Orphan_me
_TEXT	ENDS
; Function compile flags: /Odtp /RTCsu
; File d:\microsoft visual studio 14.0\vc\include\xutility
;	COMDAT ?_Getpnext@_Iterator_base12@std@@QAEPAPAU12@XZ
_TEXT	SEGMENT
_this$ = -4						; size = 4
?_Getpnext@_Iterator_base12@std@@QAEPAPAU12@XZ PROC	; std::_Iterator_base12::_Getpnext, COMDAT
; _this$ = ecx

; 187  : 		{	// get address of remaining iterator chain

	push	ebp
	mov	ebp, esp
	push	ecx
	mov	DWORD PTR [ebp-4], -858993460		; ccccccccH
	mov	DWORD PTR _this$[ebp], ecx

; 188  : 		return (&_Mynextiter);

	mov	eax, DWORD PTR _this$[ebp]
	add	eax, 4

; 189  : 		}

	mov	esp, ebp
	pop	ebp
	ret	0
?_Getpnext@_Iterator_base12@std@@QAEPAPAU12@XZ ENDP	; std::_Iterator_base12::_Getpnext
_TEXT	ENDS
; Function compile flags: /Odtp /RTCsu
; File d:\microsoft visual studio 14.0\vc\include\xutility
;	COMDAT ?_Getcont@_Iterator_base12@std@@QBEPBU_Container_base12@2@XZ
_TEXT	SEGMENT
tv68 = -8						; size = 4
_this$ = -4						; size = 4
?_Getcont@_Iterator_base12@std@@QBEPBU_Container_base12@2@XZ PROC ; std::_Iterator_base12::_Getcont, COMDAT
; _this$ = ecx

; 182  : 		{	// get owning container

	push	ebp
	mov	ebp, esp
	sub	esp, 8
	mov	DWORD PTR [ebp-8], -858993460		; ccccccccH
	mov	DWORD PTR [ebp-4], -858993460		; ccccccccH
	mov	DWORD PTR _this$[ebp], ecx

; 183  : 		return (_Myproxy == 0 ? 0 : _Myproxy->_Mycont);

	mov	eax, DWORD PTR _this$[ebp]
	cmp	DWORD PTR [eax], 0
	jne	SHORT $LN3@Getcont
	mov	DWORD PTR tv68[ebp], 0
	jmp	SHORT $LN4@Getcont
$LN3@Getcont:
	mov	ecx, DWORD PTR _this$[ebp]
	mov	edx, DWORD PTR [ecx]
	mov	eax, DWORD PTR [edx]
	mov	DWORD PTR tv68[ebp], eax
$LN4@Getcont:
	mov	eax, DWORD PTR tv68[ebp]

; 184  : 		}

	mov	esp, ebp
	pop	ebp
	ret	0
?_Getcont@_Iterator_base12@std@@QBEPBU_Container_base12@2@XZ ENDP ; std::_Iterator_base12::_Getcont
_TEXT	ENDS
; Function compile flags: /Odtp /RTCsu
; File d:\microsoft visual studio 14.0\vc\include\xutility
;	COMDAT ?_Clrcont@_Iterator_base12@std@@QAEXXZ
_TEXT	SEGMENT
_this$ = -4						; size = 4
?_Clrcont@_Iterator_base12@std@@QAEXXZ PROC		; std::_Iterator_base12::_Clrcont, COMDAT
; _this$ = ecx

; 177  : 		{	// disown owning container

	push	ebp
	mov	ebp, esp
	push	ecx
	mov	DWORD PTR [ebp-4], -858993460		; ccccccccH
	mov	DWORD PTR _this$[ebp], ecx

; 178  : 		_Myproxy = 0;

	mov	eax, DWORD PTR _this$[ebp]
	mov	DWORD PTR [eax], 0

; 179  : 		}

	mov	esp, ebp
	pop	ebp
	ret	0
?_Clrcont@_Iterator_base12@std@@QAEXXZ ENDP		; std::_Iterator_base12::_Clrcont
_TEXT	ENDS
; Function compile flags: /Odtp /RTCsu
; File d:\microsoft visual studio 14.0\vc\include\xutility
;	COMDAT ?_Adopt@_Iterator_base12@std@@QAEXPBU_Container_base12@2@@Z
_TEXT	SEGMENT
__Lock$2 = -40						; size = 4
__Parent_proxy$3 = -32					; size = 4
__Lock$4 = -24						; size = 4
_this$ = -16						; size = 4
__$EHRec$ = -12						; size = 12
__Parent$ = 8						; size = 4
?_Adopt@_Iterator_base12@std@@QAEXPBU_Container_base12@2@@Z PROC ; std::_Iterator_base12::_Adopt, COMDAT
; _this$ = ecx

; 148  : 		{	// adopt this iterator by parent

	push	ebp
	mov	ebp, esp
	push	-1
	push	__ehhandler$?_Adopt@_Iterator_base12@std@@QAEXPBU_Container_base12@2@@Z
	mov	eax, DWORD PTR fs:0
	push	eax
	sub	esp, 32					; 00000020H
	mov	eax, -858993460				; ccccccccH
	mov	DWORD PTR [ebp-44], eax
	mov	DWORD PTR [ebp-40], eax
	mov	DWORD PTR [ebp-36], eax
	mov	DWORD PTR [ebp-32], eax
	mov	DWORD PTR [ebp-28], eax
	mov	DWORD PTR [ebp-24], eax
	mov	DWORD PTR [ebp-20], eax
	mov	DWORD PTR [ebp-16], eax
	mov	eax, DWORD PTR ___security_cookie
	xor	eax, ebp
	push	eax
	lea	eax, DWORD PTR __$EHRec$[ebp]
	mov	DWORD PTR fs:0, eax
	mov	DWORD PTR _this$[ebp], ecx

; 149  : 		if (_Parent == 0)

	cmp	DWORD PTR __Parent$[ebp], 0
	jne	SHORT $LN2@Adopt

; 150  : 			{	// no future parent, just disown current parent
; 151  :  #if _ITERATOR_DEBUG_LEVEL == 2
; 152  : 			_Lockit _Lock(_LOCK_DEBUG);

	push	3
	lea	ecx, DWORD PTR __Lock$4[ebp]
	call	??0_Lockit@std@@QAE@H@Z			; std::_Lockit::_Lockit
	mov	DWORD PTR __$EHRec$[ebp+8], 0

; 153  : 			_Orphan_me();

	mov	ecx, DWORD PTR _this$[ebp]
	call	?_Orphan_me@_Iterator_base12@std@@QAEXXZ ; std::_Iterator_base12::_Orphan_me

; 154  :  #endif /* _ITERATOR_DEBUG_LEVEL == 2 */
; 155  : 			}

	mov	DWORD PTR __$EHRec$[ebp+8], -1
	lea	ecx, DWORD PTR __Lock$4[ebp]
	call	??1_Lockit@std@@QAE@XZ			; std::_Lockit::~_Lockit

; 156  : 		else

	jmp	SHORT $LN1@Adopt
$LN2@Adopt:

; 157  : 			{	// have a parent, do adoption
; 158  : 			_Container_proxy *_Parent_proxy = _Parent->_Myproxy;

	mov	eax, DWORD PTR __Parent$[ebp]
	mov	ecx, DWORD PTR [eax]
	mov	DWORD PTR __Parent_proxy$3[ebp], ecx

; 159  : 
; 160  :  #if _ITERATOR_DEBUG_LEVEL == 2
; 161  : 			if (_Myproxy != _Parent_proxy)

	mov	edx, DWORD PTR _this$[ebp]
	mov	eax, DWORD PTR [edx]
	cmp	eax, DWORD PTR __Parent_proxy$3[ebp]
	je	SHORT $LN1@Adopt

; 162  : 				{	// change parentage
; 163  : 				_Lockit _Lock(_LOCK_DEBUG);

	push	3
	lea	ecx, DWORD PTR __Lock$2[ebp]
	call	??0_Lockit@std@@QAE@H@Z			; std::_Lockit::_Lockit
	mov	DWORD PTR __$EHRec$[ebp+8], 1

; 164  : 				_Orphan_me();

	mov	ecx, DWORD PTR _this$[ebp]
	call	?_Orphan_me@_Iterator_base12@std@@QAEXXZ ; std::_Iterator_base12::_Orphan_me

; 165  : 				_Mynextiter = _Parent_proxy->_Myfirstiter;

	mov	ecx, DWORD PTR _this$[ebp]
	mov	edx, DWORD PTR __Parent_proxy$3[ebp]
	mov	eax, DWORD PTR [edx+4]
	mov	DWORD PTR [ecx+4], eax

; 166  : 				_Parent_proxy->_Myfirstiter = this;

	mov	ecx, DWORD PTR __Parent_proxy$3[ebp]
	mov	edx, DWORD PTR _this$[ebp]
	mov	DWORD PTR [ecx+4], edx

; 167  : 				_Myproxy = _Parent_proxy;

	mov	eax, DWORD PTR _this$[ebp]
	mov	ecx, DWORD PTR __Parent_proxy$3[ebp]
	mov	DWORD PTR [eax], ecx

; 168  : 				}

	mov	DWORD PTR __$EHRec$[ebp+8], -1
	lea	ecx, DWORD PTR __Lock$2[ebp]
	call	??1_Lockit@std@@QAE@XZ			; std::_Lockit::~_Lockit
$LN1@Adopt:

; 169  : 
; 170  :  #else /* _ITERATOR_DEBUG_LEVEL == 2 */
; 171  : 			_Myproxy = _Parent_proxy;
; 172  :  #endif /* _ITERATOR_DEBUG_LEVEL == 2 */
; 173  : 			}
; 174  : 		}

	push	edx
	mov	ecx, ebp
	push	eax
	lea	edx, DWORD PTR $LN12@Adopt
	call	@_RTC_CheckStackVars@8
	pop	eax
	pop	edx
	mov	ecx, DWORD PTR __$EHRec$[ebp]
	mov	DWORD PTR fs:0, ecx
	pop	ecx
	add	esp, 44					; 0000002cH
	cmp	ebp, esp
	call	__RTC_CheckEsp
	mov	esp, ebp
	pop	ebp
	ret	4
$LN12@Adopt:
	DD	2
	DD	$LN11@Adopt
$LN11@Adopt:
	DD	-24					; ffffffe8H
	DD	4
	DD	$LN8@Adopt
	DD	-40					; ffffffd8H
	DD	4
	DD	$LN9@Adopt
$LN9@Adopt:
	DB	95					; 0000005fH
	DB	76					; 0000004cH
	DB	111					; 0000006fH
	DB	99					; 00000063H
	DB	107					; 0000006bH
	DB	0
$LN8@Adopt:
	DB	95					; 0000005fH
	DB	76					; 0000004cH
	DB	111					; 0000006fH
	DB	99					; 00000063H
	DB	107					; 0000006bH
	DB	0
_TEXT	ENDS
;	COMDAT text$x
text$x	SEGMENT
__unwindfunclet$?_Adopt@_Iterator_base12@std@@QAEXPBU_Container_base12@2@@Z$0:
	lea	ecx, DWORD PTR __Lock$4[ebp]
	jmp	??1_Lockit@std@@QAE@XZ			; std::_Lockit::~_Lockit
__unwindfunclet$?_Adopt@_Iterator_base12@std@@QAEXPBU_Container_base12@2@@Z$1:
	lea	ecx, DWORD PTR __Lock$2[ebp]
	jmp	??1_Lockit@std@@QAE@XZ			; std::_Lockit::~_Lockit
__ehhandler$?_Adopt@_Iterator_base12@std@@QAEXPBU_Container_base12@2@@Z:
	mov	edx, DWORD PTR [esp+8]
	lea	eax, DWORD PTR [edx+12]
	mov	ecx, DWORD PTR [edx-36]
	xor	ecx, eax
	call	@__security_check_cookie@4
	mov	eax, OFFSET __ehfuncinfo$?_Adopt@_Iterator_base12@std@@QAEXPBU_Container_base12@2@@Z
	jmp	___CxxFrameHandler3
text$x	ENDS
?_Adopt@_Iterator_base12@std@@QAEXPBU_Container_base12@2@@Z ENDP ; std::_Iterator_base12::_Adopt
; Function compile flags: /Odtp /RTCsu
; File d:\microsoft visual studio 14.0\vc\include\xutility
;	COMDAT ??1_Iterator_base12@std@@QAE@XZ
_TEXT	SEGMENT
__Lock$ = -24						; size = 4
_this$ = -16						; size = 4
__$EHRec$ = -12						; size = 12
??1_Iterator_base12@std@@QAE@XZ PROC			; std::_Iterator_base12::~_Iterator_base12, COMDAT
; _this$ = ecx

; 140  : 		{	// destroy the iterator

	push	ebp
	mov	ebp, esp
	push	-1
	push	__ehhandler$??1_Iterator_base12@std@@QAE@XZ
	mov	eax, DWORD PTR fs:0
	push	eax
	sub	esp, 16					; 00000010H
	mov	eax, -858993460				; ccccccccH
	mov	DWORD PTR [ebp-28], eax
	mov	DWORD PTR [ebp-24], eax
	mov	DWORD PTR [ebp-20], eax
	mov	DWORD PTR [ebp-16], eax
	mov	eax, DWORD PTR ___security_cookie
	xor	eax, ebp
	push	eax
	lea	eax, DWORD PTR __$EHRec$[ebp]
	mov	DWORD PTR fs:0, eax
	mov	DWORD PTR _this$[ebp], ecx

; 141  :  #if _ITERATOR_DEBUG_LEVEL == 2
; 142  : 		_Lockit _Lock(_LOCK_DEBUG);

	push	3
	lea	ecx, DWORD PTR __Lock$[ebp]
	call	??0_Lockit@std@@QAE@H@Z			; std::_Lockit::_Lockit

; 143  : 		_Orphan_me();

	mov	ecx, DWORD PTR _this$[ebp]
	call	?_Orphan_me@_Iterator_base12@std@@QAEXXZ ; std::_Iterator_base12::_Orphan_me

; 144  :  #endif /* _ITERATOR_DEBUG_LEVEL == 2 */
; 145  : 		}

	lea	ecx, DWORD PTR __Lock$[ebp]
	call	??1_Lockit@std@@QAE@XZ			; std::_Lockit::~_Lockit
	push	edx
	mov	ecx, ebp
	push	eax
	lea	edx, DWORD PTR $LN6@Iterator_b
	call	@_RTC_CheckStackVars@8
	pop	eax
	pop	edx
	mov	ecx, DWORD PTR __$EHRec$[ebp]
	mov	DWORD PTR fs:0, ecx
	pop	ecx
	add	esp, 28					; 0000001cH
	cmp	ebp, esp
	call	__RTC_CheckEsp
	mov	esp, ebp
	pop	ebp
	ret	0
	npad	3
$LN6@Iterator_b:
	DD	1
	DD	$LN5@Iterator_b
$LN5@Iterator_b:
	DD	-24					; ffffffe8H
	DD	4
	DD	$LN3@Iterator_b
$LN3@Iterator_b:
	DB	95					; 0000005fH
	DB	76					; 0000004cH
	DB	111					; 0000006fH
	DB	99					; 00000063H
	DB	107					; 0000006bH
	DB	0
_TEXT	ENDS
;	COMDAT text$x
text$x	SEGMENT
__ehhandler$??1_Iterator_base12@std@@QAE@XZ:
	mov	edx, DWORD PTR [esp+8]
	lea	eax, DWORD PTR [edx+12]
	mov	ecx, DWORD PTR [edx-20]
	xor	ecx, eax
	call	@__security_check_cookie@4
	mov	eax, OFFSET __ehfuncinfo$??1_Iterator_base12@std@@QAE@XZ
	jmp	___CxxFrameHandler3
text$x	ENDS
??1_Iterator_base12@std@@QAE@XZ ENDP			; std::_Iterator_base12::~_Iterator_base12
; Function compile flags: /Odtp /RTCsu
; File d:\microsoft visual studio 14.0\vc\include\xutility
;	COMDAT ??4_Iterator_base12@std@@QAEAAU01@ABU01@@Z
_TEXT	SEGMENT
__Lock$2 = -24						; size = 4
_this$ = -16						; size = 4
__$EHRec$ = -12						; size = 12
__Right$ = 8						; size = 4
??4_Iterator_base12@std@@QAEAAU01@ABU01@@Z PROC		; std::_Iterator_base12::operator=, COMDAT
; _this$ = ecx

; 124  : 		{	// assign an iterator

	push	ebp
	mov	ebp, esp
	push	-1
	push	__ehhandler$??4_Iterator_base12@std@@QAEAAU01@ABU01@@Z
	mov	eax, DWORD PTR fs:0
	push	eax
	sub	esp, 16					; 00000010H
	mov	eax, -858993460				; ccccccccH
	mov	DWORD PTR [ebp-28], eax
	mov	DWORD PTR [ebp-24], eax
	mov	DWORD PTR [ebp-20], eax
	mov	DWORD PTR [ebp-16], eax
	mov	eax, DWORD PTR ___security_cookie
	xor	eax, ebp
	push	eax
	lea	eax, DWORD PTR __$EHRec$[ebp]
	mov	DWORD PTR fs:0, eax
	mov	DWORD PTR _this$[ebp], ecx

; 125  : 		if (_Myproxy == _Right._Myproxy)

	mov	eax, DWORD PTR _this$[ebp]
	mov	ecx, DWORD PTR __Right$[ebp]
	mov	edx, DWORD PTR [eax]
	cmp	edx, DWORD PTR [ecx]
	jne	SHORT $LN2@operator
	jmp	SHORT $LN3@operator
$LN2@operator:

; 126  : 			;
; 127  : 		else if (_Right._Myproxy != 0)

	mov	eax, DWORD PTR __Right$[ebp]
	cmp	DWORD PTR [eax], 0
	je	SHORT $LN4@operator

; 128  : 			_Adopt(_Right._Myproxy->_Mycont);

	mov	ecx, DWORD PTR __Right$[ebp]
	mov	edx, DWORD PTR [ecx]
	mov	eax, DWORD PTR [edx]
	push	eax
	mov	ecx, DWORD PTR _this$[ebp]
	call	?_Adopt@_Iterator_base12@std@@QAEXPBU_Container_base12@2@@Z ; std::_Iterator_base12::_Adopt

; 129  : 		else

	jmp	SHORT $LN3@operator
$LN4@operator:

; 130  : 			{	// becoming invalid, disown current parent
; 131  :  #if _ITERATOR_DEBUG_LEVEL == 2
; 132  : 			_Lockit _Lock(_LOCK_DEBUG);

	push	3
	lea	ecx, DWORD PTR __Lock$2[ebp]
	call	??0_Lockit@std@@QAE@H@Z			; std::_Lockit::_Lockit
	mov	DWORD PTR __$EHRec$[ebp+8], 0

; 133  : 			_Orphan_me();

	mov	ecx, DWORD PTR _this$[ebp]
	call	?_Orphan_me@_Iterator_base12@std@@QAEXXZ ; std::_Iterator_base12::_Orphan_me

; 134  :  #endif /* _ITERATOR_DEBUG_LEVEL == 2 */
; 135  : 			}

	mov	DWORD PTR __$EHRec$[ebp+8], -1
	lea	ecx, DWORD PTR __Lock$2[ebp]
	call	??1_Lockit@std@@QAE@XZ			; std::_Lockit::~_Lockit
$LN3@operator:

; 136  : 		return (*this);

	mov	eax, DWORD PTR _this$[ebp]

; 137  : 		}

	push	edx
	mov	ecx, ebp
	push	eax
	lea	edx, DWORD PTR $LN11@operator
	call	@_RTC_CheckStackVars@8
	pop	eax
	pop	edx
	mov	ecx, DWORD PTR __$EHRec$[ebp]
	mov	DWORD PTR fs:0, ecx
	pop	ecx
	add	esp, 28					; 0000001cH
	cmp	ebp, esp
	call	__RTC_CheckEsp
	mov	esp, ebp
	pop	ebp
	ret	4
$LN11@operator:
	DD	1
	DD	$LN10@operator
$LN10@operator:
	DD	-24					; ffffffe8H
	DD	4
	DD	$LN8@operator
$LN8@operator:
	DB	95					; 0000005fH
	DB	76					; 0000004cH
	DB	111					; 0000006fH
	DB	99					; 00000063H
	DB	107					; 0000006bH
	DB	0
_TEXT	ENDS
;	COMDAT text$x
text$x	SEGMENT
__unwindfunclet$??4_Iterator_base12@std@@QAEAAU01@ABU01@@Z$0:
	lea	ecx, DWORD PTR __Lock$2[ebp]
	jmp	??1_Lockit@std@@QAE@XZ			; std::_Lockit::~_Lockit
__ehhandler$??4_Iterator_base12@std@@QAEAAU01@ABU01@@Z:
	mov	edx, DWORD PTR [esp+8]
	lea	eax, DWORD PTR [edx+12]
	mov	ecx, DWORD PTR [edx-20]
	xor	ecx, eax
	call	@__security_check_cookie@4
	mov	eax, OFFSET __ehfuncinfo$??4_Iterator_base12@std@@QAEAAU01@ABU01@@Z
	jmp	___CxxFrameHandler3
text$x	ENDS
??4_Iterator_base12@std@@QAEAAU01@ABU01@@Z ENDP		; std::_Iterator_base12::operator=
; Function compile flags: /Odtp /RTCsu
; File d:\microsoft visual studio 14.0\vc\include\xutility
;	COMDAT ??0_Iterator_base12@std@@QAE@ABU01@@Z
_TEXT	SEGMENT
_this$ = -4						; size = 4
__Right$ = 8						; size = 4
??0_Iterator_base12@std@@QAE@ABU01@@Z PROC		; std::_Iterator_base12::_Iterator_base12, COMDAT
; _this$ = ecx

; 119  : 		{	// copy an iterator

	push	ebp
	mov	ebp, esp
	push	ecx
	mov	DWORD PTR [ebp-4], -858993460		; ccccccccH
	mov	DWORD PTR _this$[ebp], ecx

; 118  : 		: _Myproxy(0), _Mynextiter(0)

	mov	eax, DWORD PTR _this$[ebp]
	mov	DWORD PTR [eax], 0
	mov	ecx, DWORD PTR _this$[ebp]
	mov	DWORD PTR [ecx+4], 0

; 120  : 		*this = _Right;

	mov	edx, DWORD PTR __Right$[ebp]
	push	edx
	mov	ecx, DWORD PTR _this$[ebp]
	call	??4_Iterator_base12@std@@QAEAAU01@ABU01@@Z ; std::_Iterator_base12::operator=

; 121  : 		}

	mov	eax, DWORD PTR _this$[ebp]
	add	esp, 4
	cmp	ebp, esp
	call	__RTC_CheckEsp
	mov	esp, ebp
	pop	ebp
	ret	4
??0_Iterator_base12@std@@QAE@ABU01@@Z ENDP		; std::_Iterator_base12::_Iterator_base12
_TEXT	ENDS
; Function compile flags: /Odtp /RTCsu
; File d:\microsoft visual studio 14.0\vc\include\xutility
;	COMDAT ??0_Iterator_base12@std@@QAE@XZ
_TEXT	SEGMENT
_this$ = -4						; size = 4
??0_Iterator_base12@std@@QAE@XZ PROC			; std::_Iterator_base12::_Iterator_base12, COMDAT
; _this$ = ecx

; 114  : 		{	// construct orphaned iterator

	push	ebp
	mov	ebp, esp
	push	ecx
	mov	DWORD PTR [ebp-4], -858993460		; ccccccccH
	mov	DWORD PTR _this$[ebp], ecx

; 113  : 		: _Myproxy(0), _Mynextiter(0)

	mov	eax, DWORD PTR _this$[ebp]
	mov	DWORD PTR [eax], 0
	mov	ecx, DWORD PTR _this$[ebp]
	mov	DWORD PTR [ecx+4], 0

; 115  : 		}

	mov	eax, DWORD PTR _this$[ebp]
	mov	esp, ebp
	pop	ebp
	ret	0
??0_Iterator_base12@std@@QAE@XZ ENDP			; std::_Iterator_base12::_Iterator_base12
_TEXT	ENDS
; Function compile flags: /Odtp /RTCsu
; File d:\microsoft visual studio 14.0\vc\include\xutility
;	COMDAT ?_Swap_all@_Container_base12@std@@QAEXAAU12@@Z
_TEXT	SEGMENT
__Temp$ = -20						; size = 4
__Lock$ = -12						; size = 4
_this$ = -4						; size = 4
__Right$ = 8						; size = 4
?_Swap_all@_Container_base12@std@@QAEXAAU12@@Z PROC	; std::_Container_base12::_Swap_all, COMDAT
; _this$ = ecx

; 229  : 	{	// swap all iterators

	push	ebp
	mov	ebp, esp
	sub	esp, 20					; 00000014H
	mov	eax, -858993460				; ccccccccH
	mov	DWORD PTR [ebp-20], eax
	mov	DWORD PTR [ebp-16], eax
	mov	DWORD PTR [ebp-12], eax
	mov	DWORD PTR [ebp-8], eax
	mov	DWORD PTR [ebp-4], eax
	mov	DWORD PTR _this$[ebp], ecx

; 230  :  #if _ITERATOR_DEBUG_LEVEL == 2
; 231  : 	_Lockit _Lock(_LOCK_DEBUG);

	push	3
	lea	ecx, DWORD PTR __Lock$[ebp]
	call	??0_Lockit@std@@QAE@H@Z			; std::_Lockit::_Lockit

; 232  :  #endif /* _ITERATOR_DEBUG_LEVEL == 2 */
; 233  : 
; 234  : 	_Container_proxy *_Temp = _Myproxy;

	mov	eax, DWORD PTR _this$[ebp]
	mov	ecx, DWORD PTR [eax]
	mov	DWORD PTR __Temp$[ebp], ecx

; 235  : 	_Myproxy = _Right._Myproxy;

	mov	edx, DWORD PTR _this$[ebp]
	mov	eax, DWORD PTR __Right$[ebp]
	mov	ecx, DWORD PTR [eax]
	mov	DWORD PTR [edx], ecx

; 236  : 	_Right._Myproxy = _Temp;

	mov	edx, DWORD PTR __Right$[ebp]
	mov	eax, DWORD PTR __Temp$[ebp]
	mov	DWORD PTR [edx], eax

; 237  : 
; 238  : 	if (_Myproxy != 0)

	mov	ecx, DWORD PTR _this$[ebp]
	cmp	DWORD PTR [ecx], 0
	je	SHORT $LN2@Swap_all

; 239  : 		_Myproxy->_Mycont = (_Container_base12 *)this;

	mov	edx, DWORD PTR _this$[ebp]
	mov	eax, DWORD PTR [edx]
	mov	ecx, DWORD PTR _this$[ebp]
	mov	DWORD PTR [eax], ecx
$LN2@Swap_all:

; 240  : 	if (_Right._Myproxy != 0)

	mov	edx, DWORD PTR __Right$[ebp]
	cmp	DWORD PTR [edx], 0
	je	SHORT $LN3@Swap_all

; 241  : 		_Right._Myproxy->_Mycont = (_Container_base12 *)&_Right;

	mov	eax, DWORD PTR __Right$[ebp]
	mov	ecx, DWORD PTR [eax]
	mov	edx, DWORD PTR __Right$[ebp]
	mov	DWORD PTR [ecx], edx
$LN3@Swap_all:

; 242  : 	}

	lea	ecx, DWORD PTR __Lock$[ebp]
	call	??1_Lockit@std@@QAE@XZ			; std::_Lockit::~_Lockit
	push	edx
	mov	ecx, ebp
	push	eax
	lea	edx, DWORD PTR $LN8@Swap_all
	call	@_RTC_CheckStackVars@8
	pop	eax
	pop	edx
	add	esp, 20					; 00000014H
	cmp	ebp, esp
	call	__RTC_CheckEsp
	mov	esp, ebp
	pop	ebp
	ret	4
	npad	2
$LN8@Swap_all:
	DD	1
	DD	$LN7@Swap_all
$LN7@Swap_all:
	DD	-12					; fffffff4H
	DD	4
	DD	$LN6@Swap_all
$LN6@Swap_all:
	DB	95					; 0000005fH
	DB	76					; 0000004cH
	DB	111					; 0000006fH
	DB	99					; 00000063H
	DB	107					; 0000006bH
	DB	0
?_Swap_all@_Container_base12@std@@QAEXAAU12@@Z ENDP	; std::_Container_base12::_Swap_all
_TEXT	ENDS
; Function compile flags: /Odtp /RTCsu
; File d:\microsoft visual studio 14.0\vc\include\xutility
;	COMDAT ?_Orphan_all@_Container_base12@std@@QAEXXZ
_TEXT	SEGMENT
__Pnext$1 = -20						; size = 4
__Lock$2 = -12						; size = 4
_this$ = -4						; size = 4
?_Orphan_all@_Container_base12@std@@QAEXXZ PROC		; std::_Container_base12::_Orphan_all, COMDAT
; _this$ = ecx

; 214  : 	{	// orphan all iterators

	push	ebp
	mov	ebp, esp
	sub	esp, 20					; 00000014H
	mov	eax, -858993460				; ccccccccH
	mov	DWORD PTR [ebp-20], eax
	mov	DWORD PTR [ebp-16], eax
	mov	DWORD PTR [ebp-12], eax
	mov	DWORD PTR [ebp-8], eax
	mov	DWORD PTR [ebp-4], eax
	mov	DWORD PTR _this$[ebp], ecx

; 215  :  #if _ITERATOR_DEBUG_LEVEL == 2
; 216  : 	if (_Myproxy != 0)

	mov	eax, DWORD PTR _this$[ebp]
	cmp	DWORD PTR [eax], 0
	je	SHORT $LN1@Orphan_all

; 217  : 		{	// proxy allocated, drain it
; 218  : 		_Lockit _Lock(_LOCK_DEBUG);

	push	3
	lea	ecx, DWORD PTR __Lock$2[ebp]
	call	??0_Lockit@std@@QAE@H@Z			; std::_Lockit::_Lockit

; 219  : 
; 220  : 		for (_Iterator_base12 **_Pnext = &_Myproxy->_Myfirstiter;

	mov	ecx, DWORD PTR _this$[ebp]
	mov	edx, DWORD PTR [ecx]
	add	edx, 4
	mov	DWORD PTR __Pnext$1[ebp], edx
	jmp	SHORT $LN4@Orphan_all
$LN2@Orphan_all:

; 221  : 			*_Pnext != 0; *_Pnext = (*_Pnext)->_Mynextiter)

	mov	eax, DWORD PTR __Pnext$1[ebp]
	mov	ecx, DWORD PTR [eax]
	mov	edx, DWORD PTR __Pnext$1[ebp]
	mov	eax, DWORD PTR [ecx+4]
	mov	DWORD PTR [edx], eax
$LN4@Orphan_all:
	mov	ecx, DWORD PTR __Pnext$1[ebp]
	cmp	DWORD PTR [ecx], 0
	je	SHORT $LN3@Orphan_all

; 222  : 			(*_Pnext)->_Myproxy = 0;

	mov	edx, DWORD PTR __Pnext$1[ebp]
	mov	eax, DWORD PTR [edx]
	mov	DWORD PTR [eax], 0
	jmp	SHORT $LN2@Orphan_all
$LN3@Orphan_all:

; 223  : 		_Myproxy->_Myfirstiter = 0;

	mov	ecx, DWORD PTR _this$[ebp]
	mov	edx, DWORD PTR [ecx]
	mov	DWORD PTR [edx+4], 0

; 224  : 		}

	lea	ecx, DWORD PTR __Lock$2[ebp]
	call	??1_Lockit@std@@QAE@XZ			; std::_Lockit::~_Lockit
$LN1@Orphan_all:

; 225  :  #endif /* _ITERATOR_DEBUG_LEVEL == 2 */
; 226  : 	}

	push	edx
	mov	ecx, ebp
	push	eax
	lea	edx, DWORD PTR $LN10@Orphan_all
	call	@_RTC_CheckStackVars@8
	pop	eax
	pop	edx
	add	esp, 20					; 00000014H
	cmp	ebp, esp
	call	__RTC_CheckEsp
	mov	esp, ebp
	pop	ebp
	ret	0
	npad	3
$LN10@Orphan_all:
	DD	1
	DD	$LN9@Orphan_all
$LN9@Orphan_all:
	DD	-12					; fffffff4H
	DD	4
	DD	$LN8@Orphan_all
$LN8@Orphan_all:
	DB	95					; 0000005fH
	DB	76					; 0000004cH
	DB	111					; 0000006fH
	DB	99					; 00000063H
	DB	107					; 0000006bH
	DB	0
?_Orphan_all@_Container_base12@std@@QAEXXZ ENDP		; std::_Container_base12::_Orphan_all
_TEXT	ENDS
; Function compile flags: /Odtp /RTCsu
; File d:\microsoft visual studio 14.0\vc\include\xutility
;	COMDAT ?_Getpfirst@_Container_base12@std@@QBEPAPAU_Iterator_base12@2@XZ
_TEXT	SEGMENT
tv68 = -8						; size = 4
_this$ = -4						; size = 4
?_Getpfirst@_Container_base12@std@@QBEPAPAU_Iterator_base12@2@XZ PROC ; std::_Container_base12::_Getpfirst, COMDAT
; _this$ = ecx

; 99   : 		{	// get address of iterator chain

	push	ebp
	mov	ebp, esp
	sub	esp, 8
	mov	DWORD PTR [ebp-8], -858993460		; ccccccccH
	mov	DWORD PTR [ebp-4], -858993460		; ccccccccH
	mov	DWORD PTR _this$[ebp], ecx

; 100  : 		return (_Myproxy == 0 ? 0 : &_Myproxy->_Myfirstiter);

	mov	eax, DWORD PTR _this$[ebp]
	cmp	DWORD PTR [eax], 0
	jne	SHORT $LN3@Getpfirst
	mov	DWORD PTR tv68[ebp], 0
	jmp	SHORT $LN4@Getpfirst
$LN3@Getpfirst:
	mov	ecx, DWORD PTR _this$[ebp]
	mov	edx, DWORD PTR [ecx]
	add	edx, 4
	mov	DWORD PTR tv68[ebp], edx
$LN4@Getpfirst:
	mov	eax, DWORD PTR tv68[ebp]

; 101  : 		}

	mov	esp, ebp
	pop	ebp
	ret	0
?_Getpfirst@_Container_base12@std@@QBEPAPAU_Iterator_base12@2@XZ ENDP ; std::_Container_base12::_Getpfirst
_TEXT	ENDS
; Function compile flags: /Odtp /RTCsu
; File d:\microsoft visual studio 14.0\vc\include\xutility
;	COMDAT ??1_Container_base12@std@@QAE@XZ
_TEXT	SEGMENT
_this$ = -16						; size = 4
__$EHRec$ = -12						; size = 12
??1_Container_base12@std@@QAE@XZ PROC			; std::_Container_base12::~_Container_base12, COMDAT
; _this$ = ecx

; 94   : 		{	// destroy the container

	push	ebp
	mov	ebp, esp
	push	-1
	push	__ehhandler$??1_Container_base12@std@@QAE@XZ
	mov	eax, DWORD PTR fs:0
	push	eax
	push	ecx
	mov	DWORD PTR [ebp-16], -858993460		; ccccccccH
	mov	eax, DWORD PTR ___security_cookie
	xor	eax, ebp
	push	eax
	lea	eax, DWORD PTR __$EHRec$[ebp]
	mov	DWORD PTR fs:0, eax
	mov	DWORD PTR _this$[ebp], ecx

; 95   : 		_Orphan_all();

	mov	ecx, DWORD PTR _this$[ebp]
	call	?_Orphan_all@_Container_base12@std@@QAEXXZ ; std::_Container_base12::_Orphan_all

; 96   : 		}

	mov	ecx, DWORD PTR __$EHRec$[ebp]
	mov	DWORD PTR fs:0, ecx
	pop	ecx
	add	esp, 16					; 00000010H
	cmp	ebp, esp
	call	__RTC_CheckEsp
	mov	esp, ebp
	pop	ebp
	ret	0
_TEXT	ENDS
;	COMDAT text$x
text$x	SEGMENT
__ehhandler$??1_Container_base12@std@@QAE@XZ:
	mov	edx, DWORD PTR [esp+8]
	lea	eax, DWORD PTR [edx+12]
	mov	ecx, DWORD PTR [edx-8]
	xor	ecx, eax
	call	@__security_check_cookie@4
	mov	eax, OFFSET __ehfuncinfo$??1_Container_base12@std@@QAE@XZ
	jmp	___CxxFrameHandler3
text$x	ENDS
??1_Container_base12@std@@QAE@XZ ENDP			; std::_Container_base12::~_Container_base12
; Function compile flags: /Odtp /RTCsu
; File d:\microsoft visual studio 14.0\vc\include\xutility
;	COMDAT ??0_Container_base12@std@@QAE@XZ
_TEXT	SEGMENT
_this$ = -4						; size = 4
??0_Container_base12@std@@QAE@XZ PROC			; std::_Container_base12::_Container_base12, COMDAT
; _this$ = ecx

; 80   : 		{	// construct childless container

	push	ebp
	mov	ebp, esp
	push	ecx
	mov	DWORD PTR [ebp-4], -858993460		; ccccccccH
	mov	DWORD PTR _this$[ebp], ecx

; 79   : 		: _Myproxy(0)

	mov	eax, DWORD PTR _this$[ebp]
	mov	DWORD PTR [eax], 0

; 81   : 		}

	mov	eax, DWORD PTR _this$[ebp]
	mov	esp, ebp
	pop	ebp
	ret	0
??0_Container_base12@std@@QAE@XZ ENDP			; std::_Container_base12::_Container_base12
_TEXT	ENDS
; Function compile flags: /Odtp /RTCsu
; File d:\microsoft visual studio 14.0\vc\include\xutility
;	COMDAT ??0_Container_proxy@std@@QAE@XZ
_TEXT	SEGMENT
_this$ = -4						; size = 4
??0_Container_proxy@std@@QAE@XZ PROC			; std::_Container_proxy::_Container_proxy, COMDAT
; _this$ = ecx

; 68   : 		{	// construct from pointers

	push	ebp
	mov	ebp, esp
	push	ecx
	mov	DWORD PTR [ebp-4], -858993460		; ccccccccH
	mov	DWORD PTR _this$[ebp], ecx

; 67   : 		: _Mycont(0), _Myfirstiter(0)

	mov	eax, DWORD PTR _this$[ebp]
	mov	DWORD PTR [eax], 0
	mov	ecx, DWORD PTR _this$[ebp]
	mov	DWORD PTR [ecx+4], 0

; 69   : 		}

	mov	eax, DWORD PTR _this$[ebp]
	mov	esp, ebp
	pop	ebp
	ret	0
??0_Container_proxy@std@@QAE@XZ ENDP			; std::_Container_proxy::_Container_proxy
_TEXT	ENDS
; Function compile flags: /Odtp /RTCsu
; File d:\microsoft visual studio 14.0\vc\include\xutility
;	COMDAT ?_Adopt@_Iterator_base0@std@@QAEXPBX@Z
_TEXT	SEGMENT
_this$ = -4						; size = 4
___formal$ = 8						; size = 4
?_Adopt@_Iterator_base0@std@@QAEXPBX@Z PROC		; std::_Iterator_base0::_Adopt, COMDAT
; _this$ = ecx

; 54   : 		{	// adopt this iterator by parent

	push	ebp
	mov	ebp, esp
	push	ecx
	mov	DWORD PTR [ebp-4], -858993460		; ccccccccH
	mov	DWORD PTR _this$[ebp], ecx

; 55   : 		}

	mov	esp, ebp
	pop	ebp
	ret	4
?_Adopt@_Iterator_base0@std@@QAEXPBX@Z ENDP		; std::_Iterator_base0::_Adopt
_TEXT	ENDS
; Function compile flags: /Odtp /RTCsu
; File d:\microsoft visual studio 14.0\vc\include\iosfwd
;	COMDAT ?assign@?$char_traits@D@std@@SAXAADABD@Z
_TEXT	SEGMENT
__Left$ = 8						; size = 4
__Right$ = 12						; size = 4
?assign@?$char_traits@D@std@@SAXAADABD@Z PROC		; std::char_traits<char>::assign, COMDAT

; 564  : 		{	// assign an element

	push	ebp
	mov	ebp, esp

; 565  : 		_Left = _Right;

	mov	eax, DWORD PTR __Left$[ebp]
	mov	ecx, DWORD PTR __Right$[ebp]
	mov	dl, BYTE PTR [ecx]
	mov	BYTE PTR [eax], dl

; 566  : 		}

	pop	ebp
	ret	0
?assign@?$char_traits@D@std@@SAXAADABD@Z ENDP		; std::char_traits<char>::assign
_TEXT	ENDS
; Function compile flags: /Odtp /RTCsu
; File d:\microsoft visual studio 14.0\vc\include\iosfwd
;	COMDAT ?move@?$char_traits@D@std@@SAPADPADPBDI@Z
_TEXT	SEGMENT
tv69 = -4						; size = 4
__First1$ = 8						; size = 4
__First2$ = 12						; size = 4
__Count$ = 16						; size = 4
?move@?$char_traits@D@std@@SAPADPADPBDI@Z PROC		; std::char_traits<char>::move, COMDAT

; 552  : 		{	// copy [_First2, _First2 + _Count) to [_First1, ...)

	push	ebp
	mov	ebp, esp
	push	ecx
	mov	DWORD PTR [ebp-4], -858993460		; ccccccccH

; 553  : 		return (_Count == 0 ? _First1

	cmp	DWORD PTR __Count$[ebp], 0
	jne	SHORT $LN3@move
	mov	eax, DWORD PTR __First1$[ebp]
	mov	DWORD PTR tv69[ebp], eax
	jmp	SHORT $LN4@move
$LN3@move:
	mov	ecx, DWORD PTR __Count$[ebp]
	push	ecx
	mov	edx, DWORD PTR __First2$[ebp]
	push	edx
	mov	eax, DWORD PTR __First1$[ebp]
	push	eax
	call	_memmove
	add	esp, 12					; 0000000cH
	mov	DWORD PTR tv69[ebp], eax
$LN4@move:
	mov	eax, DWORD PTR tv69[ebp]

; 554  : 			: (_Elem *)_CSTD memmove(_First1, _First2, _Count));
; 555  : 		}

	add	esp, 4
	cmp	ebp, esp
	call	__RTC_CheckEsp
	mov	esp, ebp
	pop	ebp
	ret	0
?move@?$char_traits@D@std@@SAPADPADPBDI@Z ENDP		; std::char_traits<char>::move
_TEXT	ENDS
; Function compile flags: /Odtp /RTCsu
; File d:\microsoft visual studio 14.0\vc\include\iosfwd
;	COMDAT ?copy@?$char_traits@D@std@@SAPADPADPBDI@Z
_TEXT	SEGMENT
tv69 = -4						; size = 4
__First1$ = 8						; size = 4
__First2$ = 12						; size = 4
__Count$ = 16						; size = 4
?copy@?$char_traits@D@std@@SAPADPADPBDI@Z PROC		; std::char_traits<char>::copy, COMDAT

; 529  : 		{	// copy [_First2, _First2 + _Count) to [_First1, ...)

	push	ebp
	mov	ebp, esp
	push	ecx
	mov	DWORD PTR [ebp-4], -858993460		; ccccccccH

; 530  : 		return (_Count == 0 ? _First1

	cmp	DWORD PTR __Count$[ebp], 0
	jne	SHORT $LN3@copy
	mov	eax, DWORD PTR __First1$[ebp]
	mov	DWORD PTR tv69[ebp], eax
	jmp	SHORT $LN4@copy
$LN3@copy:
	mov	ecx, DWORD PTR __Count$[ebp]
	push	ecx
	mov	edx, DWORD PTR __First2$[ebp]
	push	edx
	mov	eax, DWORD PTR __First1$[ebp]
	push	eax
	call	_memcpy
	add	esp, 12					; 0000000cH
	mov	DWORD PTR tv69[ebp], eax
$LN4@copy:
	mov	eax, DWORD PTR tv69[ebp]

; 531  : 			: (_Elem *)_CSTD memcpy(_First1, _First2, _Count));
; 532  : 		}

	add	esp, 4
	cmp	ebp, esp
	call	__RTC_CheckEsp
	mov	esp, ebp
	pop	ebp
	ret	0
?copy@?$char_traits@D@std@@SAPADPADPBDI@Z ENDP		; std::char_traits<char>::copy
_TEXT	ENDS
; Function compile flags: /Odtp /RTCsu
; File d:\microsoft visual studio 14.0\vc\include\iosfwd
;	COMDAT ?length@?$char_traits@D@std@@SAIPBD@Z
_TEXT	SEGMENT
tv68 = -4						; size = 4
__First$ = 8						; size = 4
?length@?$char_traits@D@std@@SAIPBD@Z PROC		; std::char_traits<char>::length, COMDAT

; 522  : 		{	// find length of null-terminated string

	push	ebp
	mov	ebp, esp
	push	ecx
	mov	DWORD PTR [ebp-4], -858993460		; ccccccccH

; 523  : 		return (*_First == 0 ? 0

	mov	eax, DWORD PTR __First$[ebp]
	movsx	ecx, BYTE PTR [eax]
	test	ecx, ecx
	jne	SHORT $LN3@length
	mov	DWORD PTR tv68[ebp], 0
	jmp	SHORT $LN4@length
$LN3@length:
	mov	edx, DWORD PTR __First$[ebp]
	push	edx
	call	_strlen
	add	esp, 4
	mov	DWORD PTR tv68[ebp], eax
$LN4@length:
	mov	eax, DWORD PTR tv68[ebp]

; 524  : 			: _CSTD strlen(_First));
; 525  : 		}

	add	esp, 4
	cmp	ebp, esp
	call	__RTC_CheckEsp
	mov	esp, ebp
	pop	ebp
	ret	0
?length@?$char_traits@D@std@@SAIPBD@Z ENDP		; std::char_traits<char>::length
_TEXT	ENDS
; Function compile flags: /Odtp /RTCsu
; File d:\microsoft visual studio 14.0\vc\include\vcruntime_new.h
;	COMDAT ??2@YAPAXIPAX@Z
_TEXT	SEGMENT
__Size$ = 8						; size = 4
__Where$ = 12						; size = 4
??2@YAPAXIPAX@Z PROC					; operator new, COMDAT

; 87   :     {

	push	ebp
	mov	ebp, esp

; 88   :         (void)_Size;
; 89   :         return _Where;

	mov	eax, DWORD PTR __Where$[ebp]

; 90   :     }

	pop	ebp
	ret	0
??2@YAPAXIPAX@Z ENDP					; operator new
_TEXT	ENDS
; Function compile flags: /Odtp /RTCsu
; File d:\microsoft visual studio 14.0\vc\include\limits
;	COMDAT ?max@?$numeric_limits@N@std@@SANXZ
_TEXT	SEGMENT
?max@?$numeric_limits@N@std@@SANXZ PROC			; std::numeric_limits<double>::max, COMDAT

; 1156 : 		{	// return maximum value

	push	ebp
	mov	ebp, esp

; 1157 : 		return (_DBL_MAX);

	fld	QWORD PTR __real@7fefffffffffffff

; 1158 : 		}

	pop	ebp
	ret	0
?max@?$numeric_limits@N@std@@SANXZ ENDP			; std::numeric_limits<double>::max
_TEXT	ENDS
; Function compile flags: /Odtp /RTCsu
; File d:\microsoft visual studio 14.0\vc\include\limits
;	COMDAT ?min@?$numeric_limits@N@std@@SANXZ
_TEXT	SEGMENT
?min@?$numeric_limits@N@std@@SANXZ PROC			; std::numeric_limits<double>::min, COMDAT

; 1151 : 		{	// return minimum value

	push	ebp
	mov	ebp, esp

; 1152 : 		return (_DBL_MIN);

	fld	QWORD PTR __real@0010000000000000

; 1153 : 		}

	pop	ebp
	ret	0
?min@?$numeric_limits@N@std@@SANXZ ENDP			; std::numeric_limits<double>::min
_TEXT	ENDS
; Function compile flags: /Odtp /RTCsu
; File d:\microsoft visual studio 14.0\vc\include\limits
;	COMDAT ?max@?$numeric_limits@M@std@@SAMXZ
_TEXT	SEGMENT
?max@?$numeric_limits@M@std@@SAMXZ PROC			; std::numeric_limits<float>::max, COMDAT

; 1093 : 		{	// return maximum value

	push	ebp
	mov	ebp, esp

; 1094 : 		return (_FLT_MAX);

	fld	DWORD PTR __real@7f7fffff

; 1095 : 		}

	pop	ebp
	ret	0
?max@?$numeric_limits@M@std@@SAMXZ ENDP			; std::numeric_limits<float>::max
_TEXT	ENDS
; Function compile flags: /Odtp /RTCsu
; File d:\microsoft visual studio 14.0\vc\include\limits
;	COMDAT ?min@?$numeric_limits@M@std@@SAMXZ
_TEXT	SEGMENT
?min@?$numeric_limits@M@std@@SAMXZ PROC			; std::numeric_limits<float>::min, COMDAT

; 1088 : 		{	// return minimum value

	push	ebp
	mov	ebp, esp

; 1089 : 		return (_FLT_MIN);

	fld	DWORD PTR __real@00800000

; 1090 : 		}

	pop	ebp
	ret	0
?min@?$numeric_limits@M@std@@SAMXZ ENDP			; std::numeric_limits<float>::min
_TEXT	ENDS
; Function compile flags: /Odtp /RTCsu
; File d:\microsoft visual studio 14.0\vc\include\limits
;	COMDAT ?max@?$numeric_limits@H@std@@SAHXZ
_TEXT	SEGMENT
?max@?$numeric_limits@H@std@@SAHXZ PROC			; std::numeric_limits<int>::max, COMDAT

; 685  : 		{	// return maximum value

	push	ebp
	mov	ebp, esp

; 686  : 		return (INT_MAX);

	mov	eax, 2147483647				; 7fffffffH

; 687  : 		}

	pop	ebp
	ret	0
?max@?$numeric_limits@H@std@@SAHXZ ENDP			; std::numeric_limits<int>::max
_TEXT	ENDS
; Function compile flags: /Odtp /RTCsu
; File d:\cours\uqac\intelligence artificielle - jeux vidéos\buckland_aisource\mini_projet_raven\gravemarkers.cpp
;	COMDAT ?__empty_global_delete@@YAXPAXI@Z
_TEXT	SEGMENT
___formal$ = 8						; size = 4
___formal$ = 12						; size = 4
?__empty_global_delete@@YAXPAXI@Z PROC			; __empty_global_delete, COMDAT

	push	ebp
	mov	ebp, esp
	pop	ebp
	ret	0
?__empty_global_delete@@YAXPAXI@Z ENDP			; __empty_global_delete
_TEXT	ENDS
; Function compile flags: /Odtp /RTCsu
; File d:\cours\uqac\intelligence artificielle - jeux vidéos\buckland_aisource\mini_projet_raven\gravemarkers.cpp
;	COMDAT ?__empty_global_delete@@YAXPAX@Z
_TEXT	SEGMENT
___formal$ = 8						; size = 4
?__empty_global_delete@@YAXPAX@Z PROC			; __empty_global_delete, COMDAT

	push	ebp
	mov	ebp, esp
	pop	ebp
	ret	0
?__empty_global_delete@@YAXPAX@Z ENDP			; __empty_global_delete
_TEXT	ENDS
END
