; Listing generated by Microsoft (R) Optimizing Compiler Version 19.00.23026.0 

	TITLE	D:\cours\UQAC\Intelligence artificielle - jeux vidéos\Buckland_AISource\Mini_Projet_Raven\GraveMarkers.cpp
	.686P
	.XMM
	include listing.inc
	.model	flat

INCLUDELIB LIBCMTD
INCLUDELIB OLDNAMES

CONST	SEGMENT
?colors@@3QBKB DD 0ffH					; colors
	DD	0ff0000H
	DD	0ff00H
	DD	00H
	DD	0c8c8ffH
	DD	0c8c8c8H
	DD	0ffffH
	DD	0aaffH
	DD	0aa00ffH
	DD	05a85H
	DD	0ffffffH
	DD	06400H
	DD	0ffff00H
	DD	0c8c8c8H
	DD	0e6e6ffH
$SG156197 DB	'RIP', 00H
CONST	ENDS
PUBLIC	?__empty_global_delete@@YAXPAX@Z		; __empty_global_delete
PUBLIC	?__empty_global_delete@@YAXPAXI@Z		; __empty_global_delete
PUBLIC	?max@?$numeric_limits@H@std@@SAHXZ		; std::numeric_limits<int>::max
PUBLIC	?min@?$numeric_limits@M@std@@SAMXZ		; std::numeric_limits<float>::min
PUBLIC	?max@?$numeric_limits@M@std@@SAMXZ		; std::numeric_limits<float>::max
PUBLIC	?min@?$numeric_limits@N@std@@SANXZ		; std::numeric_limits<double>::min
PUBLIC	?max@?$numeric_limits@N@std@@SANXZ		; std::numeric_limits<double>::max
PUBLIC	??2@YAPAXIPAX@Z					; operator new
PUBLIC	?length@?$char_traits@D@std@@SAIPBD@Z		; std::char_traits<char>::length
PUBLIC	?copy@?$char_traits@D@std@@SAPADPADPBDI@Z	; std::char_traits<char>::copy
PUBLIC	?move@?$char_traits@D@std@@SAPADPADPBDI@Z	; std::char_traits<char>::move
PUBLIC	?assign@?$char_traits@D@std@@SAXAADABD@Z	; std::char_traits<char>::assign
PUBLIC	?_Adopt@_Iterator_base0@std@@QAEXPBX@Z		; std::_Iterator_base0::_Adopt
PUBLIC	??0_Container_proxy@std@@QAE@XZ			; std::_Container_proxy::_Container_proxy
PUBLIC	??0_Container_base12@std@@QAE@XZ		; std::_Container_base12::_Container_base12
PUBLIC	??1_Container_base12@std@@QAE@XZ		; std::_Container_base12::~_Container_base12
PUBLIC	?_Getpfirst@_Container_base12@std@@QBEPAPAU_Iterator_base12@2@XZ ; std::_Container_base12::_Getpfirst
PUBLIC	?_Orphan_all@_Container_base12@std@@QAEXXZ	; std::_Container_base12::_Orphan_all
PUBLIC	?_Swap_all@_Container_base12@std@@QAEXAAU12@@Z	; std::_Container_base12::_Swap_all
PUBLIC	??0_Iterator_base12@std@@QAE@XZ			; std::_Iterator_base12::_Iterator_base12
PUBLIC	??0_Iterator_base12@std@@QAE@ABU01@@Z		; std::_Iterator_base12::_Iterator_base12
PUBLIC	??4_Iterator_base12@std@@QAEAAU01@ABU01@@Z	; std::_Iterator_base12::operator=
PUBLIC	??1_Iterator_base12@std@@QAE@XZ			; std::_Iterator_base12::~_Iterator_base12
PUBLIC	?_Adopt@_Iterator_base12@std@@QAEXPBU_Container_base12@2@@Z ; std::_Iterator_base12::_Adopt
PUBLIC	?_Clrcont@_Iterator_base12@std@@QAEXXZ		; std::_Iterator_base12::_Clrcont
PUBLIC	?_Getcont@_Iterator_base12@std@@QBEPBU_Container_base12@2@XZ ; std::_Iterator_base12::_Getcont
PUBLIC	?_Getpnext@_Iterator_base12@std@@QAEPAPAU12@XZ	; std::_Iterator_base12::_Getpnext
PUBLIC	?_Orphan_me@_Iterator_base12@std@@QAEXXZ	; std::_Iterator_base12::_Orphan_me
PUBLIC	??0?$allocator@D@std@@QAE@XZ			; std::allocator<char>::allocator<char>
PUBLIC	??0?$allocator@D@std@@QAE@ABV01@@Z		; std::allocator<char>::allocator<char>
PUBLIC	?deallocate@?$allocator@D@std@@QAEXPADI@Z	; std::allocator<char>::deallocate
PUBLIC	?allocate@?$allocator@D@std@@QAEPADI@Z		; std::allocator<char>::allocate
PUBLIC	?max_size@?$allocator@D@std@@QBEIXZ		; std::allocator<char>::max_size
PUBLIC	?max_size@?$allocator_traits@V?$allocator@D@std@@@std@@SAIABV?$allocator@D@2@@Z ; std::allocator_traits<std::allocator<char> >::max_size
PUBLIC	??0?$_Wrap_alloc@V?$allocator@D@std@@@std@@QAE@ABV?$allocator@D@1@@Z ; std::_Wrap_alloc<std::allocator<char> >::_Wrap_alloc<std::allocator<char> >
PUBLIC	?allocate@?$_Wrap_alloc@V?$allocator@D@std@@@std@@QAEPADI@Z ; std::_Wrap_alloc<std::allocator<char> >::allocate
PUBLIC	?deallocate@?$_Wrap_alloc@V?$allocator@D@std@@@std@@QAEXPADI@Z ; std::_Wrap_alloc<std::allocator<char> >::deallocate
PUBLIC	?max_size@?$_Wrap_alloc@V?$allocator@D@std@@@std@@QBEIU_Nil@2@@Z ; std::_Wrap_alloc<std::allocator<char> >::max_size
PUBLIC	??0?$_String_val@U?$_Simple_types@D@std@@@std@@QAE@XZ ; std::_String_val<std::_Simple_types<char> >::_String_val<std::_Simple_types<char> >
PUBLIC	?_Myptr@?$_String_val@U?$_Simple_types@D@std@@@std@@QAEPADXZ ; std::_String_val<std::_Simple_types<char> >::_Myptr
PUBLIC	?_Myptr@?$_String_val@U?$_Simple_types@D@std@@@std@@QBEPBDXZ ; std::_String_val<std::_Simple_types<char> >::_Myptr
PUBLIC	??1?$_String_val@U?$_Simple_types@D@std@@@std@@QAE@XZ ; std::_String_val<std::_Simple_types<char> >::~_String_val<std::_Simple_types<char> >
PUBLIC	?_Myptr@?$_String_alloc@U?$_String_base_types@DV?$allocator@D@std@@@std@@@std@@QAEPADXZ ; std::_String_alloc<std::_String_base_types<char,std::allocator<char> > >::_Myptr
PUBLIC	?_Myptr@?$_String_alloc@U?$_String_base_types@DV?$allocator@D@std@@@std@@@std@@QBEPBDXZ ; std::_String_alloc<std::_String_base_types<char,std::allocator<char> > >::_Myptr
PUBLIC	??0?$_String_alloc@U?$_String_base_types@DV?$allocator@D@std@@@std@@@std@@QAE@ABV?$allocator@D@1@@Z ; std::_String_alloc<std::_String_base_types<char,std::allocator<char> > >::_String_alloc<std::_String_base_types<char,std::allocator<char> > >
PUBLIC	??1?$_String_alloc@U?$_String_base_types@DV?$allocator@D@std@@@std@@@std@@QAE@XZ ; std::_String_alloc<std::_String_base_types<char,std::allocator<char> > >::~_String_alloc<std::_String_base_types<char,std::allocator<char> > >
PUBLIC	?_Alloc_proxy@?$_String_alloc@U?$_String_base_types@DV?$allocator@D@std@@@std@@@std@@QAEXXZ ; std::_String_alloc<std::_String_base_types<char,std::allocator<char> > >::_Alloc_proxy
PUBLIC	?_Free_proxy@?$_String_alloc@U?$_String_base_types@DV?$allocator@D@std@@@std@@@std@@QAEXXZ ; std::_String_alloc<std::_String_base_types<char,std::allocator<char> > >::_Free_proxy
PUBLIC	?_Myproxy@?$_String_alloc@U?$_String_base_types@DV?$allocator@D@std@@@std@@@std@@QAEAAPAU_Container_proxy@2@XZ ; std::_String_alloc<std::_String_base_types<char,std::allocator<char> > >::_Myproxy
PUBLIC	?_Orphan_all@?$_String_alloc@U?$_String_base_types@DV?$allocator@D@std@@@std@@@std@@QAEXXZ ; std::_String_alloc<std::_String_base_types<char,std::allocator<char> > >::_Orphan_all
PUBLIC	?_Getal@?$_String_alloc@U?$_String_base_types@DV?$allocator@D@std@@@std@@@std@@QAEAAU?$_Wrap_alloc@V?$allocator@D@std@@@2@XZ ; std::_String_alloc<std::_String_base_types<char,std::allocator<char> > >::_Getal
PUBLIC	?_Getal@?$_String_alloc@U?$_String_base_types@DV?$allocator@D@std@@@std@@@std@@QBEABU?$_Wrap_alloc@V?$allocator@D@std@@@2@XZ ; std::_String_alloc<std::_String_base_types<char,std::allocator<char> > >::_Getal
PUBLIC	?_Get_data@?$_String_alloc@U?$_String_base_types@DV?$allocator@D@std@@@std@@@std@@QAEAAV?$_String_val@U?$_Simple_types@D@std@@@2@XZ ; std::_String_alloc<std::_String_base_types<char,std::allocator<char> > >::_Get_data
PUBLIC	?_Get_data@?$_String_alloc@U?$_String_base_types@DV?$allocator@D@std@@@std@@@std@@QBEABV?$_String_val@U?$_Simple_types@D@std@@@2@XZ ; std::_String_alloc<std::_String_base_types<char,std::allocator<char> > >::_Get_data
PUBLIC	?_Bx@?$_String_alloc@U?$_String_base_types@DV?$allocator@D@std@@@std@@@std@@QAEAAT_Bxty@?$_String_val@U?$_Simple_types@D@std@@@2@XZ ; std::_String_alloc<std::_String_base_types<char,std::allocator<char> > >::_Bx
PUBLIC	?_Mysize@?$_String_alloc@U?$_String_base_types@DV?$allocator@D@std@@@std@@@std@@QAEAAIXZ ; std::_String_alloc<std::_String_base_types<char,std::allocator<char> > >::_Mysize
PUBLIC	?_Mysize@?$_String_alloc@U?$_String_base_types@DV?$allocator@D@std@@@std@@@std@@QBEABIXZ ; std::_String_alloc<std::_String_base_types<char,std::allocator<char> > >::_Mysize
PUBLIC	?_Myres@?$_String_alloc@U?$_String_base_types@DV?$allocator@D@std@@@std@@@std@@QAEAAIXZ ; std::_String_alloc<std::_String_base_types<char,std::allocator<char> > >::_Myres
PUBLIC	?_Get_first@?$_Compressed_pair@U?$_Wrap_alloc@V?$allocator@D@std@@@std@@V?$_String_val@U?$_Simple_types@D@std@@@2@$00@std@@QAEAAU?$_Wrap_alloc@V?$allocator@D@std@@@2@XZ ; std::_Compressed_pair<std::_Wrap_alloc<std::allocator<char> >,std::_String_val<std::_Simple_types<char> >,1>::_Get_first
PUBLIC	?_Get_first@?$_Compressed_pair@U?$_Wrap_alloc@V?$allocator@D@std@@@std@@V?$_String_val@U?$_Simple_types@D@std@@@2@$00@std@@QBEABU?$_Wrap_alloc@V?$allocator@D@std@@@2@XZ ; std::_Compressed_pair<std::_Wrap_alloc<std::allocator<char> >,std::_String_val<std::_Simple_types<char> >,1>::_Get_first
PUBLIC	?_Get_second@?$_Compressed_pair@U?$_Wrap_alloc@V?$allocator@D@std@@@std@@V?$_String_val@U?$_Simple_types@D@std@@@2@$00@std@@QAEAAV?$_String_val@U?$_Simple_types@D@std@@@2@XZ ; std::_Compressed_pair<std::_Wrap_alloc<std::allocator<char> >,std::_String_val<std::_Simple_types<char> >,1>::_Get_second
PUBLIC	?_Get_second@?$_Compressed_pair@U?$_Wrap_alloc@V?$allocator@D@std@@@std@@V?$_String_val@U?$_Simple_types@D@std@@@2@$00@std@@QBEABV?$_String_val@U?$_Simple_types@D@std@@@2@XZ ; std::_Compressed_pair<std::_Wrap_alloc<std::allocator<char> >,std::_String_val<std::_Simple_types<char> >,1>::_Get_second
PUBLIC	??1?$_Compressed_pair@U?$_Wrap_alloc@V?$allocator@D@std@@@std@@V?$_String_val@U?$_Simple_types@D@std@@@2@$00@std@@QAE@XZ ; std::_Compressed_pair<std::_Wrap_alloc<std::allocator<char> >,std::_String_val<std::_Simple_types<char> >,1>::~_Compressed_pair<std::_Wrap_alloc<std::allocator<char> >,std::_String_val<std::_Simple_types<char> >,1>
PUBLIC	??0?$basic_string@DU?$char_traits@D@std@@V?$allocator@D@2@@std@@QAE@PBD@Z ; std::basic_string<char,std::char_traits<char>,std::allocator<char> >::basic_string<char,std::char_traits<char>,std::allocator<char> >
PUBLIC	??1?$basic_string@DU?$char_traits@D@std@@V?$allocator@D@2@@std@@QAE@XZ ; std::basic_string<char,std::char_traits<char>,std::allocator<char> >::~basic_string<char,std::char_traits<char>,std::allocator<char> >
PUBLIC	?assign@?$basic_string@DU?$char_traits@D@std@@V?$allocator@D@2@@std@@QAEAAV12@ABV12@II@Z ; std::basic_string<char,std::char_traits<char>,std::allocator<char> >::assign
PUBLIC	?assign@?$basic_string@DU?$char_traits@D@std@@V?$allocator@D@2@@std@@QAEAAV12@PBDI@Z ; std::basic_string<char,std::char_traits<char>,std::allocator<char> >::assign
PUBLIC	?assign@?$basic_string@DU?$char_traits@D@std@@V?$allocator@D@2@@std@@QAEAAV12@PBD@Z ; std::basic_string<char,std::char_traits<char>,std::allocator<char> >::assign
PUBLIC	?erase@?$basic_string@DU?$char_traits@D@std@@V?$allocator@D@2@@std@@QAEAAV12@I@Z ; std::basic_string<char,std::char_traits<char>,std::allocator<char> >::erase
PUBLIC	?erase@?$basic_string@DU?$char_traits@D@std@@V?$allocator@D@2@@std@@QAEAAV12@II@Z ; std::basic_string<char,std::char_traits<char>,std::allocator<char> >::erase
PUBLIC	?c_str@?$basic_string@DU?$char_traits@D@std@@V?$allocator@D@2@@std@@QBEPBDXZ ; std::basic_string<char,std::char_traits<char>,std::allocator<char> >::c_str
PUBLIC	?size@?$basic_string@DU?$char_traits@D@std@@V?$allocator@D@2@@std@@QBEIXZ ; std::basic_string<char,std::char_traits<char>,std::allocator<char> >::size
PUBLIC	?max_size@?$basic_string@DU?$char_traits@D@std@@V?$allocator@D@2@@std@@QBEIXZ ; std::basic_string<char,std::char_traits<char>,std::allocator<char> >::max_size
PUBLIC	?_Copy@?$basic_string@DU?$char_traits@D@std@@V?$allocator@D@2@@std@@QAEXII@Z ; std::basic_string<char,std::char_traits<char>,std::allocator<char> >::_Copy
PUBLIC	?_Eos@?$basic_string@DU?$char_traits@D@std@@V?$allocator@D@2@@std@@QAEXI@Z ; std::basic_string<char,std::char_traits<char>,std::allocator<char> >::_Eos
PUBLIC	?_Grow@?$basic_string@DU?$char_traits@D@std@@V?$allocator@D@2@@std@@QAE_NI_N@Z ; std::basic_string<char,std::char_traits<char>,std::allocator<char> >::_Grow
PUBLIC	?_Inside@?$basic_string@DU?$char_traits@D@std@@V?$allocator@D@2@@std@@QAE_NPBD@Z ; std::basic_string<char,std::char_traits<char>,std::allocator<char> >::_Inside
PUBLIC	?_Tidy@?$basic_string@DU?$char_traits@D@std@@V?$allocator@D@2@@std@@QAEX_NI@Z ; std::basic_string<char,std::char_traits<char>,std::allocator<char> >::_Tidy
PUBLIC	?_Xlen@?$basic_string@DU?$char_traits@D@std@@V?$allocator@D@2@@std@@QBEXXZ ; std::basic_string<char,std::char_traits<char>,std::allocator<char> >::_Xlen
PUBLIC	?_Xran@?$basic_string@DU?$char_traits@D@std@@V?$allocator@D@2@@std@@QBEXXZ ; std::basic_string<char,std::char_traits<char>,std::allocator<char> >::_Xran
PUBLIC	??0Vector2D@@QAE@NN@Z				; Vector2D::Vector2D
PUBLIC	?Perp@Vector2D@@QBE?AU1@XZ			; Vector2D::Perp
PUBLIC	?GetTickCount@CrudeTimer@@QAENXZ		; CrudeTimer::GetTickCount
PUBLIC	??0GraveRecord@GraveMarkers@@QAE@UVector2D@@@Z	; GraveMarkers::GraveRecord::GraveRecord
PUBLIC	??0?$allocator@UVector2D@@@std@@QAE@XZ		; std::allocator<Vector2D>::allocator<Vector2D>
PUBLIC	??0?$allocator@UVector2D@@@std@@QAE@ABV01@@Z	; std::allocator<Vector2D>::allocator<Vector2D>
PUBLIC	?deallocate@?$allocator@UVector2D@@@std@@QAEXPAUVector2D@@I@Z ; std::allocator<Vector2D>::deallocate
PUBLIC	?allocate@?$allocator@UVector2D@@@std@@QAEPAUVector2D@@I@Z ; std::allocator<Vector2D>::allocate
PUBLIC	?max_size@?$allocator@UVector2D@@@std@@QBEIXZ	; std::allocator<Vector2D>::max_size
PUBLIC	?max_size@?$allocator_traits@V?$allocator@UVector2D@@@std@@@std@@SAIABV?$allocator@UVector2D@@@2@@Z ; std::allocator_traits<std::allocator<Vector2D> >::max_size
PUBLIC	?select_on_container_copy_construction@?$allocator_traits@V?$allocator@UVector2D@@@std@@@std@@SA?AV?$allocator@UVector2D@@@2@ABV32@@Z ; std::allocator_traits<std::allocator<Vector2D> >::select_on_container_copy_construction
PUBLIC	?select_on_container_copy_construction@?$_Wrap_alloc@V?$allocator@UVector2D@@@std@@@std@@QBE?AU12@U_Nil@2@@Z ; std::_Wrap_alloc<std::allocator<Vector2D> >::select_on_container_copy_construction
PUBLIC	??0?$_Wrap_alloc@V?$allocator@UVector2D@@@std@@@std@@QAE@ABV?$allocator@UVector2D@@@1@@Z ; std::_Wrap_alloc<std::allocator<Vector2D> >::_Wrap_alloc<std::allocator<Vector2D> >
PUBLIC	??4?$_Wrap_alloc@V?$allocator@UVector2D@@@std@@@std@@QAEAAU01@ABU01@@Z ; std::_Wrap_alloc<std::allocator<Vector2D> >::operator=
PUBLIC	?allocate@?$_Wrap_alloc@V?$allocator@UVector2D@@@std@@@std@@QAEPAUVector2D@@I@Z ; std::_Wrap_alloc<std::allocator<Vector2D> >::allocate
PUBLIC	?deallocate@?$_Wrap_alloc@V?$allocator@UVector2D@@@std@@@std@@QAEXPAUVector2D@@I@Z ; std::_Wrap_alloc<std::allocator<Vector2D> >::deallocate
PUBLIC	?max_size@?$_Wrap_alloc@V?$allocator@UVector2D@@@std@@@std@@QBEIU_Nil@2@@Z ; std::_Wrap_alloc<std::allocator<Vector2D> >::max_size
PUBLIC	??0?$_Vector_alloc@U?$_Vec_base_types@UVector2D@@V?$allocator@UVector2D@@@std@@@std@@@std@@QAE@ABV?$allocator@UVector2D@@@1@@Z ; std::_Vector_alloc<std::_Vec_base_types<Vector2D,std::allocator<Vector2D> > >::_Vector_alloc<std::_Vec_base_types<Vector2D,std::allocator<Vector2D> > >
PUBLIC	??0?$_Vector_alloc@U?$_Vec_base_types@UVector2D@@V?$allocator@UVector2D@@@std@@@std@@@std@@QAE@$$QAV?$allocator@UVector2D@@@1@@Z ; std::_Vector_alloc<std::_Vec_base_types<Vector2D,std::allocator<Vector2D> > >::_Vector_alloc<std::_Vec_base_types<Vector2D,std::allocator<Vector2D> > >
PUBLIC	??1?$_Vector_alloc@U?$_Vec_base_types@UVector2D@@V?$allocator@UVector2D@@@std@@@std@@@std@@QAE@XZ ; std::_Vector_alloc<std::_Vec_base_types<Vector2D,std::allocator<Vector2D> > >::~_Vector_alloc<std::_Vec_base_types<Vector2D,std::allocator<Vector2D> > >
PUBLIC	?_Move_alloc@?$_Vector_alloc@U?$_Vec_base_types@UVector2D@@V?$allocator@UVector2D@@@std@@@std@@@std@@QAEXAAU?$_Wrap_alloc@V?$allocator@UVector2D@@@std@@@2@@Z ; std::_Vector_alloc<std::_Vec_base_types<Vector2D,std::allocator<Vector2D> > >::_Move_alloc
PUBLIC	?_Alloc_proxy@?$_Vector_alloc@U?$_Vec_base_types@UVector2D@@V?$allocator@UVector2D@@@std@@@std@@@std@@QAEXXZ ; std::_Vector_alloc<std::_Vec_base_types<Vector2D,std::allocator<Vector2D> > >::_Alloc_proxy
PUBLIC	?_Free_proxy@?$_Vector_alloc@U?$_Vec_base_types@UVector2D@@V?$allocator@UVector2D@@@std@@@std@@@std@@QAEXXZ ; std::_Vector_alloc<std::_Vec_base_types<Vector2D,std::allocator<Vector2D> > >::_Free_proxy
PUBLIC	?_Getpfirst@?$_Vector_alloc@U?$_Vec_base_types@UVector2D@@V?$allocator@UVector2D@@@std@@@std@@@std@@QBEPAPAU_Iterator_base12@2@XZ ; std::_Vector_alloc<std::_Vec_base_types<Vector2D,std::allocator<Vector2D> > >::_Getpfirst
PUBLIC	?_Myproxy@?$_Vector_alloc@U?$_Vec_base_types@UVector2D@@V?$allocator@UVector2D@@@std@@@std@@@std@@QAEAAPAU_Container_proxy@2@XZ ; std::_Vector_alloc<std::_Vec_base_types<Vector2D,std::allocator<Vector2D> > >::_Myproxy
PUBLIC	?_Orphan_all@?$_Vector_alloc@U?$_Vec_base_types@UVector2D@@V?$allocator@UVector2D@@@std@@@std@@@std@@QAEXXZ ; std::_Vector_alloc<std::_Vec_base_types<Vector2D,std::allocator<Vector2D> > >::_Orphan_all
PUBLIC	?_Swap_all@?$_Vector_alloc@U?$_Vec_base_types@UVector2D@@V?$allocator@UVector2D@@@std@@@std@@@std@@QAEXAAV12@@Z ; std::_Vector_alloc<std::_Vec_base_types<Vector2D,std::allocator<Vector2D> > >::_Swap_all
PUBLIC	?_Getal@?$_Vector_alloc@U?$_Vec_base_types@UVector2D@@V?$allocator@UVector2D@@@std@@@std@@@std@@QAEAAU?$_Wrap_alloc@V?$allocator@UVector2D@@@std@@@2@XZ ; std::_Vector_alloc<std::_Vec_base_types<Vector2D,std::allocator<Vector2D> > >::_Getal
PUBLIC	?_Getal@?$_Vector_alloc@U?$_Vec_base_types@UVector2D@@V?$allocator@UVector2D@@@std@@@std@@@std@@QBEABU?$_Wrap_alloc@V?$allocator@UVector2D@@@std@@@2@XZ ; std::_Vector_alloc<std::_Vec_base_types<Vector2D,std::allocator<Vector2D> > >::_Getal
PUBLIC	?_Get_data@?$_Vector_alloc@U?$_Vec_base_types@UVector2D@@V?$allocator@UVector2D@@@std@@@std@@@std@@QAEAAV?$_Vector_val@U?$_Simple_types@UVector2D@@@std@@@2@XZ ; std::_Vector_alloc<std::_Vec_base_types<Vector2D,std::allocator<Vector2D> > >::_Get_data
PUBLIC	?_Get_data@?$_Vector_alloc@U?$_Vec_base_types@UVector2D@@V?$allocator@UVector2D@@@std@@@std@@@std@@QBEABV?$_Vector_val@U?$_Simple_types@UVector2D@@@std@@@2@XZ ; std::_Vector_alloc<std::_Vec_base_types<Vector2D,std::allocator<Vector2D> > >::_Get_data
PUBLIC	?_Myfirst@?$_Vector_alloc@U?$_Vec_base_types@UVector2D@@V?$allocator@UVector2D@@@std@@@std@@@std@@QAEAAPAUVector2D@@XZ ; std::_Vector_alloc<std::_Vec_base_types<Vector2D,std::allocator<Vector2D> > >::_Myfirst
PUBLIC	?_Myfirst@?$_Vector_alloc@U?$_Vec_base_types@UVector2D@@V?$allocator@UVector2D@@@std@@@std@@@std@@QBEABQAUVector2D@@XZ ; std::_Vector_alloc<std::_Vec_base_types<Vector2D,std::allocator<Vector2D> > >::_Myfirst
PUBLIC	?_Mylast@?$_Vector_alloc@U?$_Vec_base_types@UVector2D@@V?$allocator@UVector2D@@@std@@@std@@@std@@QAEAAPAUVector2D@@XZ ; std::_Vector_alloc<std::_Vec_base_types<Vector2D,std::allocator<Vector2D> > >::_Mylast
PUBLIC	?_Mylast@?$_Vector_alloc@U?$_Vec_base_types@UVector2D@@V?$allocator@UVector2D@@@std@@@std@@@std@@QBEABQAUVector2D@@XZ ; std::_Vector_alloc<std::_Vec_base_types<Vector2D,std::allocator<Vector2D> > >::_Mylast
PUBLIC	?_Myend@?$_Vector_alloc@U?$_Vec_base_types@UVector2D@@V?$allocator@UVector2D@@@std@@@std@@@std@@QAEAAPAUVector2D@@XZ ; std::_Vector_alloc<std::_Vec_base_types<Vector2D,std::allocator<Vector2D> > >::_Myend
PUBLIC	?_Myend@?$_Vector_alloc@U?$_Vec_base_types@UVector2D@@V?$allocator@UVector2D@@@std@@@std@@@std@@QBEABQAUVector2D@@XZ ; std::_Vector_alloc<std::_Vec_base_types<Vector2D,std::allocator<Vector2D> > >::_Myend
PUBLIC	??0?$_Vector_val@U?$_Simple_types@UVector2D@@@std@@@std@@QAE@XZ ; std::_Vector_val<std::_Simple_types<Vector2D> >::_Vector_val<std::_Simple_types<Vector2D> >
PUBLIC	??1?$_Vector_val@U?$_Simple_types@UVector2D@@@std@@@std@@QAE@XZ ; std::_Vector_val<std::_Simple_types<Vector2D> >::~_Vector_val<std::_Simple_types<Vector2D> >
PUBLIC	?_Get_first@?$_Compressed_pair@U?$_Wrap_alloc@V?$allocator@UVector2D@@@std@@@std@@V?$_Vector_val@U?$_Simple_types@UVector2D@@@std@@@2@$00@std@@QAEAAU?$_Wrap_alloc@V?$allocator@UVector2D@@@std@@@2@XZ ; std::_Compressed_pair<std::_Wrap_alloc<std::allocator<Vector2D> >,std::_Vector_val<std::_Simple_types<Vector2D> >,1>::_Get_first
PUBLIC	?_Get_first@?$_Compressed_pair@U?$_Wrap_alloc@V?$allocator@UVector2D@@@std@@@std@@V?$_Vector_val@U?$_Simple_types@UVector2D@@@std@@@2@$00@std@@QBEABU?$_Wrap_alloc@V?$allocator@UVector2D@@@std@@@2@XZ ; std::_Compressed_pair<std::_Wrap_alloc<std::allocator<Vector2D> >,std::_Vector_val<std::_Simple_types<Vector2D> >,1>::_Get_first
PUBLIC	?_Get_second@?$_Compressed_pair@U?$_Wrap_alloc@V?$allocator@UVector2D@@@std@@@std@@V?$_Vector_val@U?$_Simple_types@UVector2D@@@std@@@2@$00@std@@QAEAAV?$_Vector_val@U?$_Simple_types@UVector2D@@@std@@@2@XZ ; std::_Compressed_pair<std::_Wrap_alloc<std::allocator<Vector2D> >,std::_Vector_val<std::_Simple_types<Vector2D> >,1>::_Get_second
PUBLIC	?_Get_second@?$_Compressed_pair@U?$_Wrap_alloc@V?$allocator@UVector2D@@@std@@@std@@V?$_Vector_val@U?$_Simple_types@UVector2D@@@std@@@2@$00@std@@QBEABV?$_Vector_val@U?$_Simple_types@UVector2D@@@std@@@2@XZ ; std::_Compressed_pair<std::_Wrap_alloc<std::allocator<Vector2D> >,std::_Vector_val<std::_Simple_types<Vector2D> >,1>::_Get_second
PUBLIC	??1?$_Compressed_pair@U?$_Wrap_alloc@V?$allocator@UVector2D@@@std@@@std@@V?$_Vector_val@U?$_Simple_types@UVector2D@@@std@@@2@$00@std@@QAE@XZ ; std::_Compressed_pair<std::_Wrap_alloc<std::allocator<Vector2D> >,std::_Vector_val<std::_Simple_types<Vector2D> >,1>::~_Compressed_pair<std::_Wrap_alloc<std::allocator<Vector2D> >,std::_Vector_val<std::_Simple_types<Vector2D> >,1>
PUBLIC	??0?$vector@UVector2D@@V?$allocator@UVector2D@@@std@@@std@@QAE@XZ ; std::vector<Vector2D,std::allocator<Vector2D> >::vector<Vector2D,std::allocator<Vector2D> >
PUBLIC	??0?$vector@UVector2D@@V?$allocator@UVector2D@@@std@@@std@@QAE@ABV01@@Z ; std::vector<Vector2D,std::allocator<Vector2D> >::vector<Vector2D,std::allocator<Vector2D> >
PUBLIC	??0?$vector@UVector2D@@V?$allocator@UVector2D@@@std@@@std@@QAE@$$QAV01@@Z ; std::vector<Vector2D,std::allocator<Vector2D> >::vector<Vector2D,std::allocator<Vector2D> >
PUBLIC	??4?$vector@UVector2D@@V?$allocator@UVector2D@@@std@@@std@@QAEAAV01@$$QAV01@@Z ; std::vector<Vector2D,std::allocator<Vector2D> >::operator=
PUBLIC	?_Assign_rv@?$vector@UVector2D@@V?$allocator@UVector2D@@@std@@@std@@QAEX$$QAV12@U?$integral_constant@_N$00@2@@Z ; std::vector<Vector2D,std::allocator<Vector2D> >::_Assign_rv
PUBLIC	?_Assign_rv@?$vector@UVector2D@@V?$allocator@UVector2D@@@std@@@std@@QAEX$$QAV12@@Z ; std::vector<Vector2D,std::allocator<Vector2D> >::_Assign_rv
PUBLIC	??1?$vector@UVector2D@@V?$allocator@UVector2D@@@std@@@std@@QAE@XZ ; std::vector<Vector2D,std::allocator<Vector2D> >::~vector<Vector2D,std::allocator<Vector2D> >
PUBLIC	?capacity@?$vector@UVector2D@@V?$allocator@UVector2D@@@std@@@std@@QBEIXZ ; std::vector<Vector2D,std::allocator<Vector2D> >::capacity
PUBLIC	?_Unused_capacity@?$vector@UVector2D@@V?$allocator@UVector2D@@@std@@@std@@QBEIXZ ; std::vector<Vector2D,std::allocator<Vector2D> >::_Unused_capacity
PUBLIC	?begin@?$vector@UVector2D@@V?$allocator@UVector2D@@@std@@@std@@QBE?AV?$_Vector_const_iterator@V?$_Vector_val@U?$_Simple_types@UVector2D@@@std@@@std@@@2@XZ ; std::vector<Vector2D,std::allocator<Vector2D> >::begin
PUBLIC	?end@?$vector@UVector2D@@V?$allocator@UVector2D@@@std@@@std@@QBE?AV?$_Vector_const_iterator@V?$_Vector_val@U?$_Simple_types@UVector2D@@@std@@@std@@@2@XZ ; std::vector<Vector2D,std::allocator<Vector2D> >::end
PUBLIC	?size@?$vector@UVector2D@@V?$allocator@UVector2D@@@std@@@std@@QBEIXZ ; std::vector<Vector2D,std::allocator<Vector2D> >::size
PUBLIC	?max_size@?$vector@UVector2D@@V?$allocator@UVector2D@@@std@@@std@@QBEIXZ ; std::vector<Vector2D,std::allocator<Vector2D> >::max_size
PUBLIC	??A?$vector@UVector2D@@V?$allocator@UVector2D@@@std@@@std@@QBEABUVector2D@@I@Z ; std::vector<Vector2D,std::allocator<Vector2D> >::operator[]
PUBLIC	??A?$vector@UVector2D@@V?$allocator@UVector2D@@@std@@@std@@QAEAAUVector2D@@I@Z ; std::vector<Vector2D,std::allocator<Vector2D> >::operator[]
PUBLIC	?push_back@?$vector@UVector2D@@V?$allocator@UVector2D@@@std@@@std@@QAEXABUVector2D@@@Z ; std::vector<Vector2D,std::allocator<Vector2D> >::push_back
PUBLIC	?_Buy@?$vector@UVector2D@@V?$allocator@UVector2D@@@std@@@std@@IAE_NI@Z ; std::vector<Vector2D,std::allocator<Vector2D> >::_Buy
PUBLIC	?_Destroy@?$vector@UVector2D@@V?$allocator@UVector2D@@@std@@@std@@IAEXPAUVector2D@@0@Z ; std::vector<Vector2D,std::allocator<Vector2D> >::_Destroy
PUBLIC	?_Grow_to@?$vector@UVector2D@@V?$allocator@UVector2D@@@std@@@std@@IBEII@Z ; std::vector<Vector2D,std::allocator<Vector2D> >::_Grow_to
PUBLIC	?_Inside@?$vector@UVector2D@@V?$allocator@UVector2D@@@std@@@std@@IBE_NPBUVector2D@@@Z ; std::vector<Vector2D,std::allocator<Vector2D> >::_Inside
PUBLIC	?_Reallocate@?$vector@UVector2D@@V?$allocator@UVector2D@@@std@@@std@@IAEXI@Z ; std::vector<Vector2D,std::allocator<Vector2D> >::_Reallocate
PUBLIC	?_Reserve@?$vector@UVector2D@@V?$allocator@UVector2D@@@std@@@std@@IAEXI@Z ; std::vector<Vector2D,std::allocator<Vector2D> >::_Reserve
PUBLIC	?_Tidy@?$vector@UVector2D@@V?$allocator@UVector2D@@@std@@@std@@IAEXXZ ; std::vector<Vector2D,std::allocator<Vector2D> >::_Tidy
PUBLIC	?_Xlen@?$vector@UVector2D@@V?$allocator@UVector2D@@@std@@@std@@IBEXXZ ; std::vector<Vector2D,std::allocator<Vector2D> >::_Xlen
PUBLIC	?_Orphan_range@?$vector@UVector2D@@V?$allocator@UVector2D@@@std@@@std@@IBEXPAUVector2D@@0@Z ; std::vector<Vector2D,std::allocator<Vector2D> >::_Orphan_range
PUBLIC	??0?$allocator@UGraveRecord@GraveMarkers@@@std@@QAE@XZ ; std::allocator<GraveMarkers::GraveRecord>::allocator<GraveMarkers::GraveRecord>
PUBLIC	?deallocate@?$allocator@U?$_List_node@UGraveRecord@GraveMarkers@@PAX@std@@@std@@QAEXPAU?$_List_node@UGraveRecord@GraveMarkers@@PAX@2@I@Z ; std::allocator<std::_List_node<GraveMarkers::GraveRecord,void *> >::deallocate
PUBLIC	?allocate@?$allocator@U?$_List_node@UGraveRecord@GraveMarkers@@PAX@std@@@std@@QAEPAU?$_List_node@UGraveRecord@GraveMarkers@@PAX@2@I@Z ; std::allocator<std::_List_node<GraveMarkers::GraveRecord,void *> >::allocate
PUBLIC	?max_size@?$allocator@U?$_List_node@UGraveRecord@GraveMarkers@@PAX@std@@@std@@QBEIXZ ; std::allocator<std::_List_node<GraveMarkers::GraveRecord,void *> >::max_size
PUBLIC	?max_size@?$allocator_traits@V?$allocator@U?$_List_node@UGraveRecord@GraveMarkers@@PAX@std@@@std@@@std@@SAIABV?$allocator@U?$_List_node@UGraveRecord@GraveMarkers@@PAX@std@@@2@@Z ; std::allocator_traits<std::allocator<std::_List_node<GraveMarkers::GraveRecord,void *> > >::max_size
PUBLIC	?allocate@?$_Wrap_alloc@V?$allocator@U?$_List_node@UGraveRecord@GraveMarkers@@PAX@std@@@std@@@std@@QAEPAU?$_List_node@UGraveRecord@GraveMarkers@@PAX@2@I@Z ; std::_Wrap_alloc<std::allocator<std::_List_node<GraveMarkers::GraveRecord,void *> > >::allocate
PUBLIC	?deallocate@?$_Wrap_alloc@V?$allocator@U?$_List_node@UGraveRecord@GraveMarkers@@PAX@std@@@std@@@std@@QAEXPAU?$_List_node@UGraveRecord@GraveMarkers@@PAX@2@I@Z ; std::_Wrap_alloc<std::allocator<std::_List_node<GraveMarkers::GraveRecord,void *> > >::deallocate
PUBLIC	?max_size@?$_Wrap_alloc@V?$allocator@U?$_List_node@UGraveRecord@GraveMarkers@@PAX@std@@@std@@@std@@QBEIU_Nil@2@@Z ; std::_Wrap_alloc<std::allocator<std::_List_node<GraveMarkers::GraveRecord,void *> > >::max_size
PUBLIC	?_Nextnode@?$_List_alloc@U?$_List_base_types@UGraveRecord@GraveMarkers@@V?$allocator@UGraveRecord@GraveMarkers@@@std@@@std@@@std@@SAAAPAU?$_List_node@UGraveRecord@GraveMarkers@@PAX@2@PAU32@@Z ; std::_List_alloc<std::_List_base_types<GraveMarkers::GraveRecord,std::allocator<GraveMarkers::GraveRecord> > >::_Nextnode
PUBLIC	?_Prevnode@?$_List_alloc@U?$_List_base_types@UGraveRecord@GraveMarkers@@V?$allocator@UGraveRecord@GraveMarkers@@@std@@@std@@@std@@SAAAPAU?$_List_node@UGraveRecord@GraveMarkers@@PAX@2@PAU32@@Z ; std::_List_alloc<std::_List_base_types<GraveMarkers::GraveRecord,std::allocator<GraveMarkers::GraveRecord> > >::_Prevnode
PUBLIC	?_Myval@?$_List_alloc@U?$_List_base_types@UGraveRecord@GraveMarkers@@V?$allocator@UGraveRecord@GraveMarkers@@@std@@@std@@@std@@SAAAUGraveRecord@GraveMarkers@@PAU?$_List_node@UGraveRecord@GraveMarkers@@PAX@2@@Z ; std::_List_alloc<std::_List_base_types<GraveMarkers::GraveRecord,std::allocator<GraveMarkers::GraveRecord> > >::_Myval
PUBLIC	??0?$_List_alloc@U?$_List_base_types@UGraveRecord@GraveMarkers@@V?$allocator@UGraveRecord@GraveMarkers@@@std@@@std@@@std@@QAE@ABV?$allocator@UGraveRecord@GraveMarkers@@@1@@Z ; std::_List_alloc<std::_List_base_types<GraveMarkers::GraveRecord,std::allocator<GraveMarkers::GraveRecord> > >::_List_alloc<std::_List_base_types<GraveMarkers::GraveRecord,std::allocator<GraveMarkers::GraveRecord> > >
PUBLIC	??1?$_List_alloc@U?$_List_base_types@UGraveRecord@GraveMarkers@@V?$allocator@UGraveRecord@GraveMarkers@@@std@@@std@@@std@@QAE@XZ ; std::_List_alloc<std::_List_base_types<GraveMarkers::GraveRecord,std::allocator<GraveMarkers::GraveRecord> > >::~_List_alloc<std::_List_base_types<GraveMarkers::GraveRecord,std::allocator<GraveMarkers::GraveRecord> > >
PUBLIC	?_Alloc_proxy@?$_List_alloc@U?$_List_base_types@UGraveRecord@GraveMarkers@@V?$allocator@UGraveRecord@GraveMarkers@@@std@@@std@@@std@@QAEXXZ ; std::_List_alloc<std::_List_base_types<GraveMarkers::GraveRecord,std::allocator<GraveMarkers::GraveRecord> > >::_Alloc_proxy
PUBLIC	?_Free_proxy@?$_List_alloc@U?$_List_base_types@UGraveRecord@GraveMarkers@@V?$allocator@UGraveRecord@GraveMarkers@@@std@@@std@@@std@@QAEXXZ ; std::_List_alloc<std::_List_base_types<GraveMarkers::GraveRecord,std::allocator<GraveMarkers::GraveRecord> > >::_Free_proxy
PUBLIC	?_Getpfirst@?$_List_alloc@U?$_List_base_types@UGraveRecord@GraveMarkers@@V?$allocator@UGraveRecord@GraveMarkers@@@std@@@std@@@std@@QBEPAPAU_Iterator_base12@2@XZ ; std::_List_alloc<std::_List_base_types<GraveMarkers::GraveRecord,std::allocator<GraveMarkers::GraveRecord> > >::_Getpfirst
PUBLIC	?_Myproxy@?$_List_alloc@U?$_List_base_types@UGraveRecord@GraveMarkers@@V?$allocator@UGraveRecord@GraveMarkers@@@std@@@std@@@std@@QAEAAPAU_Container_proxy@2@XZ ; std::_List_alloc<std::_List_base_types<GraveMarkers::GraveRecord,std::allocator<GraveMarkers::GraveRecord> > >::_Myproxy
PUBLIC	?_Buyheadnode@?$_List_alloc@U?$_List_base_types@UGraveRecord@GraveMarkers@@V?$allocator@UGraveRecord@GraveMarkers@@@std@@@std@@@std@@QAEPAU?$_List_node@UGraveRecord@GraveMarkers@@PAX@2@XZ ; std::_List_alloc<std::_List_base_types<GraveMarkers::GraveRecord,std::allocator<GraveMarkers::GraveRecord> > >::_Buyheadnode
PUBLIC	?_Freeheadnode@?$_List_alloc@U?$_List_base_types@UGraveRecord@GraveMarkers@@V?$allocator@UGraveRecord@GraveMarkers@@@std@@@std@@@std@@QAEXPAU?$_List_node@UGraveRecord@GraveMarkers@@PAX@2@@Z ; std::_List_alloc<std::_List_base_types<GraveMarkers::GraveRecord,std::allocator<GraveMarkers::GraveRecord> > >::_Freeheadnode
PUBLIC	?_Buynode0@?$_List_alloc@U?$_List_base_types@UGraveRecord@GraveMarkers@@V?$allocator@UGraveRecord@GraveMarkers@@@std@@@std@@@std@@QAEPAU?$_List_node@UGraveRecord@GraveMarkers@@PAX@2@PAU32@0@Z ; std::_List_alloc<std::_List_base_types<GraveMarkers::GraveRecord,std::allocator<GraveMarkers::GraveRecord> > >::_Buynode0
PUBLIC	?_Orphan_all@?$_List_alloc@U?$_List_base_types@UGraveRecord@GraveMarkers@@V?$allocator@UGraveRecord@GraveMarkers@@@std@@@std@@@std@@QAEXXZ ; std::_List_alloc<std::_List_base_types<GraveMarkers::GraveRecord,std::allocator<GraveMarkers::GraveRecord> > >::_Orphan_all
PUBLIC	?_Getal@?$_List_alloc@U?$_List_base_types@UGraveRecord@GraveMarkers@@V?$allocator@UGraveRecord@GraveMarkers@@@std@@@std@@@std@@QAEAAU?$_Wrap_alloc@V?$allocator@U?$_List_node@UGraveRecord@GraveMarkers@@PAX@std@@@std@@@2@XZ ; std::_List_alloc<std::_List_base_types<GraveMarkers::GraveRecord,std::allocator<GraveMarkers::GraveRecord> > >::_Getal
PUBLIC	?_Getal@?$_List_alloc@U?$_List_base_types@UGraveRecord@GraveMarkers@@V?$allocator@UGraveRecord@GraveMarkers@@@std@@@std@@@std@@QBEABU?$_Wrap_alloc@V?$allocator@U?$_List_node@UGraveRecord@GraveMarkers@@PAX@std@@@std@@@2@XZ ; std::_List_alloc<std::_List_base_types<GraveMarkers::GraveRecord,std::allocator<GraveMarkers::GraveRecord> > >::_Getal
PUBLIC	?_Get_data@?$_List_alloc@U?$_List_base_types@UGraveRecord@GraveMarkers@@V?$allocator@UGraveRecord@GraveMarkers@@@std@@@std@@@std@@QAEAAV?$_List_val@U?$_List_simple_types@UGraveRecord@GraveMarkers@@@std@@@2@XZ ; std::_List_alloc<std::_List_base_types<GraveMarkers::GraveRecord,std::allocator<GraveMarkers::GraveRecord> > >::_Get_data
PUBLIC	?_Get_data@?$_List_alloc@U?$_List_base_types@UGraveRecord@GraveMarkers@@V?$allocator@UGraveRecord@GraveMarkers@@@std@@@std@@@std@@QBEABV?$_List_val@U?$_List_simple_types@UGraveRecord@GraveMarkers@@@std@@@2@XZ ; std::_List_alloc<std::_List_base_types<GraveMarkers::GraveRecord,std::allocator<GraveMarkers::GraveRecord> > >::_Get_data
PUBLIC	?_Myhead@?$_List_alloc@U?$_List_base_types@UGraveRecord@GraveMarkers@@V?$allocator@UGraveRecord@GraveMarkers@@@std@@@std@@@std@@QAEAAPAU?$_List_node@UGraveRecord@GraveMarkers@@PAX@2@XZ ; std::_List_alloc<std::_List_base_types<GraveMarkers::GraveRecord,std::allocator<GraveMarkers::GraveRecord> > >::_Myhead
PUBLIC	?_Mysize@?$_List_alloc@U?$_List_base_types@UGraveRecord@GraveMarkers@@V?$allocator@UGraveRecord@GraveMarkers@@@std@@@std@@@std@@QAEAAIXZ ; std::_List_alloc<std::_List_base_types<GraveMarkers::GraveRecord,std::allocator<GraveMarkers::GraveRecord> > >::_Mysize
PUBLIC	??0?$_List_val@U?$_List_simple_types@UGraveRecord@GraveMarkers@@@std@@@std@@QAE@XZ ; std::_List_val<std::_List_simple_types<GraveMarkers::GraveRecord> >::_List_val<std::_List_simple_types<GraveMarkers::GraveRecord> >
PUBLIC	?_Nextnode@?$_List_val@U?$_List_simple_types@UGraveRecord@GraveMarkers@@@std@@@std@@SAAAPAU?$_List_node@UGraveRecord@GraveMarkers@@PAX@2@PAU32@@Z ; std::_List_val<std::_List_simple_types<GraveMarkers::GraveRecord> >::_Nextnode
PUBLIC	?_Prevnode@?$_List_val@U?$_List_simple_types@UGraveRecord@GraveMarkers@@@std@@@std@@SAAAPAU?$_List_node@UGraveRecord@GraveMarkers@@PAX@2@PAU32@@Z ; std::_List_val<std::_List_simple_types<GraveMarkers::GraveRecord> >::_Prevnode
PUBLIC	?_Myval@?$_List_val@U?$_List_simple_types@UGraveRecord@GraveMarkers@@@std@@@std@@SAAAUGraveRecord@GraveMarkers@@PAU?$_List_node@UGraveRecord@GraveMarkers@@PAX@2@@Z ; std::_List_val<std::_List_simple_types<GraveMarkers::GraveRecord> >::_Myval
PUBLIC	??1?$_List_val@U?$_List_simple_types@UGraveRecord@GraveMarkers@@@std@@@std@@QAE@XZ ; std::_List_val<std::_List_simple_types<GraveMarkers::GraveRecord> >::~_List_val<std::_List_simple_types<GraveMarkers::GraveRecord> >
PUBLIC	?_Get_first@?$_Compressed_pair@U?$_Wrap_alloc@V?$allocator@U?$_List_node@UGraveRecord@GraveMarkers@@PAX@std@@@std@@@std@@V?$_List_val@U?$_List_simple_types@UGraveRecord@GraveMarkers@@@std@@@2@$00@std@@QAEAAU?$_Wrap_alloc@V?$allocator@U?$_List_node@UGraveRecord@GraveMarkers@@PAX@std@@@std@@@2@XZ ; std::_Compressed_pair<std::_Wrap_alloc<std::allocator<std::_List_node<GraveMarkers::GraveRecord,void *> > >,std::_List_val<std::_List_simple_types<GraveMarkers::GraveRecord> >,1>::_Get_first
PUBLIC	?_Get_first@?$_Compressed_pair@U?$_Wrap_alloc@V?$allocator@U?$_List_node@UGraveRecord@GraveMarkers@@PAX@std@@@std@@@std@@V?$_List_val@U?$_List_simple_types@UGraveRecord@GraveMarkers@@@std@@@2@$00@std@@QBEABU?$_Wrap_alloc@V?$allocator@U?$_List_node@UGraveRecord@GraveMarkers@@PAX@std@@@std@@@2@XZ ; std::_Compressed_pair<std::_Wrap_alloc<std::allocator<std::_List_node<GraveMarkers::GraveRecord,void *> > >,std::_List_val<std::_List_simple_types<GraveMarkers::GraveRecord> >,1>::_Get_first
PUBLIC	?_Get_second@?$_Compressed_pair@U?$_Wrap_alloc@V?$allocator@U?$_List_node@UGraveRecord@GraveMarkers@@PAX@std@@@std@@@std@@V?$_List_val@U?$_List_simple_types@UGraveRecord@GraveMarkers@@@std@@@2@$00@std@@QAEAAV?$_List_val@U?$_List_simple_types@UGraveRecord@GraveMarkers@@@std@@@2@XZ ; std::_Compressed_pair<std::_Wrap_alloc<std::allocator<std::_List_node<GraveMarkers::GraveRecord,void *> > >,std::_List_val<std::_List_simple_types<GraveMarkers::GraveRecord> >,1>::_Get_second
PUBLIC	?_Get_second@?$_Compressed_pair@U?$_Wrap_alloc@V?$allocator@U?$_List_node@UGraveRecord@GraveMarkers@@PAX@std@@@std@@@std@@V?$_List_val@U?$_List_simple_types@UGraveRecord@GraveMarkers@@@std@@@2@$00@std@@QBEABV?$_List_val@U?$_List_simple_types@UGraveRecord@GraveMarkers@@@std@@@2@XZ ; std::_Compressed_pair<std::_Wrap_alloc<std::allocator<std::_List_node<GraveMarkers::GraveRecord,void *> > >,std::_List_val<std::_List_simple_types<GraveMarkers::GraveRecord> >,1>::_Get_second
PUBLIC	??1?$_Compressed_pair@U?$_Wrap_alloc@V?$allocator@U?$_List_node@UGraveRecord@GraveMarkers@@PAX@std@@@std@@@std@@V?$_List_val@U?$_List_simple_types@UGraveRecord@GraveMarkers@@@std@@@2@$00@std@@QAE@XZ ; std::_Compressed_pair<std::_Wrap_alloc<std::allocator<std::_List_node<GraveMarkers::GraveRecord,void *> > >,std::_List_val<std::_List_simple_types<GraveMarkers::GraveRecord> >,1>::~_Compressed_pair<std::_Wrap_alloc<std::allocator<std::_List_node<GraveMarkers::GraveRecord,void *> > >,std::_List_val<std::_List_simple_types<GraveMarkers::GraveRecord> >,1>
PUBLIC	??0?$_List_buy@UGraveRecord@GraveMarkers@@V?$allocator@UGraveRecord@GraveMarkers@@@std@@@std@@QAE@ABV?$allocator@UGraveRecord@GraveMarkers@@@1@@Z ; std::_List_buy<GraveMarkers::GraveRecord,std::allocator<GraveMarkers::GraveRecord> >::_List_buy<GraveMarkers::GraveRecord,std::allocator<GraveMarkers::GraveRecord> >
PUBLIC	?_Freenode@?$_List_buy@UGraveRecord@GraveMarkers@@V?$allocator@UGraveRecord@GraveMarkers@@@std@@@std@@QAEXPAU?$_List_node@UGraveRecord@GraveMarkers@@PAX@2@@Z ; std::_List_buy<GraveMarkers::GraveRecord,std::allocator<GraveMarkers::GraveRecord> >::_Freenode
PUBLIC	??1?$_List_buy@UGraveRecord@GraveMarkers@@V?$allocator@UGraveRecord@GraveMarkers@@@std@@@std@@QAE@XZ ; std::_List_buy<GraveMarkers::GraveRecord,std::allocator<GraveMarkers::GraveRecord> >::~_List_buy<GraveMarkers::GraveRecord,std::allocator<GraveMarkers::GraveRecord> >
PUBLIC	??0?$list@UGraveRecord@GraveMarkers@@V?$allocator@UGraveRecord@GraveMarkers@@@std@@@std@@QAE@XZ ; std::list<GraveMarkers::GraveRecord,std::allocator<GraveMarkers::GraveRecord> >::list<GraveMarkers::GraveRecord,std::allocator<GraveMarkers::GraveRecord> >
PUBLIC	?push_back@?$list@UGraveRecord@GraveMarkers@@V?$allocator@UGraveRecord@GraveMarkers@@@std@@@std@@QAEX$$QAUGraveRecord@GraveMarkers@@@Z ; std::list<GraveMarkers::GraveRecord,std::allocator<GraveMarkers::GraveRecord> >::push_back
PUBLIC	??1?$list@UGraveRecord@GraveMarkers@@V?$allocator@UGraveRecord@GraveMarkers@@@std@@@std@@QAE@XZ ; std::list<GraveMarkers::GraveRecord,std::allocator<GraveMarkers::GraveRecord> >::~list<GraveMarkers::GraveRecord,std::allocator<GraveMarkers::GraveRecord> >
PUBLIC	?begin@?$list@UGraveRecord@GraveMarkers@@V?$allocator@UGraveRecord@GraveMarkers@@@std@@@std@@QAE?AV?$_List_iterator@V?$_List_val@U?$_List_simple_types@UGraveRecord@GraveMarkers@@@std@@@std@@@2@XZ ; std::list<GraveMarkers::GraveRecord,std::allocator<GraveMarkers::GraveRecord> >::begin
PUBLIC	?end@?$list@UGraveRecord@GraveMarkers@@V?$allocator@UGraveRecord@GraveMarkers@@@std@@@std@@QAE?AV?$_List_iterator@V?$_List_val@U?$_List_simple_types@UGraveRecord@GraveMarkers@@@std@@@std@@@2@XZ ; std::list<GraveMarkers::GraveRecord,std::allocator<GraveMarkers::GraveRecord> >::end
PUBLIC	?_Unchecked_end@?$list@UGraveRecord@GraveMarkers@@V?$allocator@UGraveRecord@GraveMarkers@@@std@@@std@@QAE?AV?$_List_unchecked_iterator@V?$_List_val@U?$_List_simple_types@UGraveRecord@GraveMarkers@@@std@@@std@@@2@XZ ; std::list<GraveMarkers::GraveRecord,std::allocator<GraveMarkers::GraveRecord> >::_Unchecked_end
PUBLIC	?_Make_iter@?$list@UGraveRecord@GraveMarkers@@V?$allocator@UGraveRecord@GraveMarkers@@@std@@@std@@QBE?AV?$_List_iterator@V?$_List_val@U?$_List_simple_types@UGraveRecord@GraveMarkers@@@std@@@std@@@2@V?$_List_const_iterator@V?$_List_val@U?$_List_simple_types@UGraveRecord@GraveMarkers@@@std@@@std@@@2@@Z ; std::list<GraveMarkers::GraveRecord,std::allocator<GraveMarkers::GraveRecord> >::_Make_iter
PUBLIC	?max_size@?$list@UGraveRecord@GraveMarkers@@V?$allocator@UGraveRecord@GraveMarkers@@@std@@@std@@QBEIXZ ; std::list<GraveMarkers::GraveRecord,std::allocator<GraveMarkers::GraveRecord> >::max_size
PUBLIC	?_Unlinknode@?$list@UGraveRecord@GraveMarkers@@V?$allocator@UGraveRecord@GraveMarkers@@@std@@@std@@QAEPAU?$_List_node@UGraveRecord@GraveMarkers@@PAX@2@V?$_List_const_iterator@V?$_List_val@U?$_List_simple_types@UGraveRecord@GraveMarkers@@@std@@@std@@@2@@Z ; std::list<GraveMarkers::GraveRecord,std::allocator<GraveMarkers::GraveRecord> >::_Unlinknode
PUBLIC	?erase@?$list@UGraveRecord@GraveMarkers@@V?$allocator@UGraveRecord@GraveMarkers@@@std@@@std@@QAE?AV?$_List_iterator@V?$_List_val@U?$_List_simple_types@UGraveRecord@GraveMarkers@@@std@@@std@@@2@V?$_List_const_iterator@V?$_List_val@U?$_List_simple_types@UGraveRecord@GraveMarkers@@@std@@@std@@@2@@Z ; std::list<GraveMarkers::GraveRecord,std::allocator<GraveMarkers::GraveRecord> >::erase
PUBLIC	?clear@?$list@UGraveRecord@GraveMarkers@@V?$allocator@UGraveRecord@GraveMarkers@@@std@@@std@@QAEXXZ ; std::list<GraveMarkers::GraveRecord,std::allocator<GraveMarkers::GraveRecord> >::clear
PUBLIC	?_Tidy@?$list@UGraveRecord@GraveMarkers@@V?$allocator@UGraveRecord@GraveMarkers@@@std@@@std@@QAEXXZ ; std::list<GraveMarkers::GraveRecord,std::allocator<GraveMarkers::GraveRecord> >::_Tidy
PUBLIC	?_Incsize@?$list@UGraveRecord@GraveMarkers@@V?$allocator@UGraveRecord@GraveMarkers@@@std@@@std@@QAEXI@Z ; std::list<GraveMarkers::GraveRecord,std::allocator<GraveMarkers::GraveRecord> >::_Incsize
PUBLIC	?_Orphan_ptr@?$list@UGraveRecord@GraveMarkers@@V?$allocator@UGraveRecord@GraveMarkers@@@std@@@std@@QAEXPAU?$_List_node@UGraveRecord@GraveMarkers@@PAX@2@@Z ; std::list<GraveMarkers::GraveRecord,std::allocator<GraveMarkers::GraveRecord> >::_Orphan_ptr
PUBLIC	??0GraveMarkers@@QAE@N@Z			; GraveMarkers::GraveMarkers
PUBLIC	?Update@GraveMarkers@@QAEXXZ			; GraveMarkers::Update
PUBLIC	?Render@GraveMarkers@@QAEXXZ			; GraveMarkers::Render
PUBLIC	?AddGrave@GraveMarkers@@QAEXUVector2D@@@Z	; GraveMarkers::AddGrave
PUBLIC	?BrownPen@Cgdi@@QAEXXZ				; Cgdi::BrownPen
PUBLIC	?TextAtPos@Cgdi@@QAEXNNABV?$basic_string@DU?$char_traits@D@std@@V?$allocator@D@2@@std@@@Z ; Cgdi::TextAtPos
PUBLIC	?TextColor@Cgdi@@QAEXHHH@Z			; Cgdi::TextColor
PUBLIC	?ClosedShape@Cgdi@@QAEXABV?$vector@UVector2D@@V?$allocator@UVector2D@@@std@@@std@@@Z ; Cgdi::ClosedShape
PUBLIC	??0Matrix@C2DMatrix@@QAE@XZ			; C2DMatrix::Matrix::Matrix
PUBLIC	?MatrixMultiply@C2DMatrix@@AAEXAAUMatrix@1@@Z	; C2DMatrix::MatrixMultiply
PUBLIC	??0C2DMatrix@@QAE@XZ				; C2DMatrix::C2DMatrix
PUBLIC	?Identity@C2DMatrix@@QAEXXZ			; C2DMatrix::Identity
PUBLIC	?Translate@C2DMatrix@@QAEXNN@Z			; C2DMatrix::Translate
PUBLIC	?Scale@C2DMatrix@@QAEXNN@Z			; C2DMatrix::Scale
PUBLIC	?Rotate@C2DMatrix@@QAEXABUVector2D@@0@Z		; C2DMatrix::Rotate
PUBLIC	?TransformVector2Ds@C2DMatrix@@QAEXAAV?$vector@UVector2D@@V?$allocator@UVector2D@@@std@@@std@@@Z ; C2DMatrix::TransformVector2Ds
PUBLIC	?WorldTransform@@YA?AV?$vector@UVector2D@@V?$allocator@UVector2D@@@std@@@std@@AAV12@ABUVector2D@@111@Z ; WorldTransform
PUBLIC	??0?$_Iterator012@Ubidirectional_iterator_tag@std@@UGraveRecord@GraveMarkers@@HPBU34@ABU34@U_Iterator_base12@2@@std@@QAE@XZ ; std::_Iterator012<std::bidirectional_iterator_tag,GraveMarkers::GraveRecord,int,GraveMarkers::GraveRecord const *,GraveMarkers::GraveRecord const &,std::_Iterator_base12>::_Iterator012<std::bidirectional_iterator_tag,GraveMarkers::GraveRecord,int,GraveMarkers::GraveRecord const *,GraveMarkers::GraveRecord const &,std::_Iterator_base12>
PUBLIC	??1?$_Iterator012@Ubidirectional_iterator_tag@std@@UGraveRecord@GraveMarkers@@HPBU34@ABU34@U_Iterator_base12@2@@std@@QAE@XZ ; std::_Iterator012<std::bidirectional_iterator_tag,GraveMarkers::GraveRecord,int,GraveMarkers::GraveRecord const *,GraveMarkers::GraveRecord const &,std::_Iterator_base12>::~_Iterator012<std::bidirectional_iterator_tag,GraveMarkers::GraveRecord,int,GraveMarkers::GraveRecord const *,GraveMarkers::GraveRecord const &,std::_Iterator_base12>
PUBLIC	??0?$_Iterator012@Ubidirectional_iterator_tag@std@@UGraveRecord@GraveMarkers@@HPBU34@ABU34@U_Iterator_base12@2@@std@@QAE@ABU01@@Z ; std::_Iterator012<std::bidirectional_iterator_tag,GraveMarkers::GraveRecord,int,GraveMarkers::GraveRecord const *,GraveMarkers::GraveRecord const &,std::_Iterator_base12>::_Iterator012<std::bidirectional_iterator_tag,GraveMarkers::GraveRecord,int,GraveMarkers::GraveRecord const *,GraveMarkers::GraveRecord const &,std::_Iterator_base12>
PUBLIC	??0?$_Iterator012@Ubidirectional_iterator_tag@std@@UGraveRecord@GraveMarkers@@HPBU34@ABU34@U_Iterator_base12@2@@std@@QAE@$$QAU01@@Z ; std::_Iterator012<std::bidirectional_iterator_tag,GraveMarkers::GraveRecord,int,GraveMarkers::GraveRecord const *,GraveMarkers::GraveRecord const &,std::_Iterator_base12>::_Iterator012<std::bidirectional_iterator_tag,GraveMarkers::GraveRecord,int,GraveMarkers::GraveRecord const *,GraveMarkers::GraveRecord const &,std::_Iterator_base12>
PUBLIC	??4?$_Iterator012@Ubidirectional_iterator_tag@std@@UGraveRecord@GraveMarkers@@HPBU34@ABU34@U_Iterator_base12@2@@std@@QAEAAU01@$$QAU01@@Z ; std::_Iterator012<std::bidirectional_iterator_tag,GraveMarkers::GraveRecord,int,GraveMarkers::GraveRecord const *,GraveMarkers::GraveRecord const &,std::_Iterator_base12>::operator=
PUBLIC	??0?$_List_unchecked_const_iterator@V?$_List_val@U?$_List_simple_types@UGraveRecord@GraveMarkers@@@std@@@std@@U_Iterator_base12@2@@std@@QAE@PAU?$_List_node@UGraveRecord@GraveMarkers@@PAX@1@PBV?$_List_val@U?$_List_simple_types@UGraveRecord@GraveMarkers@@@std@@@1@@Z ; std::_List_unchecked_const_iterator<std::_List_val<std::_List_simple_types<GraveMarkers::GraveRecord> >,std::_Iterator_base12>::_List_unchecked_const_iterator<std::_List_val<std::_List_simple_types<GraveMarkers::GraveRecord> >,std::_Iterator_base12>
PUBLIC	?_Mynode@?$_List_unchecked_const_iterator@V?$_List_val@U?$_List_simple_types@UGraveRecord@GraveMarkers@@@std@@@std@@U_Iterator_base12@2@@std@@QBEPAU?$_List_node@UGraveRecord@GraveMarkers@@PAX@2@XZ ; std::_List_unchecked_const_iterator<std::_List_val<std::_List_simple_types<GraveMarkers::GraveRecord> >,std::_Iterator_base12>::_Mynode
PUBLIC	??1?$_List_unchecked_const_iterator@V?$_List_val@U?$_List_simple_types@UGraveRecord@GraveMarkers@@@std@@@std@@U_Iterator_base12@2@@std@@QAE@XZ ; std::_List_unchecked_const_iterator<std::_List_val<std::_List_simple_types<GraveMarkers::GraveRecord> >,std::_Iterator_base12>::~_List_unchecked_const_iterator<std::_List_val<std::_List_simple_types<GraveMarkers::GraveRecord> >,std::_Iterator_base12>
PUBLIC	??0?$_List_unchecked_const_iterator@V?$_List_val@U?$_List_simple_types@UGraveRecord@GraveMarkers@@@std@@@std@@U_Iterator_base12@2@@std@@QAE@ABV01@@Z ; std::_List_unchecked_const_iterator<std::_List_val<std::_List_simple_types<GraveMarkers::GraveRecord> >,std::_Iterator_base12>::_List_unchecked_const_iterator<std::_List_val<std::_List_simple_types<GraveMarkers::GraveRecord> >,std::_Iterator_base12>
PUBLIC	??0?$_List_unchecked_const_iterator@V?$_List_val@U?$_List_simple_types@UGraveRecord@GraveMarkers@@@std@@@std@@U_Iterator_base12@2@@std@@QAE@$$QAV01@@Z ; std::_List_unchecked_const_iterator<std::_List_val<std::_List_simple_types<GraveMarkers::GraveRecord> >,std::_Iterator_base12>::_List_unchecked_const_iterator<std::_List_val<std::_List_simple_types<GraveMarkers::GraveRecord> >,std::_Iterator_base12>
PUBLIC	??4?$_List_unchecked_const_iterator@V?$_List_val@U?$_List_simple_types@UGraveRecord@GraveMarkers@@@std@@@std@@U_Iterator_base12@2@@std@@QAEAAV01@$$QAV01@@Z ; std::_List_unchecked_const_iterator<std::_List_val<std::_List_simple_types<GraveMarkers::GraveRecord> >,std::_Iterator_base12>::operator=
PUBLIC	??0?$_List_const_iterator@V?$_List_val@U?$_List_simple_types@UGraveRecord@GraveMarkers@@@std@@@std@@@std@@QAE@PAU?$_List_node@UGraveRecord@GraveMarkers@@PAX@1@PBV?$_List_val@U?$_List_simple_types@UGraveRecord@GraveMarkers@@@std@@@1@@Z ; std::_List_const_iterator<std::_List_val<std::_List_simple_types<GraveMarkers::GraveRecord> > >::_List_const_iterator<std::_List_val<std::_List_simple_types<GraveMarkers::GraveRecord> > >
PUBLIC	??D?$_List_const_iterator@V?$_List_val@U?$_List_simple_types@UGraveRecord@GraveMarkers@@@std@@@std@@@std@@QBEABUGraveRecord@GraveMarkers@@XZ ; std::_List_const_iterator<std::_List_val<std::_List_simple_types<GraveMarkers::GraveRecord> > >::operator*
PUBLIC	??E?$_List_const_iterator@V?$_List_val@U?$_List_simple_types@UGraveRecord@GraveMarkers@@@std@@@std@@@std@@QAEAAV01@XZ ; std::_List_const_iterator<std::_List_val<std::_List_simple_types<GraveMarkers::GraveRecord> > >::operator++
PUBLIC	??E?$_List_const_iterator@V?$_List_val@U?$_List_simple_types@UGraveRecord@GraveMarkers@@@std@@@std@@@std@@QAE?AV01@H@Z ; std::_List_const_iterator<std::_List_val<std::_List_simple_types<GraveMarkers::GraveRecord> > >::operator++
PUBLIC	??8?$_List_const_iterator@V?$_List_val@U?$_List_simple_types@UGraveRecord@GraveMarkers@@@std@@@std@@@std@@QBE_NABV01@@Z ; std::_List_const_iterator<std::_List_val<std::_List_simple_types<GraveMarkers::GraveRecord> > >::operator==
PUBLIC	??9?$_List_const_iterator@V?$_List_val@U?$_List_simple_types@UGraveRecord@GraveMarkers@@@std@@@std@@@std@@QBE_NABV01@@Z ; std::_List_const_iterator<std::_List_val<std::_List_simple_types<GraveMarkers::GraveRecord> > >::operator!=
PUBLIC	??1?$_List_const_iterator@V?$_List_val@U?$_List_simple_types@UGraveRecord@GraveMarkers@@@std@@@std@@@std@@QAE@XZ ; std::_List_const_iterator<std::_List_val<std::_List_simple_types<GraveMarkers::GraveRecord> > >::~_List_const_iterator<std::_List_val<std::_List_simple_types<GraveMarkers::GraveRecord> > >
PUBLIC	??0?$_List_const_iterator@V?$_List_val@U?$_List_simple_types@UGraveRecord@GraveMarkers@@@std@@@std@@@std@@QAE@ABV01@@Z ; std::_List_const_iterator<std::_List_val<std::_List_simple_types<GraveMarkers::GraveRecord> > >::_List_const_iterator<std::_List_val<std::_List_simple_types<GraveMarkers::GraveRecord> > >
PUBLIC	??0?$_List_const_iterator@V?$_List_val@U?$_List_simple_types@UGraveRecord@GraveMarkers@@@std@@@std@@@std@@QAE@$$QAV01@@Z ; std::_List_const_iterator<std::_List_val<std::_List_simple_types<GraveMarkers::GraveRecord> > >::_List_const_iterator<std::_List_val<std::_List_simple_types<GraveMarkers::GraveRecord> > >
PUBLIC	??4?$_List_const_iterator@V?$_List_val@U?$_List_simple_types@UGraveRecord@GraveMarkers@@@std@@@std@@@std@@QAEAAV01@$$QAV01@@Z ; std::_List_const_iterator<std::_List_val<std::_List_simple_types<GraveMarkers::GraveRecord> > >::operator=
PUBLIC	??0?$_List_iterator@V?$_List_val@U?$_List_simple_types@UGraveRecord@GraveMarkers@@@std@@@std@@@std@@QAE@PAU?$_List_node@UGraveRecord@GraveMarkers@@PAX@1@PBV?$_List_val@U?$_List_simple_types@UGraveRecord@GraveMarkers@@@std@@@1@@Z ; std::_List_iterator<std::_List_val<std::_List_simple_types<GraveMarkers::GraveRecord> > >::_List_iterator<std::_List_val<std::_List_simple_types<GraveMarkers::GraveRecord> > >
PUBLIC	??D?$_List_iterator@V?$_List_val@U?$_List_simple_types@UGraveRecord@GraveMarkers@@@std@@@std@@@std@@QBEAAUGraveRecord@GraveMarkers@@XZ ; std::_List_iterator<std::_List_val<std::_List_simple_types<GraveMarkers::GraveRecord> > >::operator*
PUBLIC	??C?$_List_iterator@V?$_List_val@U?$_List_simple_types@UGraveRecord@GraveMarkers@@@std@@@std@@@std@@QBEPAUGraveRecord@GraveMarkers@@XZ ; std::_List_iterator<std::_List_val<std::_List_simple_types<GraveMarkers::GraveRecord> > >::operator->
PUBLIC	??E?$_List_iterator@V?$_List_val@U?$_List_simple_types@UGraveRecord@GraveMarkers@@@std@@@std@@@std@@QAEAAV01@XZ ; std::_List_iterator<std::_List_val<std::_List_simple_types<GraveMarkers::GraveRecord> > >::operator++
PUBLIC	??1?$_List_iterator@V?$_List_val@U?$_List_simple_types@UGraveRecord@GraveMarkers@@@std@@@std@@@std@@QAE@XZ ; std::_List_iterator<std::_List_val<std::_List_simple_types<GraveMarkers::GraveRecord> > >::~_List_iterator<std::_List_val<std::_List_simple_types<GraveMarkers::GraveRecord> > >
PUBLIC	??4?$_List_iterator@V?$_List_val@U?$_List_simple_types@UGraveRecord@GraveMarkers@@@std@@@std@@@std@@QAEAAV01@$$QAV01@@Z ; std::_List_iterator<std::_List_val<std::_List_simple_types<GraveMarkers::GraveRecord> > >::operator=
PUBLIC	?pointer_to@?$pointer_traits@PAUGraveRecord@GraveMarkers@@@std@@SAPAUGraveRecord@GraveMarkers@@AAU34@@Z ; std::pointer_traits<GraveMarkers::GraveRecord *>::pointer_to
PUBLIC	??$addressof@$$CBUVector2D@@@std@@YAPBUVector2D@@ABU1@@Z ; std::addressof<Vector2D const >
PUBLIC	??$construct@UVector2D@@AAU1@@?$_Wrap_alloc@V?$allocator@UVector2D@@@std@@@std@@QAEXPAUVector2D@@AAU2@@Z ; std::_Wrap_alloc<std::allocator<Vector2D> >::construct<Vector2D,Vector2D &>
PUBLIC	??$construct@UVector2D@@ABU1@@?$_Wrap_alloc@V?$allocator@UVector2D@@@std@@@std@@QAEXPAUVector2D@@ABU2@@Z ; std::_Wrap_alloc<std::allocator<Vector2D> >::construct<Vector2D,Vector2D const &>
PUBLIC	??$addressof@UVector2D@@@std@@YAPAUVector2D@@AAU1@@Z ; std::addressof<Vector2D>
PUBLIC	??$forward@UVector2D@@@std@@YA$$QAUVector2D@@AAU1@@Z ; std::forward<Vector2D>
PUBLIC	??$construct@UVector2D@@U1@@?$_Wrap_alloc@V?$allocator@UVector2D@@@std@@@std@@QAEXPAUVector2D@@$$QAU2@@Z ; std::_Wrap_alloc<std::allocator<Vector2D> >::construct<Vector2D,Vector2D>
PUBLIC	??$?9V?$allocator@UVector2D@@@std@@V01@@std@@YA_NABU?$_Wrap_alloc@V?$allocator@UVector2D@@@std@@@0@0@Z ; std::operator!=<std::allocator<Vector2D>,std::allocator<Vector2D> >
PUBLIC	??$forward@V?$vector@UVector2D@@V?$allocator@UVector2D@@@std@@@std@@@std@@YA$$QAV?$vector@UVector2D@@V?$allocator@UVector2D@@@std@@@0@AAV10@@Z ; std::forward<std::vector<Vector2D,std::allocator<Vector2D> > >
PUBLIC	??$move@AAU?$_Wrap_alloc@V?$allocator@UVector2D@@@std@@@std@@@std@@YA$$QAU?$_Wrap_alloc@V?$allocator@UVector2D@@@std@@@0@AAU10@@Z ; std::move<std::_Wrap_alloc<std::allocator<Vector2D> > &>
PUBLIC	??0?$_Iterator012@Urandom_access_iterator_tag@std@@UVector2D@@HPBU3@ABU3@U_Iterator_base12@2@@std@@QAE@XZ ; std::_Iterator012<std::random_access_iterator_tag,Vector2D,int,Vector2D const *,Vector2D const &,std::_Iterator_base12>::_Iterator012<std::random_access_iterator_tag,Vector2D,int,Vector2D const *,Vector2D const &,std::_Iterator_base12>
PUBLIC	??1?$_Iterator012@Urandom_access_iterator_tag@std@@UVector2D@@HPBU3@ABU3@U_Iterator_base12@2@@std@@QAE@XZ ; std::_Iterator012<std::random_access_iterator_tag,Vector2D,int,Vector2D const *,Vector2D const &,std::_Iterator_base12>::~_Iterator012<std::random_access_iterator_tag,Vector2D,int,Vector2D const *,Vector2D const &,std::_Iterator_base12>
PUBLIC	??0?$_Iterator012@Urandom_access_iterator_tag@std@@UVector2D@@HPBU3@ABU3@U_Iterator_base12@2@@std@@QAE@ABU01@@Z ; std::_Iterator012<std::random_access_iterator_tag,Vector2D,int,Vector2D const *,Vector2D const &,std::_Iterator_base12>::_Iterator012<std::random_access_iterator_tag,Vector2D,int,Vector2D const *,Vector2D const &,std::_Iterator_base12>
PUBLIC	??0?$_Vector_const_iterator@V?$_Vector_val@U?$_Simple_types@UVector2D@@@std@@@std@@@std@@QAE@PAUVector2D@@PBU_Container_base12@1@@Z ; std::_Vector_const_iterator<std::_Vector_val<std::_Simple_types<Vector2D> > >::_Vector_const_iterator<std::_Vector_val<std::_Simple_types<Vector2D> > >
PUBLIC	?_Unchecked@?$_Vector_const_iterator@V?$_Vector_val@U?$_Simple_types@UVector2D@@@std@@@std@@@std@@QBEPBUVector2D@@XZ ; std::_Vector_const_iterator<std::_Vector_val<std::_Simple_types<Vector2D> > >::_Unchecked
PUBLIC	??1?$_Vector_const_iterator@V?$_Vector_val@U?$_Simple_types@UVector2D@@@std@@@std@@@std@@QAE@XZ ; std::_Vector_const_iterator<std::_Vector_val<std::_Simple_types<Vector2D> > >::~_Vector_const_iterator<std::_Vector_val<std::_Simple_types<Vector2D> > >
PUBLIC	??0?$_Vector_const_iterator@V?$_Vector_val@U?$_Simple_types@UVector2D@@@std@@@std@@@std@@QAE@ABV01@@Z ; std::_Vector_const_iterator<std::_Vector_val<std::_Simple_types<Vector2D> > >::_Vector_const_iterator<std::_Vector_val<std::_Simple_types<Vector2D> > >
PUBLIC	??$_Ucopy@V?$_Vector_const_iterator@V?$_Vector_val@U?$_Simple_types@UVector2D@@@std@@@std@@@std@@@?$vector@UVector2D@@V?$allocator@UVector2D@@@std@@@std@@IAEPAUVector2D@@V?$_Vector_const_iterator@V?$_Vector_val@U?$_Simple_types@UVector2D@@@std@@@std@@@1@0PAU2@@Z ; std::vector<Vector2D,std::allocator<Vector2D> >::_Ucopy<std::_Vector_const_iterator<std::_Vector_val<std::_Simple_types<Vector2D> > > >
PUBLIC	??0?$_List_unchecked_const_iterator@V?$_List_val@U?$_List_simple_types@UGraveRecord@GraveMarkers@@@std@@@std@@U_Iterator_base0@2@@std@@QAE@PAU?$_List_node@UGraveRecord@GraveMarkers@@PAX@1@PBV?$_List_val@U?$_List_simple_types@UGraveRecord@GraveMarkers@@@std@@@1@@Z ; std::_List_unchecked_const_iterator<std::_List_val<std::_List_simple_types<GraveMarkers::GraveRecord> >,std::_Iterator_base0>::_List_unchecked_const_iterator<std::_List_val<std::_List_simple_types<GraveMarkers::GraveRecord> >,std::_Iterator_base0>
PUBLIC	?_Mynode@?$_List_unchecked_const_iterator@V?$_List_val@U?$_List_simple_types@UGraveRecord@GraveMarkers@@@std@@@std@@U_Iterator_base0@2@@std@@QBEPAU?$_List_node@UGraveRecord@GraveMarkers@@PAX@2@XZ ; std::_List_unchecked_const_iterator<std::_List_val<std::_List_simple_types<GraveMarkers::GraveRecord> >,std::_Iterator_base0>::_Mynode
PUBLIC	??0?$_List_unchecked_iterator@V?$_List_val@U?$_List_simple_types@UGraveRecord@GraveMarkers@@@std@@@std@@@std@@QAE@PAU?$_List_node@UGraveRecord@GraveMarkers@@PAX@1@PBV?$_List_val@U?$_List_simple_types@UGraveRecord@GraveMarkers@@@std@@@1@@Z ; std::_List_unchecked_iterator<std::_List_val<std::_List_simple_types<GraveMarkers::GraveRecord> > >::_List_unchecked_iterator<std::_List_val<std::_List_simple_types<GraveMarkers::GraveRecord> > >
PUBLIC	??$forward@UGraveRecord@GraveMarkers@@@std@@YA$$QAUGraveRecord@GraveMarkers@@AAU12@@Z ; std::forward<GraveMarkers::GraveRecord>
PUBLIC	??$_Insert@UGraveRecord@GraveMarkers@@@?$list@UGraveRecord@GraveMarkers@@V?$allocator@UGraveRecord@GraveMarkers@@@std@@@std@@QAEXV?$_List_unchecked_const_iterator@V?$_List_val@U?$_List_simple_types@UGraveRecord@GraveMarkers@@@std@@@std@@U_Iterator_base0@2@@1@$$QAUGraveRecord@GraveMarkers@@@Z ; std::list<GraveMarkers::GraveRecord,std::allocator<GraveMarkers::GraveRecord> >::_Insert<GraveMarkers::GraveRecord>
PUBLIC	??$_Debug_pointer@$$CBD@std@@YAXPBDPB_WI@Z	; std::_Debug_pointer<char const >
PUBLIC	??$addressof@UGraveRecord@GraveMarkers@@@std@@YAPAUGraveRecord@GraveMarkers@@AAU12@@Z ; std::addressof<GraveMarkers::GraveRecord>
PUBLIC	??$addressof@PAU?$_List_node@UGraveRecord@GraveMarkers@@PAX@std@@@std@@YAPAPAU?$_List_node@UGraveRecord@GraveMarkers@@PAX@0@AAPAU10@@Z ; std::addressof<std::_List_node<GraveMarkers::GraveRecord,void *> *>
PUBLIC	??$destroy@PAU?$_List_node@UGraveRecord@GraveMarkers@@PAX@std@@@?$_Wrap_alloc@V?$allocator@U?$_List_node@UGraveRecord@GraveMarkers@@PAX@std@@@std@@@std@@QAEXPAPAU?$_List_node@UGraveRecord@GraveMarkers@@PAX@1@@Z ; std::_Wrap_alloc<std::allocator<std::_List_node<GraveMarkers::GraveRecord,void *> > >::destroy<std::_List_node<GraveMarkers::GraveRecord,void *> *>
PUBLIC	??$destroy@UGraveRecord@GraveMarkers@@@?$_Wrap_alloc@V?$allocator@U?$_List_node@UGraveRecord@GraveMarkers@@PAX@std@@@std@@@std@@QAEXPAUGraveRecord@GraveMarkers@@@Z ; std::_Wrap_alloc<std::allocator<std::_List_node<GraveMarkers::GraveRecord,void *> > >::destroy<GraveMarkers::GraveRecord>
PUBLIC	??$_Pocma@U?$_Wrap_alloc@V?$allocator@UVector2D@@@std@@@std@@@std@@YAXAAU?$_Wrap_alloc@V?$allocator@UVector2D@@@std@@@0@0@Z ; std::_Pocma<std::_Wrap_alloc<std::allocator<Vector2D> > >
PUBLIC	??$move@AAV?$allocator@UVector2D@@@std@@@std@@YA$$QAV?$allocator@UVector2D@@@0@AAV10@@Z ; std::move<std::allocator<Vector2D> &>
PUBLIC	??$?0V?$allocator@UVector2D@@@std@@$$V@?$_Compressed_pair@U?$_Wrap_alloc@V?$allocator@UVector2D@@@std@@@std@@V?$_Vector_val@U?$_Simple_types@UVector2D@@@std@@@2@$00@std@@QAE@U_One_then_variadic_args_t@1@$$QAV?$allocator@UVector2D@@@1@@Z ; std::_Compressed_pair<std::_Wrap_alloc<std::allocator<Vector2D> >,std::_Vector_val<std::_Simple_types<Vector2D> >,1>::_Compressed_pair<std::_Wrap_alloc<std::allocator<Vector2D> >,std::_Vector_val<std::_Simple_types<Vector2D> >,1><std::allocator<Vector2D> >
PUBLIC	??$?0ABV?$allocator@UVector2D@@@std@@$$V@?$_Compressed_pair@U?$_Wrap_alloc@V?$allocator@UVector2D@@@std@@@std@@V?$_Vector_val@U?$_Simple_types@UVector2D@@@std@@@2@$00@std@@QAE@U_One_then_variadic_args_t@1@ABV?$allocator@UVector2D@@@1@@Z ; std::_Compressed_pair<std::_Wrap_alloc<std::allocator<Vector2D> >,std::_Vector_val<std::_Simple_types<Vector2D> >,1>::_Compressed_pair<std::_Wrap_alloc<std::allocator<Vector2D> >,std::_Vector_val<std::_Simple_types<Vector2D> >,1><std::allocator<Vector2D> const &>
PUBLIC	??$?0ABV?$allocator@D@std@@$$V@?$_Compressed_pair@U?$_Wrap_alloc@V?$allocator@D@std@@@std@@V?$_String_val@U?$_Simple_types@D@std@@@2@$00@std@@QAE@U_One_then_variadic_args_t@1@ABV?$allocator@D@1@@Z ; std::_Compressed_pair<std::_Wrap_alloc<std::allocator<char> >,std::_String_val<std::_Simple_types<char> >,1>::_Compressed_pair<std::_Wrap_alloc<std::allocator<char> >,std::_String_val<std::_Simple_types<char> >,1><std::allocator<char> const &>
PUBLIC	??$destroy@PAD@?$_Wrap_alloc@V?$allocator@D@std@@@std@@QAEXPAPAD@Z ; std::_Wrap_alloc<std::allocator<char> >::destroy<char *>
PUBLIC	??$addressof@D@std@@YAPADAAD@Z			; std::addressof<char>
PUBLIC	??$_Debug_pointer_if@$$CBD@std@@YAX_NPBDPB_WI@Z	; std::_Debug_pointer_if<char const >
PUBLIC	??$construct@PADAAPAD@?$_Wrap_alloc@V?$allocator@D@std@@@std@@QAEXPAPADAAPAD@Z ; std::_Wrap_alloc<std::allocator<char> >::construct<char *,char * &>
PUBLIC	?deallocate@?$allocator@U_Container_proxy@std@@@std@@QAEXPAU_Container_proxy@2@I@Z ; std::allocator<std::_Container_proxy>::deallocate
PUBLIC	?allocate@?$allocator@U_Container_proxy@std@@@std@@QAEPAU_Container_proxy@2@I@Z ; std::allocator<std::_Container_proxy>::allocate
PUBLIC	?allocate@?$_Wrap_alloc@V?$allocator@U_Container_proxy@std@@@std@@@std@@QAEPAU_Container_proxy@2@I@Z ; std::_Wrap_alloc<std::allocator<std::_Container_proxy> >::allocate
PUBLIC	?deallocate@?$_Wrap_alloc@V?$allocator@U_Container_proxy@std@@@std@@@std@@QAEXPAU_Container_proxy@2@I@Z ; std::_Wrap_alloc<std::allocator<std::_Container_proxy> >::deallocate
PUBLIC	??$?0U?$_Wrap_alloc@V?$allocator@U?$_List_node@UGraveRecord@GraveMarkers@@PAX@std@@@std@@@std@@@?$_Wrap_alloc@V?$allocator@U_Container_proxy@std@@@std@@@std@@QAE@AAU?$_Wrap_alloc@V?$allocator@U?$_List_node@UGraveRecord@GraveMarkers@@PAX@std@@@std@@@1@@Z ; std::_Wrap_alloc<std::allocator<std::_Container_proxy> >::_Wrap_alloc<std::allocator<std::_Container_proxy> ><std::_Wrap_alloc<std::allocator<std::_List_node<GraveMarkers::GraveRecord,void *> > > >
PUBLIC	??$?0U?$_List_node@UGraveRecord@GraveMarkers@@PAX@std@@@?$allocator@U_Container_proxy@std@@@std@@QAE@ABV?$allocator@U?$_List_node@UGraveRecord@GraveMarkers@@PAX@std@@@1@@Z ; std::allocator<std::_Container_proxy>::allocator<std::_Container_proxy><std::_List_node<GraveMarkers::GraveRecord,void *> >
PUBLIC	??$destroy@U_Container_proxy@std@@@?$_Wrap_alloc@V?$allocator@U_Container_proxy@std@@@std@@@std@@QAEXPAU_Container_proxy@1@@Z ; std::_Wrap_alloc<std::allocator<std::_Container_proxy> >::destroy<std::_Container_proxy>
PUBLIC	??$?0ABV?$allocator@UGraveRecord@GraveMarkers@@@std@@$$V@?$_Compressed_pair@U?$_Wrap_alloc@V?$allocator@U?$_List_node@UGraveRecord@GraveMarkers@@PAX@std@@@std@@@std@@V?$_List_val@U?$_List_simple_types@UGraveRecord@GraveMarkers@@@std@@@2@$00@std@@QAE@U_One_then_variadic_args_t@1@ABV?$allocator@UGraveRecord@GraveMarkers@@@1@@Z ; std::_Compressed_pair<std::_Wrap_alloc<std::allocator<std::_List_node<GraveMarkers::GraveRecord,void *> > >,std::_List_val<std::_List_simple_types<GraveMarkers::GraveRecord> >,1>::_Compressed_pair<std::_Wrap_alloc<std::allocator<std::_List_node<GraveMarkers::GraveRecord,void *> > >,std::_List_val<std::_List_simple_types<GraveMarkers::GraveRecord> >,1><std::allocator<GraveMarkers::GraveRecord> const &>
PUBLIC	??$?0U?$_Wrap_alloc@V?$allocator@UVector2D@@@std@@@std@@@?$_Wrap_alloc@V?$allocator@U_Container_proxy@std@@@std@@@std@@QAE@AAU?$_Wrap_alloc@V?$allocator@UVector2D@@@std@@@1@@Z ; std::_Wrap_alloc<std::allocator<std::_Container_proxy> >::_Wrap_alloc<std::allocator<std::_Container_proxy> ><std::_Wrap_alloc<std::allocator<Vector2D> > >
PUBLIC	??$?0UVector2D@@@?$allocator@U_Container_proxy@std@@@std@@QAE@ABV?$allocator@UVector2D@@@1@@Z ; std::allocator<std::_Container_proxy>::allocator<std::_Container_proxy><Vector2D>
PUBLIC	??$construct@U_Container_proxy@std@@U12@@?$_Wrap_alloc@V?$allocator@U_Container_proxy@std@@@std@@@std@@QAEXPAU_Container_proxy@1@$$QAU21@@Z ; std::_Wrap_alloc<std::allocator<std::_Container_proxy> >::construct<std::_Container_proxy,std::_Container_proxy>
PUBLIC	??$_Umove@PAUVector2D@@@?$vector@UVector2D@@V?$allocator@UVector2D@@@std@@@std@@IAEPAUVector2D@@PAU2@00@Z ; std::vector<Vector2D,std::allocator<Vector2D> >::_Umove<Vector2D *>
PUBLIC	??$_Destroy_range@U?$_Wrap_alloc@V?$allocator@UVector2D@@@std@@@std@@@std@@YAXPAUVector2D@@0AAU?$_Wrap_alloc@V?$allocator@UVector2D@@@std@@@0@@Z ; std::_Destroy_range<std::_Wrap_alloc<std::allocator<Vector2D> > >
PUBLIC	??$?0U?$_Wrap_alloc@V?$allocator@D@std@@@std@@@?$_Wrap_alloc@V?$allocator@U_Container_proxy@std@@@std@@@std@@QAE@AAU?$_Wrap_alloc@V?$allocator@D@std@@@1@@Z ; std::_Wrap_alloc<std::allocator<std::_Container_proxy> >::_Wrap_alloc<std::allocator<std::_Container_proxy> ><std::_Wrap_alloc<std::allocator<char> > >
PUBLIC	??$?0D@?$allocator@U_Container_proxy@std@@@std@@QAE@ABV?$allocator@D@1@@Z ; std::allocator<std::_Container_proxy>::allocator<std::_Container_proxy><char>
PUBLIC	??$_Deallocate@U?$_List_node@UGraveRecord@GraveMarkers@@PAX@std@@@std@@YAXPAU?$_List_node@UGraveRecord@GraveMarkers@@PAX@0@I@Z ; std::_Deallocate<std::_List_node<GraveMarkers::GraveRecord,void *> >
PUBLIC	??$_Allocate@UVector2D@@@std@@YAPAUVector2D@@IPAU1@_N@Z ; std::_Allocate<Vector2D>
PUBLIC	??$_Deallocate@UVector2D@@@std@@YAXPAUVector2D@@I@Z ; std::_Deallocate<Vector2D>
PUBLIC	??$_Deallocate@D@std@@YAXPADI@Z			; std::_Deallocate<char>
PUBLIC	??$_Allocate@U_Container_proxy@std@@@std@@YAPAU_Container_proxy@0@IPAU10@_N@Z ; std::_Allocate<std::_Container_proxy>
PUBLIC	??$_Deallocate@U_Container_proxy@std@@@std@@YAXPAU_Container_proxy@0@I@Z ; std::_Deallocate<std::_Container_proxy>
PUBLIC	??$construct@PAU?$_List_node@UGraveRecord@GraveMarkers@@PAX@std@@AAPAU12@@?$_Wrap_alloc@V?$allocator@U?$_List_node@UGraveRecord@GraveMarkers@@PAX@std@@@std@@@std@@QAEXPAPAU?$_List_node@UGraveRecord@GraveMarkers@@PAX@1@AAPAU21@@Z ; std::_Wrap_alloc<std::allocator<std::_List_node<GraveMarkers::GraveRecord,void *> > >::construct<std::_List_node<GraveMarkers::GraveRecord,void *> *,std::_List_node<GraveMarkers::GraveRecord,void *> * &>
PUBLIC	??$_Allocate@D@std@@YAPADIPAD_N@Z		; std::_Allocate<char>
PUBLIC	??$_Allocate@U?$_List_node@UGraveRecord@GraveMarkers@@PAX@std@@@std@@YAPAU?$_List_node@UGraveRecord@GraveMarkers@@PAX@0@IPAU10@_N@Z ; std::_Allocate<std::_List_node<GraveMarkers::GraveRecord,void *> >
PUBLIC	??$_Addressof@$$CBUVector2D@@@std@@YAPBUVector2D@@ABU1@U?$integral_constant@_N$0A@@0@@Z ; std::_Addressof<Vector2D const >
PUBLIC	??$forward@AAUVector2D@@@std@@YAAAUVector2D@@AAU1@@Z ; std::forward<Vector2D &>
PUBLIC	??$construct@UVector2D@@AAU1@@?$allocator_traits@V?$allocator@UVector2D@@@std@@@std@@SAXAAV?$allocator@UVector2D@@@1@PAUVector2D@@AAU3@@Z ; std::allocator_traits<std::allocator<Vector2D> >::construct<Vector2D,Vector2D &>
PUBLIC	??$forward@ABUVector2D@@@std@@YAABUVector2D@@ABU1@@Z ; std::forward<Vector2D const &>
PUBLIC	??$construct@UVector2D@@ABU1@@?$allocator_traits@V?$allocator@UVector2D@@@std@@@std@@SAXAAV?$allocator@UVector2D@@@1@PAUVector2D@@ABU3@@Z ; std::allocator_traits<std::allocator<Vector2D> >::construct<Vector2D,Vector2D const &>
PUBLIC	??$_Addressof@UVector2D@@@std@@YAPAUVector2D@@AAU1@U?$integral_constant@_N$0A@@0@@Z ; std::_Addressof<Vector2D>
PUBLIC	??$construct@UVector2D@@U1@@?$allocator_traits@V?$allocator@UVector2D@@@std@@@std@@SAXAAV?$allocator@UVector2D@@@1@PAUVector2D@@$$QAU3@@Z ; std::allocator_traits<std::allocator<Vector2D> >::construct<Vector2D,Vector2D>
PUBLIC	??$?8V?$allocator@UVector2D@@@std@@V01@@std@@YA_NABU?$_Wrap_alloc@V?$allocator@UVector2D@@@std@@@0@0@Z ; std::operator==<std::allocator<Vector2D>,std::allocator<Vector2D> >
PUBLIC	??$?8UVector2D@@U0@@std@@YA_NABV?$allocator@UVector2D@@@0@0@Z ; std::operator==<Vector2D,Vector2D>
PUBLIC	??$_Uninitialized_copy@V?$_Vector_const_iterator@V?$_Vector_val@U?$_Simple_types@UVector2D@@@std@@@std@@@std@@PAUVector2D@@U?$_Wrap_alloc@V?$allocator@UVector2D@@@std@@@2@@std@@YAPAUVector2D@@V?$_Vector_const_iterator@V?$_Vector_val@U?$_Simple_types@UVector2D@@@std@@@std@@@0@0PAU1@AAU?$_Wrap_alloc@V?$allocator@UVector2D@@@std@@@0@@Z ; std::_Uninitialized_copy<std::_Vector_const_iterator<std::_Vector_val<std::_Simple_types<Vector2D> > >,Vector2D *,std::_Wrap_alloc<std::allocator<Vector2D> > >
PUBLIC	??$_Buynode@UGraveRecord@GraveMarkers@@@?$_List_buy@UGraveRecord@GraveMarkers@@V?$allocator@UGraveRecord@GraveMarkers@@@std@@@std@@QAEPAU?$_List_node@UGraveRecord@GraveMarkers@@PAX@1@PAU21@0$$QAUGraveRecord@GraveMarkers@@@Z ; std::_List_buy<GraveMarkers::GraveRecord,std::allocator<GraveMarkers::GraveRecord> >::_Buynode<GraveMarkers::GraveRecord>
PUBLIC	??$_Addressof@UGraveRecord@GraveMarkers@@@std@@YAPAUGraveRecord@GraveMarkers@@AAU12@U?$integral_constant@_N$0A@@0@@Z ; std::_Addressof<GraveMarkers::GraveRecord>
PUBLIC	??$_Addressof@PAU?$_List_node@UGraveRecord@GraveMarkers@@PAX@std@@@std@@YAPAPAU?$_List_node@UGraveRecord@GraveMarkers@@PAX@0@AAPAU10@U?$integral_constant@_N$0A@@0@@Z ; std::_Addressof<std::_List_node<GraveMarkers::GraveRecord,void *> *>
PUBLIC	??$destroy@PAU?$_List_node@UGraveRecord@GraveMarkers@@PAX@std@@@?$allocator_traits@V?$allocator@U?$_List_node@UGraveRecord@GraveMarkers@@PAX@std@@@std@@@std@@SAXAAV?$allocator@U?$_List_node@UGraveRecord@GraveMarkers@@PAX@std@@@1@PAPAU?$_List_node@UGraveRecord@GraveMarkers@@PAX@1@@Z ; std::allocator_traits<std::allocator<std::_List_node<GraveMarkers::GraveRecord,void *> > >::destroy<std::_List_node<GraveMarkers::GraveRecord,void *> *>
PUBLIC	??$destroy@UGraveRecord@GraveMarkers@@@?$allocator_traits@V?$allocator@U?$_List_node@UGraveRecord@GraveMarkers@@PAX@std@@@std@@@std@@SAXAAV?$allocator@U?$_List_node@UGraveRecord@GraveMarkers@@PAX@std@@@1@PAUGraveRecord@GraveMarkers@@@Z ; std::allocator_traits<std::allocator<std::_List_node<GraveMarkers::GraveRecord,void *> > >::destroy<GraveMarkers::GraveRecord>
PUBLIC	??$_Pocma@U?$_Wrap_alloc@V?$allocator@UVector2D@@@std@@@std@@@std@@YAXAAU?$_Wrap_alloc@V?$allocator@UVector2D@@@std@@@0@0U?$integral_constant@_N$00@0@@Z ; std::_Pocma<std::_Wrap_alloc<std::allocator<Vector2D> > >
PUBLIC	??$forward@V?$allocator@UVector2D@@@std@@@std@@YA$$QAV?$allocator@UVector2D@@@0@AAV10@@Z ; std::forward<std::allocator<Vector2D> >
PUBLIC	??$forward@ABV?$allocator@UVector2D@@@std@@@std@@YAABV?$allocator@UVector2D@@@0@ABV10@@Z ; std::forward<std::allocator<Vector2D> const &>
PUBLIC	??$forward@ABV?$allocator@D@std@@@std@@YAABV?$allocator@D@0@ABV10@@Z ; std::forward<std::allocator<char> const &>
PUBLIC	??$destroy@PAD@?$allocator_traits@V?$allocator@D@std@@@std@@SAXAAV?$allocator@D@1@PAPAD@Z ; std::allocator_traits<std::allocator<char> >::destroy<char *>
PUBLIC	??$_Addressof@D@std@@YAPADAADU?$integral_constant@_N$0A@@0@@Z ; std::_Addressof<char>
PUBLIC	??$forward@AAPAD@std@@YAAAPADAAPAD@Z		; std::forward<char * &>
PUBLIC	??$construct@PADAAPAD@?$allocator_traits@V?$allocator@D@std@@@std@@SAXAAV?$allocator@D@1@PAPADAAPAD@Z ; std::allocator_traits<std::allocator<char> >::construct<char *,char * &>
PUBLIC	??$destroy@U_Container_proxy@std@@@?$allocator_traits@V?$allocator@U_Container_proxy@std@@@std@@@std@@SAXAAV?$allocator@U_Container_proxy@std@@@1@PAU_Container_proxy@1@@Z ; std::allocator_traits<std::allocator<std::_Container_proxy> >::destroy<std::_Container_proxy>
PUBLIC	??$forward@ABV?$allocator@UGraveRecord@GraveMarkers@@@std@@@std@@YAABV?$allocator@UGraveRecord@GraveMarkers@@@0@ABV10@@Z ; std::forward<std::allocator<GraveMarkers::GraveRecord> const &>
PUBLIC	??$?0V?$allocator@UGraveRecord@GraveMarkers@@@std@@@?$_Wrap_alloc@V?$allocator@U?$_List_node@UGraveRecord@GraveMarkers@@PAX@std@@@std@@@std@@QAE@ABV?$allocator@UGraveRecord@GraveMarkers@@@1@@Z ; std::_Wrap_alloc<std::allocator<std::_List_node<GraveMarkers::GraveRecord,void *> > >::_Wrap_alloc<std::allocator<std::_List_node<GraveMarkers::GraveRecord,void *> > ><std::allocator<GraveMarkers::GraveRecord> >
PUBLIC	??$?0UGraveRecord@GraveMarkers@@@?$allocator@U?$_List_node@UGraveRecord@GraveMarkers@@PAX@std@@@std@@QAE@ABV?$allocator@UGraveRecord@GraveMarkers@@@1@@Z ; std::allocator<std::_List_node<GraveMarkers::GraveRecord,void *> >::allocator<std::_List_node<GraveMarkers::GraveRecord,void *> ><GraveMarkers::GraveRecord>
PUBLIC	??$forward@U_Container_proxy@std@@@std@@YA$$QAU_Container_proxy@0@AAU10@@Z ; std::forward<std::_Container_proxy>
PUBLIC	??$construct@U_Container_proxy@std@@U12@@?$allocator_traits@V?$allocator@U_Container_proxy@std@@@std@@@std@@SAXAAV?$allocator@U_Container_proxy@std@@@1@PAU_Container_proxy@1@$$QAU31@@Z ; std::allocator_traits<std::allocator<std::_Container_proxy> >::construct<std::_Container_proxy,std::_Container_proxy>
PUBLIC	??$_Uninitialized_move@PAUVector2D@@PAU1@U?$_Wrap_alloc@V?$allocator@UVector2D@@@std@@@std@@@std@@YAPAUVector2D@@PAU1@00AAU?$_Wrap_alloc@V?$allocator@UVector2D@@@std@@@0@@Z ; std::_Uninitialized_move<Vector2D *,Vector2D *,std::_Wrap_alloc<std::allocator<Vector2D> > >
PUBLIC	??$_Ptr_cat@UVector2D@@U1@@std@@YA?AU_Nonscalar_ptr_iterator_tag@0@PBUVector2D@@PAU2@@Z ; std::_Ptr_cat<Vector2D,Vector2D>
PUBLIC	??$_Ptr_cat@UVector2D@@U1@@std@@YA?AU_Nonscalar_ptr_iterator_tag@0@PAUVector2D@@0@Z ; std::_Ptr_cat<Vector2D,Vector2D>
PUBLIC	??$_Destroy_range@U?$_Wrap_alloc@V?$allocator@UVector2D@@@std@@@std@@@std@@YAXPAUVector2D@@0AAU?$_Wrap_alloc@V?$allocator@UVector2D@@@std@@@0@U_Nonscalar_ptr_iterator_tag@0@@Z ; std::_Destroy_range<std::_Wrap_alloc<std::allocator<Vector2D> > >
PUBLIC	??$forward@AAPAU?$_List_node@UGraveRecord@GraveMarkers@@PAX@std@@@std@@YAAAPAU?$_List_node@UGraveRecord@GraveMarkers@@PAX@0@AAPAU10@@Z ; std::forward<std::_List_node<GraveMarkers::GraveRecord,void *> * &>
PUBLIC	??$construct@PAU?$_List_node@UGraveRecord@GraveMarkers@@PAX@std@@AAPAU12@@?$allocator_traits@V?$allocator@U?$_List_node@UGraveRecord@GraveMarkers@@PAX@std@@@std@@@std@@SAXAAV?$allocator@U?$_List_node@UGraveRecord@GraveMarkers@@PAX@std@@@1@PAPAU?$_List_node@UGraveRecord@GraveMarkers@@PAX@1@AAPAU31@@Z ; std::allocator_traits<std::allocator<std::_List_node<GraveMarkers::GraveRecord,void *> > >::construct<std::_List_node<GraveMarkers::GraveRecord,void *> *,std::_List_node<GraveMarkers::GraveRecord,void *> * &>
PUBLIC	??$construct@UVector2D@@AAU1@@?$allocator@UVector2D@@@std@@QAEXPAUVector2D@@AAU2@@Z ; std::allocator<Vector2D>::construct<Vector2D,Vector2D &>
PUBLIC	??$construct@UVector2D@@ABU1@@?$allocator@UVector2D@@@std@@QAEXPAUVector2D@@ABU2@@Z ; std::allocator<Vector2D>::construct<Vector2D,Vector2D const &>
PUBLIC	??$construct@UVector2D@@U1@@?$allocator@UVector2D@@@std@@QAEXPAUVector2D@@$$QAU2@@Z ; std::allocator<Vector2D>::construct<Vector2D,Vector2D>
PUBLIC	??$_Unchecked@V?$_Vector_val@U?$_Simple_types@UVector2D@@@std@@@std@@@std@@YAPBUVector2D@@V?$_Vector_const_iterator@V?$_Vector_val@U?$_Simple_types@UVector2D@@@std@@@std@@@0@@Z ; std::_Unchecked<std::_Vector_val<std::_Simple_types<Vector2D> > >
PUBLIC	??$_Unchecked@PAUVector2D@@@std@@YAPAUVector2D@@PAU1@@Z ; std::_Unchecked<Vector2D *>
PUBLIC	??$_Uninit_copy@PBUVector2D@@PAU1@U?$_Wrap_alloc@V?$allocator@UVector2D@@@std@@@std@@@std@@YAPAUVector2D@@PBU1@0PAU1@AAU?$_Wrap_alloc@V?$allocator@UVector2D@@@std@@@0@@Z ; std::_Uninit_copy<Vector2D const *,Vector2D *,std::_Wrap_alloc<std::allocator<Vector2D> > >
PUBLIC	??$_Rechecked@PAUVector2D@@PAU1@@std@@YAAAPAUVector2D@@AAPAU1@PAU1@@Z ; std::_Rechecked<Vector2D *,Vector2D *>
PUBLIC	??$construct@UGraveRecord@GraveMarkers@@U12@@?$_Wrap_alloc@V?$allocator@U?$_List_node@UGraveRecord@GraveMarkers@@PAX@std@@@std@@@std@@QAEXPAUGraveRecord@GraveMarkers@@$$QAU23@@Z ; std::_Wrap_alloc<std::allocator<std::_List_node<GraveMarkers::GraveRecord,void *> > >::construct<GraveMarkers::GraveRecord,GraveMarkers::GraveRecord>
PUBLIC	??$destroy@PAU?$_List_node@UGraveRecord@GraveMarkers@@PAX@std@@@?$allocator@U?$_List_node@UGraveRecord@GraveMarkers@@PAX@std@@@std@@QAEXPAPAU?$_List_node@UGraveRecord@GraveMarkers@@PAX@1@@Z ; std::allocator<std::_List_node<GraveMarkers::GraveRecord,void *> >::destroy<std::_List_node<GraveMarkers::GraveRecord,void *> *>
PUBLIC	??$destroy@UGraveRecord@GraveMarkers@@@?$allocator@U?$_List_node@UGraveRecord@GraveMarkers@@PAX@std@@@std@@QAEXPAUGraveRecord@GraveMarkers@@@Z ; std::allocator<std::_List_node<GraveMarkers::GraveRecord,void *> >::destroy<GraveMarkers::GraveRecord>
PUBLIC	??$destroy@PAD@?$allocator@D@std@@QAEXPAPAD@Z	; std::allocator<char>::destroy<char *>
PUBLIC	??$construct@PADAAPAD@?$allocator@D@std@@QAEXPAPADAAPAD@Z ; std::allocator<char>::construct<char *,char * &>
PUBLIC	??$destroy@U_Container_proxy@std@@@?$allocator@U_Container_proxy@std@@@std@@QAEXPAU_Container_proxy@1@@Z ; std::allocator<std::_Container_proxy>::destroy<std::_Container_proxy>
PUBLIC	??$construct@U_Container_proxy@std@@U12@@?$allocator@U_Container_proxy@std@@@std@@QAEXPAU_Container_proxy@1@$$QAU21@@Z ; std::allocator<std::_Container_proxy>::construct<std::_Container_proxy,std::_Container_proxy>
PUBLIC	??$_Uninit_move@PAUVector2D@@PAU1@U?$_Wrap_alloc@V?$allocator@UVector2D@@@std@@@std@@@std@@YAPAUVector2D@@PAU1@00AAU?$_Wrap_alloc@V?$allocator@UVector2D@@@std@@@0@@Z ; std::_Uninit_move<Vector2D *,Vector2D *,std::_Wrap_alloc<std::allocator<Vector2D> > >
PUBLIC	??$destroy@UVector2D@@@?$_Wrap_alloc@V?$allocator@UVector2D@@@std@@@std@@QAEXPAUVector2D@@@Z ; std::_Wrap_alloc<std::allocator<Vector2D> >::destroy<Vector2D>
PUBLIC	??$construct@PAU?$_List_node@UGraveRecord@GraveMarkers@@PAX@std@@AAPAU12@@?$allocator@U?$_List_node@UGraveRecord@GraveMarkers@@PAX@std@@@std@@QAEXPAPAU?$_List_node@UGraveRecord@GraveMarkers@@PAX@1@AAPAU21@@Z ; std::allocator<std::_List_node<GraveMarkers::GraveRecord,void *> >::construct<std::_List_node<GraveMarkers::GraveRecord,void *> *,std::_List_node<GraveMarkers::GraveRecord,void *> * &>
PUBLIC	??$_Uninit_copy@PBUVector2D@@PAU1@V?$allocator@UVector2D@@@std@@@std@@YAPAUVector2D@@PBU1@0PAU1@AAU?$_Wrap_alloc@V?$allocator@UVector2D@@@std@@@0@U_Nonscalar_ptr_iterator_tag@0@@Z ; std::_Uninit_copy<Vector2D const *,Vector2D *,std::allocator<Vector2D> >
PUBLIC	??$construct@UGraveRecord@GraveMarkers@@U12@@?$allocator_traits@V?$allocator@U?$_List_node@UGraveRecord@GraveMarkers@@PAX@std@@@std@@@std@@SAXAAV?$allocator@U?$_List_node@UGraveRecord@GraveMarkers@@PAX@std@@@1@PAUGraveRecord@GraveMarkers@@$$QAU34@@Z ; std::allocator_traits<std::allocator<std::_List_node<GraveMarkers::GraveRecord,void *> > >::construct<GraveMarkers::GraveRecord,GraveMarkers::GraveRecord>
PUBLIC	??$_Val_type@PAUVector2D@@@std@@YAPAUVector2D@@PAU1@@Z ; std::_Val_type<Vector2D *>
PUBLIC	??$_Uninit_move@PAUVector2D@@PAU1@V?$allocator@UVector2D@@@std@@U1@@std@@YAPAUVector2D@@PAU1@00AAU?$_Wrap_alloc@V?$allocator@UVector2D@@@std@@@0@0U_Nonscalar_ptr_iterator_tag@0@@Z ; std::_Uninit_move<Vector2D *,Vector2D *,std::allocator<Vector2D>,Vector2D>
PUBLIC	??$destroy@UVector2D@@@?$allocator_traits@V?$allocator@UVector2D@@@std@@@std@@SAXAAV?$allocator@UVector2D@@@1@PAUVector2D@@@Z ; std::allocator_traits<std::allocator<Vector2D> >::destroy<Vector2D>
PUBLIC	??$_Debug_range_ptr@PBUVector2D@@PAU1@@std@@YAXPBUVector2D@@0AAPAU1@PB_WI@Z ; std::_Debug_range_ptr<Vector2D const *,Vector2D *>
PUBLIC	??$construct@UGraveRecord@GraveMarkers@@U12@@?$allocator@U?$_List_node@UGraveRecord@GraveMarkers@@PAX@std@@@std@@QAEXPAUGraveRecord@GraveMarkers@@$$QAU23@@Z ; std::allocator<std::_List_node<GraveMarkers::GraveRecord,void *> >::construct<GraveMarkers::GraveRecord,GraveMarkers::GraveRecord>
PUBLIC	??$_Debug_range_ptr@PAUVector2D@@PAU1@@std@@YAXPAUVector2D@@0AAPAU1@PB_WI@Z ; std::_Debug_range_ptr<Vector2D *,Vector2D *>
PUBLIC	??$destroy@UVector2D@@@?$allocator@UVector2D@@@std@@QAEXPAUVector2D@@@Z ; std::allocator<Vector2D>::destroy<Vector2D>
PUBLIC	??$_Iter_cat@PBUVector2D@@@std@@YA?AUrandom_access_iterator_tag@0@ABQBUVector2D@@@Z ; std::_Iter_cat<Vector2D const *>
PUBLIC	??$_Debug_range_ptr2@PBUVector2D@@PAU1@@std@@YAXPBUVector2D@@0AAPAU1@PB_WIUrandom_access_iterator_tag@0@@Z ; std::_Debug_range_ptr2<Vector2D const *,Vector2D *>
PUBLIC	??$_Iter_cat@PAUVector2D@@@std@@YA?AUrandom_access_iterator_tag@0@ABQAUVector2D@@@Z ; std::_Iter_cat<Vector2D *>
PUBLIC	??$_Debug_range_ptr2@PAUVector2D@@PAU1@@std@@YAXPAUVector2D@@0AAPAU1@PB_WIUrandom_access_iterator_tag@0@@Z ; std::_Debug_range_ptr2<Vector2D *,Vector2D *>
PUBLIC	??$_Debug_pointer@$$CBUVector2D@@@std@@YAXPBUVector2D@@PB_WI@Z ; std::_Debug_pointer<Vector2D const >
PUBLIC	??$_Debug_pointer@UVector2D@@@std@@YAXPAUVector2D@@PB_WI@Z ; std::_Debug_pointer<Vector2D>
PUBLIC	??_C@_1GI@DDIAPGKN@?$AAD?$AA?3?$AA?2?$AAM?$AAi?$AAc?$AAr?$AAo?$AAs?$AAo?$AAf?$AAt?$AA?5?$AAV?$AAi?$AAs?$AAu?$AAa?$AAl?$AA?5?$AAS?$AAt?$AAu?$AAd?$AAi?$AAo?$AA?5?$AA1?$AA4?$AA?4?$AA0?$AA?2@ ; `string'
PUBLIC	??_C@_1DC@POOIKBAO@?$AAI?$AAT?$AAE?$AAR?$AAA?$AAT?$AAO?$AAR?$AA?5?$AAL?$AAI?$AAS?$AAT?$AA?5?$AAC?$AAO?$AAR?$AAR?$AAU?$AAP?$AAT?$AAE?$AAD?$AA?$CB?$AA?$AA@ ; `string'
PUBLIC	??_C@_1GE@BNGOPDPB@?$AAD?$AA?3?$AA?2?$AAM?$AAi?$AAc?$AAr?$AAo?$AAs?$AAo?$AAf?$AAt?$AA?5?$AAV?$AAi?$AAs?$AAu?$AAa?$AAl?$AA?5?$AAS?$AAt?$AAu?$AAd?$AAi?$AAo?$AA?5?$AA1?$AA4?$AA?4?$AA0?$AA?2@ ; `string'
PUBLIC	??_C@_1DM@LHGCHCBA@?$AAv?$AAe?$AAc?$AAt?$AAo?$AAr?$AA?5?$AAs?$AAu?$AAb?$AAs?$AAc?$AAr?$AAi?$AAp?$AAt?$AA?5?$AAo?$AAu?$AAt?$AA?5?$AAo?$AAf?$AA?5?$AAr?$AAa?$AAn?$AAg?$AAe?$AA?$AA@ ; `string'
PUBLIC	??_C@_0CE@OFMIGAMM@Standard?5C?$CL?$CL?5Libraries?5Out?5of?5Ra@ ; `string'
PUBLIC	??_C@_1FG@IBPIFFN@?$AA?$CC?$AAS?$AAt?$AAa?$AAn?$AAd?$AAa?$AAr?$AAd?$AA?5?$AAC?$AA?$CL?$AA?$CL?$AA?5?$AAL?$AAi?$AAb?$AAr?$AAa?$AAr?$AAi?$AAe?$AAs?$AA?5?$AAO?$AAu?$AAt?$AA?5?$AAo?$AAf?$AA?5?$AAR@ ; `string'
PUBLIC	??_C@_17CNPHIMPH@?$AA?$CF?$AAl?$AAs?$AA?$AA@	; `string'
PUBLIC	??_C@_1KC@ILGGEGM@?$AAs?$AAt?$AAd?$AA?3?$AA?3?$AAv?$AAe?$AAc?$AAt?$AAo?$AAr?$AA?$DM?$AAs?$AAt?$AAr?$AAu?$AAc?$AAt?$AA?5?$AAV?$AAe?$AAc?$AAt?$AAo?$AAr?$AA2?$AAD?$AA?0?$AAc?$AAl?$AAa?$AAs@ ; `string'
PUBLIC	??_C@_1BO@MEPPHOO@?$AA?$CC?$AAo?$AAu?$AAt?$AA?5?$AAo?$AAf?$AA?5?$AAr?$AAa?$AAn?$AAg?$AAe?$AA?$CC?$AA?$AA@ ; `string'
PUBLIC	??_C@_1GG@PGPFJPKM@?$AAD?$AA?3?$AA?2?$AAM?$AAi?$AAc?$AAr?$AAo?$AAs?$AAo?$AAf?$AAt?$AA?5?$AAV?$AAi?$AAs?$AAu?$AAa?$AAl?$AA?5?$AAS?$AAt?$AAu?$AAd?$AAi?$AAo?$AA?5?$AA1?$AA4?$AA?4?$AA0?$AA?2@ ; `string'
PUBLIC	??_C@_1GA@IINJPBGE@?$AAD?$AA?3?$AA?2?$AAM?$AAi?$AAc?$AAr?$AAo?$AAs?$AAo?$AAf?$AAt?$AA?5?$AAV?$AAi?$AAs?$AAu?$AAa?$AAl?$AA?5?$AAS?$AAt?$AAu?$AAd?$AAi?$AAo?$AA?5?$AA1?$AA4?$AA?4?$AA0?$AA?2@ ; `string'
PUBLIC	??_C@_1DI@MDELDGPI@?$AAl?$AAi?$AAs?$AAt?$AA?5?$AAi?$AAt?$AAe?$AAr?$AAa?$AAt?$AAo?$AAr?$AAs?$AA?5?$AAi?$AAn?$AAc?$AAo?$AAm?$AAp?$AAa?$AAt?$AAi?$AAb?$AAl?$AAe?$AA?$AA@ ; `string'
PUBLIC	??_C@_0CI@FNPHFCCM@Standard?5C?$CL?$CL?5Libraries?5Invalid?5A@ ; `string'
PUBLIC	??_C@_1FO@GJIHNDLM@?$AA?$CC?$AAS?$AAt?$AAa?$AAn?$AAd?$AAa?$AAr?$AAd?$AA?5?$AAC?$AA?$CL?$AA?$CL?$AA?5?$AAL?$AAi?$AAb?$AAr?$AAa?$AAr?$AAi?$AAe?$AAs?$AA?5?$AAI?$AAn?$AAv?$AAa?$AAl?$AAi?$AAd?$AA?5@ ; `string'
PUBLIC	??_C@_1BAC@GABKONCL@?$AAs?$AAt?$AAd?$AA?3?$AA?3?$AA_?$AAL?$AAi?$AAs?$AAt?$AA_?$AAc?$AAo?$AAn?$AAs?$AAt?$AA_?$AAi?$AAt?$AAe?$AAr?$AAa?$AAt?$AAo?$AAr?$AA?$DM?$AAc?$AAl?$AAa?$AAs?$AAs?$AA?5@ ; `string'
PUBLIC	??_C@_1CG@JNLFBNGN@?$AA?$CC?$AAi?$AAn?$AAv?$AAa?$AAl?$AAi?$AAd?$AA?5?$AAa?$AAr?$AAg?$AAu?$AAm?$AAe?$AAn?$AAt?$AA?$CC?$AA?$AA@ ; `string'
PUBLIC	??_C@_1EA@DOGAGKDH@?$AAl?$AAi?$AAs?$AAt?$AA?5?$AAi?$AAt?$AAe?$AAr?$AAa?$AAt?$AAo?$AAr?$AA?5?$AAn?$AAo?$AAt?$AA?5?$AAi?$AAn?$AAc?$AAr?$AAe?$AAm?$AAe?$AAn?$AAt?$AAa?$AAb?$AAl?$AAe?$AA?$AA@ ; `string'
PUBLIC	??_C@_1BAC@MAOHAEOO@?$AAs?$AAt?$AAd?$AA?3?$AA?3?$AA_?$AAL?$AAi?$AAs?$AAt?$AA_?$AAc?$AAo?$AAn?$AAs?$AAt?$AA_?$AAi?$AAt?$AAe?$AAr?$AAa?$AAt?$AAo?$AAr?$AA?$DM?$AAc?$AAl?$AAa?$AAs?$AAs?$AA?5@ ; `string'
PUBLIC	??_C@_1EE@BBMFLDOC@?$AAl?$AAi?$AAs?$AAt?$AA?5?$AAe?$AAr?$AAa?$AAs?$AAe?$AA?5?$AAi?$AAt?$AAe?$AAr?$AAa?$AAt?$AAo?$AAr?$AA?5?$AAo?$AAu?$AAt?$AAs?$AAi?$AAd?$AAe?$AA?5?$AAr?$AAa?$AAn?$AAg@ ; `string'
PUBLIC	??_C@_1EC@HILJLMMC@?$AAl?$AAi?$AAs?$AAt?$AA?5?$AAi?$AAt?$AAe?$AAr?$AAa?$AAt?$AAo?$AAr?$AA?5?$AAn?$AAo?$AAt?$AA?5?$AAd?$AAe?$AAr?$AAe?$AAf?$AAe?$AAr?$AAe?$AAn?$AAc?$AAa?$AAb?$AAl?$AAe@ ; `string'
PUBLIC	??_C@_1BAA@MOJEOHPG@?$AAs?$AAt?$AAd?$AA?3?$AA?3?$AA_?$AAL?$AAi?$AAs?$AAt?$AA_?$AAc?$AAo?$AAn?$AAs?$AAt?$AA_?$AAi?$AAt?$AAe?$AAr?$AAa?$AAt?$AAo?$AAr?$AA?$DM?$AAc?$AAl?$AAa?$AAs?$AAs?$AA?5@ ; `string'
PUBLIC	??_C@_0BD@OLBABOEK@vector?$DMT?$DO?5too?5long?$AA@ ; `string'
PUBLIC	??_C@_0BI@CFPLBAOH@invalid?5string?5position?$AA@ ; `string'
PUBLIC	??_C@_0BA@JFNIOLAK@string?5too?5long?$AA@	; `string'
PUBLIC	??_C@_1CK@EOPGIILJ@?$AAi?$AAn?$AAv?$AAa?$AAl?$AAi?$AAd?$AA?5?$AAn?$AAu?$AAl?$AAl?$AA?5?$AAp?$AAo?$AAi?$AAn?$AAt?$AAe?$AAr?$AA?$AA@ ; `string'
PUBLIC	??_C@_0CG@FHBDFCGK@_Count?5?$DM?$DN?5?$CIsize_t?$CJ?$CI?91?$CJ?5?1?5sizeof?5@ ; `string'
PUBLIC	??_C@_1FK@EJGLHMGC@?$AA?$CC?$AA_?$AAC?$AAo?$AAu?$AAn?$AAt?$AA?5?$AA?$DM?$AA?$DN?$AA?5?$AA?$CI?$AAs?$AAi?$AAz?$AAe?$AA_?$AAt?$AA?$CJ?$AA?$CI?$AA?9?$AA1?$AA?$CJ?$AA?5?$AA?1?$AA?5?$AAs?$AAi?$AAz?$AAe?$AAo?$AAf@ ; `string'
PUBLIC	??_C@_1GI@MOGLCDAO@?$AAD?$AA?3?$AA?2?$AAM?$AAi?$AAc?$AAr?$AAo?$AAs?$AAo?$AAf?$AAt?$AA?5?$AAV?$AAi?$AAs?$AAu?$AAa?$AAl?$AA?5?$AAS?$AAt?$AAu?$AAd?$AAi?$AAo?$AA?5?$AA1?$AA4?$AA?4?$AA0?$AA?2@ ; `string'
PUBLIC	??_C@_1CC@LOFJFFDB@?$AAs?$AAt?$AAd?$AA?3?$AA?3?$AA_?$AAD?$AAe?$AAa?$AAl?$AAl?$AAo?$AAc?$AAa?$AAt?$AAe?$AA?$AA@ ; `string'
PUBLIC	??_C@_0DD@GBGGGKGG@?$CI_Ptr_user?5?$CG?5?$CI_BIG_ALLOCATION_AL@ ; `string'
PUBLIC	??_C@_1HE@CDMBFOKC@?$AA?$CC?$AA?$CI?$AA_?$AAP?$AAt?$AAr?$AA_?$AAu?$AAs?$AAe?$AAr?$AA?5?$AA?$CG?$AA?5?$AA?$CI?$AA_?$AAB?$AAI?$AAG?$AA_?$AAA?$AAL?$AAL?$AAO?$AAC?$AAA?$AAT?$AAI?$AAO?$AAN?$AA_?$AAA@ ; `string'
PUBLIC	??_C@_0EI@NOJHEJCJ@reinterpret_cast?$DMuintptr_t?5?$CK?$DO?$CI_P@ ; `string'
PUBLIC	??_C@_1JO@EKLKIEHP@?$AA?$CC?$AAr?$AAe?$AAi?$AAn?$AAt?$AAe?$AAr?$AAp?$AAr?$AAe?$AAt?$AA_?$AAc?$AAa?$AAs?$AAt?$AA?$DM?$AAu?$AAi?$AAn?$AAt?$AAp?$AAt?$AAr?$AA_?$AAt?$AA?5?$AA?$CK?$AA?$DO?$AA?$CI?$AA_@ ; `string'
PUBLIC	??_C@_0BL@OCKMEJON@_Ptr_container?5?$DM?5_Ptr_user?$AA@ ; `string'
PUBLIC	??_C@_1EE@PDHAHDDC@?$AA?$CC?$AA_?$AAP?$AAt?$AAr?$AA_?$AAc?$AAo?$AAn?$AAt?$AAa?$AAi?$AAn?$AAe?$AAr?$AA?5?$AA?$DM?$AA?5?$AA_?$AAP?$AAt?$AAr?$AA_?$AAu?$AAs?$AAe?$AAr?$AA?$CC?$AA?5?$AA?$CG?$AA?$CG?$AA?5@ ; `string'
PUBLIC	??_C@_0DB@GLFJLNCE@2?5?$CK?5sizeof?$CIvoid?5?$CK?$CJ?5?$DM?$DN?5_Ptr_user?5@ ; `string'
PUBLIC	??_C@_1HA@NAPGMHAO@?$AA?$CC?$AA2?$AA?5?$AA?$CK?$AA?5?$AAs?$AAi?$AAz?$AAe?$AAo?$AAf?$AA?$CI?$AAv?$AAo?$AAi?$AAd?$AA?5?$AA?$CK?$AA?$CJ?$AA?5?$AA?$DM?$AA?$DN?$AA?5?$AA_?$AAP?$AAt?$AAr?$AA_?$AAu?$AAs?$AAe?$AAr@ ; `string'
PUBLIC	??_C@_0CN@BLHJCAL@_Ptr_user?5?9?5_Ptr_container?5?$DM?$DN?5_N@ ; `string'
PUBLIC	??_C@_1GI@DHJGPFNI@?$AA?$CC?$AA_?$AAP?$AAt?$AAr?$AA_?$AAu?$AAs?$AAe?$AAr?$AA?5?$AA?9?$AA?5?$AA_?$AAP?$AAt?$AAr?$AA_?$AAc?$AAo?$AAn?$AAt?$AAa?$AAi?$AAn?$AAe?$AAr?$AA?5?$AA?$DM?$AA?$DN?$AA?5?$AA_@ ; `string'
PUBLIC	??_C@_0BE@LMNLACIC@_Ptr_container?5?$CB?$DN?50?$AA@ ; `string'
PUBLIC	??_C@_1DG@HGDKEBPG@?$AA?$CC?$AA_?$AAP?$AAt?$AAr?$AA_?$AAc?$AAo?$AAn?$AAt?$AAa?$AAi?$AAn?$AAe?$AAr?$AA?5?$AA?$CB?$AA?$DN?$AA?5?$AA0?$AA?$CC?$AA?5?$AA?$CG?$AA?$CG?$AA?5?$AA0?$AA?$AA@ ; `string'
PUBLIC	??_C@_1BO@NKFMJPA@?$AAs?$AAt?$AAd?$AA?3?$AA?3?$AA_?$AAA?$AAl?$AAl?$AAo?$AAc?$AAa?$AAt?$AAe?$AA?$AA@ ; `string'
PUBLIC	??_C@_09GLJCAGLP@_Ptr?5?$CB?$DN?50?$AA@		; `string'
PUBLIC	??_C@_1CC@GKJLLHIM@?$AA?$CC?$AA_?$AAP?$AAt?$AAr?$AA?5?$AA?$CB?$AA?$DN?$AA?5?$AA0?$AA?$CC?$AA?5?$AA?$CG?$AA?$CG?$AA?5?$AA0?$AA?$AA@ ; `string'
PUBLIC	??_C@_0BB@MOGOBHAF@list?$DMT?$DO?5too?5long?$AA@ ; `string'
PUBLIC	??_C@_1CO@DGLIKNHI@?$AAi?$AAn?$AAv?$AAa?$AAl?$AAi?$AAd?$AA?5?$AAi?$AAt?$AAe?$AAr?$AAa?$AAt?$AAo?$AAr?$AA?5?$AAr?$AAa?$AAn?$AAg?$AAe?$AA?$AA@ ; `string'
PUBLIC	??_C@_1GG@BIHJGGHN@?$AAD?$AA?3?$AA?2?$AAM?$AAi?$AAc?$AAr?$AAo?$AAs?$AAo?$AAf?$AAt?$AA?5?$AAV?$AAi?$AAs?$AAu?$AAa?$AAl?$AA?5?$AAS?$AAt?$AAu?$AAd?$AAi?$AAo?$AA?5?$AA1?$AA4?$AA?4?$AA0?$AA?2@ ; `string'
PUBLIC	__real@0000000000000000
PUBLIC	__real@0010000000000000
PUBLIC	__real@00800000
PUBLIC	__real@3f50624dd2f1a9fc
PUBLIC	__real@3ff0000000000000
PUBLIC	__real@4008000000000000
PUBLIC	__real@4010000000000000
PUBLIC	__real@4014000000000000
PUBLIC	__real@4018000000000000
PUBLIC	__real@4024000000000000
PUBLIC	__real@7f7fffff
PUBLIC	__real@7fefffffffffffff
PUBLIC	__real@bff0000000000000
PUBLIC	__real@c008000000000000
PUBLIC	__real@c010000000000000
PUBLIC	__real@c014000000000000
PUBLIC	__xmm@41f00000000000000000000000000000
PUBLIC	__xmm@80000000000000008000000000000000
EXTRN	??2@YAPAXI@Z:PROC				; operator new
EXTRN	??3@YAXPAX@Z:PROC				; operator delete
EXTRN	__invalid_parameter:PROC
EXTRN	??0_Lockit@std@@QAE@H@Z:PROC			; std::_Lockit::_Lockit
EXTRN	??1_Lockit@std@@QAE@XZ:PROC			; std::_Lockit::~_Lockit
EXTRN	_memcpy:PROC
EXTRN	_memmove:PROC
EXTRN	_strlen:PROC
EXTRN	__CrtDbgReportW:PROC
EXTRN	?_Debug_message@std@@YAXPB_W0I@Z:PROC		; std::_Debug_message
EXTRN	?_Xbad_alloc@std@@YAXXZ:PROC			; std::_Xbad_alloc
EXTRN	?_Xlength_error@std@@YAXPBD@Z:PROC		; std::_Xlength_error
EXTRN	?_Xout_of_range@std@@YAXPBD@Z:PROC		; std::_Xout_of_range
EXTRN	__imp__LineTo@12:PROC
EXTRN	__imp__SelectObject@8:PROC
EXTRN	__imp__SetTextColor@8:PROC
EXTRN	__imp__MoveToEx@16:PROC
EXTRN	__imp__TextOutA@20:PROC
EXTRN	__imp__timeGetTime@0:PROC
EXTRN	?Instance@CrudeTimer@@SAPAV1@XZ:PROC		; CrudeTimer::Instance
EXTRN	?Instance@Cgdi@@SAPAV1@XZ:PROC			; Cgdi::Instance
EXTRN	@_RTC_CheckStackVars@8:PROC
EXTRN	@__security_check_cookie@4:PROC
EXTRN	__CxxThrowException@8:PROC
EXTRN	__RTC_CheckEsp:PROC
EXTRN	__RTC_InitBase:PROC
EXTRN	__RTC_Shutdown:PROC
EXTRN	___CxxFrameHandler3:PROC
EXTRN	___security_cookie:DWORD
EXTRN	__fltused:DWORD
_BSS	SEGMENT
?MaxInt@@3HB DD	01H DUP (?)				; MaxInt
	ALIGN	8

?MaxDouble@@3NB DQ 01H DUP (?)				; MaxDouble
?MinDouble@@3NB DQ 01H DUP (?)				; MinDouble
?MaxFloat@@3MB DD 01H DUP (?)				; MaxFloat
?MinFloat@@3MB DD 01H DUP (?)				; MinFloat
_BSS	ENDS
CRT$XCU	SEGMENT
?MaxInt$initializer$@@3P6AXXZA DD FLAT:??__EMaxInt@@YAXXZ ; MaxInt$initializer$
CRT$XCU	ENDS
;	COMDAT __xmm@80000000000000008000000000000000
CONST	SEGMENT
__xmm@80000000000000008000000000000000 DB 00H, 00H, 00H, 00H, 00H, 00H, 00H
	DB	080H, 00H, 00H, 00H, 00H, 00H, 00H, 00H, 080H
CONST	ENDS
;	COMDAT __xmm@41f00000000000000000000000000000
CONST	SEGMENT
__xmm@41f00000000000000000000000000000 DB 00H, 00H, 00H, 00H, 00H, 00H, 00H
	DB	00H, 00H, 00H, 00H, 00H, 00H, 00H, 0f0H, 'A'
CONST	ENDS
;	COMDAT __real@c014000000000000
CONST	SEGMENT
__real@c014000000000000 DQ 0c014000000000000r	; -5
CONST	ENDS
;	COMDAT __real@c010000000000000
CONST	SEGMENT
__real@c010000000000000 DQ 0c010000000000000r	; -4
CONST	ENDS
;	COMDAT __real@c008000000000000
CONST	SEGMENT
__real@c008000000000000 DQ 0c008000000000000r	; -3
CONST	ENDS
;	COMDAT __real@bff0000000000000
CONST	SEGMENT
__real@bff0000000000000 DQ 0bff0000000000000r	; -1
CONST	ENDS
;	COMDAT __real@7fefffffffffffff
CONST	SEGMENT
__real@7fefffffffffffff DQ 07fefffffffffffffr	; 1.79769e+308
CONST	ENDS
;	COMDAT __real@7f7fffff
CONST	SEGMENT
__real@7f7fffff DD 07f7fffffr			; 3.40282e+38
CONST	ENDS
;	COMDAT __real@4024000000000000
CONST	SEGMENT
__real@4024000000000000 DQ 04024000000000000r	; 10
CONST	ENDS
;	COMDAT __real@4018000000000000
CONST	SEGMENT
__real@4018000000000000 DQ 04018000000000000r	; 6
CONST	ENDS
;	COMDAT __real@4014000000000000
CONST	SEGMENT
__real@4014000000000000 DQ 04014000000000000r	; 5
CONST	ENDS
;	COMDAT __real@4010000000000000
CONST	SEGMENT
__real@4010000000000000 DQ 04010000000000000r	; 4
CONST	ENDS
;	COMDAT __real@4008000000000000
CONST	SEGMENT
__real@4008000000000000 DQ 04008000000000000r	; 3
CONST	ENDS
;	COMDAT __real@3ff0000000000000
CONST	SEGMENT
__real@3ff0000000000000 DQ 03ff0000000000000r	; 1
CONST	ENDS
;	COMDAT __real@3f50624dd2f1a9fc
CONST	SEGMENT
__real@3f50624dd2f1a9fc DQ 03f50624dd2f1a9fcr	; 0.001
CONST	ENDS
;	COMDAT __real@00800000
CONST	SEGMENT
__real@00800000 DD 000800000r			; 1.17549e-38
CONST	ENDS
;	COMDAT __real@0010000000000000
CONST	SEGMENT
__real@0010000000000000 DQ 00010000000000000r	; 2.22507e-308
CONST	ENDS
;	COMDAT __real@0000000000000000
CONST	SEGMENT
__real@0000000000000000 DQ 00000000000000000r	; 0
CONST	ENDS
;	COMDAT rtc$TMZ
rtc$TMZ	SEGMENT
__RTC_Shutdown.rtc$TMZ DD FLAT:__RTC_Shutdown
rtc$TMZ	ENDS
;	COMDAT rtc$IMZ
rtc$IMZ	SEGMENT
__RTC_InitBase.rtc$IMZ DD FLAT:__RTC_InitBase
rtc$IMZ	ENDS
;	COMDAT ??_C@_1GG@BIHJGGHN@?$AAD?$AA?3?$AA?2?$AAM?$AAi?$AAc?$AAr?$AAo?$AAs?$AAo?$AAf?$AAt?$AA?5?$AAV?$AAi?$AAs?$AAu?$AAa?$AAl?$AA?5?$AAS?$AAt?$AAu?$AAd?$AAi?$AAo?$AA?5?$AA1?$AA4?$AA?4?$AA0?$AA?2@
CONST	SEGMENT
??_C@_1GG@BIHJGGHN@?$AAD?$AA?3?$AA?2?$AAM?$AAi?$AAc?$AAr?$AAo?$AAs?$AAo?$AAf?$AAt?$AA?5?$AAV?$AAi?$AAs?$AAu?$AAa?$AAl?$AA?5?$AAS?$AAt?$AAu?$AAd?$AAi?$AAo?$AA?5?$AA1?$AA4?$AA?4?$AA0?$AA?2@ DB 'D'
	DB	00H, ':', 00H, '\', 00H, 'M', 00H, 'i', 00H, 'c', 00H, 'r', 00H
	DB	'o', 00H, 's', 00H, 'o', 00H, 'f', 00H, 't', 00H, ' ', 00H, 'V'
	DB	00H, 'i', 00H, 's', 00H, 'u', 00H, 'a', 00H, 'l', 00H, ' ', 00H
	DB	'S', 00H, 't', 00H, 'u', 00H, 'd', 00H, 'i', 00H, 'o', 00H, ' '
	DB	00H, '1', 00H, '4', 00H, '.', 00H, '0', 00H, '\', 00H, 'V', 00H
	DB	'C', 00H, '\', 00H, 'i', 00H, 'n', 00H, 'c', 00H, 'l', 00H, 'u'
	DB	00H, 'd', 00H, 'e', 00H, '\', 00H, 'x', 00H, 'm', 00H, 'e', 00H
	DB	'm', 00H, 'o', 00H, 'r', 00H, 'y', 00H, 00H, 00H ; `string'
CONST	ENDS
;	COMDAT ??_C@_1CO@DGLIKNHI@?$AAi?$AAn?$AAv?$AAa?$AAl?$AAi?$AAd?$AA?5?$AAi?$AAt?$AAe?$AAr?$AAa?$AAt?$AAo?$AAr?$AA?5?$AAr?$AAa?$AAn?$AAg?$AAe?$AA?$AA@
CONST	SEGMENT
??_C@_1CO@DGLIKNHI@?$AAi?$AAn?$AAv?$AAa?$AAl?$AAi?$AAd?$AA?5?$AAi?$AAt?$AAe?$AAr?$AAa?$AAt?$AAo?$AAr?$AA?5?$AAr?$AAa?$AAn?$AAg?$AAe?$AA?$AA@ DB 'i'
	DB	00H, 'n', 00H, 'v', 00H, 'a', 00H, 'l', 00H, 'i', 00H, 'd', 00H
	DB	' ', 00H, 'i', 00H, 't', 00H, 'e', 00H, 'r', 00H, 'a', 00H, 't'
	DB	00H, 'o', 00H, 'r', 00H, ' ', 00H, 'r', 00H, 'a', 00H, 'n', 00H
	DB	'g', 00H, 'e', 00H, 00H, 00H			; `string'
CONST	ENDS
;	COMDAT ??_C@_0BB@MOGOBHAF@list?$DMT?$DO?5too?5long?$AA@
CONST	SEGMENT
??_C@_0BB@MOGOBHAF@list?$DMT?$DO?5too?5long?$AA@ DB 'list<T> too long', 00H ; `string'
CONST	ENDS
;	COMDAT ??_C@_1CC@GKJLLHIM@?$AA?$CC?$AA_?$AAP?$AAt?$AAr?$AA?5?$AA?$CB?$AA?$DN?$AA?5?$AA0?$AA?$CC?$AA?5?$AA?$CG?$AA?$CG?$AA?5?$AA0?$AA?$AA@
CONST	SEGMENT
??_C@_1CC@GKJLLHIM@?$AA?$CC?$AA_?$AAP?$AAt?$AAr?$AA?5?$AA?$CB?$AA?$DN?$AA?5?$AA0?$AA?$CC?$AA?5?$AA?$CG?$AA?$CG?$AA?5?$AA0?$AA?$AA@ DB '"'
	DB	00H, '_', 00H, 'P', 00H, 't', 00H, 'r', 00H, ' ', 00H, '!', 00H
	DB	'=', 00H, ' ', 00H, '0', 00H, '"', 00H, ' ', 00H, '&', 00H, '&'
	DB	00H, ' ', 00H, '0', 00H, 00H, 00H		; `string'
CONST	ENDS
;	COMDAT ??_C@_09GLJCAGLP@_Ptr?5?$CB?$DN?50?$AA@
CONST	SEGMENT
??_C@_09GLJCAGLP@_Ptr?5?$CB?$DN?50?$AA@ DB '_Ptr != 0', 00H ; `string'
CONST	ENDS
;	COMDAT ??_C@_1BO@NKFMJPA@?$AAs?$AAt?$AAd?$AA?3?$AA?3?$AA_?$AAA?$AAl?$AAl?$AAo?$AAc?$AAa?$AAt?$AAe?$AA?$AA@
CONST	SEGMENT
??_C@_1BO@NKFMJPA@?$AAs?$AAt?$AAd?$AA?3?$AA?3?$AA_?$AAA?$AAl?$AAl?$AAo?$AAc?$AAa?$AAt?$AAe?$AA?$AA@ DB 's'
	DB	00H, 't', 00H, 'd', 00H, ':', 00H, ':', 00H, '_', 00H, 'A', 00H
	DB	'l', 00H, 'l', 00H, 'o', 00H, 'c', 00H, 'a', 00H, 't', 00H, 'e'
	DB	00H, 00H, 00H				; `string'
CONST	ENDS
;	COMDAT ??_C@_1DG@HGDKEBPG@?$AA?$CC?$AA_?$AAP?$AAt?$AAr?$AA_?$AAc?$AAo?$AAn?$AAt?$AAa?$AAi?$AAn?$AAe?$AAr?$AA?5?$AA?$CB?$AA?$DN?$AA?5?$AA0?$AA?$CC?$AA?5?$AA?$CG?$AA?$CG?$AA?5?$AA0?$AA?$AA@
CONST	SEGMENT
??_C@_1DG@HGDKEBPG@?$AA?$CC?$AA_?$AAP?$AAt?$AAr?$AA_?$AAc?$AAo?$AAn?$AAt?$AAa?$AAi?$AAn?$AAe?$AAr?$AA?5?$AA?$CB?$AA?$DN?$AA?5?$AA0?$AA?$CC?$AA?5?$AA?$CG?$AA?$CG?$AA?5?$AA0?$AA?$AA@ DB '"'
	DB	00H, '_', 00H, 'P', 00H, 't', 00H, 'r', 00H, '_', 00H, 'c', 00H
	DB	'o', 00H, 'n', 00H, 't', 00H, 'a', 00H, 'i', 00H, 'n', 00H, 'e'
	DB	00H, 'r', 00H, ' ', 00H, '!', 00H, '=', 00H, ' ', 00H, '0', 00H
	DB	'"', 00H, ' ', 00H, '&', 00H, '&', 00H, ' ', 00H, '0', 00H, 00H
	DB	00H						; `string'
CONST	ENDS
;	COMDAT ??_C@_0BE@LMNLACIC@_Ptr_container?5?$CB?$DN?50?$AA@
CONST	SEGMENT
??_C@_0BE@LMNLACIC@_Ptr_container?5?$CB?$DN?50?$AA@ DB '_Ptr_container !='
	DB	' 0', 00H					; `string'
CONST	ENDS
;	COMDAT ??_C@_1GI@DHJGPFNI@?$AA?$CC?$AA_?$AAP?$AAt?$AAr?$AA_?$AAu?$AAs?$AAe?$AAr?$AA?5?$AA?9?$AA?5?$AA_?$AAP?$AAt?$AAr?$AA_?$AAc?$AAo?$AAn?$AAt?$AAa?$AAi?$AAn?$AAe?$AAr?$AA?5?$AA?$DM?$AA?$DN?$AA?5?$AA_@
CONST	SEGMENT
??_C@_1GI@DHJGPFNI@?$AA?$CC?$AA_?$AAP?$AAt?$AAr?$AA_?$AAu?$AAs?$AAe?$AAr?$AA?5?$AA?9?$AA?5?$AA_?$AAP?$AAt?$AAr?$AA_?$AAc?$AAo?$AAn?$AAt?$AAa?$AAi?$AAn?$AAe?$AAr?$AA?5?$AA?$DM?$AA?$DN?$AA?5?$AA_@ DB '"'
	DB	00H, '_', 00H, 'P', 00H, 't', 00H, 'r', 00H, '_', 00H, 'u', 00H
	DB	's', 00H, 'e', 00H, 'r', 00H, ' ', 00H, '-', 00H, ' ', 00H, '_'
	DB	00H, 'P', 00H, 't', 00H, 'r', 00H, '_', 00H, 'c', 00H, 'o', 00H
	DB	'n', 00H, 't', 00H, 'a', 00H, 'i', 00H, 'n', 00H, 'e', 00H, 'r'
	DB	00H, ' ', 00H, '<', 00H, '=', 00H, ' ', 00H, '_', 00H, 'N', 00H
	DB	'O', 00H, 'N', 00H, '_', 00H, 'U', 00H, 'S', 00H, 'E', 00H, 'R'
	DB	00H, '_', 00H, 'S', 00H, 'I', 00H, 'Z', 00H, 'E', 00H, '"', 00H
	DB	' ', 00H, '&', 00H, '&', 00H, ' ', 00H, '0', 00H, 00H, 00H ; `string'
CONST	ENDS
;	COMDAT ??_C@_0CN@BLHJCAL@_Ptr_user?5?9?5_Ptr_container?5?$DM?$DN?5_N@
CONST	SEGMENT
??_C@_0CN@BLHJCAL@_Ptr_user?5?9?5_Ptr_container?5?$DM?$DN?5_N@ DB '_Ptr_u'
	DB	'ser - _Ptr_container <= _NON_USER_SIZE', 00H ; `string'
CONST	ENDS
;	COMDAT ??_C@_1HA@NAPGMHAO@?$AA?$CC?$AA2?$AA?5?$AA?$CK?$AA?5?$AAs?$AAi?$AAz?$AAe?$AAo?$AAf?$AA?$CI?$AAv?$AAo?$AAi?$AAd?$AA?5?$AA?$CK?$AA?$CJ?$AA?5?$AA?$DM?$AA?$DN?$AA?5?$AA_?$AAP?$AAt?$AAr?$AA_?$AAu?$AAs?$AAe?$AAr@
CONST	SEGMENT
??_C@_1HA@NAPGMHAO@?$AA?$CC?$AA2?$AA?5?$AA?$CK?$AA?5?$AAs?$AAi?$AAz?$AAe?$AAo?$AAf?$AA?$CI?$AAv?$AAo?$AAi?$AAd?$AA?5?$AA?$CK?$AA?$CJ?$AA?5?$AA?$DM?$AA?$DN?$AA?5?$AA_?$AAP?$AAt?$AAr?$AA_?$AAu?$AAs?$AAe?$AAr@ DB '"'
	DB	00H, '2', 00H, ' ', 00H, '*', 00H, ' ', 00H, 's', 00H, 'i', 00H
	DB	'z', 00H, 'e', 00H, 'o', 00H, 'f', 00H, '(', 00H, 'v', 00H, 'o'
	DB	00H, 'i', 00H, 'd', 00H, ' ', 00H, '*', 00H, ')', 00H, ' ', 00H
	DB	'<', 00H, '=', 00H, ' ', 00H, '_', 00H, 'P', 00H, 't', 00H, 'r'
	DB	00H, '_', 00H, 'u', 00H, 's', 00H, 'e', 00H, 'r', 00H, ' ', 00H
	DB	'-', 00H, ' ', 00H, '_', 00H, 'P', 00H, 't', 00H, 'r', 00H, '_'
	DB	00H, 'c', 00H, 'o', 00H, 'n', 00H, 't', 00H, 'a', 00H, 'i', 00H
	DB	'n', 00H, 'e', 00H, 'r', 00H, '"', 00H, ' ', 00H, '&', 00H, '&'
	DB	00H, ' ', 00H, '0', 00H, 00H, 00H		; `string'
CONST	ENDS
;	COMDAT ??_C@_0DB@GLFJLNCE@2?5?$CK?5sizeof?$CIvoid?5?$CK?$CJ?5?$DM?$DN?5_Ptr_user?5@
CONST	SEGMENT
??_C@_0DB@GLFJLNCE@2?5?$CK?5sizeof?$CIvoid?5?$CK?$CJ?5?$DM?$DN?5_Ptr_user?5@ DB '2'
	DB	' * sizeof(void *) <= _Ptr_user - _Ptr_container', 00H ; `string'
CONST	ENDS
;	COMDAT ??_C@_1EE@PDHAHDDC@?$AA?$CC?$AA_?$AAP?$AAt?$AAr?$AA_?$AAc?$AAo?$AAn?$AAt?$AAa?$AAi?$AAn?$AAe?$AAr?$AA?5?$AA?$DM?$AA?5?$AA_?$AAP?$AAt?$AAr?$AA_?$AAu?$AAs?$AAe?$AAr?$AA?$CC?$AA?5?$AA?$CG?$AA?$CG?$AA?5@
CONST	SEGMENT
??_C@_1EE@PDHAHDDC@?$AA?$CC?$AA_?$AAP?$AAt?$AAr?$AA_?$AAc?$AAo?$AAn?$AAt?$AAa?$AAi?$AAn?$AAe?$AAr?$AA?5?$AA?$DM?$AA?5?$AA_?$AAP?$AAt?$AAr?$AA_?$AAu?$AAs?$AAe?$AAr?$AA?$CC?$AA?5?$AA?$CG?$AA?$CG?$AA?5@ DB '"'
	DB	00H, '_', 00H, 'P', 00H, 't', 00H, 'r', 00H, '_', 00H, 'c', 00H
	DB	'o', 00H, 'n', 00H, 't', 00H, 'a', 00H, 'i', 00H, 'n', 00H, 'e'
	DB	00H, 'r', 00H, ' ', 00H, '<', 00H, ' ', 00H, '_', 00H, 'P', 00H
	DB	't', 00H, 'r', 00H, '_', 00H, 'u', 00H, 's', 00H, 'e', 00H, 'r'
	DB	00H, '"', 00H, ' ', 00H, '&', 00H, '&', 00H, ' ', 00H, '0', 00H
	DB	00H, 00H					; `string'
CONST	ENDS
;	COMDAT ??_C@_0BL@OCKMEJON@_Ptr_container?5?$DM?5_Ptr_user?$AA@
CONST	SEGMENT
??_C@_0BL@OCKMEJON@_Ptr_container?5?$DM?5_Ptr_user?$AA@ DB '_Ptr_containe'
	DB	'r < _Ptr_user', 00H				; `string'
CONST	ENDS
;	COMDAT ??_C@_1JO@EKLKIEHP@?$AA?$CC?$AAr?$AAe?$AAi?$AAn?$AAt?$AAe?$AAr?$AAp?$AAr?$AAe?$AAt?$AA_?$AAc?$AAa?$AAs?$AAt?$AA?$DM?$AAu?$AAi?$AAn?$AAt?$AAp?$AAt?$AAr?$AA_?$AAt?$AA?5?$AA?$CK?$AA?$DO?$AA?$CI?$AA_@
CONST	SEGMENT
??_C@_1JO@EKLKIEHP@?$AA?$CC?$AAr?$AAe?$AAi?$AAn?$AAt?$AAe?$AAr?$AAp?$AAr?$AAe?$AAt?$AA_?$AAc?$AAa?$AAs?$AAt?$AA?$DM?$AAu?$AAi?$AAn?$AAt?$AAp?$AAt?$AAr?$AA_?$AAt?$AA?5?$AA?$CK?$AA?$DO?$AA?$CI?$AA_@ DB '"'
	DB	00H, 'r', 00H, 'e', 00H, 'i', 00H, 'n', 00H, 't', 00H, 'e', 00H
	DB	'r', 00H, 'p', 00H, 'r', 00H, 'e', 00H, 't', 00H, '_', 00H, 'c'
	DB	00H, 'a', 00H, 's', 00H, 't', 00H, '<', 00H, 'u', 00H, 'i', 00H
	DB	'n', 00H, 't', 00H, 'p', 00H, 't', 00H, 'r', 00H, '_', 00H, 't'
	DB	00H, ' ', 00H, '*', 00H, '>', 00H, '(', 00H, '_', 00H, 'P', 00H
	DB	't', 00H, 'r', 00H, '_', 00H, 'p', 00H, 't', 00H, 'r', 00H, ')'
	DB	00H, '[', 00H, '-', 00H, '1', 00H, ']', 00H, ' ', 00H, '=', 00H
	DB	'=', 00H, ' ', 00H, '_', 00H, 'B', 00H, 'I', 00H, 'G', 00H, '_'
	DB	00H, 'A', 00H, 'L', 00H, 'L', 00H, 'O', 00H, 'C', 00H, 'A', 00H
	DB	'T', 00H, 'I', 00H, 'O', 00H, 'N', 00H, '_', 00H, 'S', 00H, 'E'
	DB	00H, 'N', 00H, 'T', 00H, 'I', 00H, 'N', 00H, 'E', 00H, 'L', 00H
	DB	'"', 00H, ' ', 00H, '&', 00H, '&', 00H, ' ', 00H, '0', 00H, 00H
	DB	00H						; `string'
CONST	ENDS
;	COMDAT ??_C@_0EI@NOJHEJCJ@reinterpret_cast?$DMuintptr_t?5?$CK?$DO?$CI_P@
CONST	SEGMENT
??_C@_0EI@NOJHEJCJ@reinterpret_cast?$DMuintptr_t?5?$CK?$DO?$CI_P@ DB 'rei'
	DB	'nterpret_cast<uintptr_t *>(_Ptr_ptr)[-1] == _BIG_ALLOCATION_S'
	DB	'ENTINEL', 00H				; `string'
CONST	ENDS
;	COMDAT ??_C@_1HE@CDMBFOKC@?$AA?$CC?$AA?$CI?$AA_?$AAP?$AAt?$AAr?$AA_?$AAu?$AAs?$AAe?$AAr?$AA?5?$AA?$CG?$AA?5?$AA?$CI?$AA_?$AAB?$AAI?$AAG?$AA_?$AAA?$AAL?$AAL?$AAO?$AAC?$AAA?$AAT?$AAI?$AAO?$AAN?$AA_?$AAA@
CONST	SEGMENT
??_C@_1HE@CDMBFOKC@?$AA?$CC?$AA?$CI?$AA_?$AAP?$AAt?$AAr?$AA_?$AAu?$AAs?$AAe?$AAr?$AA?5?$AA?$CG?$AA?5?$AA?$CI?$AA_?$AAB?$AAI?$AAG?$AA_?$AAA?$AAL?$AAL?$AAO?$AAC?$AAA?$AAT?$AAI?$AAO?$AAN?$AA_?$AAA@ DB '"'
	DB	00H, '(', 00H, '_', 00H, 'P', 00H, 't', 00H, 'r', 00H, '_', 00H
	DB	'u', 00H, 's', 00H, 'e', 00H, 'r', 00H, ' ', 00H, '&', 00H, ' '
	DB	00H, '(', 00H, '_', 00H, 'B', 00H, 'I', 00H, 'G', 00H, '_', 00H
	DB	'A', 00H, 'L', 00H, 'L', 00H, 'O', 00H, 'C', 00H, 'A', 00H, 'T'
	DB	00H, 'I', 00H, 'O', 00H, 'N', 00H, '_', 00H, 'A', 00H, 'L', 00H
	DB	'I', 00H, 'G', 00H, 'N', 00H, 'M', 00H, 'E', 00H, 'N', 00H, 'T'
	DB	00H, ' ', 00H, '-', 00H, ' ', 00H, '1', 00H, ')', 00H, ')', 00H
	DB	' ', 00H, '=', 00H, '=', 00H, ' ', 00H, '0', 00H, '"', 00H, ' '
	DB	00H, '&', 00H, '&', 00H, ' ', 00H, '0', 00H, 00H, 00H ; `string'
CONST	ENDS
;	COMDAT ??_C@_0DD@GBGGGKGG@?$CI_Ptr_user?5?$CG?5?$CI_BIG_ALLOCATION_AL@
CONST	SEGMENT
??_C@_0DD@GBGGGKGG@?$CI_Ptr_user?5?$CG?5?$CI_BIG_ALLOCATION_AL@ DB '(_Ptr'
	DB	'_user & (_BIG_ALLOCATION_ALIGNMENT - 1)) == 0', 00H ; `string'
CONST	ENDS
;	COMDAT ??_C@_1CC@LOFJFFDB@?$AAs?$AAt?$AAd?$AA?3?$AA?3?$AA_?$AAD?$AAe?$AAa?$AAl?$AAl?$AAo?$AAc?$AAa?$AAt?$AAe?$AA?$AA@
CONST	SEGMENT
??_C@_1CC@LOFJFFDB@?$AAs?$AAt?$AAd?$AA?3?$AA?3?$AA_?$AAD?$AAe?$AAa?$AAl?$AAl?$AAo?$AAc?$AAa?$AAt?$AAe?$AA?$AA@ DB 's'
	DB	00H, 't', 00H, 'd', 00H, ':', 00H, ':', 00H, '_', 00H, 'D', 00H
	DB	'e', 00H, 'a', 00H, 'l', 00H, 'l', 00H, 'o', 00H, 'c', 00H, 'a'
	DB	00H, 't', 00H, 'e', 00H, 00H, 00H		; `string'
CONST	ENDS
;	COMDAT ??_C@_1GI@MOGLCDAO@?$AAD?$AA?3?$AA?2?$AAM?$AAi?$AAc?$AAr?$AAo?$AAs?$AAo?$AAf?$AAt?$AA?5?$AAV?$AAi?$AAs?$AAu?$AAa?$AAl?$AA?5?$AAS?$AAt?$AAu?$AAd?$AAi?$AAo?$AA?5?$AA1?$AA4?$AA?4?$AA0?$AA?2@
CONST	SEGMENT
??_C@_1GI@MOGLCDAO@?$AAD?$AA?3?$AA?2?$AAM?$AAi?$AAc?$AAr?$AAo?$AAs?$AAo?$AAf?$AAt?$AA?5?$AAV?$AAi?$AAs?$AAu?$AAa?$AAl?$AA?5?$AAS?$AAt?$AAu?$AAd?$AAi?$AAo?$AA?5?$AA1?$AA4?$AA?4?$AA0?$AA?2@ DB 'D'
	DB	00H, ':', 00H, '\', 00H, 'M', 00H, 'i', 00H, 'c', 00H, 'r', 00H
	DB	'o', 00H, 's', 00H, 'o', 00H, 'f', 00H, 't', 00H, ' ', 00H, 'V'
	DB	00H, 'i', 00H, 's', 00H, 'u', 00H, 'a', 00H, 'l', 00H, ' ', 00H
	DB	'S', 00H, 't', 00H, 'u', 00H, 'd', 00H, 'i', 00H, 'o', 00H, ' '
	DB	00H, '1', 00H, '4', 00H, '.', 00H, '0', 00H, '\', 00H, 'V', 00H
	DB	'C', 00H, '\', 00H, 'i', 00H, 'n', 00H, 'c', 00H, 'l', 00H, 'u'
	DB	00H, 'd', 00H, 'e', 00H, '\', 00H, 'x', 00H, 'm', 00H, 'e', 00H
	DB	'm', 00H, 'o', 00H, 'r', 00H, 'y', 00H, '0', 00H, 00H, 00H ; `string'
CONST	ENDS
;	COMDAT ??_C@_1FK@EJGLHMGC@?$AA?$CC?$AA_?$AAC?$AAo?$AAu?$AAn?$AAt?$AA?5?$AA?$DM?$AA?$DN?$AA?5?$AA?$CI?$AAs?$AAi?$AAz?$AAe?$AA_?$AAt?$AA?$CJ?$AA?$CI?$AA?9?$AA1?$AA?$CJ?$AA?5?$AA?1?$AA?5?$AAs?$AAi?$AAz?$AAe?$AAo?$AAf@
CONST	SEGMENT
??_C@_1FK@EJGLHMGC@?$AA?$CC?$AA_?$AAC?$AAo?$AAu?$AAn?$AAt?$AA?5?$AA?$DM?$AA?$DN?$AA?5?$AA?$CI?$AAs?$AAi?$AAz?$AAe?$AA_?$AAt?$AA?$CJ?$AA?$CI?$AA?9?$AA1?$AA?$CJ?$AA?5?$AA?1?$AA?5?$AAs?$AAi?$AAz?$AAe?$AAo?$AAf@ DB '"'
	DB	00H, '_', 00H, 'C', 00H, 'o', 00H, 'u', 00H, 'n', 00H, 't', 00H
	DB	' ', 00H, '<', 00H, '=', 00H, ' ', 00H, '(', 00H, 's', 00H, 'i'
	DB	00H, 'z', 00H, 'e', 00H, '_', 00H, 't', 00H, ')', 00H, '(', 00H
	DB	'-', 00H, '1', 00H, ')', 00H, ' ', 00H, '/', 00H, ' ', 00H, 's'
	DB	00H, 'i', 00H, 'z', 00H, 'e', 00H, 'o', 00H, 'f', 00H, ' ', 00H
	DB	'(', 00H, '_', 00H, 'T', 00H, 'y', 00H, ')', 00H, '"', 00H, ' '
	DB	00H, '&', 00H, '&', 00H, ' ', 00H, '0', 00H, 00H, 00H ; `string'
CONST	ENDS
;	COMDAT ??_C@_0CG@FHBDFCGK@_Count?5?$DM?$DN?5?$CIsize_t?$CJ?$CI?91?$CJ?5?1?5sizeof?5@
CONST	SEGMENT
??_C@_0CG@FHBDFCGK@_Count?5?$DM?$DN?5?$CIsize_t?$CJ?$CI?91?$CJ?5?1?5sizeof?5@ DB '_'
	DB	'Count <= (size_t)(-1) / sizeof (_Ty)', 00H	; `string'
CONST	ENDS
;	COMDAT ??_C@_1CK@EOPGIILJ@?$AAi?$AAn?$AAv?$AAa?$AAl?$AAi?$AAd?$AA?5?$AAn?$AAu?$AAl?$AAl?$AA?5?$AAp?$AAo?$AAi?$AAn?$AAt?$AAe?$AAr?$AA?$AA@
CONST	SEGMENT
??_C@_1CK@EOPGIILJ@?$AAi?$AAn?$AAv?$AAa?$AAl?$AAi?$AAd?$AA?5?$AAn?$AAu?$AAl?$AAl?$AA?5?$AAp?$AAo?$AAi?$AAn?$AAt?$AAe?$AAr?$AA?$AA@ DB 'i'
	DB	00H, 'n', 00H, 'v', 00H, 'a', 00H, 'l', 00H, 'i', 00H, 'd', 00H
	DB	' ', 00H, 'n', 00H, 'u', 00H, 'l', 00H, 'l', 00H, ' ', 00H, 'p'
	DB	00H, 'o', 00H, 'i', 00H, 'n', 00H, 't', 00H, 'e', 00H, 'r', 00H
	DB	00H, 00H					; `string'
CONST	ENDS
;	COMDAT ??_C@_0BA@JFNIOLAK@string?5too?5long?$AA@
CONST	SEGMENT
??_C@_0BA@JFNIOLAK@string?5too?5long?$AA@ DB 'string too long', 00H ; `string'
CONST	ENDS
;	COMDAT ??_C@_0BI@CFPLBAOH@invalid?5string?5position?$AA@
CONST	SEGMENT
??_C@_0BI@CFPLBAOH@invalid?5string?5position?$AA@ DB 'invalid string posi'
	DB	'tion', 00H					; `string'
CONST	ENDS
;	COMDAT ??_C@_0BD@OLBABOEK@vector?$DMT?$DO?5too?5long?$AA@
CONST	SEGMENT
??_C@_0BD@OLBABOEK@vector?$DMT?$DO?5too?5long?$AA@ DB 'vector<T> too long'
	DB	00H						; `string'
CONST	ENDS
;	COMDAT ??_C@_1BAA@MOJEOHPG@?$AAs?$AAt?$AAd?$AA?3?$AA?3?$AA_?$AAL?$AAi?$AAs?$AAt?$AA_?$AAc?$AAo?$AAn?$AAs?$AAt?$AA_?$AAi?$AAt?$AAe?$AAr?$AAa?$AAt?$AAo?$AAr?$AA?$DM?$AAc?$AAl?$AAa?$AAs?$AAs?$AA?5@
CONST	SEGMENT
??_C@_1BAA@MOJEOHPG@?$AAs?$AAt?$AAd?$AA?3?$AA?3?$AA_?$AAL?$AAi?$AAs?$AAt?$AA_?$AAc?$AAo?$AAn?$AAs?$AAt?$AA_?$AAi?$AAt?$AAe?$AAr?$AAa?$AAt?$AAo?$AAr?$AA?$DM?$AAc?$AAl?$AAa?$AAs?$AAs?$AA?5@ DB 's'
	DB	00H, 't', 00H, 'd', 00H, ':', 00H, ':', 00H, '_', 00H, 'L', 00H
	DB	'i', 00H, 's', 00H, 't', 00H, '_', 00H, 'c', 00H, 'o', 00H, 'n'
	DB	00H, 's', 00H, 't', 00H, '_', 00H, 'i', 00H, 't', 00H, 'e', 00H
	DB	'r', 00H, 'a', 00H, 't', 00H, 'o', 00H, 'r', 00H, '<', 00H, 'c'
	DB	00H, 'l', 00H, 'a', 00H, 's', 00H, 's', 00H, ' ', 00H, 's', 00H
	DB	't', 00H, 'd', 00H, ':', 00H, ':', 00H, '_', 00H, 'L', 00H, 'i'
	DB	00H, 's', 00H, 't', 00H, '_', 00H, 'v', 00H, 'a', 00H, 'l', 00H
	DB	'<', 00H, 's', 00H, 't', 00H, 'r', 00H, 'u', 00H, 'c', 00H, 't'
	DB	00H, ' ', 00H, 's', 00H, 't', 00H, 'd', 00H, ':', 00H, ':', 00H
	DB	'_', 00H, 'L', 00H, 'i', 00H, 's', 00H, 't', 00H, '_', 00H, 's'
	DB	00H, 'i', 00H, 'm', 00H, 'p', 00H, 'l', 00H, 'e', 00H, '_', 00H
	DB	't', 00H, 'y', 00H, 'p', 00H, 'e', 00H, 's', 00H, '<', 00H, 's'
	DB	00H, 't', 00H, 'r', 00H, 'u', 00H, 'c', 00H, 't', 00H, ' ', 00H
	DB	'G', 00H, 'r', 00H, 'a', 00H, 'v', 00H, 'e', 00H, 'M', 00H, 'a'
	DB	00H, 'r', 00H, 'k', 00H, 'e', 00H, 'r', 00H, 's', 00H, ':', 00H
	DB	':', 00H, 'G', 00H, 'r', 00H, 'a', 00H, 'v', 00H, 'e', 00H, 'R'
	DB	00H, 'e', 00H, 'c', 00H, 'o', 00H, 'r', 00H, 'd', 00H, '>', 00H
	DB	' ', 00H, '>', 00H, ' ', 00H, '>', 00H, ':', 00H, ':', 00H, 'o'
	DB	00H, 'p', 00H, 'e', 00H, 'r', 00H, 'a', 00H, 't', 00H, 'o', 00H
	DB	'r', 00H, ' ', 00H, '*', 00H, 00H, 00H	; `string'
CONST	ENDS
;	COMDAT ??_C@_1EC@HILJLMMC@?$AAl?$AAi?$AAs?$AAt?$AA?5?$AAi?$AAt?$AAe?$AAr?$AAa?$AAt?$AAo?$AAr?$AA?5?$AAn?$AAo?$AAt?$AA?5?$AAd?$AAe?$AAr?$AAe?$AAf?$AAe?$AAr?$AAe?$AAn?$AAc?$AAa?$AAb?$AAl?$AAe@
CONST	SEGMENT
??_C@_1EC@HILJLMMC@?$AAl?$AAi?$AAs?$AAt?$AA?5?$AAi?$AAt?$AAe?$AAr?$AAa?$AAt?$AAo?$AAr?$AA?5?$AAn?$AAo?$AAt?$AA?5?$AAd?$AAe?$AAr?$AAe?$AAf?$AAe?$AAr?$AAe?$AAn?$AAc?$AAa?$AAb?$AAl?$AAe@ DB 'l'
	DB	00H, 'i', 00H, 's', 00H, 't', 00H, ' ', 00H, 'i', 00H, 't', 00H
	DB	'e', 00H, 'r', 00H, 'a', 00H, 't', 00H, 'o', 00H, 'r', 00H, ' '
	DB	00H, 'n', 00H, 'o', 00H, 't', 00H, ' ', 00H, 'd', 00H, 'e', 00H
	DB	'r', 00H, 'e', 00H, 'f', 00H, 'e', 00H, 'r', 00H, 'e', 00H, 'n'
	DB	00H, 'c', 00H, 'a', 00H, 'b', 00H, 'l', 00H, 'e', 00H, 00H, 00H ; `string'
CONST	ENDS
;	COMDAT ??_C@_1EE@BBMFLDOC@?$AAl?$AAi?$AAs?$AAt?$AA?5?$AAe?$AAr?$AAa?$AAs?$AAe?$AA?5?$AAi?$AAt?$AAe?$AAr?$AAa?$AAt?$AAo?$AAr?$AA?5?$AAo?$AAu?$AAt?$AAs?$AAi?$AAd?$AAe?$AA?5?$AAr?$AAa?$AAn?$AAg@
CONST	SEGMENT
??_C@_1EE@BBMFLDOC@?$AAl?$AAi?$AAs?$AAt?$AA?5?$AAe?$AAr?$AAa?$AAs?$AAe?$AA?5?$AAi?$AAt?$AAe?$AAr?$AAa?$AAt?$AAo?$AAr?$AA?5?$AAo?$AAu?$AAt?$AAs?$AAi?$AAd?$AAe?$AA?5?$AAr?$AAa?$AAn?$AAg@ DB 'l'
	DB	00H, 'i', 00H, 's', 00H, 't', 00H, ' ', 00H, 'e', 00H, 'r', 00H
	DB	'a', 00H, 's', 00H, 'e', 00H, ' ', 00H, 'i', 00H, 't', 00H, 'e'
	DB	00H, 'r', 00H, 'a', 00H, 't', 00H, 'o', 00H, 'r', 00H, ' ', 00H
	DB	'o', 00H, 'u', 00H, 't', 00H, 's', 00H, 'i', 00H, 'd', 00H, 'e'
	DB	00H, ' ', 00H, 'r', 00H, 'a', 00H, 'n', 00H, 'g', 00H, 'e', 00H
	DB	00H, 00H					; `string'
CONST	ENDS
;	COMDAT ??_C@_1BAC@MAOHAEOO@?$AAs?$AAt?$AAd?$AA?3?$AA?3?$AA_?$AAL?$AAi?$AAs?$AAt?$AA_?$AAc?$AAo?$AAn?$AAs?$AAt?$AA_?$AAi?$AAt?$AAe?$AAr?$AAa?$AAt?$AAo?$AAr?$AA?$DM?$AAc?$AAl?$AAa?$AAs?$AAs?$AA?5@
CONST	SEGMENT
??_C@_1BAC@MAOHAEOO@?$AAs?$AAt?$AAd?$AA?3?$AA?3?$AA_?$AAL?$AAi?$AAs?$AAt?$AA_?$AAc?$AAo?$AAn?$AAs?$AAt?$AA_?$AAi?$AAt?$AAe?$AAr?$AAa?$AAt?$AAo?$AAr?$AA?$DM?$AAc?$AAl?$AAa?$AAs?$AAs?$AA?5@ DB 's'
	DB	00H, 't', 00H, 'd', 00H, ':', 00H, ':', 00H, '_', 00H, 'L', 00H
	DB	'i', 00H, 's', 00H, 't', 00H, '_', 00H, 'c', 00H, 'o', 00H, 'n'
	DB	00H, 's', 00H, 't', 00H, '_', 00H, 'i', 00H, 't', 00H, 'e', 00H
	DB	'r', 00H, 'a', 00H, 't', 00H, 'o', 00H, 'r', 00H, '<', 00H, 'c'
	DB	00H, 'l', 00H, 'a', 00H, 's', 00H, 's', 00H, ' ', 00H, 's', 00H
	DB	't', 00H, 'd', 00H, ':', 00H, ':', 00H, '_', 00H, 'L', 00H, 'i'
	DB	00H, 's', 00H, 't', 00H, '_', 00H, 'v', 00H, 'a', 00H, 'l', 00H
	DB	'<', 00H, 's', 00H, 't', 00H, 'r', 00H, 'u', 00H, 'c', 00H, 't'
	DB	00H, ' ', 00H, 's', 00H, 't', 00H, 'd', 00H, ':', 00H, ':', 00H
	DB	'_', 00H, 'L', 00H, 'i', 00H, 's', 00H, 't', 00H, '_', 00H, 's'
	DB	00H, 'i', 00H, 'm', 00H, 'p', 00H, 'l', 00H, 'e', 00H, '_', 00H
	DB	't', 00H, 'y', 00H, 'p', 00H, 'e', 00H, 's', 00H, '<', 00H, 's'
	DB	00H, 't', 00H, 'r', 00H, 'u', 00H, 'c', 00H, 't', 00H, ' ', 00H
	DB	'G', 00H, 'r', 00H, 'a', 00H, 'v', 00H, 'e', 00H, 'M', 00H, 'a'
	DB	00H, 'r', 00H, 'k', 00H, 'e', 00H, 'r', 00H, 's', 00H, ':', 00H
	DB	':', 00H, 'G', 00H, 'r', 00H, 'a', 00H, 'v', 00H, 'e', 00H, 'R'
	DB	00H, 'e', 00H, 'c', 00H, 'o', 00H, 'r', 00H, 'd', 00H, '>', 00H
	DB	' ', 00H, '>', 00H, ' ', 00H, '>', 00H, ':', 00H, ':', 00H, 'o'
	DB	00H, 'p', 00H, 'e', 00H, 'r', 00H, 'a', 00H, 't', 00H, 'o', 00H
	DB	'r', 00H, ' ', 00H, '+', 00H, '+', 00H, 00H, 00H ; `string'
CONST	ENDS
;	COMDAT ??_C@_1EA@DOGAGKDH@?$AAl?$AAi?$AAs?$AAt?$AA?5?$AAi?$AAt?$AAe?$AAr?$AAa?$AAt?$AAo?$AAr?$AA?5?$AAn?$AAo?$AAt?$AA?5?$AAi?$AAn?$AAc?$AAr?$AAe?$AAm?$AAe?$AAn?$AAt?$AAa?$AAb?$AAl?$AAe?$AA?$AA@
CONST	SEGMENT
??_C@_1EA@DOGAGKDH@?$AAl?$AAi?$AAs?$AAt?$AA?5?$AAi?$AAt?$AAe?$AAr?$AAa?$AAt?$AAo?$AAr?$AA?5?$AAn?$AAo?$AAt?$AA?5?$AAi?$AAn?$AAc?$AAr?$AAe?$AAm?$AAe?$AAn?$AAt?$AAa?$AAb?$AAl?$AAe?$AA?$AA@ DB 'l'
	DB	00H, 'i', 00H, 's', 00H, 't', 00H, ' ', 00H, 'i', 00H, 't', 00H
	DB	'e', 00H, 'r', 00H, 'a', 00H, 't', 00H, 'o', 00H, 'r', 00H, ' '
	DB	00H, 'n', 00H, 'o', 00H, 't', 00H, ' ', 00H, 'i', 00H, 'n', 00H
	DB	'c', 00H, 'r', 00H, 'e', 00H, 'm', 00H, 'e', 00H, 'n', 00H, 't'
	DB	00H, 'a', 00H, 'b', 00H, 'l', 00H, 'e', 00H, 00H, 00H ; `string'
CONST	ENDS
;	COMDAT ??_C@_1CG@JNLFBNGN@?$AA?$CC?$AAi?$AAn?$AAv?$AAa?$AAl?$AAi?$AAd?$AA?5?$AAa?$AAr?$AAg?$AAu?$AAm?$AAe?$AAn?$AAt?$AA?$CC?$AA?$AA@
CONST	SEGMENT
??_C@_1CG@JNLFBNGN@?$AA?$CC?$AAi?$AAn?$AAv?$AAa?$AAl?$AAi?$AAd?$AA?5?$AAa?$AAr?$AAg?$AAu?$AAm?$AAe?$AAn?$AAt?$AA?$CC?$AA?$AA@ DB '"'
	DB	00H, 'i', 00H, 'n', 00H, 'v', 00H, 'a', 00H, 'l', 00H, 'i', 00H
	DB	'd', 00H, ' ', 00H, 'a', 00H, 'r', 00H, 'g', 00H, 'u', 00H, 'm'
	DB	00H, 'e', 00H, 'n', 00H, 't', 00H, '"', 00H, 00H, 00H ; `string'
CONST	ENDS
;	COMDAT ??_C@_1BAC@GABKONCL@?$AAs?$AAt?$AAd?$AA?3?$AA?3?$AA_?$AAL?$AAi?$AAs?$AAt?$AA_?$AAc?$AAo?$AAn?$AAs?$AAt?$AA_?$AAi?$AAt?$AAe?$AAr?$AAa?$AAt?$AAo?$AAr?$AA?$DM?$AAc?$AAl?$AAa?$AAs?$AAs?$AA?5@
CONST	SEGMENT
??_C@_1BAC@GABKONCL@?$AAs?$AAt?$AAd?$AA?3?$AA?3?$AA_?$AAL?$AAi?$AAs?$AAt?$AA_?$AAc?$AAo?$AAn?$AAs?$AAt?$AA_?$AAi?$AAt?$AAe?$AAr?$AAa?$AAt?$AAo?$AAr?$AA?$DM?$AAc?$AAl?$AAa?$AAs?$AAs?$AA?5@ DB 's'
	DB	00H, 't', 00H, 'd', 00H, ':', 00H, ':', 00H, '_', 00H, 'L', 00H
	DB	'i', 00H, 's', 00H, 't', 00H, '_', 00H, 'c', 00H, 'o', 00H, 'n'
	DB	00H, 's', 00H, 't', 00H, '_', 00H, 'i', 00H, 't', 00H, 'e', 00H
	DB	'r', 00H, 'a', 00H, 't', 00H, 'o', 00H, 'r', 00H, '<', 00H, 'c'
	DB	00H, 'l', 00H, 'a', 00H, 's', 00H, 's', 00H, ' ', 00H, 's', 00H
	DB	't', 00H, 'd', 00H, ':', 00H, ':', 00H, '_', 00H, 'L', 00H, 'i'
	DB	00H, 's', 00H, 't', 00H, '_', 00H, 'v', 00H, 'a', 00H, 'l', 00H
	DB	'<', 00H, 's', 00H, 't', 00H, 'r', 00H, 'u', 00H, 'c', 00H, 't'
	DB	00H, ' ', 00H, 's', 00H, 't', 00H, 'd', 00H, ':', 00H, ':', 00H
	DB	'_', 00H, 'L', 00H, 'i', 00H, 's', 00H, 't', 00H, '_', 00H, 's'
	DB	00H, 'i', 00H, 'm', 00H, 'p', 00H, 'l', 00H, 'e', 00H, '_', 00H
	DB	't', 00H, 'y', 00H, 'p', 00H, 'e', 00H, 's', 00H, '<', 00H, 's'
	DB	00H, 't', 00H, 'r', 00H, 'u', 00H, 'c', 00H, 't', 00H, ' ', 00H
	DB	'G', 00H, 'r', 00H, 'a', 00H, 'v', 00H, 'e', 00H, 'M', 00H, 'a'
	DB	00H, 'r', 00H, 'k', 00H, 'e', 00H, 'r', 00H, 's', 00H, ':', 00H
	DB	':', 00H, 'G', 00H, 'r', 00H, 'a', 00H, 'v', 00H, 'e', 00H, 'R'
	DB	00H, 'e', 00H, 'c', 00H, 'o', 00H, 'r', 00H, 'd', 00H, '>', 00H
	DB	' ', 00H, '>', 00H, ' ', 00H, '>', 00H, ':', 00H, ':', 00H, 'o'
	DB	00H, 'p', 00H, 'e', 00H, 'r', 00H, 'a', 00H, 't', 00H, 'o', 00H
	DB	'r', 00H, ' ', 00H, '=', 00H, '=', 00H, 00H, 00H ; `string'
CONST	ENDS
;	COMDAT ??_C@_1FO@GJIHNDLM@?$AA?$CC?$AAS?$AAt?$AAa?$AAn?$AAd?$AAa?$AAr?$AAd?$AA?5?$AAC?$AA?$CL?$AA?$CL?$AA?5?$AAL?$AAi?$AAb?$AAr?$AAa?$AAr?$AAi?$AAe?$AAs?$AA?5?$AAI?$AAn?$AAv?$AAa?$AAl?$AAi?$AAd?$AA?5@
CONST	SEGMENT
??_C@_1FO@GJIHNDLM@?$AA?$CC?$AAS?$AAt?$AAa?$AAn?$AAd?$AAa?$AAr?$AAd?$AA?5?$AAC?$AA?$CL?$AA?$CL?$AA?5?$AAL?$AAi?$AAb?$AAr?$AAa?$AAr?$AAi?$AAe?$AAs?$AA?5?$AAI?$AAn?$AAv?$AAa?$AAl?$AAi?$AAd?$AA?5@ DB '"'
	DB	00H, 'S', 00H, 't', 00H, 'a', 00H, 'n', 00H, 'd', 00H, 'a', 00H
	DB	'r', 00H, 'd', 00H, ' ', 00H, 'C', 00H, '+', 00H, '+', 00H, ' '
	DB	00H, 'L', 00H, 'i', 00H, 'b', 00H, 'r', 00H, 'a', 00H, 'r', 00H
	DB	'i', 00H, 'e', 00H, 's', 00H, ' ', 00H, 'I', 00H, 'n', 00H, 'v'
	DB	00H, 'a', 00H, 'l', 00H, 'i', 00H, 'd', 00H, ' ', 00H, 'A', 00H
	DB	'r', 00H, 'g', 00H, 'u', 00H, 'm', 00H, 'e', 00H, 'n', 00H, 't'
	DB	00H, '"', 00H, ' ', 00H, '&', 00H, '&', 00H, ' ', 00H, '0', 00H
	DB	00H, 00H					; `string'
CONST	ENDS
;	COMDAT ??_C@_0CI@FNPHFCCM@Standard?5C?$CL?$CL?5Libraries?5Invalid?5A@
CONST	SEGMENT
??_C@_0CI@FNPHFCCM@Standard?5C?$CL?$CL?5Libraries?5Invalid?5A@ DB 'Standa'
	DB	'rd C++ Libraries Invalid Argument', 00H	; `string'
CONST	ENDS
;	COMDAT ??_C@_1DI@MDELDGPI@?$AAl?$AAi?$AAs?$AAt?$AA?5?$AAi?$AAt?$AAe?$AAr?$AAa?$AAt?$AAo?$AAr?$AAs?$AA?5?$AAi?$AAn?$AAc?$AAo?$AAm?$AAp?$AAa?$AAt?$AAi?$AAb?$AAl?$AAe?$AA?$AA@
CONST	SEGMENT
??_C@_1DI@MDELDGPI@?$AAl?$AAi?$AAs?$AAt?$AA?5?$AAi?$AAt?$AAe?$AAr?$AAa?$AAt?$AAo?$AAr?$AAs?$AA?5?$AAi?$AAn?$AAc?$AAo?$AAm?$AAp?$AAa?$AAt?$AAi?$AAb?$AAl?$AAe?$AA?$AA@ DB 'l'
	DB	00H, 'i', 00H, 's', 00H, 't', 00H, ' ', 00H, 'i', 00H, 't', 00H
	DB	'e', 00H, 'r', 00H, 'a', 00H, 't', 00H, 'o', 00H, 'r', 00H, 's'
	DB	00H, ' ', 00H, 'i', 00H, 'n', 00H, 'c', 00H, 'o', 00H, 'm', 00H
	DB	'p', 00H, 'a', 00H, 't', 00H, 'i', 00H, 'b', 00H, 'l', 00H, 'e'
	DB	00H, 00H, 00H				; `string'
CONST	ENDS
;	COMDAT ??_C@_1GA@IINJPBGE@?$AAD?$AA?3?$AA?2?$AAM?$AAi?$AAc?$AAr?$AAo?$AAs?$AAo?$AAf?$AAt?$AA?5?$AAV?$AAi?$AAs?$AAu?$AAa?$AAl?$AA?5?$AAS?$AAt?$AAu?$AAd?$AAi?$AAo?$AA?5?$AA1?$AA4?$AA?4?$AA0?$AA?2@
CONST	SEGMENT
??_C@_1GA@IINJPBGE@?$AAD?$AA?3?$AA?2?$AAM?$AAi?$AAc?$AAr?$AAo?$AAs?$AAo?$AAf?$AAt?$AA?5?$AAV?$AAi?$AAs?$AAu?$AAa?$AAl?$AA?5?$AAS?$AAt?$AAu?$AAd?$AAi?$AAo?$AA?5?$AA1?$AA4?$AA?4?$AA0?$AA?2@ DB 'D'
	DB	00H, ':', 00H, '\', 00H, 'M', 00H, 'i', 00H, 'c', 00H, 'r', 00H
	DB	'o', 00H, 's', 00H, 'o', 00H, 'f', 00H, 't', 00H, ' ', 00H, 'V'
	DB	00H, 'i', 00H, 's', 00H, 'u', 00H, 'a', 00H, 'l', 00H, ' ', 00H
	DB	'S', 00H, 't', 00H, 'u', 00H, 'd', 00H, 'i', 00H, 'o', 00H, ' '
	DB	00H, '1', 00H, '4', 00H, '.', 00H, '0', 00H, '\', 00H, 'V', 00H
	DB	'C', 00H, '\', 00H, 'i', 00H, 'n', 00H, 'c', 00H, 'l', 00H, 'u'
	DB	00H, 'd', 00H, 'e', 00H, '\', 00H, 'l', 00H, 'i', 00H, 's', 00H
	DB	't', 00H, 00H, 00H				; `string'
CONST	ENDS
;	COMDAT ??_C@_1GG@PGPFJPKM@?$AAD?$AA?3?$AA?2?$AAM?$AAi?$AAc?$AAr?$AAo?$AAs?$AAo?$AAf?$AAt?$AA?5?$AAV?$AAi?$AAs?$AAu?$AAa?$AAl?$AA?5?$AAS?$AAt?$AAu?$AAd?$AAi?$AAo?$AA?5?$AA1?$AA4?$AA?4?$AA0?$AA?2@
CONST	SEGMENT
??_C@_1GG@PGPFJPKM@?$AAD?$AA?3?$AA?2?$AAM?$AAi?$AAc?$AAr?$AAo?$AAs?$AAo?$AAf?$AAt?$AA?5?$AAV?$AAi?$AAs?$AAu?$AAa?$AAl?$AA?5?$AAS?$AAt?$AAu?$AAd?$AAi?$AAo?$AA?5?$AA1?$AA4?$AA?4?$AA0?$AA?2@ DB 'D'
	DB	00H, ':', 00H, '\', 00H, 'M', 00H, 'i', 00H, 'c', 00H, 'r', 00H
	DB	'o', 00H, 's', 00H, 'o', 00H, 'f', 00H, 't', 00H, ' ', 00H, 'V'
	DB	00H, 'i', 00H, 's', 00H, 'u', 00H, 'a', 00H, 'l', 00H, ' ', 00H
	DB	'S', 00H, 't', 00H, 'u', 00H, 'd', 00H, 'i', 00H, 'o', 00H, ' '
	DB	00H, '1', 00H, '4', 00H, '.', 00H, '0', 00H, '\', 00H, 'V', 00H
	DB	'C', 00H, '\', 00H, 'i', 00H, 'n', 00H, 'c', 00H, 'l', 00H, 'u'
	DB	00H, 'd', 00H, 'e', 00H, '\', 00H, 'x', 00H, 's', 00H, 't', 00H
	DB	'r', 00H, 'i', 00H, 'n', 00H, 'g', 00H, 00H, 00H ; `string'
CONST	ENDS
;	COMDAT ??_C@_1BO@MEPPHOO@?$AA?$CC?$AAo?$AAu?$AAt?$AA?5?$AAo?$AAf?$AA?5?$AAr?$AAa?$AAn?$AAg?$AAe?$AA?$CC?$AA?$AA@
CONST	SEGMENT
??_C@_1BO@MEPPHOO@?$AA?$CC?$AAo?$AAu?$AAt?$AA?5?$AAo?$AAf?$AA?5?$AAr?$AAa?$AAn?$AAg?$AAe?$AA?$CC?$AA?$AA@ DB '"'
	DB	00H, 'o', 00H, 'u', 00H, 't', 00H, ' ', 00H, 'o', 00H, 'f', 00H
	DB	' ', 00H, 'r', 00H, 'a', 00H, 'n', 00H, 'g', 00H, 'e', 00H, '"'
	DB	00H, 00H, 00H				; `string'
CONST	ENDS
;	COMDAT ??_C@_1KC@ILGGEGM@?$AAs?$AAt?$AAd?$AA?3?$AA?3?$AAv?$AAe?$AAc?$AAt?$AAo?$AAr?$AA?$DM?$AAs?$AAt?$AAr?$AAu?$AAc?$AAt?$AA?5?$AAV?$AAe?$AAc?$AAt?$AAo?$AAr?$AA2?$AAD?$AA?0?$AAc?$AAl?$AAa?$AAs@
CONST	SEGMENT
??_C@_1KC@ILGGEGM@?$AAs?$AAt?$AAd?$AA?3?$AA?3?$AAv?$AAe?$AAc?$AAt?$AAo?$AAr?$AA?$DM?$AAs?$AAt?$AAr?$AAu?$AAc?$AAt?$AA?5?$AAV?$AAe?$AAc?$AAt?$AAo?$AAr?$AA2?$AAD?$AA?0?$AAc?$AAl?$AAa?$AAs@ DB 's'
	DB	00H, 't', 00H, 'd', 00H, ':', 00H, ':', 00H, 'v', 00H, 'e', 00H
	DB	'c', 00H, 't', 00H, 'o', 00H, 'r', 00H, '<', 00H, 's', 00H, 't'
	DB	00H, 'r', 00H, 'u', 00H, 'c', 00H, 't', 00H, ' ', 00H, 'V', 00H
	DB	'e', 00H, 'c', 00H, 't', 00H, 'o', 00H, 'r', 00H, '2', 00H, 'D'
	DB	00H, ',', 00H, 'c', 00H, 'l', 00H, 'a', 00H, 's', 00H, 's', 00H
	DB	' ', 00H, 's', 00H, 't', 00H, 'd', 00H, ':', 00H, ':', 00H, 'a'
	DB	00H, 'l', 00H, 'l', 00H, 'o', 00H, 'c', 00H, 'a', 00H, 't', 00H
	DB	'o', 00H, 'r', 00H, '<', 00H, 's', 00H, 't', 00H, 'r', 00H, 'u'
	DB	00H, 'c', 00H, 't', 00H, ' ', 00H, 'V', 00H, 'e', 00H, 'c', 00H
	DB	't', 00H, 'o', 00H, 'r', 00H, '2', 00H, 'D', 00H, '>', 00H, ' '
	DB	00H, '>', 00H, ':', 00H, ':', 00H, 'o', 00H, 'p', 00H, 'e', 00H
	DB	'r', 00H, 'a', 00H, 't', 00H, 'o', 00H, 'r', 00H, ' ', 00H, '['
	DB	00H, ']', 00H, 00H, 00H			; `string'
CONST	ENDS
;	COMDAT ??_C@_17CNPHIMPH@?$AA?$CF?$AAl?$AAs?$AA?$AA@
CONST	SEGMENT
??_C@_17CNPHIMPH@?$AA?$CF?$AAl?$AAs?$AA?$AA@ DB '%', 00H, 'l', 00H, 's', 00H
	DB	00H, 00H					; `string'
CONST	ENDS
;	COMDAT ??_C@_1FG@IBPIFFN@?$AA?$CC?$AAS?$AAt?$AAa?$AAn?$AAd?$AAa?$AAr?$AAd?$AA?5?$AAC?$AA?$CL?$AA?$CL?$AA?5?$AAL?$AAi?$AAb?$AAr?$AAa?$AAr?$AAi?$AAe?$AAs?$AA?5?$AAO?$AAu?$AAt?$AA?5?$AAo?$AAf?$AA?5?$AAR@
CONST	SEGMENT
??_C@_1FG@IBPIFFN@?$AA?$CC?$AAS?$AAt?$AAa?$AAn?$AAd?$AAa?$AAr?$AAd?$AA?5?$AAC?$AA?$CL?$AA?$CL?$AA?5?$AAL?$AAi?$AAb?$AAr?$AAa?$AAr?$AAi?$AAe?$AAs?$AA?5?$AAO?$AAu?$AAt?$AA?5?$AAo?$AAf?$AA?5?$AAR@ DB '"'
	DB	00H, 'S', 00H, 't', 00H, 'a', 00H, 'n', 00H, 'd', 00H, 'a', 00H
	DB	'r', 00H, 'd', 00H, ' ', 00H, 'C', 00H, '+', 00H, '+', 00H, ' '
	DB	00H, 'L', 00H, 'i', 00H, 'b', 00H, 'r', 00H, 'a', 00H, 'r', 00H
	DB	'i', 00H, 'e', 00H, 's', 00H, ' ', 00H, 'O', 00H, 'u', 00H, 't'
	DB	00H, ' ', 00H, 'o', 00H, 'f', 00H, ' ', 00H, 'R', 00H, 'a', 00H
	DB	'n', 00H, 'g', 00H, 'e', 00H, '"', 00H, ' ', 00H, '&', 00H, '&'
	DB	00H, ' ', 00H, '0', 00H, 00H, 00H		; `string'
CONST	ENDS
;	COMDAT ??_C@_0CE@OFMIGAMM@Standard?5C?$CL?$CL?5Libraries?5Out?5of?5Ra@
CONST	SEGMENT
??_C@_0CE@OFMIGAMM@Standard?5C?$CL?$CL?5Libraries?5Out?5of?5Ra@ DB 'Stand'
	DB	'ard C++ Libraries Out of Range', 00H	; `string'
CONST	ENDS
;	COMDAT ??_C@_1DM@LHGCHCBA@?$AAv?$AAe?$AAc?$AAt?$AAo?$AAr?$AA?5?$AAs?$AAu?$AAb?$AAs?$AAc?$AAr?$AAi?$AAp?$AAt?$AA?5?$AAo?$AAu?$AAt?$AA?5?$AAo?$AAf?$AA?5?$AAr?$AAa?$AAn?$AAg?$AAe?$AA?$AA@
CONST	SEGMENT
??_C@_1DM@LHGCHCBA@?$AAv?$AAe?$AAc?$AAt?$AAo?$AAr?$AA?5?$AAs?$AAu?$AAb?$AAs?$AAc?$AAr?$AAi?$AAp?$AAt?$AA?5?$AAo?$AAu?$AAt?$AA?5?$AAo?$AAf?$AA?5?$AAr?$AAa?$AAn?$AAg?$AAe?$AA?$AA@ DB 'v'
	DB	00H, 'e', 00H, 'c', 00H, 't', 00H, 'o', 00H, 'r', 00H, ' ', 00H
	DB	's', 00H, 'u', 00H, 'b', 00H, 's', 00H, 'c', 00H, 'r', 00H, 'i'
	DB	00H, 'p', 00H, 't', 00H, ' ', 00H, 'o', 00H, 'u', 00H, 't', 00H
	DB	' ', 00H, 'o', 00H, 'f', 00H, ' ', 00H, 'r', 00H, 'a', 00H, 'n'
	DB	00H, 'g', 00H, 'e', 00H, 00H, 00H		; `string'
CONST	ENDS
;	COMDAT ??_C@_1GE@BNGOPDPB@?$AAD?$AA?3?$AA?2?$AAM?$AAi?$AAc?$AAr?$AAo?$AAs?$AAo?$AAf?$AAt?$AA?5?$AAV?$AAi?$AAs?$AAu?$AAa?$AAl?$AA?5?$AAS?$AAt?$AAu?$AAd?$AAi?$AAo?$AA?5?$AA1?$AA4?$AA?4?$AA0?$AA?2@
CONST	SEGMENT
??_C@_1GE@BNGOPDPB@?$AAD?$AA?3?$AA?2?$AAM?$AAi?$AAc?$AAr?$AAo?$AAs?$AAo?$AAf?$AAt?$AA?5?$AAV?$AAi?$AAs?$AAu?$AAa?$AAl?$AA?5?$AAS?$AAt?$AAu?$AAd?$AAi?$AAo?$AA?5?$AA1?$AA4?$AA?4?$AA0?$AA?2@ DB 'D'
	DB	00H, ':', 00H, '\', 00H, 'M', 00H, 'i', 00H, 'c', 00H, 'r', 00H
	DB	'o', 00H, 's', 00H, 'o', 00H, 'f', 00H, 't', 00H, ' ', 00H, 'V'
	DB	00H, 'i', 00H, 's', 00H, 'u', 00H, 'a', 00H, 'l', 00H, ' ', 00H
	DB	'S', 00H, 't', 00H, 'u', 00H, 'd', 00H, 'i', 00H, 'o', 00H, ' '
	DB	00H, '1', 00H, '4', 00H, '.', 00H, '0', 00H, '\', 00H, 'V', 00H
	DB	'C', 00H, '\', 00H, 'i', 00H, 'n', 00H, 'c', 00H, 'l', 00H, 'u'
	DB	00H, 'd', 00H, 'e', 00H, '\', 00H, 'v', 00H, 'e', 00H, 'c', 00H
	DB	't', 00H, 'o', 00H, 'r', 00H, 00H, 00H	; `string'
CONST	ENDS
;	COMDAT ??_C@_1DC@POOIKBAO@?$AAI?$AAT?$AAE?$AAR?$AAA?$AAT?$AAO?$AAR?$AA?5?$AAL?$AAI?$AAS?$AAT?$AA?5?$AAC?$AAO?$AAR?$AAR?$AAU?$AAP?$AAT?$AAE?$AAD?$AA?$CB?$AA?$AA@
CONST	SEGMENT
??_C@_1DC@POOIKBAO@?$AAI?$AAT?$AAE?$AAR?$AAA?$AAT?$AAO?$AAR?$AA?5?$AAL?$AAI?$AAS?$AAT?$AA?5?$AAC?$AAO?$AAR?$AAR?$AAU?$AAP?$AAT?$AAE?$AAD?$AA?$CB?$AA?$AA@ DB 'I'
	DB	00H, 'T', 00H, 'E', 00H, 'R', 00H, 'A', 00H, 'T', 00H, 'O', 00H
	DB	'R', 00H, ' ', 00H, 'L', 00H, 'I', 00H, 'S', 00H, 'T', 00H, ' '
	DB	00H, 'C', 00H, 'O', 00H, 'R', 00H, 'R', 00H, 'U', 00H, 'P', 00H
	DB	'T', 00H, 'E', 00H, 'D', 00H, '!', 00H, 00H, 00H ; `string'
CONST	ENDS
;	COMDAT ??_C@_1GI@DDIAPGKN@?$AAD?$AA?3?$AA?2?$AAM?$AAi?$AAc?$AAr?$AAo?$AAs?$AAo?$AAf?$AAt?$AA?5?$AAV?$AAi?$AAs?$AAu?$AAa?$AAl?$AA?5?$AAS?$AAt?$AAu?$AAd?$AAi?$AAo?$AA?5?$AA1?$AA4?$AA?4?$AA0?$AA?2@
CONST	SEGMENT
??_C@_1GI@DDIAPGKN@?$AAD?$AA?3?$AA?2?$AAM?$AAi?$AAc?$AAr?$AAo?$AAs?$AAo?$AAf?$AAt?$AA?5?$AAV?$AAi?$AAs?$AAu?$AAa?$AAl?$AA?5?$AAS?$AAt?$AAu?$AAd?$AAi?$AAo?$AA?5?$AA1?$AA4?$AA?4?$AA0?$AA?2@ DB 'D'
	DB	00H, ':', 00H, '\', 00H, 'M', 00H, 'i', 00H, 'c', 00H, 'r', 00H
	DB	'o', 00H, 's', 00H, 'o', 00H, 'f', 00H, 't', 00H, ' ', 00H, 'V'
	DB	00H, 'i', 00H, 's', 00H, 'u', 00H, 'a', 00H, 'l', 00H, ' ', 00H
	DB	'S', 00H, 't', 00H, 'u', 00H, 'd', 00H, 'i', 00H, 'o', 00H, ' '
	DB	00H, '1', 00H, '4', 00H, '.', 00H, '0', 00H, '\', 00H, 'V', 00H
	DB	'C', 00H, '\', 00H, 'i', 00H, 'n', 00H, 'c', 00H, 'l', 00H, 'u'
	DB	00H, 'd', 00H, 'e', 00H, '\', 00H, 'x', 00H, 'u', 00H, 't', 00H
	DB	'i', 00H, 'l', 00H, 'i', 00H, 't', 00H, 'y', 00H, 00H, 00H ; `string'
CONST	ENDS
;	COMDAT xdata$x
xdata$x	SEGMENT
__catchsym$??$_Uninit_move@PAUVector2D@@PAU1@V?$allocator@UVector2D@@@std@@U1@@std@@YAPAUVector2D@@PAU1@00AAU?$_Wrap_alloc@V?$allocator@UVector2D@@@std@@@0@0U_Nonscalar_ptr_iterator_tag@0@@Z$2 DD 040H
	DD	00H
	DD	00H
	DD	FLAT:__catch$??$_Uninit_move@PAUVector2D@@PAU1@V?$allocator@UVector2D@@@std@@U1@@std@@YAPAUVector2D@@PAU1@00AAU?$_Wrap_alloc@V?$allocator@UVector2D@@@std@@@0@0U_Nonscalar_ptr_iterator_tag@0@@Z$0
__unwindtable$??$_Uninit_move@PAUVector2D@@PAU1@V?$allocator@UVector2D@@@std@@U1@@std@@YAPAUVector2D@@PAU1@00AAU?$_Wrap_alloc@V?$allocator@UVector2D@@@std@@@0@0U_Nonscalar_ptr_iterator_tag@0@@Z DD 0ffffffffH
	DD	00H
	DD	0ffffffffH
	DD	00H
__tryblocktable$??$_Uninit_move@PAUVector2D@@PAU1@V?$allocator@UVector2D@@@std@@U1@@std@@YAPAUVector2D@@PAU1@00AAU?$_Wrap_alloc@V?$allocator@UVector2D@@@std@@@0@0U_Nonscalar_ptr_iterator_tag@0@@Z DD 00H
	DD	00H
	DD	01H
	DD	01H
	DD	FLAT:__catchsym$??$_Uninit_move@PAUVector2D@@PAU1@V?$allocator@UVector2D@@@std@@U1@@std@@YAPAUVector2D@@PAU1@00AAU?$_Wrap_alloc@V?$allocator@UVector2D@@@std@@@0@0U_Nonscalar_ptr_iterator_tag@0@@Z$2
__ehfuncinfo$??$_Uninit_move@PAUVector2D@@PAU1@V?$allocator@UVector2D@@@std@@U1@@std@@YAPAUVector2D@@PAU1@00AAU?$_Wrap_alloc@V?$allocator@UVector2D@@@std@@@0@0U_Nonscalar_ptr_iterator_tag@0@@Z DD 019930522H
	DD	02H
	DD	FLAT:__unwindtable$??$_Uninit_move@PAUVector2D@@PAU1@V?$allocator@UVector2D@@@std@@U1@@std@@YAPAUVector2D@@PAU1@00AAU?$_Wrap_alloc@V?$allocator@UVector2D@@@std@@@0@0U_Nonscalar_ptr_iterator_tag@0@@Z
	DD	01H
	DD	FLAT:__tryblocktable$??$_Uninit_move@PAUVector2D@@PAU1@V?$allocator@UVector2D@@@std@@U1@@std@@YAPAUVector2D@@PAU1@00AAU?$_Wrap_alloc@V?$allocator@UVector2D@@@std@@@0@0U_Nonscalar_ptr_iterator_tag@0@@Z
	DD	2 DUP(00H)
	DD	00H
	DD	01H
xdata$x	ENDS
;	COMDAT xdata$x
xdata$x	SEGMENT
__catchsym$??$_Uninit_copy@PBUVector2D@@PAU1@V?$allocator@UVector2D@@@std@@@std@@YAPAUVector2D@@PBU1@0PAU1@AAU?$_Wrap_alloc@V?$allocator@UVector2D@@@std@@@0@U_Nonscalar_ptr_iterator_tag@0@@Z$2 DD 040H
	DD	00H
	DD	00H
	DD	FLAT:__catch$??$_Uninit_copy@PBUVector2D@@PAU1@V?$allocator@UVector2D@@@std@@@std@@YAPAUVector2D@@PBU1@0PAU1@AAU?$_Wrap_alloc@V?$allocator@UVector2D@@@std@@@0@U_Nonscalar_ptr_iterator_tag@0@@Z$0
__unwindtable$??$_Uninit_copy@PBUVector2D@@PAU1@V?$allocator@UVector2D@@@std@@@std@@YAPAUVector2D@@PBU1@0PAU1@AAU?$_Wrap_alloc@V?$allocator@UVector2D@@@std@@@0@U_Nonscalar_ptr_iterator_tag@0@@Z DD 0ffffffffH
	DD	00H
	DD	0ffffffffH
	DD	00H
__tryblocktable$??$_Uninit_copy@PBUVector2D@@PAU1@V?$allocator@UVector2D@@@std@@@std@@YAPAUVector2D@@PBU1@0PAU1@AAU?$_Wrap_alloc@V?$allocator@UVector2D@@@std@@@0@U_Nonscalar_ptr_iterator_tag@0@@Z DD 00H
	DD	00H
	DD	01H
	DD	01H
	DD	FLAT:__catchsym$??$_Uninit_copy@PBUVector2D@@PAU1@V?$allocator@UVector2D@@@std@@@std@@YAPAUVector2D@@PBU1@0PAU1@AAU?$_Wrap_alloc@V?$allocator@UVector2D@@@std@@@0@U_Nonscalar_ptr_iterator_tag@0@@Z$2
__ehfuncinfo$??$_Uninit_copy@PBUVector2D@@PAU1@V?$allocator@UVector2D@@@std@@@std@@YAPAUVector2D@@PBU1@0PAU1@AAU?$_Wrap_alloc@V?$allocator@UVector2D@@@std@@@0@U_Nonscalar_ptr_iterator_tag@0@@Z DD 019930522H
	DD	02H
	DD	FLAT:__unwindtable$??$_Uninit_copy@PBUVector2D@@PAU1@V?$allocator@UVector2D@@@std@@@std@@YAPAUVector2D@@PBU1@0PAU1@AAU?$_Wrap_alloc@V?$allocator@UVector2D@@@std@@@0@U_Nonscalar_ptr_iterator_tag@0@@Z
	DD	01H
	DD	FLAT:__tryblocktable$??$_Uninit_copy@PBUVector2D@@PAU1@V?$allocator@UVector2D@@@std@@@std@@YAPAUVector2D@@PBU1@0PAU1@AAU?$_Wrap_alloc@V?$allocator@UVector2D@@@std@@@0@U_Nonscalar_ptr_iterator_tag@0@@Z
	DD	2 DUP(00H)
	DD	00H
	DD	01H
xdata$x	ENDS
;	COMDAT xdata$x
xdata$x	SEGMENT
__unwindtable$??$_Unchecked@V?$_Vector_val@U?$_Simple_types@UVector2D@@@std@@@std@@@std@@YAPBUVector2D@@V?$_Vector_const_iterator@V?$_Vector_val@U?$_Simple_types@UVector2D@@@std@@@std@@@0@@Z DD 0ffffffffH
	DD	FLAT:__unwindfunclet$??$_Unchecked@V?$_Vector_val@U?$_Simple_types@UVector2D@@@std@@@std@@@std@@YAPBUVector2D@@V?$_Vector_const_iterator@V?$_Vector_val@U?$_Simple_types@UVector2D@@@std@@@std@@@0@@Z$0
__ehfuncinfo$??$_Unchecked@V?$_Vector_val@U?$_Simple_types@UVector2D@@@std@@@std@@@std@@YAPBUVector2D@@V?$_Vector_const_iterator@V?$_Vector_val@U?$_Simple_types@UVector2D@@@std@@@std@@@0@@Z DD 019930522H
	DD	01H
	DD	FLAT:__unwindtable$??$_Unchecked@V?$_Vector_val@U?$_Simple_types@UVector2D@@@std@@@std@@@std@@YAPBUVector2D@@V?$_Vector_const_iterator@V?$_Vector_val@U?$_Simple_types@UVector2D@@@std@@@std@@@0@@Z
	DD	2 DUP(00H)
	DD	2 DUP(00H)
	DD	00H
	DD	01H
xdata$x	ENDS
;	COMDAT xdata$x
xdata$x	SEGMENT
__ehfuncinfo$??$_Pocma@U?$_Wrap_alloc@V?$allocator@UVector2D@@@std@@@std@@@std@@YAXAAU?$_Wrap_alloc@V?$allocator@UVector2D@@@std@@@0@0U?$integral_constant@_N$00@0@@Z DD 019930522H
	DD	00H
	DD	00H
	DD	2 DUP(00H)
	DD	2 DUP(00H)
	DD	00H
	DD	05H
xdata$x	ENDS
;	COMDAT xdata$x
xdata$x	SEGMENT
__catchsym$??$_Buynode@UGraveRecord@GraveMarkers@@@?$_List_buy@UGraveRecord@GraveMarkers@@V?$allocator@UGraveRecord@GraveMarkers@@@std@@@std@@QAEPAU?$_List_node@UGraveRecord@GraveMarkers@@PAX@1@PAU21@0$$QAUGraveRecord@GraveMarkers@@@Z$2 DD 040H
	DD	00H
	DD	00H
	DD	FLAT:__catch$??$_Buynode@UGraveRecord@GraveMarkers@@@?$_List_buy@UGraveRecord@GraveMarkers@@V?$allocator@UGraveRecord@GraveMarkers@@@std@@@std@@QAEPAU?$_List_node@UGraveRecord@GraveMarkers@@PAX@1@PAU21@0$$QAUGraveRecord@GraveMarkers@@@Z$0
__unwindtable$??$_Buynode@UGraveRecord@GraveMarkers@@@?$_List_buy@UGraveRecord@GraveMarkers@@V?$allocator@UGraveRecord@GraveMarkers@@@std@@@std@@QAEPAU?$_List_node@UGraveRecord@GraveMarkers@@PAX@1@PAU21@0$$QAUGraveRecord@GraveMarkers@@@Z DD 0ffffffffH
	DD	00H
	DD	0ffffffffH
	DD	00H
__tryblocktable$??$_Buynode@UGraveRecord@GraveMarkers@@@?$_List_buy@UGraveRecord@GraveMarkers@@V?$allocator@UGraveRecord@GraveMarkers@@@std@@@std@@QAEPAU?$_List_node@UGraveRecord@GraveMarkers@@PAX@1@PAU21@0$$QAUGraveRecord@GraveMarkers@@@Z DD 00H
	DD	00H
	DD	01H
	DD	01H
	DD	FLAT:__catchsym$??$_Buynode@UGraveRecord@GraveMarkers@@@?$_List_buy@UGraveRecord@GraveMarkers@@V?$allocator@UGraveRecord@GraveMarkers@@@std@@@std@@QAEPAU?$_List_node@UGraveRecord@GraveMarkers@@PAX@1@PAU21@0$$QAUGraveRecord@GraveMarkers@@@Z$2
__ehfuncinfo$??$_Buynode@UGraveRecord@GraveMarkers@@@?$_List_buy@UGraveRecord@GraveMarkers@@V?$allocator@UGraveRecord@GraveMarkers@@@std@@@std@@QAEPAU?$_List_node@UGraveRecord@GraveMarkers@@PAX@1@PAU21@0$$QAUGraveRecord@GraveMarkers@@@Z DD 019930522H
	DD	02H
	DD	FLAT:__unwindtable$??$_Buynode@UGraveRecord@GraveMarkers@@@?$_List_buy@UGraveRecord@GraveMarkers@@V?$allocator@UGraveRecord@GraveMarkers@@@std@@@std@@QAEPAU?$_List_node@UGraveRecord@GraveMarkers@@PAX@1@PAU21@0$$QAUGraveRecord@GraveMarkers@@@Z
	DD	01H
	DD	FLAT:__tryblocktable$??$_Buynode@UGraveRecord@GraveMarkers@@@?$_List_buy@UGraveRecord@GraveMarkers@@V?$allocator@UGraveRecord@GraveMarkers@@@std@@@std@@QAEPAU?$_List_node@UGraveRecord@GraveMarkers@@PAX@1@PAU21@0$$QAUGraveRecord@GraveMarkers@@@Z
	DD	2 DUP(00H)
	DD	00H
	DD	01H
xdata$x	ENDS
;	COMDAT xdata$x
xdata$x	SEGMENT
__unwindtable$??$_Uninitialized_copy@V?$_Vector_const_iterator@V?$_Vector_val@U?$_Simple_types@UVector2D@@@std@@@std@@@std@@PAUVector2D@@U?$_Wrap_alloc@V?$allocator@UVector2D@@@std@@@2@@std@@YAPAUVector2D@@V?$_Vector_const_iterator@V?$_Vector_val@U?$_Simple_types@UVector2D@@@std@@@std@@@0@0PAU1@AAU?$_Wrap_alloc@V?$allocator@UVector2D@@@std@@@0@@Z DD 0ffffffffH
	DD	FLAT:__unwindfunclet$??$_Uninitialized_copy@V?$_Vector_const_iterator@V?$_Vector_val@U?$_Simple_types@UVector2D@@@std@@@std@@@std@@PAUVector2D@@U?$_Wrap_alloc@V?$allocator@UVector2D@@@std@@@2@@std@@YAPAUVector2D@@V?$_Vector_const_iterator@V?$_Vector_val@U?$_Simple_types@UVector2D@@@std@@@std@@@0@0PAU1@AAU?$_Wrap_alloc@V?$allocator@UVector2D@@@std@@@0@@Z$0
	DD	00H
	DD	FLAT:__unwindfunclet$??$_Uninitialized_copy@V?$_Vector_const_iterator@V?$_Vector_val@U?$_Simple_types@UVector2D@@@std@@@std@@@std@@PAUVector2D@@U?$_Wrap_alloc@V?$allocator@UVector2D@@@std@@@2@@std@@YAPAUVector2D@@V?$_Vector_const_iterator@V?$_Vector_val@U?$_Simple_types@UVector2D@@@std@@@std@@@0@0PAU1@AAU?$_Wrap_alloc@V?$allocator@UVector2D@@@std@@@0@@Z$1
__ehfuncinfo$??$_Uninitialized_copy@V?$_Vector_const_iterator@V?$_Vector_val@U?$_Simple_types@UVector2D@@@std@@@std@@@std@@PAUVector2D@@U?$_Wrap_alloc@V?$allocator@UVector2D@@@std@@@2@@std@@YAPAUVector2D@@V?$_Vector_const_iterator@V?$_Vector_val@U?$_Simple_types@UVector2D@@@std@@@std@@@0@0PAU1@AAU?$_Wrap_alloc@V?$allocator@UVector2D@@@std@@@0@@Z DD 019930522H
	DD	02H
	DD	FLAT:__unwindtable$??$_Uninitialized_copy@V?$_Vector_const_iterator@V?$_Vector_val@U?$_Simple_types@UVector2D@@@std@@@std@@@std@@PAUVector2D@@U?$_Wrap_alloc@V?$allocator@UVector2D@@@std@@@2@@std@@YAPAUVector2D@@V?$_Vector_const_iterator@V?$_Vector_val@U?$_Simple_types@UVector2D@@@std@@@std@@@0@0PAU1@AAU?$_Wrap_alloc@V?$allocator@UVector2D@@@std@@@0@@Z
	DD	2 DUP(00H)
	DD	2 DUP(00H)
	DD	00H
	DD	01H
xdata$x	ENDS
;	COMDAT xdata$x
xdata$x	SEGMENT
__unwindtable$??$_Ucopy@V?$_Vector_const_iterator@V?$_Vector_val@U?$_Simple_types@UVector2D@@@std@@@std@@@std@@@?$vector@UVector2D@@V?$allocator@UVector2D@@@std@@@std@@IAEPAUVector2D@@V?$_Vector_const_iterator@V?$_Vector_val@U?$_Simple_types@UVector2D@@@std@@@std@@@1@0PAU2@@Z DD 0ffffffffH
	DD	FLAT:__unwindfunclet$??$_Ucopy@V?$_Vector_const_iterator@V?$_Vector_val@U?$_Simple_types@UVector2D@@@std@@@std@@@std@@@?$vector@UVector2D@@V?$allocator@UVector2D@@@std@@@std@@IAEPAUVector2D@@V?$_Vector_const_iterator@V?$_Vector_val@U?$_Simple_types@UVector2D@@@std@@@std@@@1@0PAU2@@Z$0
	DD	00H
	DD	FLAT:__unwindfunclet$??$_Ucopy@V?$_Vector_const_iterator@V?$_Vector_val@U?$_Simple_types@UVector2D@@@std@@@std@@@std@@@?$vector@UVector2D@@V?$allocator@UVector2D@@@std@@@std@@IAEPAUVector2D@@V?$_Vector_const_iterator@V?$_Vector_val@U?$_Simple_types@UVector2D@@@std@@@std@@@1@0PAU2@@Z$1
	DD	01H
	DD	FLAT:__unwindfunclet$??$_Ucopy@V?$_Vector_const_iterator@V?$_Vector_val@U?$_Simple_types@UVector2D@@@std@@@std@@@std@@@?$vector@UVector2D@@V?$allocator@UVector2D@@@std@@@std@@IAEPAUVector2D@@V?$_Vector_const_iterator@V?$_Vector_val@U?$_Simple_types@UVector2D@@@std@@@std@@@1@0PAU2@@Z$2
__ehfuncinfo$??$_Ucopy@V?$_Vector_const_iterator@V?$_Vector_val@U?$_Simple_types@UVector2D@@@std@@@std@@@std@@@?$vector@UVector2D@@V?$allocator@UVector2D@@@std@@@std@@IAEPAUVector2D@@V?$_Vector_const_iterator@V?$_Vector_val@U?$_Simple_types@UVector2D@@@std@@@std@@@1@0PAU2@@Z DD 019930522H
	DD	03H
	DD	FLAT:__unwindtable$??$_Ucopy@V?$_Vector_const_iterator@V?$_Vector_val@U?$_Simple_types@UVector2D@@@std@@@std@@@std@@@?$vector@UVector2D@@V?$allocator@UVector2D@@@std@@@std@@IAEPAUVector2D@@V?$_Vector_const_iterator@V?$_Vector_val@U?$_Simple_types@UVector2D@@@std@@@std@@@1@0PAU2@@Z
	DD	2 DUP(00H)
	DD	2 DUP(00H)
	DD	00H
	DD	01H
xdata$x	ENDS
;	COMDAT xdata$x
xdata$x	SEGMENT
__unwindtable$??0?$_Vector_const_iterator@V?$_Vector_val@U?$_Simple_types@UVector2D@@@std@@@std@@@std@@QAE@PAUVector2D@@PBU_Container_base12@1@@Z DD 0ffffffffH
	DD	FLAT:__unwindfunclet$??0?$_Vector_const_iterator@V?$_Vector_val@U?$_Simple_types@UVector2D@@@std@@@std@@@std@@QAE@PAUVector2D@@PBU_Container_base12@1@@Z$0
__ehfuncinfo$??0?$_Vector_const_iterator@V?$_Vector_val@U?$_Simple_types@UVector2D@@@std@@@std@@@std@@QAE@PAUVector2D@@PBU_Container_base12@1@@Z DD 019930522H
	DD	01H
	DD	FLAT:__unwindtable$??0?$_Vector_const_iterator@V?$_Vector_val@U?$_Simple_types@UVector2D@@@std@@@std@@@std@@QAE@PAUVector2D@@PBU_Container_base12@1@@Z
	DD	2 DUP(00H)
	DD	2 DUP(00H)
	DD	00H
	DD	01H
xdata$x	ENDS
;	COMDAT xdata$x
xdata$x	SEGMENT
__unwindtable$??E?$_List_const_iterator@V?$_List_val@U?$_List_simple_types@UGraveRecord@GraveMarkers@@@std@@@std@@@std@@QAE?AV01@H@Z DD 0ffffffffH
	DD	FLAT:__unwindfunclet$??E?$_List_const_iterator@V?$_List_val@U?$_List_simple_types@UGraveRecord@GraveMarkers@@@std@@@std@@@std@@QAE?AV01@H@Z$0
__ehfuncinfo$??E?$_List_const_iterator@V?$_List_val@U?$_List_simple_types@UGraveRecord@GraveMarkers@@@std@@@std@@@std@@QAE?AV01@H@Z DD 019930522H
	DD	01H
	DD	FLAT:__unwindtable$??E?$_List_const_iterator@V?$_List_val@U?$_List_simple_types@UGraveRecord@GraveMarkers@@@std@@@std@@@std@@QAE?AV01@H@Z
	DD	2 DUP(00H)
	DD	2 DUP(00H)
	DD	00H
	DD	01H
xdata$x	ENDS
;	COMDAT xdata$x
xdata$x	SEGMENT
__unwindtable$??0?$_List_unchecked_const_iterator@V?$_List_val@U?$_List_simple_types@UGraveRecord@GraveMarkers@@@std@@@std@@U_Iterator_base12@2@@std@@QAE@PAU?$_List_node@UGraveRecord@GraveMarkers@@PAX@1@PBV?$_List_val@U?$_List_simple_types@UGraveRecord@GraveMarkers@@@std@@@1@@Z DD 0ffffffffH
	DD	FLAT:__unwindfunclet$??0?$_List_unchecked_const_iterator@V?$_List_val@U?$_List_simple_types@UGraveRecord@GraveMarkers@@@std@@@std@@U_Iterator_base12@2@@std@@QAE@PAU?$_List_node@UGraveRecord@GraveMarkers@@PAX@1@PBV?$_List_val@U?$_List_simple_types@UGraveRecord@GraveMarkers@@@std@@@1@@Z$0
__ehfuncinfo$??0?$_List_unchecked_const_iterator@V?$_List_val@U?$_List_simple_types@UGraveRecord@GraveMarkers@@@std@@@std@@U_Iterator_base12@2@@std@@QAE@PAU?$_List_node@UGraveRecord@GraveMarkers@@PAX@1@PBV?$_List_val@U?$_List_simple_types@UGraveRecord@GraveMarkers@@@std@@@1@@Z DD 019930522H
	DD	01H
	DD	FLAT:__unwindtable$??0?$_List_unchecked_const_iterator@V?$_List_val@U?$_List_simple_types@UGraveRecord@GraveMarkers@@@std@@@std@@U_Iterator_base12@2@@std@@QAE@PAU?$_List_node@UGraveRecord@GraveMarkers@@PAX@1@PBV?$_List_val@U?$_List_simple_types@UGraveRecord@GraveMarkers@@@std@@@1@@Z
	DD	2 DUP(00H)
	DD	2 DUP(00H)
	DD	00H
	DD	01H
xdata$x	ENDS
;	COMDAT xdata$x
xdata$x	SEGMENT
__unwindtable$?WorldTransform@@YA?AV?$vector@UVector2D@@V?$allocator@UVector2D@@@std@@@std@@AAV12@ABUVector2D@@111@Z DD 0ffffffffH
	DD	FLAT:__unwindfunclet$?WorldTransform@@YA?AV?$vector@UVector2D@@V?$allocator@UVector2D@@@std@@@std@@AAV12@ABUVector2D@@111@Z$0
__ehfuncinfo$?WorldTransform@@YA?AV?$vector@UVector2D@@V?$allocator@UVector2D@@@std@@@std@@AAV12@ABUVector2D@@111@Z DD 019930522H
	DD	01H
	DD	FLAT:__unwindtable$?WorldTransform@@YA?AV?$vector@UVector2D@@V?$allocator@UVector2D@@@std@@@std@@AAV12@ABUVector2D@@111@Z
	DD	2 DUP(00H)
	DD	2 DUP(00H)
	DD	00H
	DD	01H
xdata$x	ENDS
xdata$x	SEGMENT
__unwindtable$?Render@GraveMarkers@@QAEXXZ DD 0ffffffffH
	DD	FLAT:__unwindfunclet$?Render@GraveMarkers@@QAEXXZ$0
	DD	00H
	DD	FLAT:__unwindfunclet$?Render@GraveMarkers@@QAEXXZ$1
	DD	00H
	DD	FLAT:__unwindfunclet$?Render@GraveMarkers@@QAEXXZ$3
__unwindtable$?Update@GraveMarkers@@QAEXXZ DD 0ffffffffH
	DD	FLAT:__unwindfunclet$?Update@GraveMarkers@@QAEXXZ$0
	DD	00H
	DD	FLAT:__unwindfunclet$?Update@GraveMarkers@@QAEXXZ$1
	DD	00H
	DD	FLAT:__unwindfunclet$?Update@GraveMarkers@@QAEXXZ$3
__unwindtable$??0GraveMarkers@@QAE@N@Z DD 0ffffffffH
	DD	FLAT:__unwindfunclet$??0GraveMarkers@@QAE@N@Z$0
	DD	00H
	DD	FLAT:__unwindfunclet$??0GraveMarkers@@QAE@N@Z$1
	DD	01H
	DD	FLAT:__unwindfunclet$??0GraveMarkers@@QAE@N@Z$2
__ehfuncinfo$?Render@GraveMarkers@@QAEXXZ DD 019930522H
	DD	03H
	DD	FLAT:__unwindtable$?Render@GraveMarkers@@QAEXXZ
	DD	2 DUP(00H)
	DD	2 DUP(00H)
	DD	00H
	DD	01H
__ehfuncinfo$?Update@GraveMarkers@@QAEXXZ DD 019930522H
	DD	03H
	DD	FLAT:__unwindtable$?Update@GraveMarkers@@QAEXXZ
	DD	2 DUP(00H)
	DD	2 DUP(00H)
	DD	00H
	DD	01H
__ehfuncinfo$??0GraveMarkers@@QAE@N@Z DD 019930522H
	DD	03H
	DD	FLAT:__unwindtable$??0GraveMarkers@@QAE@N@Z
	DD	2 DUP(00H)
	DD	2 DUP(00H)
	DD	00H
	DD	01H
xdata$x	ENDS
;	COMDAT xdata$x
xdata$x	SEGMENT
__unwindtable$?_Orphan_ptr@?$list@UGraveRecord@GraveMarkers@@V?$allocator@UGraveRecord@GraveMarkers@@@std@@@std@@QAEXPAU?$_List_node@UGraveRecord@GraveMarkers@@PAX@2@@Z DD 0ffffffffH
	DD	FLAT:__unwindfunclet$?_Orphan_ptr@?$list@UGraveRecord@GraveMarkers@@V?$allocator@UGraveRecord@GraveMarkers@@@std@@@std@@QAEXPAU?$_List_node@UGraveRecord@GraveMarkers@@PAX@2@@Z$0
__ehfuncinfo$?_Orphan_ptr@?$list@UGraveRecord@GraveMarkers@@V?$allocator@UGraveRecord@GraveMarkers@@@std@@@std@@QAEXPAU?$_List_node@UGraveRecord@GraveMarkers@@PAX@2@@Z DD 019930522H
	DD	01H
	DD	FLAT:__unwindtable$?_Orphan_ptr@?$list@UGraveRecord@GraveMarkers@@V?$allocator@UGraveRecord@GraveMarkers@@@std@@@std@@QAEXPAU?$_List_node@UGraveRecord@GraveMarkers@@PAX@2@@Z
	DD	2 DUP(00H)
	DD	2 DUP(00H)
	DD	00H
	DD	01H
xdata$x	ENDS
;	COMDAT xdata$x
xdata$x	SEGMENT
__ehfuncinfo$?clear@?$list@UGraveRecord@GraveMarkers@@V?$allocator@UGraveRecord@GraveMarkers@@@std@@@std@@QAEXXZ DD 019930522H
	DD	00H
	DD	00H
	DD	2 DUP(00H)
	DD	2 DUP(00H)
	DD	00H
	DD	05H
xdata$x	ENDS
;	COMDAT xdata$x
xdata$x	SEGMENT
__unwindtable$?erase@?$list@UGraveRecord@GraveMarkers@@V?$allocator@UGraveRecord@GraveMarkers@@@std@@@std@@QAE?AV?$_List_iterator@V?$_List_val@U?$_List_simple_types@UGraveRecord@GraveMarkers@@@std@@@std@@@2@V?$_List_const_iterator@V?$_List_val@U?$_List_simple_types@UGraveRecord@GraveMarkers@@@std@@@std@@@2@@Z DD 0ffffffffH
	DD	FLAT:__unwindfunclet$?erase@?$list@UGraveRecord@GraveMarkers@@V?$allocator@UGraveRecord@GraveMarkers@@@std@@@std@@QAE?AV?$_List_iterator@V?$_List_val@U?$_List_simple_types@UGraveRecord@GraveMarkers@@@std@@@std@@@2@V?$_List_const_iterator@V?$_List_val@U?$_List_simple_types@UGraveRecord@GraveMarkers@@@std@@@std@@@2@@Z$0
__ehfuncinfo$?erase@?$list@UGraveRecord@GraveMarkers@@V?$allocator@UGraveRecord@GraveMarkers@@@std@@@std@@QAE?AV?$_List_iterator@V?$_List_val@U?$_List_simple_types@UGraveRecord@GraveMarkers@@@std@@@std@@@2@V?$_List_const_iterator@V?$_List_val@U?$_List_simple_types@UGraveRecord@GraveMarkers@@@std@@@std@@@2@@Z DD 019930522H
	DD	01H
	DD	FLAT:__unwindtable$?erase@?$list@UGraveRecord@GraveMarkers@@V?$allocator@UGraveRecord@GraveMarkers@@@std@@@std@@QAE?AV?$_List_iterator@V?$_List_val@U?$_List_simple_types@UGraveRecord@GraveMarkers@@@std@@@std@@@2@V?$_List_const_iterator@V?$_List_val@U?$_List_simple_types@UGraveRecord@GraveMarkers@@@std@@@std@@@2@@Z
	DD	2 DUP(00H)
	DD	2 DUP(00H)
	DD	00H
	DD	01H
xdata$x	ENDS
;	COMDAT xdata$x
xdata$x	SEGMENT
__unwindtable$?_Unlinknode@?$list@UGraveRecord@GraveMarkers@@V?$allocator@UGraveRecord@GraveMarkers@@@std@@@std@@QAEPAU?$_List_node@UGraveRecord@GraveMarkers@@PAX@2@V?$_List_const_iterator@V?$_List_val@U?$_List_simple_types@UGraveRecord@GraveMarkers@@@std@@@std@@@2@@Z DD 0ffffffffH
	DD	FLAT:__unwindfunclet$?_Unlinknode@?$list@UGraveRecord@GraveMarkers@@V?$allocator@UGraveRecord@GraveMarkers@@@std@@@std@@QAEPAU?$_List_node@UGraveRecord@GraveMarkers@@PAX@2@V?$_List_const_iterator@V?$_List_val@U?$_List_simple_types@UGraveRecord@GraveMarkers@@@std@@@std@@@2@@Z$0
__ehfuncinfo$?_Unlinknode@?$list@UGraveRecord@GraveMarkers@@V?$allocator@UGraveRecord@GraveMarkers@@@std@@@std@@QAEPAU?$_List_node@UGraveRecord@GraveMarkers@@PAX@2@V?$_List_const_iterator@V?$_List_val@U?$_List_simple_types@UGraveRecord@GraveMarkers@@@std@@@std@@@2@@Z DD 019930522H
	DD	01H
	DD	FLAT:__unwindtable$?_Unlinknode@?$list@UGraveRecord@GraveMarkers@@V?$allocator@UGraveRecord@GraveMarkers@@@std@@@std@@QAEPAU?$_List_node@UGraveRecord@GraveMarkers@@PAX@2@V?$_List_const_iterator@V?$_List_val@U?$_List_simple_types@UGraveRecord@GraveMarkers@@@std@@@std@@@2@@Z
	DD	2 DUP(00H)
	DD	2 DUP(00H)
	DD	00H
	DD	01H
xdata$x	ENDS
;	COMDAT xdata$x
xdata$x	SEGMENT
__ehfuncinfo$?_Make_iter@?$list@UGraveRecord@GraveMarkers@@V?$allocator@UGraveRecord@GraveMarkers@@@std@@@std@@QBE?AV?$_List_iterator@V?$_List_val@U?$_List_simple_types@UGraveRecord@GraveMarkers@@@std@@@std@@@2@V?$_List_const_iterator@V?$_List_val@U?$_List_simple_types@UGraveRecord@GraveMarkers@@@std@@@std@@@2@@Z DD 019930522H
	DD	00H
	DD	00H
	DD	2 DUP(00H)
	DD	2 DUP(00H)
	DD	00H
	DD	05H
xdata$x	ENDS
;	COMDAT xdata$x
xdata$x	SEGMENT
__ehfuncinfo$?end@?$list@UGraveRecord@GraveMarkers@@V?$allocator@UGraveRecord@GraveMarkers@@@std@@@std@@QAE?AV?$_List_iterator@V?$_List_val@U?$_List_simple_types@UGraveRecord@GraveMarkers@@@std@@@std@@@2@XZ DD 019930522H
	DD	00H
	DD	00H
	DD	2 DUP(00H)
	DD	2 DUP(00H)
	DD	00H
	DD	05H
xdata$x	ENDS
;	COMDAT xdata$x
xdata$x	SEGMENT
__ehfuncinfo$?begin@?$list@UGraveRecord@GraveMarkers@@V?$allocator@UGraveRecord@GraveMarkers@@@std@@@std@@QAE?AV?$_List_iterator@V?$_List_val@U?$_List_simple_types@UGraveRecord@GraveMarkers@@@std@@@std@@@2@XZ DD 019930522H
	DD	00H
	DD	00H
	DD	2 DUP(00H)
	DD	2 DUP(00H)
	DD	00H
	DD	05H
xdata$x	ENDS
;	COMDAT xdata$x
xdata$x	SEGMENT
__ehfuncinfo$??1?$list@UGraveRecord@GraveMarkers@@V?$allocator@UGraveRecord@GraveMarkers@@@std@@@std@@QAE@XZ DD 019930522H
	DD	00H
	DD	00H
	DD	2 DUP(00H)
	DD	2 DUP(00H)
	DD	00H
	DD	05H
xdata$x	ENDS
;	COMDAT xdata$x
xdata$x	SEGMENT
__catchsym$?_Buynode0@?$_List_alloc@U?$_List_base_types@UGraveRecord@GraveMarkers@@V?$allocator@UGraveRecord@GraveMarkers@@@std@@@std@@@std@@QAEPAU?$_List_node@UGraveRecord@GraveMarkers@@PAX@2@PAU32@0@Z$2 DD 040H
	DD	00H
	DD	00H
	DD	FLAT:__catch$?_Buynode0@?$_List_alloc@U?$_List_base_types@UGraveRecord@GraveMarkers@@V?$allocator@UGraveRecord@GraveMarkers@@@std@@@std@@@std@@QAEPAU?$_List_node@UGraveRecord@GraveMarkers@@PAX@2@PAU32@0@Z$0
__unwindtable$?_Buynode0@?$_List_alloc@U?$_List_base_types@UGraveRecord@GraveMarkers@@V?$allocator@UGraveRecord@GraveMarkers@@@std@@@std@@@std@@QAEPAU?$_List_node@UGraveRecord@GraveMarkers@@PAX@2@PAU32@0@Z DD 0ffffffffH
	DD	00H
	DD	0ffffffffH
	DD	00H
__tryblocktable$?_Buynode0@?$_List_alloc@U?$_List_base_types@UGraveRecord@GraveMarkers@@V?$allocator@UGraveRecord@GraveMarkers@@@std@@@std@@@std@@QAEPAU?$_List_node@UGraveRecord@GraveMarkers@@PAX@2@PAU32@0@Z DD 00H
	DD	00H
	DD	01H
	DD	01H
	DD	FLAT:__catchsym$?_Buynode0@?$_List_alloc@U?$_List_base_types@UGraveRecord@GraveMarkers@@V?$allocator@UGraveRecord@GraveMarkers@@@std@@@std@@@std@@QAEPAU?$_List_node@UGraveRecord@GraveMarkers@@PAX@2@PAU32@0@Z$2
__ehfuncinfo$?_Buynode0@?$_List_alloc@U?$_List_base_types@UGraveRecord@GraveMarkers@@V?$allocator@UGraveRecord@GraveMarkers@@@std@@@std@@@std@@QAEPAU?$_List_node@UGraveRecord@GraveMarkers@@PAX@2@PAU32@0@Z DD 019930522H
	DD	02H
	DD	FLAT:__unwindtable$?_Buynode0@?$_List_alloc@U?$_List_base_types@UGraveRecord@GraveMarkers@@V?$allocator@UGraveRecord@GraveMarkers@@@std@@@std@@@std@@QAEPAU?$_List_node@UGraveRecord@GraveMarkers@@PAX@2@PAU32@0@Z
	DD	01H
	DD	FLAT:__tryblocktable$?_Buynode0@?$_List_alloc@U?$_List_base_types@UGraveRecord@GraveMarkers@@V?$allocator@UGraveRecord@GraveMarkers@@@std@@@std@@@std@@QAEPAU?$_List_node@UGraveRecord@GraveMarkers@@PAX@2@PAU32@0@Z
	DD	2 DUP(00H)
	DD	00H
	DD	01H
xdata$x	ENDS
;	COMDAT xdata$x
xdata$x	SEGMENT
__ehfuncinfo$??1?$_List_alloc@U?$_List_base_types@UGraveRecord@GraveMarkers@@V?$allocator@UGraveRecord@GraveMarkers@@@std@@@std@@@std@@QAE@XZ DD 019930522H
	DD	00H
	DD	00H
	DD	2 DUP(00H)
	DD	2 DUP(00H)
	DD	00H
	DD	05H
xdata$x	ENDS
;	COMDAT xdata$x
xdata$x	SEGMENT
__catchsym$??0?$_List_alloc@U?$_List_base_types@UGraveRecord@GraveMarkers@@V?$allocator@UGraveRecord@GraveMarkers@@@std@@@std@@@std@@QAE@ABV?$allocator@UGraveRecord@GraveMarkers@@@1@@Z$3 DD 040H
	DD	00H
	DD	00H
	DD	FLAT:__catch$??0?$_List_alloc@U?$_List_base_types@UGraveRecord@GraveMarkers@@V?$allocator@UGraveRecord@GraveMarkers@@@std@@@std@@@std@@QAE@ABV?$allocator@UGraveRecord@GraveMarkers@@@1@@Z$0
__tryblocktable$??0?$_List_alloc@U?$_List_base_types@UGraveRecord@GraveMarkers@@V?$allocator@UGraveRecord@GraveMarkers@@@std@@@std@@@std@@QAE@ABV?$allocator@UGraveRecord@GraveMarkers@@@1@@Z DD 01H
	DD	01H
	DD	02H
	DD	01H
	DD	FLAT:__catchsym$??0?$_List_alloc@U?$_List_base_types@UGraveRecord@GraveMarkers@@V?$allocator@UGraveRecord@GraveMarkers@@@std@@@std@@@std@@QAE@ABV?$allocator@UGraveRecord@GraveMarkers@@@1@@Z$3
__unwindtable$??0?$_List_alloc@U?$_List_base_types@UGraveRecord@GraveMarkers@@V?$allocator@UGraveRecord@GraveMarkers@@@std@@@std@@@std@@QAE@ABV?$allocator@UGraveRecord@GraveMarkers@@@1@@Z DD 0ffffffffH
	DD	FLAT:__unwindfunclet$??0?$_List_alloc@U?$_List_base_types@UGraveRecord@GraveMarkers@@V?$allocator@UGraveRecord@GraveMarkers@@@std@@@std@@@std@@QAE@ABV?$allocator@UGraveRecord@GraveMarkers@@@1@@Z$2
	DD	00H
	DD	00H
	DD	00H
	DD	00H
__ehfuncinfo$??0?$_List_alloc@U?$_List_base_types@UGraveRecord@GraveMarkers@@V?$allocator@UGraveRecord@GraveMarkers@@@std@@@std@@@std@@QAE@ABV?$allocator@UGraveRecord@GraveMarkers@@@1@@Z DD 019930522H
	DD	03H
	DD	FLAT:__unwindtable$??0?$_List_alloc@U?$_List_base_types@UGraveRecord@GraveMarkers@@V?$allocator@UGraveRecord@GraveMarkers@@@std@@@std@@@std@@QAE@ABV?$allocator@UGraveRecord@GraveMarkers@@@1@@Z
	DD	01H
	DD	FLAT:__tryblocktable$??0?$_List_alloc@U?$_List_base_types@UGraveRecord@GraveMarkers@@V?$allocator@UGraveRecord@GraveMarkers@@@std@@@std@@@std@@QAE@ABV?$allocator@UGraveRecord@GraveMarkers@@@1@@Z
	DD	2 DUP(00H)
	DD	00H
	DD	01H
xdata$x	ENDS
;	COMDAT xdata$x
xdata$x	SEGMENT
__unwindtable$?_Orphan_range@?$vector@UVector2D@@V?$allocator@UVector2D@@@std@@@std@@IBEXPAUVector2D@@0@Z DD 0ffffffffH
	DD	FLAT:__unwindfunclet$?_Orphan_range@?$vector@UVector2D@@V?$allocator@UVector2D@@@std@@@std@@IBEXPAUVector2D@@0@Z$0
__ehfuncinfo$?_Orphan_range@?$vector@UVector2D@@V?$allocator@UVector2D@@@std@@@std@@IBEXPAUVector2D@@0@Z DD 019930522H
	DD	01H
	DD	FLAT:__unwindtable$?_Orphan_range@?$vector@UVector2D@@V?$allocator@UVector2D@@@std@@@std@@IBEXPAUVector2D@@0@Z
	DD	2 DUP(00H)
	DD	2 DUP(00H)
	DD	00H
	DD	01H
xdata$x	ENDS
;	COMDAT xdata$x
xdata$x	SEGMENT
__catchsym$?_Reallocate@?$vector@UVector2D@@V?$allocator@UVector2D@@@std@@@std@@IAEXI@Z$2 DD 040H
	DD	00H
	DD	00H
	DD	FLAT:__catch$?_Reallocate@?$vector@UVector2D@@V?$allocator@UVector2D@@@std@@@std@@IAEXI@Z$0
__unwindtable$?_Reallocate@?$vector@UVector2D@@V?$allocator@UVector2D@@@std@@@std@@IAEXI@Z DD 0ffffffffH
	DD	00H
	DD	0ffffffffH
	DD	00H
__tryblocktable$?_Reallocate@?$vector@UVector2D@@V?$allocator@UVector2D@@@std@@@std@@IAEXI@Z DD 00H
	DD	00H
	DD	01H
	DD	01H
	DD	FLAT:__catchsym$?_Reallocate@?$vector@UVector2D@@V?$allocator@UVector2D@@@std@@@std@@IAEXI@Z$2
__ehfuncinfo$?_Reallocate@?$vector@UVector2D@@V?$allocator@UVector2D@@@std@@@std@@IAEXI@Z DD 019930522H
	DD	02H
	DD	FLAT:__unwindtable$?_Reallocate@?$vector@UVector2D@@V?$allocator@UVector2D@@@std@@@std@@IAEXI@Z
	DD	01H
	DD	FLAT:__tryblocktable$?_Reallocate@?$vector@UVector2D@@V?$allocator@UVector2D@@@std@@@std@@IAEXI@Z
	DD	2 DUP(00H)
	DD	00H
	DD	01H
xdata$x	ENDS
;	COMDAT xdata$x
xdata$x	SEGMENT
__ehfuncinfo$?end@?$vector@UVector2D@@V?$allocator@UVector2D@@@std@@@std@@QBE?AV?$_Vector_const_iterator@V?$_Vector_val@U?$_Simple_types@UVector2D@@@std@@@std@@@2@XZ DD 019930522H
	DD	00H
	DD	00H
	DD	2 DUP(00H)
	DD	2 DUP(00H)
	DD	00H
	DD	05H
xdata$x	ENDS
;	COMDAT xdata$x
xdata$x	SEGMENT
__ehfuncinfo$?begin@?$vector@UVector2D@@V?$allocator@UVector2D@@@std@@@std@@QBE?AV?$_Vector_const_iterator@V?$_Vector_val@U?$_Simple_types@UVector2D@@@std@@@std@@@2@XZ DD 019930522H
	DD	00H
	DD	00H
	DD	2 DUP(00H)
	DD	2 DUP(00H)
	DD	00H
	DD	05H
xdata$x	ENDS
;	COMDAT xdata$x
xdata$x	SEGMENT
__ehfuncinfo$??1?$vector@UVector2D@@V?$allocator@UVector2D@@@std@@@std@@QAE@XZ DD 019930522H
	DD	00H
	DD	00H
	DD	2 DUP(00H)
	DD	2 DUP(00H)
	DD	00H
	DD	05H
xdata$x	ENDS
;	COMDAT xdata$x
xdata$x	SEGMENT
__ehfuncinfo$??4?$vector@UVector2D@@V?$allocator@UVector2D@@@std@@@std@@QAEAAV01@$$QAV01@@Z DD 019930522H
	DD	00H
	DD	00H
	DD	2 DUP(00H)
	DD	2 DUP(00H)
	DD	00H
	DD	05H
xdata$x	ENDS
;	COMDAT xdata$x
xdata$x	SEGMENT
__ehfuncinfo$??0?$vector@UVector2D@@V?$allocator@UVector2D@@@std@@@std@@QAE@$$QAV01@@Z DD 019930522H
	DD	00H
	DD	00H
	DD	2 DUP(00H)
	DD	2 DUP(00H)
	DD	00H
	DD	05H
xdata$x	ENDS
;	COMDAT xdata$x
xdata$x	SEGMENT
__catchsym$??0?$vector@UVector2D@@V?$allocator@UVector2D@@@std@@@std@@QAE@ABV01@@Z$5 DD 040H
	DD	00H
	DD	00H
	DD	FLAT:__catch$??0?$vector@UVector2D@@V?$allocator@UVector2D@@@std@@@std@@QAE@ABV01@@Z$0
__tryblocktable$??0?$vector@UVector2D@@V?$allocator@UVector2D@@@std@@@std@@QAE@ABV01@@Z DD 01H
	DD	01H
	DD	02H
	DD	01H
	DD	FLAT:__catchsym$??0?$vector@UVector2D@@V?$allocator@UVector2D@@@std@@@std@@QAE@ABV01@@Z$5
__unwindtable$??0?$vector@UVector2D@@V?$allocator@UVector2D@@@std@@@std@@QAE@ABV01@@Z DD 0ffffffffH
	DD	FLAT:__unwindfunclet$??0?$vector@UVector2D@@V?$allocator@UVector2D@@@std@@@std@@QAE@ABV01@@Z$2
	DD	00H
	DD	00H
	DD	00H
	DD	00H
__ehfuncinfo$??0?$vector@UVector2D@@V?$allocator@UVector2D@@@std@@@std@@QAE@ABV01@@Z DD 019930522H
	DD	03H
	DD	FLAT:__unwindtable$??0?$vector@UVector2D@@V?$allocator@UVector2D@@@std@@@std@@QAE@ABV01@@Z
	DD	01H
	DD	FLAT:__tryblocktable$??0?$vector@UVector2D@@V?$allocator@UVector2D@@@std@@@std@@QAE@ABV01@@Z
	DD	2 DUP(00H)
	DD	00H
	DD	01H
xdata$x	ENDS
;	COMDAT xdata$x
xdata$x	SEGMENT
__ehfuncinfo$??0?$vector@UVector2D@@V?$allocator@UVector2D@@@std@@@std@@QAE@XZ DD 019930522H
	DD	00H
	DD	00H
	DD	2 DUP(00H)
	DD	2 DUP(00H)
	DD	00H
	DD	05H
xdata$x	ENDS
;	COMDAT xdata$x
xdata$x	SEGMENT
__ehfuncinfo$??1?$_Vector_alloc@U?$_Vec_base_types@UVector2D@@V?$allocator@UVector2D@@@std@@@std@@@std@@QAE@XZ DD 019930522H
	DD	00H
	DD	00H
	DD	2 DUP(00H)
	DD	2 DUP(00H)
	DD	00H
	DD	05H
xdata$x	ENDS
;	COMDAT xdata$x
xdata$x	SEGMENT
__unwindtable$??0?$_Vector_alloc@U?$_Vec_base_types@UVector2D@@V?$allocator@UVector2D@@@std@@@std@@@std@@QAE@$$QAV?$allocator@UVector2D@@@1@@Z DD 0ffffffffH
	DD	FLAT:__unwindfunclet$??0?$_Vector_alloc@U?$_Vec_base_types@UVector2D@@V?$allocator@UVector2D@@@std@@@std@@@std@@QAE@$$QAV?$allocator@UVector2D@@@1@@Z$0
__ehfuncinfo$??0?$_Vector_alloc@U?$_Vec_base_types@UVector2D@@V?$allocator@UVector2D@@@std@@@std@@@std@@QAE@$$QAV?$allocator@UVector2D@@@1@@Z DD 019930522H
	DD	01H
	DD	FLAT:__unwindtable$??0?$_Vector_alloc@U?$_Vec_base_types@UVector2D@@V?$allocator@UVector2D@@@std@@@std@@@std@@QAE@$$QAV?$allocator@UVector2D@@@1@@Z
	DD	2 DUP(00H)
	DD	2 DUP(00H)
	DD	00H
	DD	01H
xdata$x	ENDS
;	COMDAT xdata$x
xdata$x	SEGMENT
__unwindtable$??0?$_Vector_alloc@U?$_Vec_base_types@UVector2D@@V?$allocator@UVector2D@@@std@@@std@@@std@@QAE@ABV?$allocator@UVector2D@@@1@@Z DD 0ffffffffH
	DD	FLAT:__unwindfunclet$??0?$_Vector_alloc@U?$_Vec_base_types@UVector2D@@V?$allocator@UVector2D@@@std@@@std@@@std@@QAE@ABV?$allocator@UVector2D@@@1@@Z$0
__ehfuncinfo$??0?$_Vector_alloc@U?$_Vec_base_types@UVector2D@@V?$allocator@UVector2D@@@std@@@std@@@std@@QAE@ABV?$allocator@UVector2D@@@1@@Z DD 019930522H
	DD	01H
	DD	FLAT:__unwindtable$??0?$_Vector_alloc@U?$_Vec_base_types@UVector2D@@V?$allocator@UVector2D@@@std@@@std@@@std@@QAE@ABV?$allocator@UVector2D@@@1@@Z
	DD	2 DUP(00H)
	DD	2 DUP(00H)
	DD	00H
	DD	01H
xdata$x	ENDS
;	COMDAT xdata$x
xdata$x	SEGMENT
__catchsym$?_Copy@?$basic_string@DU?$char_traits@D@std@@V?$allocator@D@2@@std@@QAEXII@Z$5 DD 040H
	DD	00H
	DD	00H
	DD	FLAT:__catch$?_Copy@?$basic_string@DU?$char_traits@D@std@@V?$allocator@D@2@@std@@QAEXII@Z$0
__catchsym$?_Copy@?$basic_string@DU?$char_traits@D@std@@V?$allocator@D@2@@std@@QAEXII@Z$4 DD 040H
	DD	00H
	DD	00H
	DD	FLAT:__catch$?_Copy@?$basic_string@DU?$char_traits@D@std@@V?$allocator@D@2@@std@@QAEXII@Z$1
__unwindtable$?_Copy@?$basic_string@DU?$char_traits@D@std@@V?$allocator@D@2@@std@@QAEXII@Z DD 0ffffffffH
	DD	00H
	DD	0ffffffffH
	DD	00H
	DD	01H
	DD	00H
	DD	01H
	DD	00H
__ehfuncinfo$?_Copy@?$basic_string@DU?$char_traits@D@std@@V?$allocator@D@2@@std@@QAEXII@Z DD 019930522H
	DD	04H
	DD	FLAT:__unwindtable$?_Copy@?$basic_string@DU?$char_traits@D@std@@V?$allocator@D@2@@std@@QAEXII@Z
	DD	02H
	DD	FLAT:__tryblocktable$?_Copy@?$basic_string@DU?$char_traits@D@std@@V?$allocator@D@2@@std@@QAEXII@Z
	DD	2 DUP(00H)
	DD	00H
	DD	01H
__tryblocktable$?_Copy@?$basic_string@DU?$char_traits@D@std@@V?$allocator@D@2@@std@@QAEXII@Z DD 02H
	DD	02H
	DD	03H
	DD	01H
	DD	FLAT:__catchsym$?_Copy@?$basic_string@DU?$char_traits@D@std@@V?$allocator@D@2@@std@@QAEXII@Z$4
	DD	00H
	DD	00H
	DD	03H
	DD	01H
	DD	FLAT:__catchsym$?_Copy@?$basic_string@DU?$char_traits@D@std@@V?$allocator@D@2@@std@@QAEXII@Z$5
xdata$x	ENDS
;	COMDAT xdata$x
xdata$x	SEGMENT
__ehfuncinfo$?c_str@?$basic_string@DU?$char_traits@D@std@@V?$allocator@D@2@@std@@QBEPBDXZ DD 019930522H
	DD	00H
	DD	00H
	DD	2 DUP(00H)
	DD	2 DUP(00H)
	DD	00H
	DD	05H
xdata$x	ENDS
;	COMDAT xdata$x
xdata$x	SEGMENT
__ehfuncinfo$??1?$basic_string@DU?$char_traits@D@std@@V?$allocator@D@2@@std@@QAE@XZ DD 019930522H
	DD	00H
	DD	00H
	DD	2 DUP(00H)
	DD	2 DUP(00H)
	DD	00H
	DD	05H
xdata$x	ENDS
;	COMDAT xdata$x
xdata$x	SEGMENT
__unwindtable$??0?$basic_string@DU?$char_traits@D@std@@V?$allocator@D@2@@std@@QAE@PBD@Z DD 0ffffffffH
	DD	FLAT:__unwindfunclet$??0?$basic_string@DU?$char_traits@D@std@@V?$allocator@D@2@@std@@QAE@PBD@Z$0
__ehfuncinfo$??0?$basic_string@DU?$char_traits@D@std@@V?$allocator@D@2@@std@@QAE@PBD@Z DD 019930522H
	DD	01H
	DD	FLAT:__unwindtable$??0?$basic_string@DU?$char_traits@D@std@@V?$allocator@D@2@@std@@QAE@PBD@Z
	DD	2 DUP(00H)
	DD	2 DUP(00H)
	DD	00H
	DD	01H
xdata$x	ENDS
;	COMDAT xdata$x
xdata$x	SEGMENT
__ehfuncinfo$??1?$_String_alloc@U?$_String_base_types@DV?$allocator@D@std@@@std@@@std@@QAE@XZ DD 019930522H
	DD	00H
	DD	00H
	DD	2 DUP(00H)
	DD	2 DUP(00H)
	DD	00H
	DD	05H
xdata$x	ENDS
;	COMDAT xdata$x
xdata$x	SEGMENT
__unwindtable$??0?$_String_alloc@U?$_String_base_types@DV?$allocator@D@std@@@std@@@std@@QAE@ABV?$allocator@D@1@@Z DD 0ffffffffH
	DD	FLAT:__unwindfunclet$??0?$_String_alloc@U?$_String_base_types@DV?$allocator@D@std@@@std@@@std@@QAE@ABV?$allocator@D@1@@Z$0
__ehfuncinfo$??0?$_String_alloc@U?$_String_base_types@DV?$allocator@D@std@@@std@@@std@@QAE@ABV?$allocator@D@1@@Z DD 019930522H
	DD	01H
	DD	FLAT:__unwindtable$??0?$_String_alloc@U?$_String_base_types@DV?$allocator@D@std@@@std@@@std@@QAE@ABV?$allocator@D@1@@Z
	DD	2 DUP(00H)
	DD	2 DUP(00H)
	DD	00H
	DD	01H
xdata$x	ENDS
;	COMDAT xdata$x
xdata$x	SEGMENT
__unwindtable$?_Adopt@_Iterator_base12@std@@QAEXPBU_Container_base12@2@@Z DD 0ffffffffH
	DD	FLAT:__unwindfunclet$?_Adopt@_Iterator_base12@std@@QAEXPBU_Container_base12@2@@Z$0
	DD	0ffffffffH
	DD	FLAT:__unwindfunclet$?_Adopt@_Iterator_base12@std@@QAEXPBU_Container_base12@2@@Z$1
__ehfuncinfo$?_Adopt@_Iterator_base12@std@@QAEXPBU_Container_base12@2@@Z DD 019930522H
	DD	02H
	DD	FLAT:__unwindtable$?_Adopt@_Iterator_base12@std@@QAEXPBU_Container_base12@2@@Z
	DD	2 DUP(00H)
	DD	2 DUP(00H)
	DD	00H
	DD	01H
xdata$x	ENDS
;	COMDAT xdata$x
xdata$x	SEGMENT
__ehfuncinfo$??1_Iterator_base12@std@@QAE@XZ DD 019930522H
	DD	00H
	DD	00H
	DD	2 DUP(00H)
	DD	2 DUP(00H)
	DD	00H
	DD	05H
xdata$x	ENDS
;	COMDAT xdata$x
xdata$x	SEGMENT
__unwindtable$??4_Iterator_base12@std@@QAEAAU01@ABU01@@Z DD 0ffffffffH
	DD	FLAT:__unwindfunclet$??4_Iterator_base12@std@@QAEAAU01@ABU01@@Z$0
__ehfuncinfo$??4_Iterator_base12@std@@QAEAAU01@ABU01@@Z DD 019930522H
	DD	01H
	DD	FLAT:__unwindtable$??4_Iterator_base12@std@@QAEAAU01@ABU01@@Z
	DD	2 DUP(00H)
	DD	2 DUP(00H)
	DD	00H
	DD	01H
xdata$x	ENDS
;	COMDAT xdata$x
xdata$x	SEGMENT
__ehfuncinfo$??1_Container_base12@std@@QAE@XZ DD 019930522H
	DD	00H
	DD	00H
	DD	2 DUP(00H)
	DD	2 DUP(00H)
	DD	00H
	DD	05H
xdata$x	ENDS
CRT$XCU	SEGMENT
?MaxDouble$initializer$@@3P6AXXZA DD FLAT:??__EMaxDouble@@YAXXZ ; MaxDouble$initializer$
CRT$XCU	ENDS
CRT$XCU	SEGMENT
?MinDouble$initializer$@@3P6AXXZA DD FLAT:??__EMinDouble@@YAXXZ ; MinDouble$initializer$
CRT$XCU	ENDS
CRT$XCU	SEGMENT
?MaxFloat$initializer$@@3P6AXXZA DD FLAT:??__EMaxFloat@@YAXXZ ; MaxFloat$initializer$
CRT$XCU	ENDS
CRT$XCU	SEGMENT
?MinFloat$initializer$@@3P6AXXZA DD FLAT:??__EMinFloat@@YAXXZ ; MinFloat$initializer$
CRT$XCU	ENDS
; Function compile flags: /Odtp /RTCsu
; File d:\microsoft visual studio 14.0\vc\include\xutility
;	COMDAT ??$_Debug_pointer@UVector2D@@@std@@YAXPAUVector2D@@PB_WI@Z
_TEXT	SEGMENT
__Ptr$ = 8						; size = 4
__File$ = 12						; size = 4
__Line$ = 16						; size = 4
??$_Debug_pointer@UVector2D@@@std@@YAXPAUVector2D@@PB_WI@Z PROC ; std::_Debug_pointer<Vector2D>, COMDAT

; 760  : 	{	// test pointer for non-singularity, pointers

	push	ebp
	mov	ebp, esp

; 761  : 	if (_Ptr == 0)

	cmp	DWORD PTR __Ptr$[ebp], 0
	jne	SHORT $LN1@Debug_poin

; 762  : 		_DEBUG_ERROR2("invalid null pointer", _File, _Line);

	mov	eax, DWORD PTR __Line$[ebp]
	push	eax
	mov	ecx, DWORD PTR __File$[ebp]
	push	ecx
	push	OFFSET ??_C@_1CK@EOPGIILJ@?$AAi?$AAn?$AAv?$AAa?$AAl?$AAi?$AAd?$AA?5?$AAn?$AAu?$AAl?$AAl?$AA?5?$AAp?$AAo?$AAi?$AAn?$AAt?$AAe?$AAr?$AA?$AA@
	call	?_Debug_message@std@@YAXPB_W0I@Z	; std::_Debug_message
	add	esp, 12					; 0000000cH
$LN1@Debug_poin:

; 763  : 	}

	cmp	ebp, esp
	call	__RTC_CheckEsp
	pop	ebp
	ret	0
??$_Debug_pointer@UVector2D@@@std@@YAXPAUVector2D@@PB_WI@Z ENDP ; std::_Debug_pointer<Vector2D>
_TEXT	ENDS
; Function compile flags: /Odtp /RTCsu
; File d:\microsoft visual studio 14.0\vc\include\xutility
;	COMDAT ??$_Debug_pointer@$$CBUVector2D@@@std@@YAXPBUVector2D@@PB_WI@Z
_TEXT	SEGMENT
__Ptr$ = 8						; size = 4
__File$ = 12						; size = 4
__Line$ = 16						; size = 4
??$_Debug_pointer@$$CBUVector2D@@@std@@YAXPBUVector2D@@PB_WI@Z PROC ; std::_Debug_pointer<Vector2D const >, COMDAT

; 760  : 	{	// test pointer for non-singularity, pointers

	push	ebp
	mov	ebp, esp

; 761  : 	if (_Ptr == 0)

	cmp	DWORD PTR __Ptr$[ebp], 0
	jne	SHORT $LN1@Debug_poin

; 762  : 		_DEBUG_ERROR2("invalid null pointer", _File, _Line);

	mov	eax, DWORD PTR __Line$[ebp]
	push	eax
	mov	ecx, DWORD PTR __File$[ebp]
	push	ecx
	push	OFFSET ??_C@_1CK@EOPGIILJ@?$AAi?$AAn?$AAv?$AAa?$AAl?$AAi?$AAd?$AA?5?$AAn?$AAu?$AAl?$AAl?$AA?5?$AAp?$AAo?$AAi?$AAn?$AAt?$AAe?$AAr?$AA?$AA@
	call	?_Debug_message@std@@YAXPB_W0I@Z	; std::_Debug_message
	add	esp, 12					; 0000000cH
$LN1@Debug_poin:

; 763  : 	}

	cmp	ebp, esp
	call	__RTC_CheckEsp
	pop	ebp
	ret	0
??$_Debug_pointer@$$CBUVector2D@@@std@@YAXPBUVector2D@@PB_WI@Z ENDP ; std::_Debug_pointer<Vector2D const >
_TEXT	ENDS
; Function compile flags: /Odtp /RTCsu
; File d:\microsoft visual studio 14.0\vc\include\xutility
;	COMDAT ??$_Debug_range_ptr2@PAUVector2D@@PAU1@@std@@YAXPAUVector2D@@0AAPAU1@PB_WIUrandom_access_iterator_tag@0@@Z
_TEXT	SEGMENT
__First$ = 8						; size = 4
__Last$ = 12						; size = 4
__Ptr$ = 16						; size = 4
__File$ = 20						; size = 4
__Line$ = 24						; size = 4
___formal$ = 28						; size = 1
??$_Debug_range_ptr2@PAUVector2D@@PAU1@@std@@YAXPAUVector2D@@0AAPAU1@PB_WIUrandom_access_iterator_tag@0@@Z PROC ; std::_Debug_range_ptr2<Vector2D *,Vector2D *>, COMDAT

; 822  : 	{	// test iterator pair for valid range/pointer, random-access iterators

	push	ebp
	mov	ebp, esp

; 823  : 	if (_First != _Last)

	mov	eax, DWORD PTR __First$[ebp]
	cmp	eax, DWORD PTR __Last$[ebp]
	je	SHORT $LN1@Debug_rang

; 824  : 		{	// check for non-null pointers, valid range
; 825  : 		_DEBUG_POINTER2(_First, _File, _Line);

	mov	ecx, DWORD PTR __Line$[ebp]
	push	ecx
	mov	edx, DWORD PTR __File$[ebp]
	push	edx
	mov	eax, DWORD PTR __First$[ebp]
	push	eax
	call	??$_Debug_pointer@UVector2D@@@std@@YAXPAUVector2D@@PB_WI@Z ; std::_Debug_pointer<Vector2D>
	add	esp, 12					; 0000000cH

; 826  : 		_DEBUG_POINTER2(_Last, _File, _Line);

	mov	ecx, DWORD PTR __Line$[ebp]
	push	ecx
	mov	edx, DWORD PTR __File$[ebp]
	push	edx
	mov	eax, DWORD PTR __Last$[ebp]
	push	eax
	call	??$_Debug_pointer@UVector2D@@@std@@YAXPAUVector2D@@PB_WI@Z ; std::_Debug_pointer<Vector2D>
	add	esp, 12					; 0000000cH

; 827  : 		if (_Last < _First)

	mov	ecx, DWORD PTR __Last$[ebp]
	cmp	ecx, DWORD PTR __First$[ebp]
	jae	SHORT $LN3@Debug_rang

; 828  : 			_DEBUG_ERROR2("invalid iterator range", _File, _Line);

	mov	edx, DWORD PTR __Line$[ebp]
	push	edx
	mov	eax, DWORD PTR __File$[ebp]
	push	eax
	push	OFFSET ??_C@_1CO@DGLIKNHI@?$AAi?$AAn?$AAv?$AAa?$AAl?$AAi?$AAd?$AA?5?$AAi?$AAt?$AAe?$AAr?$AAa?$AAt?$AAo?$AAr?$AA?5?$AAr?$AAa?$AAn?$AAg?$AAe?$AA?$AA@
	call	?_Debug_message@std@@YAXPB_W0I@Z	; std::_Debug_message
	add	esp, 12					; 0000000cH
$LN3@Debug_rang:

; 829  : 		_DEBUG_POINTER2(_Ptr, _File, _Line);	// test only if used

	mov	ecx, DWORD PTR __Line$[ebp]
	push	ecx
	mov	edx, DWORD PTR __File$[ebp]
	push	edx
	mov	eax, DWORD PTR __Ptr$[ebp]
	mov	ecx, DWORD PTR [eax]
	push	ecx
	call	??$_Debug_pointer@UVector2D@@@std@@YAXPAUVector2D@@PB_WI@Z ; std::_Debug_pointer<Vector2D>
	add	esp, 12					; 0000000cH
$LN1@Debug_rang:

; 830  : 		}
; 831  : 	}

	cmp	ebp, esp
	call	__RTC_CheckEsp
	pop	ebp
	ret	0
??$_Debug_range_ptr2@PAUVector2D@@PAU1@@std@@YAXPAUVector2D@@0AAPAU1@PB_WIUrandom_access_iterator_tag@0@@Z ENDP ; std::_Debug_range_ptr2<Vector2D *,Vector2D *>
_TEXT	ENDS
; Function compile flags: /Odtp /RTCsu
; File d:\microsoft visual studio 14.0\vc\include\xutility
;	COMDAT ??$_Iter_cat@PAUVector2D@@@std@@YA?AUrandom_access_iterator_tag@0@ABQAUVector2D@@@Z
_TEXT	SEGMENT
__Cat$ = -5						; size = 1
___$ReturnUdt$ = 8					; size = 4
___formal$ = 12						; size = 4
??$_Iter_cat@PAUVector2D@@@std@@YA?AUrandom_access_iterator_tag@0@ABQAUVector2D@@@Z PROC ; std::_Iter_cat<Vector2D *>, COMDAT

; 601  : 	{	// return category from iterator argument

	push	ebp
	mov	ebp, esp
	sub	esp, 12					; 0000000cH
	mov	DWORD PTR [ebp-12], -858993460		; ccccccccH
	mov	DWORD PTR [ebp-8], -858993460		; ccccccccH
	mov	DWORD PTR [ebp-4], -858993460		; ccccccccH

; 602  : 	typename iterator_traits<_Iter>::iterator_category _Cat;
; 603  : 	return (_Cat);

	mov	eax, DWORD PTR ___$ReturnUdt$[ebp]
	mov	cl, BYTE PTR __Cat$[ebp]
	mov	BYTE PTR [eax], cl
	mov	eax, DWORD PTR ___$ReturnUdt$[ebp]

; 604  : 	}

	push	edx
	mov	ecx, ebp
	push	eax
	lea	edx, DWORD PTR $LN5@Iter_cat
	call	@_RTC_CheckStackVars@8
	pop	eax
	pop	edx
	mov	esp, ebp
	pop	ebp
	ret	0
	npad	1
$LN5@Iter_cat:
	DD	1
	DD	$LN4@Iter_cat
$LN4@Iter_cat:
	DD	-5					; fffffffbH
	DD	1
	DD	$LN3@Iter_cat
$LN3@Iter_cat:
	DB	95					; 0000005fH
	DB	67					; 00000043H
	DB	97					; 00000061H
	DB	116					; 00000074H
	DB	0
??$_Iter_cat@PAUVector2D@@@std@@YA?AUrandom_access_iterator_tag@0@ABQAUVector2D@@@Z ENDP ; std::_Iter_cat<Vector2D *>
_TEXT	ENDS
; Function compile flags: /Odtp /RTCsu
; File d:\microsoft visual studio 14.0\vc\include\xutility
;	COMDAT ??$_Debug_range_ptr2@PBUVector2D@@PAU1@@std@@YAXPBUVector2D@@0AAPAU1@PB_WIUrandom_access_iterator_tag@0@@Z
_TEXT	SEGMENT
__First$ = 8						; size = 4
__Last$ = 12						; size = 4
__Ptr$ = 16						; size = 4
__File$ = 20						; size = 4
__Line$ = 24						; size = 4
___formal$ = 28						; size = 1
??$_Debug_range_ptr2@PBUVector2D@@PAU1@@std@@YAXPBUVector2D@@0AAPAU1@PB_WIUrandom_access_iterator_tag@0@@Z PROC ; std::_Debug_range_ptr2<Vector2D const *,Vector2D *>, COMDAT

; 822  : 	{	// test iterator pair for valid range/pointer, random-access iterators

	push	ebp
	mov	ebp, esp

; 823  : 	if (_First != _Last)

	mov	eax, DWORD PTR __First$[ebp]
	cmp	eax, DWORD PTR __Last$[ebp]
	je	SHORT $LN1@Debug_rang

; 824  : 		{	// check for non-null pointers, valid range
; 825  : 		_DEBUG_POINTER2(_First, _File, _Line);

	mov	ecx, DWORD PTR __Line$[ebp]
	push	ecx
	mov	edx, DWORD PTR __File$[ebp]
	push	edx
	mov	eax, DWORD PTR __First$[ebp]
	push	eax
	call	??$_Debug_pointer@$$CBUVector2D@@@std@@YAXPBUVector2D@@PB_WI@Z ; std::_Debug_pointer<Vector2D const >
	add	esp, 12					; 0000000cH

; 826  : 		_DEBUG_POINTER2(_Last, _File, _Line);

	mov	ecx, DWORD PTR __Line$[ebp]
	push	ecx
	mov	edx, DWORD PTR __File$[ebp]
	push	edx
	mov	eax, DWORD PTR __Last$[ebp]
	push	eax
	call	??$_Debug_pointer@$$CBUVector2D@@@std@@YAXPBUVector2D@@PB_WI@Z ; std::_Debug_pointer<Vector2D const >
	add	esp, 12					; 0000000cH

; 827  : 		if (_Last < _First)

	mov	ecx, DWORD PTR __Last$[ebp]
	cmp	ecx, DWORD PTR __First$[ebp]
	jae	SHORT $LN3@Debug_rang

; 828  : 			_DEBUG_ERROR2("invalid iterator range", _File, _Line);

	mov	edx, DWORD PTR __Line$[ebp]
	push	edx
	mov	eax, DWORD PTR __File$[ebp]
	push	eax
	push	OFFSET ??_C@_1CO@DGLIKNHI@?$AAi?$AAn?$AAv?$AAa?$AAl?$AAi?$AAd?$AA?5?$AAi?$AAt?$AAe?$AAr?$AAa?$AAt?$AAo?$AAr?$AA?5?$AAr?$AAa?$AAn?$AAg?$AAe?$AA?$AA@
	call	?_Debug_message@std@@YAXPB_W0I@Z	; std::_Debug_message
	add	esp, 12					; 0000000cH
$LN3@Debug_rang:

; 829  : 		_DEBUG_POINTER2(_Ptr, _File, _Line);	// test only if used

	mov	ecx, DWORD PTR __Line$[ebp]
	push	ecx
	mov	edx, DWORD PTR __File$[ebp]
	push	edx
	mov	eax, DWORD PTR __Ptr$[ebp]
	mov	ecx, DWORD PTR [eax]
	push	ecx
	call	??$_Debug_pointer@UVector2D@@@std@@YAXPAUVector2D@@PB_WI@Z ; std::_Debug_pointer<Vector2D>
	add	esp, 12					; 0000000cH
$LN1@Debug_rang:

; 830  : 		}
; 831  : 	}

	cmp	ebp, esp
	call	__RTC_CheckEsp
	pop	ebp
	ret	0
??$_Debug_range_ptr2@PBUVector2D@@PAU1@@std@@YAXPBUVector2D@@0AAPAU1@PB_WIUrandom_access_iterator_tag@0@@Z ENDP ; std::_Debug_range_ptr2<Vector2D const *,Vector2D *>
_TEXT	ENDS
; Function compile flags: /Odtp /RTCsu
; File d:\microsoft visual studio 14.0\vc\include\xutility
;	COMDAT ??$_Iter_cat@PBUVector2D@@@std@@YA?AUrandom_access_iterator_tag@0@ABQBUVector2D@@@Z
_TEXT	SEGMENT
__Cat$ = -5						; size = 1
___$ReturnUdt$ = 8					; size = 4
___formal$ = 12						; size = 4
??$_Iter_cat@PBUVector2D@@@std@@YA?AUrandom_access_iterator_tag@0@ABQBUVector2D@@@Z PROC ; std::_Iter_cat<Vector2D const *>, COMDAT

; 601  : 	{	// return category from iterator argument

	push	ebp
	mov	ebp, esp
	sub	esp, 12					; 0000000cH
	mov	DWORD PTR [ebp-12], -858993460		; ccccccccH
	mov	DWORD PTR [ebp-8], -858993460		; ccccccccH
	mov	DWORD PTR [ebp-4], -858993460		; ccccccccH

; 602  : 	typename iterator_traits<_Iter>::iterator_category _Cat;
; 603  : 	return (_Cat);

	mov	eax, DWORD PTR ___$ReturnUdt$[ebp]
	mov	cl, BYTE PTR __Cat$[ebp]
	mov	BYTE PTR [eax], cl
	mov	eax, DWORD PTR ___$ReturnUdt$[ebp]

; 604  : 	}

	push	edx
	mov	ecx, ebp
	push	eax
	lea	edx, DWORD PTR $LN5@Iter_cat
	call	@_RTC_CheckStackVars@8
	pop	eax
	pop	edx
	mov	esp, ebp
	pop	ebp
	ret	0
	npad	1
$LN5@Iter_cat:
	DD	1
	DD	$LN4@Iter_cat
$LN4@Iter_cat:
	DD	-5					; fffffffbH
	DD	1
	DD	$LN3@Iter_cat
$LN3@Iter_cat:
	DB	95					; 0000005fH
	DB	67					; 00000043H
	DB	97					; 00000061H
	DB	116					; 00000074H
	DB	0
??$_Iter_cat@PBUVector2D@@@std@@YA?AUrandom_access_iterator_tag@0@ABQBUVector2D@@@Z ENDP ; std::_Iter_cat<Vector2D const *>
_TEXT	ENDS
; Function compile flags: /Odtp /RTCsu
; File d:\microsoft visual studio 14.0\vc\include\xmemory0
;	COMDAT ??$destroy@UVector2D@@@?$allocator@UVector2D@@@std@@QAEXPAUVector2D@@@Z
_TEXT	SEGMENT
_this$ = -4						; size = 4
__Ptr$ = 8						; size = 4
??$destroy@UVector2D@@@?$allocator@UVector2D@@@std@@QAEXPAUVector2D@@@Z PROC ; std::allocator<Vector2D>::destroy<Vector2D>, COMDAT
; _this$ = ecx

; 663  : 		{	// destroy object at _Ptr

	push	ebp
	mov	ebp, esp
	push	ecx
	mov	DWORD PTR [ebp-4], -858993460		; ccccccccH
	mov	DWORD PTR _this$[ebp], ecx

; 664  : 		_Ptr->~_Uty();
; 665  : 		}

	mov	esp, ebp
	pop	ebp
	ret	4
??$destroy@UVector2D@@@?$allocator@UVector2D@@@std@@QAEXPAUVector2D@@@Z ENDP ; std::allocator<Vector2D>::destroy<Vector2D>
_TEXT	ENDS
; Function compile flags: /Odtp /RTCsu
; File d:\microsoft visual studio 14.0\vc\include\xutility
;	COMDAT ??$_Debug_range_ptr@PAUVector2D@@PAU1@@std@@YAXPAUVector2D@@0AAPAU1@PB_WI@Z
_TEXT	SEGMENT
$T1 = -1						; size = 1
__First$ = 8						; size = 4
__Last$ = 12						; size = 4
__Ptr$ = 16						; size = 4
__File$ = 20						; size = 4
__Line$ = 24						; size = 4
??$_Debug_range_ptr@PAUVector2D@@PAU1@@std@@YAXPAUVector2D@@0AAPAU1@PB_WI@Z PROC ; std::_Debug_range_ptr<Vector2D *,Vector2D *>, COMDAT

; 837  : 	{	// test iterator pair for valid range/pointer

	push	ebp
	mov	ebp, esp
	push	ecx
	mov	DWORD PTR [ebp-4], -858993460		; ccccccccH

; 838  : 	_Debug_range_ptr2(_First, _Last, _Ptr, _File, _Line, _Iter_cat(_First));

	lea	eax, DWORD PTR __First$[ebp]
	push	eax
	lea	ecx, DWORD PTR $T1[ebp]
	push	ecx
	call	??$_Iter_cat@PAUVector2D@@@std@@YA?AUrandom_access_iterator_tag@0@ABQAUVector2D@@@Z ; std::_Iter_cat<Vector2D *>
	add	esp, 8
	mov	dl, BYTE PTR [eax]
	movzx	eax, dl
	push	eax
	mov	ecx, DWORD PTR __Line$[ebp]
	push	ecx
	mov	edx, DWORD PTR __File$[ebp]
	push	edx
	mov	eax, DWORD PTR __Ptr$[ebp]
	push	eax
	mov	ecx, DWORD PTR __Last$[ebp]
	push	ecx
	mov	edx, DWORD PTR __First$[ebp]
	push	edx
	call	??$_Debug_range_ptr2@PAUVector2D@@PAU1@@std@@YAXPAUVector2D@@0AAPAU1@PB_WIUrandom_access_iterator_tag@0@@Z ; std::_Debug_range_ptr2<Vector2D *,Vector2D *>
	add	esp, 24					; 00000018H

; 839  : 	}

	add	esp, 4
	cmp	ebp, esp
	call	__RTC_CheckEsp
	mov	esp, ebp
	pop	ebp
	ret	0
??$_Debug_range_ptr@PAUVector2D@@PAU1@@std@@YAXPAUVector2D@@0AAPAU1@PB_WI@Z ENDP ; std::_Debug_range_ptr<Vector2D *,Vector2D *>
_TEXT	ENDS
; Function compile flags: /Odtp /RTCsu
; File d:\microsoft visual studio 14.0\vc\include\xmemory0
;	COMDAT ??$construct@UGraveRecord@GraveMarkers@@U12@@?$allocator@U?$_List_node@UGraveRecord@GraveMarkers@@PAX@std@@@std@@QAEXPAUGraveRecord@GraveMarkers@@$$QAU23@@Z
_TEXT	SEGMENT
tv74 = -12						; size = 4
$T1 = -8						; size = 4
_this$ = -4						; size = 4
__Ptr$ = 8						; size = 4
_<_Args_0>$ = 12					; size = 4
??$construct@UGraveRecord@GraveMarkers@@U12@@?$allocator@U?$_List_node@UGraveRecord@GraveMarkers@@PAX@std@@@std@@QAEXPAUGraveRecord@GraveMarkers@@$$QAU23@@Z PROC ; std::allocator<std::_List_node<GraveMarkers::GraveRecord,void *> >::construct<GraveMarkers::GraveRecord,GraveMarkers::GraveRecord>, COMDAT
; _this$ = ecx

; 656  : 		{	// construct _Objty(_Types...) at _Ptr

	push	ebp
	mov	ebp, esp
	sub	esp, 12					; 0000000cH
	mov	DWORD PTR [ebp-12], -858993460		; ccccccccH
	mov	DWORD PTR [ebp-8], -858993460		; ccccccccH
	mov	DWORD PTR [ebp-4], -858993460		; ccccccccH
	mov	DWORD PTR _this$[ebp], ecx

; 657  : 		::new ((void *)_Ptr) _Objty(_STD forward<_Types>(_Args)...);

	mov	eax, DWORD PTR __Ptr$[ebp]
	push	eax
	push	24					; 00000018H
	call	??2@YAPAXIPAX@Z				; operator new
	add	esp, 8
	mov	DWORD PTR $T1[ebp], eax
	cmp	DWORD PTR $T1[ebp], 0
	je	SHORT $LN3@construct
	mov	ecx, DWORD PTR _<_Args_0>$[ebp]
	push	ecx
	call	??$forward@UGraveRecord@GraveMarkers@@@std@@YA$$QAUGraveRecord@GraveMarkers@@AAU12@@Z ; std::forward<GraveMarkers::GraveRecord>
	add	esp, 4
	mov	edx, DWORD PTR $T1[ebp]
	mov	ecx, DWORD PTR [eax]
	mov	DWORD PTR [edx], ecx
	mov	ecx, DWORD PTR [eax+4]
	mov	DWORD PTR [edx+4], ecx
	mov	ecx, DWORD PTR [eax+8]
	mov	DWORD PTR [edx+8], ecx
	mov	ecx, DWORD PTR [eax+12]
	mov	DWORD PTR [edx+12], ecx
	mov	ecx, DWORD PTR [eax+16]
	mov	DWORD PTR [edx+16], ecx
	mov	eax, DWORD PTR [eax+20]
	mov	DWORD PTR [edx+20], eax
	mov	ecx, DWORD PTR $T1[ebp]
	mov	DWORD PTR tv74[ebp], ecx
	jmp	SHORT $LN1@construct
$LN3@construct:
	mov	DWORD PTR tv74[ebp], 0
$LN1@construct:

; 658  : 		}

	add	esp, 12					; 0000000cH
	cmp	ebp, esp
	call	__RTC_CheckEsp
	mov	esp, ebp
	pop	ebp
	ret	8
??$construct@UGraveRecord@GraveMarkers@@U12@@?$allocator@U?$_List_node@UGraveRecord@GraveMarkers@@PAX@std@@@std@@QAEXPAUGraveRecord@GraveMarkers@@$$QAU23@@Z ENDP ; std::allocator<std::_List_node<GraveMarkers::GraveRecord,void *> >::construct<GraveMarkers::GraveRecord,GraveMarkers::GraveRecord>
_TEXT	ENDS
; Function compile flags: /Odtp /RTCsu
; File d:\microsoft visual studio 14.0\vc\include\xutility
;	COMDAT ??$_Debug_range_ptr@PBUVector2D@@PAU1@@std@@YAXPBUVector2D@@0AAPAU1@PB_WI@Z
_TEXT	SEGMENT
$T1 = -1						; size = 1
__First$ = 8						; size = 4
__Last$ = 12						; size = 4
__Ptr$ = 16						; size = 4
__File$ = 20						; size = 4
__Line$ = 24						; size = 4
??$_Debug_range_ptr@PBUVector2D@@PAU1@@std@@YAXPBUVector2D@@0AAPAU1@PB_WI@Z PROC ; std::_Debug_range_ptr<Vector2D const *,Vector2D *>, COMDAT

; 837  : 	{	// test iterator pair for valid range/pointer

	push	ebp
	mov	ebp, esp
	push	ecx
	mov	DWORD PTR [ebp-4], -858993460		; ccccccccH

; 838  : 	_Debug_range_ptr2(_First, _Last, _Ptr, _File, _Line, _Iter_cat(_First));

	lea	eax, DWORD PTR __First$[ebp]
	push	eax
	lea	ecx, DWORD PTR $T1[ebp]
	push	ecx
	call	??$_Iter_cat@PBUVector2D@@@std@@YA?AUrandom_access_iterator_tag@0@ABQBUVector2D@@@Z ; std::_Iter_cat<Vector2D const *>
	add	esp, 8
	mov	dl, BYTE PTR [eax]
	movzx	eax, dl
	push	eax
	mov	ecx, DWORD PTR __Line$[ebp]
	push	ecx
	mov	edx, DWORD PTR __File$[ebp]
	push	edx
	mov	eax, DWORD PTR __Ptr$[ebp]
	push	eax
	mov	ecx, DWORD PTR __Last$[ebp]
	push	ecx
	mov	edx, DWORD PTR __First$[ebp]
	push	edx
	call	??$_Debug_range_ptr2@PBUVector2D@@PAU1@@std@@YAXPBUVector2D@@0AAPAU1@PB_WIUrandom_access_iterator_tag@0@@Z ; std::_Debug_range_ptr2<Vector2D const *,Vector2D *>
	add	esp, 24					; 00000018H

; 839  : 	}

	add	esp, 4
	cmp	ebp, esp
	call	__RTC_CheckEsp
	mov	esp, ebp
	pop	ebp
	ret	0
??$_Debug_range_ptr@PBUVector2D@@PAU1@@std@@YAXPBUVector2D@@0AAPAU1@PB_WI@Z ENDP ; std::_Debug_range_ptr<Vector2D const *,Vector2D *>
_TEXT	ENDS
; Function compile flags: /Odtp /RTCsu
; File d:\microsoft visual studio 14.0\vc\include\xmemory0
;	COMDAT ??$destroy@UVector2D@@@?$allocator_traits@V?$allocator@UVector2D@@@std@@@std@@SAXAAV?$allocator@UVector2D@@@1@PAUVector2D@@@Z
_TEXT	SEGMENT
__Al$ = 8						; size = 4
__Ptr$ = 12						; size = 4
??$destroy@UVector2D@@@?$allocator_traits@V?$allocator@UVector2D@@@std@@@std@@SAXAAV?$allocator@UVector2D@@@1@PAUVector2D@@@Z PROC ; std::allocator_traits<std::allocator<Vector2D> >::destroy<Vector2D>, COMDAT

; 781  : 		{	// destroy object at _Ptr

	push	ebp
	mov	ebp, esp

; 782  : 		_Al.destroy(_Ptr);

	mov	eax, DWORD PTR __Ptr$[ebp]
	push	eax
	mov	ecx, DWORD PTR __Al$[ebp]
	call	??$destroy@UVector2D@@@?$allocator@UVector2D@@@std@@QAEXPAUVector2D@@@Z ; std::allocator<Vector2D>::destroy<Vector2D>

; 783  : 		}

	cmp	ebp, esp
	call	__RTC_CheckEsp
	pop	ebp
	ret	0
??$destroy@UVector2D@@@?$allocator_traits@V?$allocator@UVector2D@@@std@@@std@@SAXAAV?$allocator@UVector2D@@@1@PAUVector2D@@@Z ENDP ; std::allocator_traits<std::allocator<Vector2D> >::destroy<Vector2D>
_TEXT	ENDS
; Function compile flags: /Odtp /RTCsu
; File d:\microsoft visual studio 14.0\vc\include\xmemory
;	COMDAT ??$_Uninit_move@PAUVector2D@@PAU1@V?$allocator@UVector2D@@@std@@U1@@std@@YAPAUVector2D@@PAU1@00AAU?$_Wrap_alloc@V?$allocator@UVector2D@@@std@@@0@0U_Nonscalar_ptr_iterator_tag@0@@Z
_TEXT	SEGMENT
__Next$ = -20						; size = 4
__$EHRec$ = -16						; size = 16
__First$ = 8						; size = 4
__Last$ = 12						; size = 4
__Dest$ = 16						; size = 4
__Al$ = 20						; size = 4
___formal$ = 24						; size = 4
___formal$ = 28						; size = 1
??$_Uninit_move@PAUVector2D@@PAU1@V?$allocator@UVector2D@@@std@@U1@@std@@YAPAUVector2D@@PAU1@00AAU?$_Wrap_alloc@V?$allocator@UVector2D@@@std@@@0@0U_Nonscalar_ptr_iterator_tag@0@@Z PROC ; std::_Uninit_move<Vector2D *,Vector2D *,std::allocator<Vector2D>,Vector2D>, COMDAT

; 437  : 	{	// move [_First, _Last) to raw _Dest, using _Al, arbitrary type

	push	ebp
	mov	ebp, esp
	push	-1
	push	__ehhandler$??$_Uninit_move@PAUVector2D@@PAU1@V?$allocator@UVector2D@@@std@@U1@@std@@YAPAUVector2D@@PAU1@00AAU?$_Wrap_alloc@V?$allocator@UVector2D@@@std@@@0@0U_Nonscalar_ptr_iterator_tag@0@@Z
	mov	eax, DWORD PTR fs:0
	push	eax
	push	ecx
	push	ecx
	push	ebx
	push	esi
	push	edi
	mov	DWORD PTR [ebp-20], -858993460		; ccccccccH
	mov	eax, DWORD PTR ___security_cookie
	xor	eax, ebp
	push	eax
	lea	eax, DWORD PTR __$EHRec$[ebp+4]
	mov	DWORD PTR fs:0, eax
	mov	DWORD PTR __$EHRec$[ebp], esp

; 438  : 	_DEBUG_RANGE_PTR(_First, _Last, _Dest);

	push	438					; 000001b6H
	push	OFFSET ??_C@_1GG@BIHJGGHN@?$AAD?$AA?3?$AA?2?$AAM?$AAi?$AAc?$AAr?$AAo?$AAs?$AAo?$AAf?$AAt?$AA?5?$AAV?$AAi?$AAs?$AAu?$AAa?$AAl?$AA?5?$AAS?$AAt?$AAu?$AAd?$AAi?$AAo?$AA?5?$AA1?$AA4?$AA?4?$AA0?$AA?2@
	lea	eax, DWORD PTR __Dest$[ebp]
	push	eax
	mov	ecx, DWORD PTR __Last$[ebp]
	push	ecx
	mov	edx, DWORD PTR __First$[ebp]
	push	edx
	call	??$_Debug_range_ptr@PAUVector2D@@PAU1@@std@@YAXPAUVector2D@@0AAPAU1@PB_WI@Z ; std::_Debug_range_ptr<Vector2D *,Vector2D *>
	add	esp, 20					; 00000014H

; 439  : 	_FwdIt _Next = _Dest;

	mov	eax, DWORD PTR __Dest$[ebp]
	mov	DWORD PTR __Next$[ebp], eax

; 440  : 
; 441  : 	_TRY_BEGIN

	mov	DWORD PTR __$EHRec$[ebp+12], 0

; 442  : 	for (; _First != _Last; ++_Dest, (void)++_First)

	jmp	SHORT $LN4@Uninit_mov
$LN2@Uninit_mov:
	mov	ecx, DWORD PTR __Dest$[ebp]
	add	ecx, 16					; 00000010H
	mov	DWORD PTR __Dest$[ebp], ecx
	mov	edx, DWORD PTR __First$[ebp]
	add	edx, 16					; 00000010H
	mov	DWORD PTR __First$[ebp], edx
$LN4@Uninit_mov:
	mov	eax, DWORD PTR __First$[ebp]
	cmp	eax, DWORD PTR __Last$[ebp]
	je	SHORT $LN3@Uninit_mov

; 443  : 		_Al.construct(_Dest, (_Valty&&)*_First);

	mov	ecx, DWORD PTR __First$[ebp]
	push	ecx
	mov	edx, DWORD PTR __Dest$[ebp]
	push	edx
	mov	ecx, DWORD PTR __Al$[ebp]
	call	??$construct@UVector2D@@U1@@?$_Wrap_alloc@V?$allocator@UVector2D@@@std@@@std@@QAEXPAUVector2D@@$$QAU2@@Z ; std::_Wrap_alloc<std::allocator<Vector2D> >::construct<Vector2D,Vector2D>
	jmp	SHORT $LN2@Uninit_mov
$LN3@Uninit_mov:
	jmp	SHORT $LN10@Uninit_mov
__catch$??$_Uninit_move@PAUVector2D@@PAU1@V?$allocator@UVector2D@@@std@@U1@@std@@YAPAUVector2D@@PAU1@00AAU?$_Wrap_alloc@V?$allocator@UVector2D@@@std@@@0@0U_Nonscalar_ptr_iterator_tag@0@@Z$0:

; 444  : 	_CATCH_ALL
; 445  : 	for (; _Next != _Dest; ++_Next)

	jmp	SHORT $LN7@Uninit_mov
$LN5@Uninit_mov:
	mov	eax, DWORD PTR __Next$[ebp]
	add	eax, 16					; 00000010H
	mov	DWORD PTR __Next$[ebp], eax
$LN7@Uninit_mov:
	mov	ecx, DWORD PTR __Next$[ebp]
	cmp	ecx, DWORD PTR __Dest$[ebp]
	je	SHORT $LN6@Uninit_mov

; 446  : 		_Al.destroy(_Next);

	mov	edx, DWORD PTR __Next$[ebp]
	push	edx
	mov	ecx, DWORD PTR __Al$[ebp]
	call	??$destroy@UVector2D@@@?$_Wrap_alloc@V?$allocator@UVector2D@@@std@@@std@@QAEXPAUVector2D@@@Z ; std::_Wrap_alloc<std::allocator<Vector2D> >::destroy<Vector2D>
	jmp	SHORT $LN5@Uninit_mov
$LN6@Uninit_mov:

; 447  : 	_RERAISE;

	push	0
	push	0
	call	__CxxThrowException@8

; 448  : 	_CATCH_END

	mov	eax, $LN13@Uninit_mov
	ret	0
$LN10@Uninit_mov:
	mov	DWORD PTR __$EHRec$[ebp+12], -1
	jmp	SHORT __tryend$??$_Uninit_move@PAUVector2D@@PAU1@V?$allocator@UVector2D@@@std@@U1@@std@@YAPAUVector2D@@PAU1@00AAU?$_Wrap_alloc@V?$allocator@UVector2D@@@std@@@0@0U_Nonscalar_ptr_iterator_tag@0@@Z$1
$LN13@Uninit_mov:
	mov	DWORD PTR __$EHRec$[ebp+12], -1
__tryend$??$_Uninit_move@PAUVector2D@@PAU1@V?$allocator@UVector2D@@@std@@U1@@std@@YAPAUVector2D@@PAU1@00AAU?$_Wrap_alloc@V?$allocator@UVector2D@@@std@@@0@0U_Nonscalar_ptr_iterator_tag@0@@Z$1:

; 449  : 	return (_Dest);

	mov	eax, DWORD PTR __Dest$[ebp]
$LN9@Uninit_mov:

; 450  : 	}

	mov	ecx, DWORD PTR __$EHRec$[ebp+4]
	mov	DWORD PTR fs:0, ecx
	pop	ecx
	pop	edi
	pop	esi
	pop	ebx
	add	esp, 20					; 00000014H
	cmp	ebp, esp
	call	__RTC_CheckEsp
	mov	esp, ebp
	pop	ebp
	ret	0
_TEXT	ENDS
;	COMDAT text$x
text$x	SEGMENT
__ehhandler$??$_Uninit_move@PAUVector2D@@PAU1@V?$allocator@UVector2D@@@std@@U1@@std@@YAPAUVector2D@@PAU1@00AAU?$_Wrap_alloc@V?$allocator@UVector2D@@@std@@@0@0U_Nonscalar_ptr_iterator_tag@0@@Z:
	mov	edx, DWORD PTR [esp+8]
	lea	eax, DWORD PTR [edx+12]
	mov	ecx, DWORD PTR [edx-24]
	xor	ecx, eax
	call	@__security_check_cookie@4
	mov	eax, OFFSET __ehfuncinfo$??$_Uninit_move@PAUVector2D@@PAU1@V?$allocator@UVector2D@@@std@@U1@@std@@YAPAUVector2D@@PAU1@00AAU?$_Wrap_alloc@V?$allocator@UVector2D@@@std@@@0@0U_Nonscalar_ptr_iterator_tag@0@@Z
	jmp	___CxxFrameHandler3
text$x	ENDS
??$_Uninit_move@PAUVector2D@@PAU1@V?$allocator@UVector2D@@@std@@U1@@std@@YAPAUVector2D@@PAU1@00AAU?$_Wrap_alloc@V?$allocator@UVector2D@@@std@@@0@0U_Nonscalar_ptr_iterator_tag@0@@Z ENDP ; std::_Uninit_move<Vector2D *,Vector2D *,std::allocator<Vector2D>,Vector2D>
; Function compile flags: /Odtp /RTCsu
; File d:\microsoft visual studio 14.0\vc\include\xutility
;	COMDAT ??$_Val_type@PAUVector2D@@@std@@YAPAUVector2D@@PAU1@@Z
_TEXT	SEGMENT
___formal$ = 8						; size = 4
??$_Val_type@PAUVector2D@@@std@@YAPAUVector2D@@PAU1@@Z PROC ; std::_Val_type<Vector2D *>, COMDAT

; 874  : 	{	// return value type from arbitrary argument

	push	ebp
	mov	ebp, esp

; 875  : 	return (0);

	xor	eax, eax

; 876  : 	}

	pop	ebp
	ret	0
??$_Val_type@PAUVector2D@@@std@@YAPAUVector2D@@PAU1@@Z ENDP ; std::_Val_type<Vector2D *>
_TEXT	ENDS
; Function compile flags: /Odtp /RTCsu
; File d:\microsoft visual studio 14.0\vc\include\xmemory0
;	COMDAT ??$construct@UGraveRecord@GraveMarkers@@U12@@?$allocator_traits@V?$allocator@U?$_List_node@UGraveRecord@GraveMarkers@@PAX@std@@@std@@@std@@SAXAAV?$allocator@U?$_List_node@UGraveRecord@GraveMarkers@@PAX@std@@@1@PAUGraveRecord@GraveMarkers@@$$QAU34@@Z
_TEXT	SEGMENT
__Al$ = 8						; size = 4
__Ptr$ = 12						; size = 4
_<_Args_0>$ = 16					; size = 4
??$construct@UGraveRecord@GraveMarkers@@U12@@?$allocator_traits@V?$allocator@U?$_List_node@UGraveRecord@GraveMarkers@@PAX@std@@@std@@@std@@SAXAAV?$allocator@U?$_List_node@UGraveRecord@GraveMarkers@@PAX@std@@@1@PAUGraveRecord@GraveMarkers@@$$QAU34@@Z PROC ; std::allocator_traits<std::allocator<std::_List_node<GraveMarkers::GraveRecord,void *> > >::construct<GraveMarkers::GraveRecord,GraveMarkers::GraveRecord>, COMDAT

; 774  : 		{	// construct _Objty(_Types...) at _Ptr

	push	ebp
	mov	ebp, esp

; 775  : 		_Al.construct(_Ptr, _STD forward<_Types>(_Args)...);

	mov	eax, DWORD PTR _<_Args_0>$[ebp]
	push	eax
	call	??$forward@UGraveRecord@GraveMarkers@@@std@@YA$$QAUGraveRecord@GraveMarkers@@AAU12@@Z ; std::forward<GraveMarkers::GraveRecord>
	add	esp, 4
	push	eax
	mov	ecx, DWORD PTR __Ptr$[ebp]
	push	ecx
	mov	ecx, DWORD PTR __Al$[ebp]
	call	??$construct@UGraveRecord@GraveMarkers@@U12@@?$allocator@U?$_List_node@UGraveRecord@GraveMarkers@@PAX@std@@@std@@QAEXPAUGraveRecord@GraveMarkers@@$$QAU23@@Z ; std::allocator<std::_List_node<GraveMarkers::GraveRecord,void *> >::construct<GraveMarkers::GraveRecord,GraveMarkers::GraveRecord>

; 776  : 		}

	cmp	ebp, esp
	call	__RTC_CheckEsp
	pop	ebp
	ret	0
??$construct@UGraveRecord@GraveMarkers@@U12@@?$allocator_traits@V?$allocator@U?$_List_node@UGraveRecord@GraveMarkers@@PAX@std@@@std@@@std@@SAXAAV?$allocator@U?$_List_node@UGraveRecord@GraveMarkers@@PAX@std@@@1@PAUGraveRecord@GraveMarkers@@$$QAU34@@Z ENDP ; std::allocator_traits<std::allocator<std::_List_node<GraveMarkers::GraveRecord,void *> > >::construct<GraveMarkers::GraveRecord,GraveMarkers::GraveRecord>
_TEXT	ENDS
; Function compile flags: /Odtp /RTCsu
; File d:\microsoft visual studio 14.0\vc\include\xmemory
;	COMDAT ??$_Uninit_copy@PBUVector2D@@PAU1@V?$allocator@UVector2D@@@std@@@std@@YAPAUVector2D@@PBU1@0PAU1@AAU?$_Wrap_alloc@V?$allocator@UVector2D@@@std@@@0@U_Nonscalar_ptr_iterator_tag@0@@Z
_TEXT	SEGMENT
__Next$ = -20						; size = 4
__$EHRec$ = -16						; size = 16
__First$ = 8						; size = 4
__Last$ = 12						; size = 4
__Dest$ = 16						; size = 4
__Al$ = 20						; size = 4
___formal$ = 24						; size = 1
??$_Uninit_copy@PBUVector2D@@PAU1@V?$allocator@UVector2D@@@std@@@std@@YAPAUVector2D@@PBU1@0PAU1@AAU?$_Wrap_alloc@V?$allocator@UVector2D@@@std@@@0@U_Nonscalar_ptr_iterator_tag@0@@Z PROC ; std::_Uninit_copy<Vector2D const *,Vector2D *,std::allocator<Vector2D> >, COMDAT

; 373  : 	{	// copy [_First, _Last) to raw _Dest, using _Al, arbitrary type

	push	ebp
	mov	ebp, esp
	push	-1
	push	__ehhandler$??$_Uninit_copy@PBUVector2D@@PAU1@V?$allocator@UVector2D@@@std@@@std@@YAPAUVector2D@@PBU1@0PAU1@AAU?$_Wrap_alloc@V?$allocator@UVector2D@@@std@@@0@U_Nonscalar_ptr_iterator_tag@0@@Z
	mov	eax, DWORD PTR fs:0
	push	eax
	push	ecx
	push	ecx
	push	ebx
	push	esi
	push	edi
	mov	DWORD PTR [ebp-20], -858993460		; ccccccccH
	mov	eax, DWORD PTR ___security_cookie
	xor	eax, ebp
	push	eax
	lea	eax, DWORD PTR __$EHRec$[ebp+4]
	mov	DWORD PTR fs:0, eax
	mov	DWORD PTR __$EHRec$[ebp], esp

; 374  : 	_DEBUG_RANGE_PTR(_First, _Last, _Dest);

	push	374					; 00000176H
	push	OFFSET ??_C@_1GG@BIHJGGHN@?$AAD?$AA?3?$AA?2?$AAM?$AAi?$AAc?$AAr?$AAo?$AAs?$AAo?$AAf?$AAt?$AA?5?$AAV?$AAi?$AAs?$AAu?$AAa?$AAl?$AA?5?$AAS?$AAt?$AAu?$AAd?$AAi?$AAo?$AA?5?$AA1?$AA4?$AA?4?$AA0?$AA?2@
	lea	eax, DWORD PTR __Dest$[ebp]
	push	eax
	mov	ecx, DWORD PTR __Last$[ebp]
	push	ecx
	mov	edx, DWORD PTR __First$[ebp]
	push	edx
	call	??$_Debug_range_ptr@PBUVector2D@@PAU1@@std@@YAXPBUVector2D@@0AAPAU1@PB_WI@Z ; std::_Debug_range_ptr<Vector2D const *,Vector2D *>
	add	esp, 20					; 00000014H

; 375  : 	_FwdIt _Next = _Dest;

	mov	eax, DWORD PTR __Dest$[ebp]
	mov	DWORD PTR __Next$[ebp], eax

; 376  : 
; 377  : 	_TRY_BEGIN

	mov	DWORD PTR __$EHRec$[ebp+12], 0

; 378  : 	for (; _First != _Last; ++_Dest, (void)++_First)

	jmp	SHORT $LN4@Uninit_cop
$LN2@Uninit_cop:
	mov	ecx, DWORD PTR __Dest$[ebp]
	add	ecx, 16					; 00000010H
	mov	DWORD PTR __Dest$[ebp], ecx
	mov	edx, DWORD PTR __First$[ebp]
	add	edx, 16					; 00000010H
	mov	DWORD PTR __First$[ebp], edx
$LN4@Uninit_cop:
	mov	eax, DWORD PTR __First$[ebp]
	cmp	eax, DWORD PTR __Last$[ebp]
	je	SHORT $LN3@Uninit_cop

; 379  : 		_Al.construct(_Dest, *_First);

	mov	ecx, DWORD PTR __First$[ebp]
	push	ecx
	mov	edx, DWORD PTR __Dest$[ebp]
	push	edx
	mov	ecx, DWORD PTR __Al$[ebp]
	call	??$construct@UVector2D@@ABU1@@?$_Wrap_alloc@V?$allocator@UVector2D@@@std@@@std@@QAEXPAUVector2D@@ABU2@@Z ; std::_Wrap_alloc<std::allocator<Vector2D> >::construct<Vector2D,Vector2D const &>
	jmp	SHORT $LN2@Uninit_cop
$LN3@Uninit_cop:
	jmp	SHORT $LN10@Uninit_cop
__catch$??$_Uninit_copy@PBUVector2D@@PAU1@V?$allocator@UVector2D@@@std@@@std@@YAPAUVector2D@@PBU1@0PAU1@AAU?$_Wrap_alloc@V?$allocator@UVector2D@@@std@@@0@U_Nonscalar_ptr_iterator_tag@0@@Z$0:

; 380  : 	_CATCH_ALL
; 381  : 	for (; _Next != _Dest; ++_Next)

	jmp	SHORT $LN7@Uninit_cop
$LN5@Uninit_cop:
	mov	eax, DWORD PTR __Next$[ebp]
	add	eax, 16					; 00000010H
	mov	DWORD PTR __Next$[ebp], eax
$LN7@Uninit_cop:
	mov	ecx, DWORD PTR __Next$[ebp]
	cmp	ecx, DWORD PTR __Dest$[ebp]
	je	SHORT $LN6@Uninit_cop

; 382  : 		_Al.destroy(_Next);

	mov	edx, DWORD PTR __Next$[ebp]
	push	edx
	mov	ecx, DWORD PTR __Al$[ebp]
	call	??$destroy@UVector2D@@@?$_Wrap_alloc@V?$allocator@UVector2D@@@std@@@std@@QAEXPAUVector2D@@@Z ; std::_Wrap_alloc<std::allocator<Vector2D> >::destroy<Vector2D>
	jmp	SHORT $LN5@Uninit_cop
$LN6@Uninit_cop:

; 383  : 	_RERAISE;

	push	0
	push	0
	call	__CxxThrowException@8

; 384  : 	_CATCH_END

	mov	eax, $LN13@Uninit_cop
	ret	0
$LN10@Uninit_cop:
	mov	DWORD PTR __$EHRec$[ebp+12], -1
	jmp	SHORT __tryend$??$_Uninit_copy@PBUVector2D@@PAU1@V?$allocator@UVector2D@@@std@@@std@@YAPAUVector2D@@PBU1@0PAU1@AAU?$_Wrap_alloc@V?$allocator@UVector2D@@@std@@@0@U_Nonscalar_ptr_iterator_tag@0@@Z$1
$LN13@Uninit_cop:
	mov	DWORD PTR __$EHRec$[ebp+12], -1
__tryend$??$_Uninit_copy@PBUVector2D@@PAU1@V?$allocator@UVector2D@@@std@@@std@@YAPAUVector2D@@PBU1@0PAU1@AAU?$_Wrap_alloc@V?$allocator@UVector2D@@@std@@@0@U_Nonscalar_ptr_iterator_tag@0@@Z$1:

; 385  : 	return (_Dest);

	mov	eax, DWORD PTR __Dest$[ebp]
$LN9@Uninit_cop:

; 386  : 	}

	mov	ecx, DWORD PTR __$EHRec$[ebp+4]
	mov	DWORD PTR fs:0, ecx
	pop	ecx
	pop	edi
	pop	esi
	pop	ebx
	add	esp, 20					; 00000014H
	cmp	ebp, esp
	call	__RTC_CheckEsp
	mov	esp, ebp
	pop	ebp
	ret	0
_TEXT	ENDS
;	COMDAT text$x
text$x	SEGMENT
__ehhandler$??$_Uninit_copy@PBUVector2D@@PAU1@V?$allocator@UVector2D@@@std@@@std@@YAPAUVector2D@@PBU1@0PAU1@AAU?$_Wrap_alloc@V?$allocator@UVector2D@@@std@@@0@U_Nonscalar_ptr_iterator_tag@0@@Z:
	mov	edx, DWORD PTR [esp+8]
	lea	eax, DWORD PTR [edx+12]
	mov	ecx, DWORD PTR [edx-24]
	xor	ecx, eax
	call	@__security_check_cookie@4
	mov	eax, OFFSET __ehfuncinfo$??$_Uninit_copy@PBUVector2D@@PAU1@V?$allocator@UVector2D@@@std@@@std@@YAPAUVector2D@@PBU1@0PAU1@AAU?$_Wrap_alloc@V?$allocator@UVector2D@@@std@@@0@U_Nonscalar_ptr_iterator_tag@0@@Z
	jmp	___CxxFrameHandler3
text$x	ENDS
??$_Uninit_copy@PBUVector2D@@PAU1@V?$allocator@UVector2D@@@std@@@std@@YAPAUVector2D@@PBU1@0PAU1@AAU?$_Wrap_alloc@V?$allocator@UVector2D@@@std@@@0@U_Nonscalar_ptr_iterator_tag@0@@Z ENDP ; std::_Uninit_copy<Vector2D const *,Vector2D *,std::allocator<Vector2D> >
; Function compile flags: /Odtp /RTCsu
; File d:\microsoft visual studio 14.0\vc\include\xmemory0
;	COMDAT ??$construct@PAU?$_List_node@UGraveRecord@GraveMarkers@@PAX@std@@AAPAU12@@?$allocator@U?$_List_node@UGraveRecord@GraveMarkers@@PAX@std@@@std@@QAEXPAPAU?$_List_node@UGraveRecord@GraveMarkers@@PAX@1@AAPAU21@@Z
_TEXT	SEGMENT
tv73 = -12						; size = 4
$T1 = -8						; size = 4
_this$ = -4						; size = 4
__Ptr$ = 8						; size = 4
_<_Args_0>$ = 12					; size = 4
??$construct@PAU?$_List_node@UGraveRecord@GraveMarkers@@PAX@std@@AAPAU12@@?$allocator@U?$_List_node@UGraveRecord@GraveMarkers@@PAX@std@@@std@@QAEXPAPAU?$_List_node@UGraveRecord@GraveMarkers@@PAX@1@AAPAU21@@Z PROC ; std::allocator<std::_List_node<GraveMarkers::GraveRecord,void *> >::construct<std::_List_node<GraveMarkers::GraveRecord,void *> *,std::_List_node<GraveMarkers::GraveRecord,void *> * &>, COMDAT
; _this$ = ecx

; 656  : 		{	// construct _Objty(_Types...) at _Ptr

	push	ebp
	mov	ebp, esp
	sub	esp, 12					; 0000000cH
	mov	DWORD PTR [ebp-12], -858993460		; ccccccccH
	mov	DWORD PTR [ebp-8], -858993460		; ccccccccH
	mov	DWORD PTR [ebp-4], -858993460		; ccccccccH
	mov	DWORD PTR _this$[ebp], ecx

; 657  : 		::new ((void *)_Ptr) _Objty(_STD forward<_Types>(_Args)...);

	mov	eax, DWORD PTR __Ptr$[ebp]
	push	eax
	push	4
	call	??2@YAPAXIPAX@Z				; operator new
	add	esp, 8
	mov	DWORD PTR $T1[ebp], eax
	cmp	DWORD PTR $T1[ebp], 0
	je	SHORT $LN3@construct
	mov	ecx, DWORD PTR _<_Args_0>$[ebp]
	push	ecx
	call	??$forward@AAPAU?$_List_node@UGraveRecord@GraveMarkers@@PAX@std@@@std@@YAAAPAU?$_List_node@UGraveRecord@GraveMarkers@@PAX@0@AAPAU10@@Z ; std::forward<std::_List_node<GraveMarkers::GraveRecord,void *> * &>
	add	esp, 4
	mov	edx, DWORD PTR $T1[ebp]
	mov	eax, DWORD PTR [eax]
	mov	DWORD PTR [edx], eax
	mov	ecx, DWORD PTR $T1[ebp]
	mov	DWORD PTR tv73[ebp], ecx
	jmp	SHORT $LN1@construct
$LN3@construct:
	mov	DWORD PTR tv73[ebp], 0
$LN1@construct:

; 658  : 		}

	add	esp, 12					; 0000000cH
	cmp	ebp, esp
	call	__RTC_CheckEsp
	mov	esp, ebp
	pop	ebp
	ret	8
??$construct@PAU?$_List_node@UGraveRecord@GraveMarkers@@PAX@std@@AAPAU12@@?$allocator@U?$_List_node@UGraveRecord@GraveMarkers@@PAX@std@@@std@@QAEXPAPAU?$_List_node@UGraveRecord@GraveMarkers@@PAX@1@AAPAU21@@Z ENDP ; std::allocator<std::_List_node<GraveMarkers::GraveRecord,void *> >::construct<std::_List_node<GraveMarkers::GraveRecord,void *> *,std::_List_node<GraveMarkers::GraveRecord,void *> * &>
_TEXT	ENDS
; Function compile flags: /Odtp /RTCsu
; File d:\microsoft visual studio 14.0\vc\include\xmemory0
;	COMDAT ??$destroy@UVector2D@@@?$_Wrap_alloc@V?$allocator@UVector2D@@@std@@@std@@QAEXPAUVector2D@@@Z
_TEXT	SEGMENT
_this$ = -4						; size = 4
__Ptr$ = 8						; size = 4
??$destroy@UVector2D@@@?$_Wrap_alloc@V?$allocator@UVector2D@@@std@@@std@@QAEXPAUVector2D@@@Z PROC ; std::_Wrap_alloc<std::allocator<Vector2D> >::destroy<Vector2D>, COMDAT
; _this$ = ecx

; 926  : 		{	// destroy object at _Ptr

	push	ebp
	mov	ebp, esp
	push	ecx
	mov	DWORD PTR [ebp-4], -858993460		; ccccccccH
	mov	DWORD PTR _this$[ebp], ecx

; 927  : 		_Mytraits::destroy(*this, _Ptr);

	mov	eax, DWORD PTR __Ptr$[ebp]
	push	eax
	mov	ecx, DWORD PTR _this$[ebp]
	push	ecx
	call	??$destroy@UVector2D@@@?$allocator_traits@V?$allocator@UVector2D@@@std@@@std@@SAXAAV?$allocator@UVector2D@@@1@PAUVector2D@@@Z ; std::allocator_traits<std::allocator<Vector2D> >::destroy<Vector2D>
	add	esp, 8

; 928  : 		}

	add	esp, 4
	cmp	ebp, esp
	call	__RTC_CheckEsp
	mov	esp, ebp
	pop	ebp
	ret	4
??$destroy@UVector2D@@@?$_Wrap_alloc@V?$allocator@UVector2D@@@std@@@std@@QAEXPAUVector2D@@@Z ENDP ; std::_Wrap_alloc<std::allocator<Vector2D> >::destroy<Vector2D>
_TEXT	ENDS
; Function compile flags: /Odtp /RTCsu
; File d:\microsoft visual studio 14.0\vc\include\xmemory
;	COMDAT ??$_Uninit_move@PAUVector2D@@PAU1@U?$_Wrap_alloc@V?$allocator@UVector2D@@@std@@@std@@@std@@YAPAUVector2D@@PAU1@00AAU?$_Wrap_alloc@V?$allocator@UVector2D@@@std@@@0@@Z
_TEXT	SEGMENT
$T1 = -1						; size = 1
__First$ = 8						; size = 4
__Last$ = 12						; size = 4
__Dest$ = 16						; size = 4
__Al$ = 20						; size = 4
??$_Uninit_move@PAUVector2D@@PAU1@U?$_Wrap_alloc@V?$allocator@UVector2D@@@std@@@std@@@std@@YAPAUVector2D@@PAU1@00AAU?$_Wrap_alloc@V?$allocator@UVector2D@@@std@@@0@@Z PROC ; std::_Uninit_move<Vector2D *,Vector2D *,std::_Wrap_alloc<std::allocator<Vector2D> > >, COMDAT

; 480  : 	{	// move [_First, _Last) to raw _Dest, using _Al

	push	ebp
	mov	ebp, esp
	push	ecx
	mov	DWORD PTR [ebp-4], -858993460		; ccccccccH

; 481  : 	return (_Uninit_move(_First, _Last, _Dest, _Al,

	mov	eax, DWORD PTR __Dest$[ebp]
	push	eax
	mov	ecx, DWORD PTR __First$[ebp]
	push	ecx
	call	??$_Ptr_cat@UVector2D@@U1@@std@@YA?AU_Nonscalar_ptr_iterator_tag@0@PAUVector2D@@0@Z ; std::_Ptr_cat<Vector2D,Vector2D>
	add	esp, 8
	mov	BYTE PTR $T1[ebp], al
	movzx	edx, BYTE PTR $T1[ebp]
	push	edx
	mov	eax, DWORD PTR __First$[ebp]
	push	eax
	call	??$_Val_type@PAUVector2D@@@std@@YAPAUVector2D@@PAU1@@Z ; std::_Val_type<Vector2D *>
	add	esp, 4
	push	eax
	mov	ecx, DWORD PTR __Al$[ebp]
	push	ecx
	mov	edx, DWORD PTR __Dest$[ebp]
	push	edx
	mov	eax, DWORD PTR __Last$[ebp]
	push	eax
	mov	ecx, DWORD PTR __First$[ebp]
	push	ecx
	call	??$_Uninit_move@PAUVector2D@@PAU1@V?$allocator@UVector2D@@@std@@U1@@std@@YAPAUVector2D@@PAU1@00AAU?$_Wrap_alloc@V?$allocator@UVector2D@@@std@@@0@0U_Nonscalar_ptr_iterator_tag@0@@Z ; std::_Uninit_move<Vector2D *,Vector2D *,std::allocator<Vector2D>,Vector2D>
	add	esp, 24					; 00000018H

; 482  : 		_Val_type(_First), _Ptr_cat(_First, _Dest)));
; 483  : 	}

	add	esp, 4
	cmp	ebp, esp
	call	__RTC_CheckEsp
	mov	esp, ebp
	pop	ebp
	ret	0
??$_Uninit_move@PAUVector2D@@PAU1@U?$_Wrap_alloc@V?$allocator@UVector2D@@@std@@@std@@@std@@YAPAUVector2D@@PAU1@00AAU?$_Wrap_alloc@V?$allocator@UVector2D@@@std@@@0@@Z ENDP ; std::_Uninit_move<Vector2D *,Vector2D *,std::_Wrap_alloc<std::allocator<Vector2D> > >
_TEXT	ENDS
; Function compile flags: /Odtp /RTCsu
; File d:\microsoft visual studio 14.0\vc\include\xmemory0
;	COMDAT ??$construct@U_Container_proxy@std@@U12@@?$allocator@U_Container_proxy@std@@@std@@QAEXPAU_Container_proxy@1@$$QAU21@@Z
_TEXT	SEGMENT
tv74 = -12						; size = 4
$T1 = -8						; size = 4
_this$ = -4						; size = 4
__Ptr$ = 8						; size = 4
_<_Args_0>$ = 12					; size = 4
??$construct@U_Container_proxy@std@@U12@@?$allocator@U_Container_proxy@std@@@std@@QAEXPAU_Container_proxy@1@$$QAU21@@Z PROC ; std::allocator<std::_Container_proxy>::construct<std::_Container_proxy,std::_Container_proxy>, COMDAT
; _this$ = ecx

; 656  : 		{	// construct _Objty(_Types...) at _Ptr

	push	ebp
	mov	ebp, esp
	sub	esp, 12					; 0000000cH
	mov	DWORD PTR [ebp-12], -858993460		; ccccccccH
	mov	DWORD PTR [ebp-8], -858993460		; ccccccccH
	mov	DWORD PTR [ebp-4], -858993460		; ccccccccH
	mov	DWORD PTR _this$[ebp], ecx

; 657  : 		::new ((void *)_Ptr) _Objty(_STD forward<_Types>(_Args)...);

	mov	eax, DWORD PTR __Ptr$[ebp]
	push	eax
	push	8
	call	??2@YAPAXIPAX@Z				; operator new
	add	esp, 8
	mov	DWORD PTR $T1[ebp], eax
	cmp	DWORD PTR $T1[ebp], 0
	je	SHORT $LN3@construct
	mov	ecx, DWORD PTR _<_Args_0>$[ebp]
	push	ecx
	call	??$forward@U_Container_proxy@std@@@std@@YA$$QAU_Container_proxy@0@AAU10@@Z ; std::forward<std::_Container_proxy>
	add	esp, 4
	mov	edx, DWORD PTR [eax]
	mov	eax, DWORD PTR [eax+4]
	mov	ecx, DWORD PTR $T1[ebp]
	mov	DWORD PTR [ecx], edx
	mov	DWORD PTR [ecx+4], eax
	mov	edx, DWORD PTR $T1[ebp]
	mov	DWORD PTR tv74[ebp], edx
	jmp	SHORT $LN1@construct
$LN3@construct:
	mov	DWORD PTR tv74[ebp], 0
$LN1@construct:

; 658  : 		}

	add	esp, 12					; 0000000cH
	cmp	ebp, esp
	call	__RTC_CheckEsp
	mov	esp, ebp
	pop	ebp
	ret	8
??$construct@U_Container_proxy@std@@U12@@?$allocator@U_Container_proxy@std@@@std@@QAEXPAU_Container_proxy@1@$$QAU21@@Z ENDP ; std::allocator<std::_Container_proxy>::construct<std::_Container_proxy,std::_Container_proxy>
_TEXT	ENDS
; Function compile flags: /Odtp /RTCsu
; File d:\microsoft visual studio 14.0\vc\include\xmemory0
;	COMDAT ??$destroy@U_Container_proxy@std@@@?$allocator@U_Container_proxy@std@@@std@@QAEXPAU_Container_proxy@1@@Z
_TEXT	SEGMENT
_this$ = -4						; size = 4
__Ptr$ = 8						; size = 4
??$destroy@U_Container_proxy@std@@@?$allocator@U_Container_proxy@std@@@std@@QAEXPAU_Container_proxy@1@@Z PROC ; std::allocator<std::_Container_proxy>::destroy<std::_Container_proxy>, COMDAT
; _this$ = ecx

; 663  : 		{	// destroy object at _Ptr

	push	ebp
	mov	ebp, esp
	push	ecx
	mov	DWORD PTR [ebp-4], -858993460		; ccccccccH
	mov	DWORD PTR _this$[ebp], ecx

; 664  : 		_Ptr->~_Uty();
; 665  : 		}

	mov	esp, ebp
	pop	ebp
	ret	4
??$destroy@U_Container_proxy@std@@@?$allocator@U_Container_proxy@std@@@std@@QAEXPAU_Container_proxy@1@@Z ENDP ; std::allocator<std::_Container_proxy>::destroy<std::_Container_proxy>
_TEXT	ENDS
; Function compile flags: /Odtp /RTCsu
; File d:\microsoft visual studio 14.0\vc\include\xmemory0
;	COMDAT ??$construct@PADAAPAD@?$allocator@D@std@@QAEXPAPADAAPAD@Z
_TEXT	SEGMENT
tv73 = -12						; size = 4
$T1 = -8						; size = 4
_this$ = -4						; size = 4
__Ptr$ = 8						; size = 4
_<_Args_0>$ = 12					; size = 4
??$construct@PADAAPAD@?$allocator@D@std@@QAEXPAPADAAPAD@Z PROC ; std::allocator<char>::construct<char *,char * &>, COMDAT
; _this$ = ecx

; 656  : 		{	// construct _Objty(_Types...) at _Ptr

	push	ebp
	mov	ebp, esp
	sub	esp, 12					; 0000000cH
	mov	DWORD PTR [ebp-12], -858993460		; ccccccccH
	mov	DWORD PTR [ebp-8], -858993460		; ccccccccH
	mov	DWORD PTR [ebp-4], -858993460		; ccccccccH
	mov	DWORD PTR _this$[ebp], ecx

; 657  : 		::new ((void *)_Ptr) _Objty(_STD forward<_Types>(_Args)...);

	mov	eax, DWORD PTR __Ptr$[ebp]
	push	eax
	push	4
	call	??2@YAPAXIPAX@Z				; operator new
	add	esp, 8
	mov	DWORD PTR $T1[ebp], eax
	cmp	DWORD PTR $T1[ebp], 0
	je	SHORT $LN3@construct
	mov	ecx, DWORD PTR _<_Args_0>$[ebp]
	push	ecx
	call	??$forward@AAPAD@std@@YAAAPADAAPAD@Z	; std::forward<char * &>
	add	esp, 4
	mov	edx, DWORD PTR $T1[ebp]
	mov	eax, DWORD PTR [eax]
	mov	DWORD PTR [edx], eax
	mov	ecx, DWORD PTR $T1[ebp]
	mov	DWORD PTR tv73[ebp], ecx
	jmp	SHORT $LN1@construct
$LN3@construct:
	mov	DWORD PTR tv73[ebp], 0
$LN1@construct:

; 658  : 		}

	add	esp, 12					; 0000000cH
	cmp	ebp, esp
	call	__RTC_CheckEsp
	mov	esp, ebp
	pop	ebp
	ret	8
??$construct@PADAAPAD@?$allocator@D@std@@QAEXPAPADAAPAD@Z ENDP ; std::allocator<char>::construct<char *,char * &>
_TEXT	ENDS
; Function compile flags: /Odtp /RTCsu
; File d:\microsoft visual studio 14.0\vc\include\xmemory0
;	COMDAT ??$destroy@PAD@?$allocator@D@std@@QAEXPAPAD@Z
_TEXT	SEGMENT
_this$ = -4						; size = 4
__Ptr$ = 8						; size = 4
??$destroy@PAD@?$allocator@D@std@@QAEXPAPAD@Z PROC	; std::allocator<char>::destroy<char *>, COMDAT
; _this$ = ecx

; 663  : 		{	// destroy object at _Ptr

	push	ebp
	mov	ebp, esp
	push	ecx
	mov	DWORD PTR [ebp-4], -858993460		; ccccccccH
	mov	DWORD PTR _this$[ebp], ecx

; 664  : 		_Ptr->~_Uty();
; 665  : 		}

	mov	esp, ebp
	pop	ebp
	ret	4
??$destroy@PAD@?$allocator@D@std@@QAEXPAPAD@Z ENDP	; std::allocator<char>::destroy<char *>
_TEXT	ENDS
; Function compile flags: /Odtp /RTCsu
; File d:\microsoft visual studio 14.0\vc\include\xmemory0
;	COMDAT ??$destroy@UGraveRecord@GraveMarkers@@@?$allocator@U?$_List_node@UGraveRecord@GraveMarkers@@PAX@std@@@std@@QAEXPAUGraveRecord@GraveMarkers@@@Z
_TEXT	SEGMENT
_this$ = -4						; size = 4
__Ptr$ = 8						; size = 4
??$destroy@UGraveRecord@GraveMarkers@@@?$allocator@U?$_List_node@UGraveRecord@GraveMarkers@@PAX@std@@@std@@QAEXPAUGraveRecord@GraveMarkers@@@Z PROC ; std::allocator<std::_List_node<GraveMarkers::GraveRecord,void *> >::destroy<GraveMarkers::GraveRecord>, COMDAT
; _this$ = ecx

; 663  : 		{	// destroy object at _Ptr

	push	ebp
	mov	ebp, esp
	push	ecx
	mov	DWORD PTR [ebp-4], -858993460		; ccccccccH
	mov	DWORD PTR _this$[ebp], ecx

; 664  : 		_Ptr->~_Uty();
; 665  : 		}

	mov	esp, ebp
	pop	ebp
	ret	4
??$destroy@UGraveRecord@GraveMarkers@@@?$allocator@U?$_List_node@UGraveRecord@GraveMarkers@@PAX@std@@@std@@QAEXPAUGraveRecord@GraveMarkers@@@Z ENDP ; std::allocator<std::_List_node<GraveMarkers::GraveRecord,void *> >::destroy<GraveMarkers::GraveRecord>
_TEXT	ENDS
; Function compile flags: /Odtp /RTCsu
; File d:\microsoft visual studio 14.0\vc\include\xmemory0
;	COMDAT ??$destroy@PAU?$_List_node@UGraveRecord@GraveMarkers@@PAX@std@@@?$allocator@U?$_List_node@UGraveRecord@GraveMarkers@@PAX@std@@@std@@QAEXPAPAU?$_List_node@UGraveRecord@GraveMarkers@@PAX@1@@Z
_TEXT	SEGMENT
_this$ = -4						; size = 4
__Ptr$ = 8						; size = 4
??$destroy@PAU?$_List_node@UGraveRecord@GraveMarkers@@PAX@std@@@?$allocator@U?$_List_node@UGraveRecord@GraveMarkers@@PAX@std@@@std@@QAEXPAPAU?$_List_node@UGraveRecord@GraveMarkers@@PAX@1@@Z PROC ; std::allocator<std::_List_node<GraveMarkers::GraveRecord,void *> >::destroy<std::_List_node<GraveMarkers::GraveRecord,void *> *>, COMDAT
; _this$ = ecx

; 663  : 		{	// destroy object at _Ptr

	push	ebp
	mov	ebp, esp
	push	ecx
	mov	DWORD PTR [ebp-4], -858993460		; ccccccccH
	mov	DWORD PTR _this$[ebp], ecx

; 664  : 		_Ptr->~_Uty();
; 665  : 		}

	mov	esp, ebp
	pop	ebp
	ret	4
??$destroy@PAU?$_List_node@UGraveRecord@GraveMarkers@@PAX@std@@@?$allocator@U?$_List_node@UGraveRecord@GraveMarkers@@PAX@std@@@std@@QAEXPAPAU?$_List_node@UGraveRecord@GraveMarkers@@PAX@1@@Z ENDP ; std::allocator<std::_List_node<GraveMarkers::GraveRecord,void *> >::destroy<std::_List_node<GraveMarkers::GraveRecord,void *> *>
_TEXT	ENDS
; Function compile flags: /Odtp /RTCsu
; File d:\microsoft visual studio 14.0\vc\include\xmemory0
;	COMDAT ??$construct@UGraveRecord@GraveMarkers@@U12@@?$_Wrap_alloc@V?$allocator@U?$_List_node@UGraveRecord@GraveMarkers@@PAX@std@@@std@@@std@@QAEXPAUGraveRecord@GraveMarkers@@$$QAU23@@Z
_TEXT	SEGMENT
_this$ = -4						; size = 4
__Ptr$ = 8						; size = 4
_<_Args_0>$ = 12					; size = 4
??$construct@UGraveRecord@GraveMarkers@@U12@@?$_Wrap_alloc@V?$allocator@U?$_List_node@UGraveRecord@GraveMarkers@@PAX@std@@@std@@@std@@QAEXPAUGraveRecord@GraveMarkers@@$$QAU23@@Z PROC ; std::_Wrap_alloc<std::allocator<std::_List_node<GraveMarkers::GraveRecord,void *> > >::construct<GraveMarkers::GraveRecord,GraveMarkers::GraveRecord>, COMDAT
; _this$ = ecx

; 918  : 		{	// construct _Ty(_Types...) at _Ptr

	push	ebp
	mov	ebp, esp
	push	ecx
	mov	DWORD PTR [ebp-4], -858993460		; ccccccccH
	mov	DWORD PTR _this$[ebp], ecx

; 919  : 		_Mytraits::construct(*this, _Ptr,

	mov	eax, DWORD PTR _<_Args_0>$[ebp]
	push	eax
	call	??$forward@UGraveRecord@GraveMarkers@@@std@@YA$$QAUGraveRecord@GraveMarkers@@AAU12@@Z ; std::forward<GraveMarkers::GraveRecord>
	add	esp, 4
	push	eax
	mov	ecx, DWORD PTR __Ptr$[ebp]
	push	ecx
	mov	edx, DWORD PTR _this$[ebp]
	push	edx
	call	??$construct@UGraveRecord@GraveMarkers@@U12@@?$allocator_traits@V?$allocator@U?$_List_node@UGraveRecord@GraveMarkers@@PAX@std@@@std@@@std@@SAXAAV?$allocator@U?$_List_node@UGraveRecord@GraveMarkers@@PAX@std@@@1@PAUGraveRecord@GraveMarkers@@$$QAU34@@Z ; std::allocator_traits<std::allocator<std::_List_node<GraveMarkers::GraveRecord,void *> > >::construct<GraveMarkers::GraveRecord,GraveMarkers::GraveRecord>
	add	esp, 12					; 0000000cH

; 920  : 			_STD forward<_Types>(_Args)...);
; 921  : 		}

	add	esp, 4
	cmp	ebp, esp
	call	__RTC_CheckEsp
	mov	esp, ebp
	pop	ebp
	ret	8
??$construct@UGraveRecord@GraveMarkers@@U12@@?$_Wrap_alloc@V?$allocator@U?$_List_node@UGraveRecord@GraveMarkers@@PAX@std@@@std@@@std@@QAEXPAUGraveRecord@GraveMarkers@@$$QAU23@@Z ENDP ; std::_Wrap_alloc<std::allocator<std::_List_node<GraveMarkers::GraveRecord,void *> > >::construct<GraveMarkers::GraveRecord,GraveMarkers::GraveRecord>
_TEXT	ENDS
; Function compile flags: /Odtp /RTCsu
; File d:\microsoft visual studio 14.0\vc\include\xutility
;	COMDAT ??$_Rechecked@PAUVector2D@@PAU1@@std@@YAAAPAUVector2D@@AAPAU1@PAU1@@Z
_TEXT	SEGMENT
__Dest$ = 8						; size = 4
__Src$ = 12						; size = 4
??$_Rechecked@PAUVector2D@@PAU1@@std@@YAAAPAUVector2D@@AAPAU1@PAU1@@Z PROC ; std::_Rechecked<Vector2D *,Vector2D *>, COMDAT

; 446  : 	{	// reset checked from unchecked, generic

	push	ebp
	mov	ebp, esp

; 447  : 	_Dest = _Src;

	mov	eax, DWORD PTR __Dest$[ebp]
	mov	ecx, DWORD PTR __Src$[ebp]
	mov	DWORD PTR [eax], ecx

; 448  : 	return (_Dest);

	mov	eax, DWORD PTR __Dest$[ebp]

; 449  : 	}

	pop	ebp
	ret	0
??$_Rechecked@PAUVector2D@@PAU1@@std@@YAAAPAUVector2D@@AAPAU1@PAU1@@Z ENDP ; std::_Rechecked<Vector2D *,Vector2D *>
_TEXT	ENDS
; Function compile flags: /Odtp /RTCsu
; File d:\microsoft visual studio 14.0\vc\include\xmemory
;	COMDAT ??$_Uninit_copy@PBUVector2D@@PAU1@U?$_Wrap_alloc@V?$allocator@UVector2D@@@std@@@std@@@std@@YAPAUVector2D@@PBU1@0PAU1@AAU?$_Wrap_alloc@V?$allocator@UVector2D@@@std@@@0@@Z
_TEXT	SEGMENT
$T1 = -1						; size = 1
__First$ = 8						; size = 4
__Last$ = 12						; size = 4
__Dest$ = 16						; size = 4
__Al$ = 20						; size = 4
??$_Uninit_copy@PBUVector2D@@PAU1@U?$_Wrap_alloc@V?$allocator@UVector2D@@@std@@@std@@@std@@YAPAUVector2D@@PBU1@0PAU1@AAU?$_Wrap_alloc@V?$allocator@UVector2D@@@std@@@0@@Z PROC ; std::_Uninit_copy<Vector2D const *,Vector2D *,std::_Wrap_alloc<std::allocator<Vector2D> > >, COMDAT

; 414  : 	{	// copy [_First, _Last) to raw _Dest, using _Al

	push	ebp
	mov	ebp, esp
	push	ecx
	mov	DWORD PTR [ebp-4], -858993460		; ccccccccH

; 415  : 	return (_Uninit_copy(_First, _Last, _Dest, _Al,

	mov	eax, DWORD PTR __Dest$[ebp]
	push	eax
	mov	ecx, DWORD PTR __First$[ebp]
	push	ecx
	call	??$_Ptr_cat@UVector2D@@U1@@std@@YA?AU_Nonscalar_ptr_iterator_tag@0@PBUVector2D@@PAU2@@Z ; std::_Ptr_cat<Vector2D,Vector2D>
	add	esp, 8
	mov	BYTE PTR $T1[ebp], al
	movzx	edx, BYTE PTR $T1[ebp]
	push	edx
	mov	eax, DWORD PTR __Al$[ebp]
	push	eax
	mov	ecx, DWORD PTR __Dest$[ebp]
	push	ecx
	mov	edx, DWORD PTR __Last$[ebp]
	push	edx
	mov	eax, DWORD PTR __First$[ebp]
	push	eax
	call	??$_Uninit_copy@PBUVector2D@@PAU1@V?$allocator@UVector2D@@@std@@@std@@YAPAUVector2D@@PBU1@0PAU1@AAU?$_Wrap_alloc@V?$allocator@UVector2D@@@std@@@0@U_Nonscalar_ptr_iterator_tag@0@@Z ; std::_Uninit_copy<Vector2D const *,Vector2D *,std::allocator<Vector2D> >
	add	esp, 20					; 00000014H

; 416  : 		_Ptr_cat(_First, _Dest)));
; 417  : 	}

	add	esp, 4
	cmp	ebp, esp
	call	__RTC_CheckEsp
	mov	esp, ebp
	pop	ebp
	ret	0
??$_Uninit_copy@PBUVector2D@@PAU1@U?$_Wrap_alloc@V?$allocator@UVector2D@@@std@@@std@@@std@@YAPAUVector2D@@PBU1@0PAU1@AAU?$_Wrap_alloc@V?$allocator@UVector2D@@@std@@@0@@Z ENDP ; std::_Uninit_copy<Vector2D const *,Vector2D *,std::_Wrap_alloc<std::allocator<Vector2D> > >
_TEXT	ENDS
; Function compile flags: /Odtp /RTCsu
; File d:\microsoft visual studio 14.0\vc\include\xutility
;	COMDAT ??$_Unchecked@PAUVector2D@@@std@@YAPAUVector2D@@PAU1@@Z
_TEXT	SEGMENT
__Src$ = 8						; size = 4
??$_Unchecked@PAUVector2D@@@std@@YAPAUVector2D@@PAU1@@Z PROC ; std::_Unchecked<Vector2D *>, COMDAT

; 438  : 	{	// construct unchecked from checked, generic

	push	ebp
	mov	ebp, esp

; 439  : 	return (_Src);

	mov	eax, DWORD PTR __Src$[ebp]

; 440  : 	}

	pop	ebp
	ret	0
??$_Unchecked@PAUVector2D@@@std@@YAPAUVector2D@@PAU1@@Z ENDP ; std::_Unchecked<Vector2D *>
_TEXT	ENDS
; Function compile flags: /Odtp /RTCsu
; File d:\microsoft visual studio 14.0\vc\include\vector
;	COMDAT ??$_Unchecked@V?$_Vector_val@U?$_Simple_types@UVector2D@@@std@@@std@@@std@@YAPBUVector2D@@V?$_Vector_const_iterator@V?$_Vector_val@U?$_Simple_types@UVector2D@@@std@@@std@@@0@@Z
_TEXT	SEGMENT
$T2 = -16						; size = 4
__$EHRec$ = -12						; size = 12
__Iter$ = 8						; size = 12
??$_Unchecked@V?$_Vector_val@U?$_Simple_types@UVector2D@@@std@@@std@@@std@@YAPBUVector2D@@V?$_Vector_const_iterator@V?$_Vector_val@U?$_Simple_types@UVector2D@@@std@@@std@@@0@@Z PROC ; std::_Unchecked<std::_Vector_val<std::_Simple_types<Vector2D> > >, COMDAT

; 265  : 	{	// convert to unchecked

	push	ebp
	mov	ebp, esp
	push	-1
	push	__ehhandler$??$_Unchecked@V?$_Vector_val@U?$_Simple_types@UVector2D@@@std@@@std@@@std@@YAPBUVector2D@@V?$_Vector_const_iterator@V?$_Vector_val@U?$_Simple_types@UVector2D@@@std@@@std@@@0@@Z
	mov	eax, DWORD PTR fs:0
	push	eax
	push	ecx
	mov	DWORD PTR [ebp-16], -858993460		; ccccccccH
	mov	eax, DWORD PTR ___security_cookie
	xor	eax, ebp
	push	eax
	lea	eax, DWORD PTR __$EHRec$[ebp]
	mov	DWORD PTR fs:0, eax
	mov	DWORD PTR __$EHRec$[ebp+8], 0

; 266  : 	return (_Iter._Unchecked());

	lea	ecx, DWORD PTR __Iter$[ebp]
	call	?_Unchecked@?$_Vector_const_iterator@V?$_Vector_val@U?$_Simple_types@UVector2D@@@std@@@std@@@std@@QBEPBUVector2D@@XZ ; std::_Vector_const_iterator<std::_Vector_val<std::_Simple_types<Vector2D> > >::_Unchecked
	mov	DWORD PTR $T2[ebp], eax
	mov	DWORD PTR __$EHRec$[ebp+8], -1
	lea	ecx, DWORD PTR __Iter$[ebp]
	call	??1?$_Vector_const_iterator@V?$_Vector_val@U?$_Simple_types@UVector2D@@@std@@@std@@@std@@QAE@XZ
	mov	eax, DWORD PTR $T2[ebp]

; 267  : 	}

	mov	ecx, DWORD PTR __$EHRec$[ebp]
	mov	DWORD PTR fs:0, ecx
	pop	ecx
	add	esp, 16					; 00000010H
	cmp	ebp, esp
	call	__RTC_CheckEsp
	mov	esp, ebp
	pop	ebp
	ret	0
_TEXT	ENDS
;	COMDAT text$x
text$x	SEGMENT
__unwindfunclet$??$_Unchecked@V?$_Vector_val@U?$_Simple_types@UVector2D@@@std@@@std@@@std@@YAPBUVector2D@@V?$_Vector_const_iterator@V?$_Vector_val@U?$_Simple_types@UVector2D@@@std@@@std@@@0@@Z$0:
	lea	ecx, DWORD PTR __Iter$[ebp]
	jmp	??1?$_Vector_const_iterator@V?$_Vector_val@U?$_Simple_types@UVector2D@@@std@@@std@@@std@@QAE@XZ
__ehhandler$??$_Unchecked@V?$_Vector_val@U?$_Simple_types@UVector2D@@@std@@@std@@@std@@YAPBUVector2D@@V?$_Vector_const_iterator@V?$_Vector_val@U?$_Simple_types@UVector2D@@@std@@@std@@@0@@Z:
	mov	edx, DWORD PTR [esp+8]
	lea	eax, DWORD PTR [edx+12]
	mov	ecx, DWORD PTR [edx-8]
	xor	ecx, eax
	call	@__security_check_cookie@4
	mov	eax, OFFSET __ehfuncinfo$??$_Unchecked@V?$_Vector_val@U?$_Simple_types@UVector2D@@@std@@@std@@@std@@YAPBUVector2D@@V?$_Vector_const_iterator@V?$_Vector_val@U?$_Simple_types@UVector2D@@@std@@@std@@@0@@Z
	jmp	___CxxFrameHandler3
text$x	ENDS
??$_Unchecked@V?$_Vector_val@U?$_Simple_types@UVector2D@@@std@@@std@@@std@@YAPBUVector2D@@V?$_Vector_const_iterator@V?$_Vector_val@U?$_Simple_types@UVector2D@@@std@@@std@@@0@@Z ENDP ; std::_Unchecked<std::_Vector_val<std::_Simple_types<Vector2D> > >
; Function compile flags: /Odtp /RTCsu
; File d:\microsoft visual studio 14.0\vc\include\xmemory0
;	COMDAT ??$construct@UVector2D@@U1@@?$allocator@UVector2D@@@std@@QAEXPAUVector2D@@$$QAU2@@Z
_TEXT	SEGMENT
tv74 = -12						; size = 4
$T1 = -8						; size = 4
_this$ = -4						; size = 4
__Ptr$ = 8						; size = 4
_<_Args_0>$ = 12					; size = 4
??$construct@UVector2D@@U1@@?$allocator@UVector2D@@@std@@QAEXPAUVector2D@@$$QAU2@@Z PROC ; std::allocator<Vector2D>::construct<Vector2D,Vector2D>, COMDAT
; _this$ = ecx

; 656  : 		{	// construct _Objty(_Types...) at _Ptr

	push	ebp
	mov	ebp, esp
	sub	esp, 12					; 0000000cH
	mov	DWORD PTR [ebp-12], -858993460		; ccccccccH
	mov	DWORD PTR [ebp-8], -858993460		; ccccccccH
	mov	DWORD PTR [ebp-4], -858993460		; ccccccccH
	mov	DWORD PTR _this$[ebp], ecx

; 657  : 		::new ((void *)_Ptr) _Objty(_STD forward<_Types>(_Args)...);

	mov	eax, DWORD PTR __Ptr$[ebp]
	push	eax
	push	16					; 00000010H
	call	??2@YAPAXIPAX@Z				; operator new
	add	esp, 8
	mov	DWORD PTR $T1[ebp], eax
	cmp	DWORD PTR $T1[ebp], 0
	je	SHORT $LN3@construct
	mov	ecx, DWORD PTR _<_Args_0>$[ebp]
	push	ecx
	call	??$forward@UVector2D@@@std@@YA$$QAUVector2D@@AAU1@@Z ; std::forward<Vector2D>
	add	esp, 4
	mov	edx, DWORD PTR $T1[ebp]
	mov	ecx, DWORD PTR [eax]
	mov	DWORD PTR [edx], ecx
	mov	ecx, DWORD PTR [eax+4]
	mov	DWORD PTR [edx+4], ecx
	mov	ecx, DWORD PTR [eax+8]
	mov	DWORD PTR [edx+8], ecx
	mov	eax, DWORD PTR [eax+12]
	mov	DWORD PTR [edx+12], eax
	mov	ecx, DWORD PTR $T1[ebp]
	mov	DWORD PTR tv74[ebp], ecx
	jmp	SHORT $LN1@construct
$LN3@construct:
	mov	DWORD PTR tv74[ebp], 0
$LN1@construct:

; 658  : 		}

	add	esp, 12					; 0000000cH
	cmp	ebp, esp
	call	__RTC_CheckEsp
	mov	esp, ebp
	pop	ebp
	ret	8
??$construct@UVector2D@@U1@@?$allocator@UVector2D@@@std@@QAEXPAUVector2D@@$$QAU2@@Z ENDP ; std::allocator<Vector2D>::construct<Vector2D,Vector2D>
_TEXT	ENDS
; Function compile flags: /Odtp /RTCsu
; File d:\microsoft visual studio 14.0\vc\include\xmemory0
;	COMDAT ??$construct@UVector2D@@ABU1@@?$allocator@UVector2D@@@std@@QAEXPAUVector2D@@ABU2@@Z
_TEXT	SEGMENT
tv74 = -12						; size = 4
$T1 = -8						; size = 4
_this$ = -4						; size = 4
__Ptr$ = 8						; size = 4
_<_Args_0>$ = 12					; size = 4
??$construct@UVector2D@@ABU1@@?$allocator@UVector2D@@@std@@QAEXPAUVector2D@@ABU2@@Z PROC ; std::allocator<Vector2D>::construct<Vector2D,Vector2D const &>, COMDAT
; _this$ = ecx

; 656  : 		{	// construct _Objty(_Types...) at _Ptr

	push	ebp
	mov	ebp, esp
	sub	esp, 12					; 0000000cH
	mov	DWORD PTR [ebp-12], -858993460		; ccccccccH
	mov	DWORD PTR [ebp-8], -858993460		; ccccccccH
	mov	DWORD PTR [ebp-4], -858993460		; ccccccccH
	mov	DWORD PTR _this$[ebp], ecx

; 657  : 		::new ((void *)_Ptr) _Objty(_STD forward<_Types>(_Args)...);

	mov	eax, DWORD PTR __Ptr$[ebp]
	push	eax
	push	16					; 00000010H
	call	??2@YAPAXIPAX@Z				; operator new
	add	esp, 8
	mov	DWORD PTR $T1[ebp], eax
	cmp	DWORD PTR $T1[ebp], 0
	je	SHORT $LN3@construct
	mov	ecx, DWORD PTR _<_Args_0>$[ebp]
	push	ecx
	call	??$forward@ABUVector2D@@@std@@YAABUVector2D@@ABU1@@Z ; std::forward<Vector2D const &>
	add	esp, 4
	mov	edx, DWORD PTR $T1[ebp]
	mov	ecx, DWORD PTR [eax]
	mov	DWORD PTR [edx], ecx
	mov	ecx, DWORD PTR [eax+4]
	mov	DWORD PTR [edx+4], ecx
	mov	ecx, DWORD PTR [eax+8]
	mov	DWORD PTR [edx+8], ecx
	mov	eax, DWORD PTR [eax+12]
	mov	DWORD PTR [edx+12], eax
	mov	ecx, DWORD PTR $T1[ebp]
	mov	DWORD PTR tv74[ebp], ecx
	jmp	SHORT $LN1@construct
$LN3@construct:
	mov	DWORD PTR tv74[ebp], 0
$LN1@construct:

; 658  : 		}

	add	esp, 12					; 0000000cH
	cmp	ebp, esp
	call	__RTC_CheckEsp
	mov	esp, ebp
	pop	ebp
	ret	8
??$construct@UVector2D@@ABU1@@?$allocator@UVector2D@@@std@@QAEXPAUVector2D@@ABU2@@Z ENDP ; std::allocator<Vector2D>::construct<Vector2D,Vector2D const &>
_TEXT	ENDS
; Function compile flags: /Odtp /RTCsu
; File d:\microsoft visual studio 14.0\vc\include\xmemory0
;	COMDAT ??$construct@UVector2D@@AAU1@@?$allocator@UVector2D@@@std@@QAEXPAUVector2D@@AAU2@@Z
_TEXT	SEGMENT
tv74 = -12						; size = 4
$T1 = -8						; size = 4
_this$ = -4						; size = 4
__Ptr$ = 8						; size = 4
_<_Args_0>$ = 12					; size = 4
??$construct@UVector2D@@AAU1@@?$allocator@UVector2D@@@std@@QAEXPAUVector2D@@AAU2@@Z PROC ; std::allocator<Vector2D>::construct<Vector2D,Vector2D &>, COMDAT
; _this$ = ecx

; 656  : 		{	// construct _Objty(_Types...) at _Ptr

	push	ebp
	mov	ebp, esp
	sub	esp, 12					; 0000000cH
	mov	DWORD PTR [ebp-12], -858993460		; ccccccccH
	mov	DWORD PTR [ebp-8], -858993460		; ccccccccH
	mov	DWORD PTR [ebp-4], -858993460		; ccccccccH
	mov	DWORD PTR _this$[ebp], ecx

; 657  : 		::new ((void *)_Ptr) _Objty(_STD forward<_Types>(_Args)...);

	mov	eax, DWORD PTR __Ptr$[ebp]
	push	eax
	push	16					; 00000010H
	call	??2@YAPAXIPAX@Z				; operator new
	add	esp, 8
	mov	DWORD PTR $T1[ebp], eax
	cmp	DWORD PTR $T1[ebp], 0
	je	SHORT $LN3@construct
	mov	ecx, DWORD PTR _<_Args_0>$[ebp]
	push	ecx
	call	??$forward@AAUVector2D@@@std@@YAAAUVector2D@@AAU1@@Z ; std::forward<Vector2D &>
	add	esp, 4
	mov	edx, DWORD PTR $T1[ebp]
	mov	ecx, DWORD PTR [eax]
	mov	DWORD PTR [edx], ecx
	mov	ecx, DWORD PTR [eax+4]
	mov	DWORD PTR [edx+4], ecx
	mov	ecx, DWORD PTR [eax+8]
	mov	DWORD PTR [edx+8], ecx
	mov	eax, DWORD PTR [eax+12]
	mov	DWORD PTR [edx+12], eax
	mov	ecx, DWORD PTR $T1[ebp]
	mov	DWORD PTR tv74[ebp], ecx
	jmp	SHORT $LN1@construct
$LN3@construct:
	mov	DWORD PTR tv74[ebp], 0
$LN1@construct:

; 658  : 		}

	add	esp, 12					; 0000000cH
	cmp	ebp, esp
	call	__RTC_CheckEsp
	mov	esp, ebp
	pop	ebp
	ret	8
??$construct@UVector2D@@AAU1@@?$allocator@UVector2D@@@std@@QAEXPAUVector2D@@AAU2@@Z ENDP ; std::allocator<Vector2D>::construct<Vector2D,Vector2D &>
_TEXT	ENDS
; Function compile flags: /Odtp /RTCsu
; File d:\microsoft visual studio 14.0\vc\include\xmemory0
;	COMDAT ??$construct@PAU?$_List_node@UGraveRecord@GraveMarkers@@PAX@std@@AAPAU12@@?$allocator_traits@V?$allocator@U?$_List_node@UGraveRecord@GraveMarkers@@PAX@std@@@std@@@std@@SAXAAV?$allocator@U?$_List_node@UGraveRecord@GraveMarkers@@PAX@std@@@1@PAPAU?$_List_node@UGraveRecord@GraveMarkers@@PAX@1@AAPAU31@@Z
_TEXT	SEGMENT
__Al$ = 8						; size = 4
__Ptr$ = 12						; size = 4
_<_Args_0>$ = 16					; size = 4
??$construct@PAU?$_List_node@UGraveRecord@GraveMarkers@@PAX@std@@AAPAU12@@?$allocator_traits@V?$allocator@U?$_List_node@UGraveRecord@GraveMarkers@@PAX@std@@@std@@@std@@SAXAAV?$allocator@U?$_List_node@UGraveRecord@GraveMarkers@@PAX@std@@@1@PAPAU?$_List_node@UGraveRecord@GraveMarkers@@PAX@1@AAPAU31@@Z PROC ; std::allocator_traits<std::allocator<std::_List_node<GraveMarkers::GraveRecord,void *> > >::construct<std::_List_node<GraveMarkers::GraveRecord,void *> *,std::_List_node<GraveMarkers::GraveRecord,void *> * &>, COMDAT

; 774  : 		{	// construct _Objty(_Types...) at _Ptr

	push	ebp
	mov	ebp, esp

; 775  : 		_Al.construct(_Ptr, _STD forward<_Types>(_Args)...);

	mov	eax, DWORD PTR _<_Args_0>$[ebp]
	push	eax
	call	??$forward@AAPAU?$_List_node@UGraveRecord@GraveMarkers@@PAX@std@@@std@@YAAAPAU?$_List_node@UGraveRecord@GraveMarkers@@PAX@0@AAPAU10@@Z ; std::forward<std::_List_node<GraveMarkers::GraveRecord,void *> * &>
	add	esp, 4
	push	eax
	mov	ecx, DWORD PTR __Ptr$[ebp]
	push	ecx
	mov	ecx, DWORD PTR __Al$[ebp]
	call	??$construct@PAU?$_List_node@UGraveRecord@GraveMarkers@@PAX@std@@AAPAU12@@?$allocator@U?$_List_node@UGraveRecord@GraveMarkers@@PAX@std@@@std@@QAEXPAPAU?$_List_node@UGraveRecord@GraveMarkers@@PAX@1@AAPAU21@@Z ; std::allocator<std::_List_node<GraveMarkers::GraveRecord,void *> >::construct<std::_List_node<GraveMarkers::GraveRecord,void *> *,std::_List_node<GraveMarkers::GraveRecord,void *> * &>

; 776  : 		}

	cmp	ebp, esp
	call	__RTC_CheckEsp
	pop	ebp
	ret	0
??$construct@PAU?$_List_node@UGraveRecord@GraveMarkers@@PAX@std@@AAPAU12@@?$allocator_traits@V?$allocator@U?$_List_node@UGraveRecord@GraveMarkers@@PAX@std@@@std@@@std@@SAXAAV?$allocator@U?$_List_node@UGraveRecord@GraveMarkers@@PAX@std@@@1@PAPAU?$_List_node@UGraveRecord@GraveMarkers@@PAX@1@AAPAU31@@Z ENDP ; std::allocator_traits<std::allocator<std::_List_node<GraveMarkers::GraveRecord,void *> > >::construct<std::_List_node<GraveMarkers::GraveRecord,void *> *,std::_List_node<GraveMarkers::GraveRecord,void *> * &>
_TEXT	ENDS
; Function compile flags: /Odtp /RTCsu
; File d:\microsoft visual studio 14.0\vc\include\type_traits
;	COMDAT ??$forward@AAPAU?$_List_node@UGraveRecord@GraveMarkers@@PAX@std@@@std@@YAAAPAU?$_List_node@UGraveRecord@GraveMarkers@@PAX@0@AAPAU10@@Z
_TEXT	SEGMENT
__Arg$ = 8						; size = 4
??$forward@AAPAU?$_List_node@UGraveRecord@GraveMarkers@@PAX@std@@@std@@YAAAPAU?$_List_node@UGraveRecord@GraveMarkers@@PAX@0@AAPAU10@@Z PROC ; std::forward<std::_List_node<GraveMarkers::GraveRecord,void *> * &>, COMDAT

; 1293 : 	{	// forward an lvalue as either an lvalue or an rvalue

	push	ebp
	mov	ebp, esp

; 1294 : 	return (static_cast<_Ty&&>(_Arg));

	mov	eax, DWORD PTR __Arg$[ebp]

; 1295 : 	}

	pop	ebp
	ret	0
??$forward@AAPAU?$_List_node@UGraveRecord@GraveMarkers@@PAX@std@@@std@@YAAAPAU?$_List_node@UGraveRecord@GraveMarkers@@PAX@0@AAPAU10@@Z ENDP ; std::forward<std::_List_node<GraveMarkers::GraveRecord,void *> * &>
_TEXT	ENDS
; Function compile flags: /Odtp /RTCsu
; File d:\microsoft visual studio 14.0\vc\include\xmemory0
;	COMDAT ??$_Destroy_range@U?$_Wrap_alloc@V?$allocator@UVector2D@@@std@@@std@@@std@@YAXPAUVector2D@@0AAU?$_Wrap_alloc@V?$allocator@UVector2D@@@std@@@0@U_Nonscalar_ptr_iterator_tag@0@@Z
_TEXT	SEGMENT
__First$ = 8						; size = 4
__Last$ = 12						; size = 4
__Al$ = 16						; size = 4
___formal$ = 20						; size = 1
??$_Destroy_range@U?$_Wrap_alloc@V?$allocator@UVector2D@@@std@@@std@@@std@@YAXPAUVector2D@@0AAU?$_Wrap_alloc@V?$allocator@UVector2D@@@std@@@0@U_Nonscalar_ptr_iterator_tag@0@@Z PROC ; std::_Destroy_range<std::_Wrap_alloc<std::allocator<Vector2D> > >, COMDAT

; 170  : 	{	// destroy [_First, _Last), arbitrary type

	push	ebp
	mov	ebp, esp

; 171  : 	for (; _First != _Last; ++_First)

	jmp	SHORT $LN4@Destroy_ra
$LN2@Destroy_ra:
	mov	eax, DWORD PTR __First$[ebp]
	add	eax, 16					; 00000010H
	mov	DWORD PTR __First$[ebp], eax
$LN4@Destroy_ra:
	mov	ecx, DWORD PTR __First$[ebp]
	cmp	ecx, DWORD PTR __Last$[ebp]
	je	SHORT $LN1@Destroy_ra

; 172  : 		_Al.destroy(_STD addressof(*_First));

	mov	edx, DWORD PTR __First$[ebp]
	push	edx
	call	??$addressof@UVector2D@@@std@@YAPAUVector2D@@AAU1@@Z ; std::addressof<Vector2D>
	add	esp, 4
	push	eax
	mov	ecx, DWORD PTR __Al$[ebp]
	call	??$destroy@UVector2D@@@?$_Wrap_alloc@V?$allocator@UVector2D@@@std@@@std@@QAEXPAUVector2D@@@Z ; std::_Wrap_alloc<std::allocator<Vector2D> >::destroy<Vector2D>
	jmp	SHORT $LN2@Destroy_ra
$LN1@Destroy_ra:

; 173  : 	}

	cmp	ebp, esp
	call	__RTC_CheckEsp
	pop	ebp
	ret	0
??$_Destroy_range@U?$_Wrap_alloc@V?$allocator@UVector2D@@@std@@@std@@@std@@YAXPAUVector2D@@0AAU?$_Wrap_alloc@V?$allocator@UVector2D@@@std@@@0@U_Nonscalar_ptr_iterator_tag@0@@Z ENDP ; std::_Destroy_range<std::_Wrap_alloc<std::allocator<Vector2D> > >
_TEXT	ENDS
; Function compile flags: /Odtp /RTCsu
; File d:\microsoft visual studio 14.0\vc\include\xutility
;	COMDAT ??$_Ptr_cat@UVector2D@@U1@@std@@YA?AU_Nonscalar_ptr_iterator_tag@0@PAUVector2D@@0@Z
_TEXT	SEGMENT
__Cat$ = -5						; size = 1
___formal$ = 8						; size = 4
___formal$ = 12						; size = 4
??$_Ptr_cat@UVector2D@@U1@@std@@YA?AU_Nonscalar_ptr_iterator_tag@0@PAUVector2D@@0@Z PROC ; std::_Ptr_cat<Vector2D,Vector2D>, COMDAT

; 640  : 	{	// return pointer category from pointers

	push	ebp
	mov	ebp, esp
	sub	esp, 12					; 0000000cH
	mov	DWORD PTR [ebp-12], -858993460		; ccccccccH
	mov	DWORD PTR [ebp-8], -858993460		; ccccccccH
	mov	DWORD PTR [ebp-4], -858993460		; ccccccccH

; 641  : 	typename _Ptr_cat_helper<_Elem1, _Elem2>::type _Cat;
; 642  : 	return (_Cat);

	mov	al, BYTE PTR __Cat$[ebp]

; 643  : 	}

	push	edx
	mov	ecx, ebp
	push	eax
	lea	edx, DWORD PTR $LN5@Ptr_cat
	call	@_RTC_CheckStackVars@8
	pop	eax
	pop	edx
	mov	esp, ebp
	pop	ebp
	ret	0
	npad	1
$LN5@Ptr_cat:
	DD	1
	DD	$LN4@Ptr_cat
$LN4@Ptr_cat:
	DD	-5					; fffffffbH
	DD	1
	DD	$LN3@Ptr_cat
$LN3@Ptr_cat:
	DB	95					; 0000005fH
	DB	67					; 00000043H
	DB	97					; 00000061H
	DB	116					; 00000074H
	DB	0
??$_Ptr_cat@UVector2D@@U1@@std@@YA?AU_Nonscalar_ptr_iterator_tag@0@PAUVector2D@@0@Z ENDP ; std::_Ptr_cat<Vector2D,Vector2D>
_TEXT	ENDS
; Function compile flags: /Odtp /RTCsu
; File d:\microsoft visual studio 14.0\vc\include\xutility
;	COMDAT ??$_Ptr_cat@UVector2D@@U1@@std@@YA?AU_Nonscalar_ptr_iterator_tag@0@PBUVector2D@@PAU2@@Z
_TEXT	SEGMENT
__Cat$ = -5						; size = 1
___formal$ = 8						; size = 4
___formal$ = 12						; size = 4
??$_Ptr_cat@UVector2D@@U1@@std@@YA?AU_Nonscalar_ptr_iterator_tag@0@PBUVector2D@@PAU2@@Z PROC ; std::_Ptr_cat<Vector2D,Vector2D>, COMDAT

; 649  : 	{	// return pointer category from pointers

	push	ebp
	mov	ebp, esp
	sub	esp, 12					; 0000000cH
	mov	DWORD PTR [ebp-12], -858993460		; ccccccccH
	mov	DWORD PTR [ebp-8], -858993460		; ccccccccH
	mov	DWORD PTR [ebp-4], -858993460		; ccccccccH

; 650  : 	typename _Ptr_cat_helper<_Elem1, _Elem2>::type _Cat;
; 651  : 	return (_Cat);

	mov	al, BYTE PTR __Cat$[ebp]

; 652  : 	}

	push	edx
	mov	ecx, ebp
	push	eax
	lea	edx, DWORD PTR $LN5@Ptr_cat
	call	@_RTC_CheckStackVars@8
	pop	eax
	pop	edx
	mov	esp, ebp
	pop	ebp
	ret	0
	npad	1
$LN5@Ptr_cat:
	DD	1
	DD	$LN4@Ptr_cat
$LN4@Ptr_cat:
	DD	-5					; fffffffbH
	DD	1
	DD	$LN3@Ptr_cat
$LN3@Ptr_cat:
	DB	95					; 0000005fH
	DB	67					; 00000043H
	DB	97					; 00000061H
	DB	116					; 00000074H
	DB	0
??$_Ptr_cat@UVector2D@@U1@@std@@YA?AU_Nonscalar_ptr_iterator_tag@0@PBUVector2D@@PAU2@@Z ENDP ; std::_Ptr_cat<Vector2D,Vector2D>
_TEXT	ENDS
; Function compile flags: /Odtp /RTCsu
; File d:\microsoft visual studio 14.0\vc\include\xmemory
;	COMDAT ??$_Uninitialized_move@PAUVector2D@@PAU1@U?$_Wrap_alloc@V?$allocator@UVector2D@@@std@@@std@@@std@@YAPAUVector2D@@PAU1@00AAU?$_Wrap_alloc@V?$allocator@UVector2D@@@std@@@0@@Z
_TEXT	SEGMENT
__First$ = 8						; size = 4
__Last$ = 12						; size = 4
__Dest$ = 16						; size = 4
__Al$ = 20						; size = 4
??$_Uninitialized_move@PAUVector2D@@PAU1@U?$_Wrap_alloc@V?$allocator@UVector2D@@@std@@@std@@@std@@YAPAUVector2D@@PAU1@00AAU?$_Wrap_alloc@V?$allocator@UVector2D@@@std@@@0@@Z PROC ; std::_Uninitialized_move<Vector2D *,Vector2D *,std::_Wrap_alloc<std::allocator<Vector2D> > >, COMDAT

; 490  : 	{	// move [_First, _Last) to raw _Dest, using _Al

	push	ebp
	mov	ebp, esp

; 491  : 	return (_Rechecked(_Dest,

	mov	eax, DWORD PTR __Al$[ebp]
	push	eax
	mov	ecx, DWORD PTR __Dest$[ebp]
	push	ecx
	call	??$_Unchecked@PAUVector2D@@@std@@YAPAUVector2D@@PAU1@@Z ; std::_Unchecked<Vector2D *>
	add	esp, 4
	push	eax
	mov	edx, DWORD PTR __Last$[ebp]
	push	edx
	call	??$_Unchecked@PAUVector2D@@@std@@YAPAUVector2D@@PAU1@@Z ; std::_Unchecked<Vector2D *>
	add	esp, 4
	push	eax
	mov	eax, DWORD PTR __First$[ebp]
	push	eax
	call	??$_Unchecked@PAUVector2D@@@std@@YAPAUVector2D@@PAU1@@Z ; std::_Unchecked<Vector2D *>
	add	esp, 4
	push	eax
	call	??$_Uninit_move@PAUVector2D@@PAU1@U?$_Wrap_alloc@V?$allocator@UVector2D@@@std@@@std@@@std@@YAPAUVector2D@@PAU1@00AAU?$_Wrap_alloc@V?$allocator@UVector2D@@@std@@@0@@Z ; std::_Uninit_move<Vector2D *,Vector2D *,std::_Wrap_alloc<std::allocator<Vector2D> > >
	add	esp, 16					; 00000010H
	push	eax
	lea	ecx, DWORD PTR __Dest$[ebp]
	push	ecx
	call	??$_Rechecked@PAUVector2D@@PAU1@@std@@YAAAPAUVector2D@@AAPAU1@PAU1@@Z ; std::_Rechecked<Vector2D *,Vector2D *>
	add	esp, 8
	mov	eax, DWORD PTR [eax]

; 492  : 		_Uninit_move(_Unchecked(_First), _Unchecked(_Last),
; 493  : 			_Unchecked(_Dest), _Al)));
; 494  : 	}

	cmp	ebp, esp
	call	__RTC_CheckEsp
	pop	ebp
	ret	0
??$_Uninitialized_move@PAUVector2D@@PAU1@U?$_Wrap_alloc@V?$allocator@UVector2D@@@std@@@std@@@std@@YAPAUVector2D@@PAU1@00AAU?$_Wrap_alloc@V?$allocator@UVector2D@@@std@@@0@@Z ENDP ; std::_Uninitialized_move<Vector2D *,Vector2D *,std::_Wrap_alloc<std::allocator<Vector2D> > >
_TEXT	ENDS
; Function compile flags: /Odtp /RTCsu
; File d:\microsoft visual studio 14.0\vc\include\xmemory0
;	COMDAT ??$construct@U_Container_proxy@std@@U12@@?$allocator_traits@V?$allocator@U_Container_proxy@std@@@std@@@std@@SAXAAV?$allocator@U_Container_proxy@std@@@1@PAU_Container_proxy@1@$$QAU31@@Z
_TEXT	SEGMENT
__Al$ = 8						; size = 4
__Ptr$ = 12						; size = 4
_<_Args_0>$ = 16					; size = 4
??$construct@U_Container_proxy@std@@U12@@?$allocator_traits@V?$allocator@U_Container_proxy@std@@@std@@@std@@SAXAAV?$allocator@U_Container_proxy@std@@@1@PAU_Container_proxy@1@$$QAU31@@Z PROC ; std::allocator_traits<std::allocator<std::_Container_proxy> >::construct<std::_Container_proxy,std::_Container_proxy>, COMDAT

; 774  : 		{	// construct _Objty(_Types...) at _Ptr

	push	ebp
	mov	ebp, esp

; 775  : 		_Al.construct(_Ptr, _STD forward<_Types>(_Args)...);

	mov	eax, DWORD PTR _<_Args_0>$[ebp]
	push	eax
	call	??$forward@U_Container_proxy@std@@@std@@YA$$QAU_Container_proxy@0@AAU10@@Z ; std::forward<std::_Container_proxy>
	add	esp, 4
	push	eax
	mov	ecx, DWORD PTR __Ptr$[ebp]
	push	ecx
	mov	ecx, DWORD PTR __Al$[ebp]
	call	??$construct@U_Container_proxy@std@@U12@@?$allocator@U_Container_proxy@std@@@std@@QAEXPAU_Container_proxy@1@$$QAU21@@Z ; std::allocator<std::_Container_proxy>::construct<std::_Container_proxy,std::_Container_proxy>

; 776  : 		}

	cmp	ebp, esp
	call	__RTC_CheckEsp
	pop	ebp
	ret	0
??$construct@U_Container_proxy@std@@U12@@?$allocator_traits@V?$allocator@U_Container_proxy@std@@@std@@@std@@SAXAAV?$allocator@U_Container_proxy@std@@@1@PAU_Container_proxy@1@$$QAU31@@Z ENDP ; std::allocator_traits<std::allocator<std::_Container_proxy> >::construct<std::_Container_proxy,std::_Container_proxy>
_TEXT	ENDS
; Function compile flags: /Odtp /RTCsu
; File d:\microsoft visual studio 14.0\vc\include\type_traits
;	COMDAT ??$forward@U_Container_proxy@std@@@std@@YA$$QAU_Container_proxy@0@AAU10@@Z
_TEXT	SEGMENT
__Arg$ = 8						; size = 4
??$forward@U_Container_proxy@std@@@std@@YA$$QAU_Container_proxy@0@AAU10@@Z PROC ; std::forward<std::_Container_proxy>, COMDAT

; 1293 : 	{	// forward an lvalue as either an lvalue or an rvalue

	push	ebp
	mov	ebp, esp

; 1294 : 	return (static_cast<_Ty&&>(_Arg));

	mov	eax, DWORD PTR __Arg$[ebp]

; 1295 : 	}

	pop	ebp
	ret	0
??$forward@U_Container_proxy@std@@@std@@YA$$QAU_Container_proxy@0@AAU10@@Z ENDP ; std::forward<std::_Container_proxy>
_TEXT	ENDS
; Function compile flags: /Odtp /RTCsu
; File d:\microsoft visual studio 14.0\vc\include\xmemory0
;	COMDAT ??$?0UGraveRecord@GraveMarkers@@@?$allocator@U?$_List_node@UGraveRecord@GraveMarkers@@PAX@std@@@std@@QAE@ABV?$allocator@UGraveRecord@GraveMarkers@@@1@@Z
_TEXT	SEGMENT
_this$ = -4						; size = 4
___formal$ = 8						; size = 4
??$?0UGraveRecord@GraveMarkers@@@?$allocator@U?$_List_node@UGraveRecord@GraveMarkers@@PAX@std@@@std@@QAE@ABV?$allocator@UGraveRecord@GraveMarkers@@@1@@Z PROC ; std::allocator<std::_List_node<GraveMarkers::GraveRecord,void *> >::allocator<std::_List_node<GraveMarkers::GraveRecord,void *> ><GraveMarkers::GraveRecord>, COMDAT
; _this$ = ecx

; 629  : 		{	// construct from a related allocator (do nothing)

	push	ebp
	mov	ebp, esp
	push	ecx
	mov	DWORD PTR [ebp-4], -858993460		; ccccccccH
	mov	DWORD PTR _this$[ebp], ecx

; 630  : 		}

	mov	eax, DWORD PTR _this$[ebp]
	mov	esp, ebp
	pop	ebp
	ret	4
??$?0UGraveRecord@GraveMarkers@@@?$allocator@U?$_List_node@UGraveRecord@GraveMarkers@@PAX@std@@@std@@QAE@ABV?$allocator@UGraveRecord@GraveMarkers@@@1@@Z ENDP ; std::allocator<std::_List_node<GraveMarkers::GraveRecord,void *> >::allocator<std::_List_node<GraveMarkers::GraveRecord,void *> ><GraveMarkers::GraveRecord>
_TEXT	ENDS
; Function compile flags: /Odtp /RTCsu
; File d:\microsoft visual studio 14.0\vc\include\xmemory0
;	COMDAT ??$?0V?$allocator@UGraveRecord@GraveMarkers@@@std@@@?$_Wrap_alloc@V?$allocator@U?$_List_node@UGraveRecord@GraveMarkers@@PAX@std@@@std@@@std@@QAE@ABV?$allocator@UGraveRecord@GraveMarkers@@@1@@Z
_TEXT	SEGMENT
_this$ = -4						; size = 4
__Right$ = 8						; size = 4
??$?0V?$allocator@UGraveRecord@GraveMarkers@@@std@@@?$_Wrap_alloc@V?$allocator@U?$_List_node@UGraveRecord@GraveMarkers@@PAX@std@@@std@@@std@@QAE@ABV?$allocator@UGraveRecord@GraveMarkers@@@1@@Z PROC ; std::_Wrap_alloc<std::allocator<std::_List_node<GraveMarkers::GraveRecord,void *> > >::_Wrap_alloc<std::allocator<std::_List_node<GraveMarkers::GraveRecord,void *> > ><std::allocator<GraveMarkers::GraveRecord> >, COMDAT
; _this$ = ecx

; 870  : 		{	// construct from a related allocator

	push	ebp
	mov	ebp, esp
	push	ecx
	mov	DWORD PTR [ebp-4], -858993460		; ccccccccH
	mov	DWORD PTR _this$[ebp], ecx

; 869  : 		: _Mybase(_Right)

	mov	eax, DWORD PTR __Right$[ebp]
	push	eax
	mov	ecx, DWORD PTR _this$[ebp]
	call	??$?0UGraveRecord@GraveMarkers@@@?$allocator@U?$_List_node@UGraveRecord@GraveMarkers@@PAX@std@@@std@@QAE@ABV?$allocator@UGraveRecord@GraveMarkers@@@1@@Z ; std::allocator<std::_List_node<GraveMarkers::GraveRecord,void *> >::allocator<std::_List_node<GraveMarkers::GraveRecord,void *> ><GraveMarkers::GraveRecord>

; 871  : 		}

	mov	eax, DWORD PTR _this$[ebp]
	add	esp, 4
	cmp	ebp, esp
	call	__RTC_CheckEsp
	mov	esp, ebp
	pop	ebp
	ret	4
??$?0V?$allocator@UGraveRecord@GraveMarkers@@@std@@@?$_Wrap_alloc@V?$allocator@U?$_List_node@UGraveRecord@GraveMarkers@@PAX@std@@@std@@@std@@QAE@ABV?$allocator@UGraveRecord@GraveMarkers@@@1@@Z ENDP ; std::_Wrap_alloc<std::allocator<std::_List_node<GraveMarkers::GraveRecord,void *> > >::_Wrap_alloc<std::allocator<std::_List_node<GraveMarkers::GraveRecord,void *> > ><std::allocator<GraveMarkers::GraveRecord> >
_TEXT	ENDS
; Function compile flags: /Odtp /RTCsu
; File d:\microsoft visual studio 14.0\vc\include\type_traits
;	COMDAT ??$forward@ABV?$allocator@UGraveRecord@GraveMarkers@@@std@@@std@@YAABV?$allocator@UGraveRecord@GraveMarkers@@@0@ABV10@@Z
_TEXT	SEGMENT
__Arg$ = 8						; size = 4
??$forward@ABV?$allocator@UGraveRecord@GraveMarkers@@@std@@@std@@YAABV?$allocator@UGraveRecord@GraveMarkers@@@0@ABV10@@Z PROC ; std::forward<std::allocator<GraveMarkers::GraveRecord> const &>, COMDAT

; 1293 : 	{	// forward an lvalue as either an lvalue or an rvalue

	push	ebp
	mov	ebp, esp

; 1294 : 	return (static_cast<_Ty&&>(_Arg));

	mov	eax, DWORD PTR __Arg$[ebp]

; 1295 : 	}

	pop	ebp
	ret	0
??$forward@ABV?$allocator@UGraveRecord@GraveMarkers@@@std@@@std@@YAABV?$allocator@UGraveRecord@GraveMarkers@@@0@ABV10@@Z ENDP ; std::forward<std::allocator<GraveMarkers::GraveRecord> const &>
_TEXT	ENDS
; Function compile flags: /Odtp /RTCsu
; File d:\microsoft visual studio 14.0\vc\include\xmemory0
;	COMDAT ??$destroy@U_Container_proxy@std@@@?$allocator_traits@V?$allocator@U_Container_proxy@std@@@std@@@std@@SAXAAV?$allocator@U_Container_proxy@std@@@1@PAU_Container_proxy@1@@Z
_TEXT	SEGMENT
__Al$ = 8						; size = 4
__Ptr$ = 12						; size = 4
??$destroy@U_Container_proxy@std@@@?$allocator_traits@V?$allocator@U_Container_proxy@std@@@std@@@std@@SAXAAV?$allocator@U_Container_proxy@std@@@1@PAU_Container_proxy@1@@Z PROC ; std::allocator_traits<std::allocator<std::_Container_proxy> >::destroy<std::_Container_proxy>, COMDAT

; 781  : 		{	// destroy object at _Ptr

	push	ebp
	mov	ebp, esp

; 782  : 		_Al.destroy(_Ptr);

	mov	eax, DWORD PTR __Ptr$[ebp]
	push	eax
	mov	ecx, DWORD PTR __Al$[ebp]
	call	??$destroy@U_Container_proxy@std@@@?$allocator@U_Container_proxy@std@@@std@@QAEXPAU_Container_proxy@1@@Z ; std::allocator<std::_Container_proxy>::destroy<std::_Container_proxy>

; 783  : 		}

	cmp	ebp, esp
	call	__RTC_CheckEsp
	pop	ebp
	ret	0
??$destroy@U_Container_proxy@std@@@?$allocator_traits@V?$allocator@U_Container_proxy@std@@@std@@@std@@SAXAAV?$allocator@U_Container_proxy@std@@@1@PAU_Container_proxy@1@@Z ENDP ; std::allocator_traits<std::allocator<std::_Container_proxy> >::destroy<std::_Container_proxy>
_TEXT	ENDS
; Function compile flags: /Odtp /RTCsu
; File d:\microsoft visual studio 14.0\vc\include\xmemory0
;	COMDAT ??$construct@PADAAPAD@?$allocator_traits@V?$allocator@D@std@@@std@@SAXAAV?$allocator@D@1@PAPADAAPAD@Z
_TEXT	SEGMENT
__Al$ = 8						; size = 4
__Ptr$ = 12						; size = 4
_<_Args_0>$ = 16					; size = 4
??$construct@PADAAPAD@?$allocator_traits@V?$allocator@D@std@@@std@@SAXAAV?$allocator@D@1@PAPADAAPAD@Z PROC ; std::allocator_traits<std::allocator<char> >::construct<char *,char * &>, COMDAT

; 774  : 		{	// construct _Objty(_Types...) at _Ptr

	push	ebp
	mov	ebp, esp

; 775  : 		_Al.construct(_Ptr, _STD forward<_Types>(_Args)...);

	mov	eax, DWORD PTR _<_Args_0>$[ebp]
	push	eax
	call	??$forward@AAPAD@std@@YAAAPADAAPAD@Z	; std::forward<char * &>
	add	esp, 4
	push	eax
	mov	ecx, DWORD PTR __Ptr$[ebp]
	push	ecx
	mov	ecx, DWORD PTR __Al$[ebp]
	call	??$construct@PADAAPAD@?$allocator@D@std@@QAEXPAPADAAPAD@Z ; std::allocator<char>::construct<char *,char * &>

; 776  : 		}

	cmp	ebp, esp
	call	__RTC_CheckEsp
	pop	ebp
	ret	0
??$construct@PADAAPAD@?$allocator_traits@V?$allocator@D@std@@@std@@SAXAAV?$allocator@D@1@PAPADAAPAD@Z ENDP ; std::allocator_traits<std::allocator<char> >::construct<char *,char * &>
_TEXT	ENDS
; Function compile flags: /Odtp /RTCsu
; File d:\microsoft visual studio 14.0\vc\include\type_traits
;	COMDAT ??$forward@AAPAD@std@@YAAAPADAAPAD@Z
_TEXT	SEGMENT
__Arg$ = 8						; size = 4
??$forward@AAPAD@std@@YAAAPADAAPAD@Z PROC		; std::forward<char * &>, COMDAT

; 1293 : 	{	// forward an lvalue as either an lvalue or an rvalue

	push	ebp
	mov	ebp, esp

; 1294 : 	return (static_cast<_Ty&&>(_Arg));

	mov	eax, DWORD PTR __Arg$[ebp]

; 1295 : 	}

	pop	ebp
	ret	0
??$forward@AAPAD@std@@YAAAPADAAPAD@Z ENDP		; std::forward<char * &>
_TEXT	ENDS
; Function compile flags: /Odtp /RTCsu
; File d:\microsoft visual studio 14.0\vc\include\xstddef
;	COMDAT ??$_Addressof@D@std@@YAPADAADU?$integral_constant@_N$0A@@0@@Z
_TEXT	SEGMENT
__Val$ = 8						; size = 4
___formal$ = 12						; size = 1
??$_Addressof@D@std@@YAPADAADU?$integral_constant@_N$0A@@0@@Z PROC ; std::_Addressof<char>, COMDAT

; 691  : 	{	// return address of object _Val

	push	ebp
	mov	ebp, esp

; 692  : 	return (reinterpret_cast<_Ty *>(

	mov	eax, DWORD PTR __Val$[ebp]

; 693  : 		&const_cast<char&>(
; 694  : 		reinterpret_cast<const volatile char&>(_Val))));
; 695  : 	}

	pop	ebp
	ret	0
??$_Addressof@D@std@@YAPADAADU?$integral_constant@_N$0A@@0@@Z ENDP ; std::_Addressof<char>
_TEXT	ENDS
; Function compile flags: /Odtp /RTCsu
; File d:\microsoft visual studio 14.0\vc\include\xmemory0
;	COMDAT ??$destroy@PAD@?$allocator_traits@V?$allocator@D@std@@@std@@SAXAAV?$allocator@D@1@PAPAD@Z
_TEXT	SEGMENT
__Al$ = 8						; size = 4
__Ptr$ = 12						; size = 4
??$destroy@PAD@?$allocator_traits@V?$allocator@D@std@@@std@@SAXAAV?$allocator@D@1@PAPAD@Z PROC ; std::allocator_traits<std::allocator<char> >::destroy<char *>, COMDAT

; 781  : 		{	// destroy object at _Ptr

	push	ebp
	mov	ebp, esp

; 782  : 		_Al.destroy(_Ptr);

	mov	eax, DWORD PTR __Ptr$[ebp]
	push	eax
	mov	ecx, DWORD PTR __Al$[ebp]
	call	??$destroy@PAD@?$allocator@D@std@@QAEXPAPAD@Z ; std::allocator<char>::destroy<char *>

; 783  : 		}

	cmp	ebp, esp
	call	__RTC_CheckEsp
	pop	ebp
	ret	0
??$destroy@PAD@?$allocator_traits@V?$allocator@D@std@@@std@@SAXAAV?$allocator@D@1@PAPAD@Z ENDP ; std::allocator_traits<std::allocator<char> >::destroy<char *>
_TEXT	ENDS
; Function compile flags: /Odtp /RTCsu
; File d:\microsoft visual studio 14.0\vc\include\type_traits
;	COMDAT ??$forward@ABV?$allocator@D@std@@@std@@YAABV?$allocator@D@0@ABV10@@Z
_TEXT	SEGMENT
__Arg$ = 8						; size = 4
??$forward@ABV?$allocator@D@std@@@std@@YAABV?$allocator@D@0@ABV10@@Z PROC ; std::forward<std::allocator<char> const &>, COMDAT

; 1293 : 	{	// forward an lvalue as either an lvalue or an rvalue

	push	ebp
	mov	ebp, esp

; 1294 : 	return (static_cast<_Ty&&>(_Arg));

	mov	eax, DWORD PTR __Arg$[ebp]

; 1295 : 	}

	pop	ebp
	ret	0
??$forward@ABV?$allocator@D@std@@@std@@YAABV?$allocator@D@0@ABV10@@Z ENDP ; std::forward<std::allocator<char> const &>
_TEXT	ENDS
; Function compile flags: /Odtp /RTCsu
; File d:\microsoft visual studio 14.0\vc\include\type_traits
;	COMDAT ??$forward@ABV?$allocator@UVector2D@@@std@@@std@@YAABV?$allocator@UVector2D@@@0@ABV10@@Z
_TEXT	SEGMENT
__Arg$ = 8						; size = 4
??$forward@ABV?$allocator@UVector2D@@@std@@@std@@YAABV?$allocator@UVector2D@@@0@ABV10@@Z PROC ; std::forward<std::allocator<Vector2D> const &>, COMDAT

; 1293 : 	{	// forward an lvalue as either an lvalue or an rvalue

	push	ebp
	mov	ebp, esp

; 1294 : 	return (static_cast<_Ty&&>(_Arg));

	mov	eax, DWORD PTR __Arg$[ebp]

; 1295 : 	}

	pop	ebp
	ret	0
??$forward@ABV?$allocator@UVector2D@@@std@@@std@@YAABV?$allocator@UVector2D@@@0@ABV10@@Z ENDP ; std::forward<std::allocator<Vector2D> const &>
_TEXT	ENDS
; Function compile flags: /Odtp /RTCsu
; File d:\microsoft visual studio 14.0\vc\include\type_traits
;	COMDAT ??$forward@V?$allocator@UVector2D@@@std@@@std@@YA$$QAV?$allocator@UVector2D@@@0@AAV10@@Z
_TEXT	SEGMENT
__Arg$ = 8						; size = 4
??$forward@V?$allocator@UVector2D@@@std@@@std@@YA$$QAV?$allocator@UVector2D@@@0@AAV10@@Z PROC ; std::forward<std::allocator<Vector2D> >, COMDAT

; 1293 : 	{	// forward an lvalue as either an lvalue or an rvalue

	push	ebp
	mov	ebp, esp

; 1294 : 	return (static_cast<_Ty&&>(_Arg));

	mov	eax, DWORD PTR __Arg$[ebp]

; 1295 : 	}

	pop	ebp
	ret	0
??$forward@V?$allocator@UVector2D@@@std@@@std@@YA$$QAV?$allocator@UVector2D@@@0@AAV10@@Z ENDP ; std::forward<std::allocator<Vector2D> >
_TEXT	ENDS
; Function compile flags: /Odtp /RTCsu
; File d:\microsoft visual studio 14.0\vc\include\xmemory0
;	COMDAT ??$_Pocma@U?$_Wrap_alloc@V?$allocator@UVector2D@@@std@@@std@@@std@@YAXAAU?$_Wrap_alloc@V?$allocator@UVector2D@@@std@@@0@0U?$integral_constant@_N$00@0@@Z
_TEXT	SEGMENT
__$EHRec$ = -12						; size = 12
__Left$ = 8						; size = 4
__Right$ = 12						; size = 4
___formal$ = 16						; size = 1
??$_Pocma@U?$_Wrap_alloc@V?$allocator@UVector2D@@@std@@@std@@@std@@YAXAAU?$_Wrap_alloc@V?$allocator@UVector2D@@@std@@@0@0U?$integral_constant@_N$00@0@@Z PROC ; std::_Pocma<std::_Wrap_alloc<std::allocator<Vector2D> > >, COMDAT

; 975  : 	{	// propagate on container move assignment

	push	ebp
	mov	ebp, esp
	push	-1
	push	__ehhandler$??$_Pocma@U?$_Wrap_alloc@V?$allocator@UVector2D@@@std@@@std@@@std@@YAXAAU?$_Wrap_alloc@V?$allocator@UVector2D@@@std@@@0@0U?$integral_constant@_N$00@0@@Z
	mov	eax, DWORD PTR fs:0
	push	eax
	mov	eax, DWORD PTR ___security_cookie
	xor	eax, ebp
	push	eax
	lea	eax, DWORD PTR __$EHRec$[ebp]
	mov	DWORD PTR fs:0, eax

; 976  : 	_Left = _STD move(_Right);

	mov	eax, DWORD PTR __Right$[ebp]
	push	eax
	call	??$move@AAU?$_Wrap_alloc@V?$allocator@UVector2D@@@std@@@std@@@std@@YA$$QAU?$_Wrap_alloc@V?$allocator@UVector2D@@@std@@@0@AAU10@@Z ; std::move<std::_Wrap_alloc<std::allocator<Vector2D> > &>
	add	esp, 4
	push	eax
	mov	ecx, DWORD PTR __Left$[ebp]
	call	??4?$_Wrap_alloc@V?$allocator@UVector2D@@@std@@@std@@QAEAAU01@ABU01@@Z ; std::_Wrap_alloc<std::allocator<Vector2D> >::operator=

; 977  : 	}

	mov	ecx, DWORD PTR __$EHRec$[ebp]
	mov	DWORD PTR fs:0, ecx
	pop	ecx
	add	esp, 12					; 0000000cH
	cmp	ebp, esp
	call	__RTC_CheckEsp
	mov	esp, ebp
	pop	ebp
	ret	0
_TEXT	ENDS
;	COMDAT text$x
text$x	SEGMENT
__ehhandler$??$_Pocma@U?$_Wrap_alloc@V?$allocator@UVector2D@@@std@@@std@@@std@@YAXAAU?$_Wrap_alloc@V?$allocator@UVector2D@@@std@@@0@0U?$integral_constant@_N$00@0@@Z:
	mov	edx, DWORD PTR [esp+8]
	lea	eax, DWORD PTR [edx+12]
	mov	ecx, DWORD PTR [edx-4]
	xor	ecx, eax
	call	@__security_check_cookie@4
	mov	eax, OFFSET __ehfuncinfo$??$_Pocma@U?$_Wrap_alloc@V?$allocator@UVector2D@@@std@@@std@@@std@@YAXAAU?$_Wrap_alloc@V?$allocator@UVector2D@@@std@@@0@0U?$integral_constant@_N$00@0@@Z
	jmp	___CxxFrameHandler3
text$x	ENDS
??$_Pocma@U?$_Wrap_alloc@V?$allocator@UVector2D@@@std@@@std@@@std@@YAXAAU?$_Wrap_alloc@V?$allocator@UVector2D@@@std@@@0@0U?$integral_constant@_N$00@0@@Z ENDP ; std::_Pocma<std::_Wrap_alloc<std::allocator<Vector2D> > >
; Function compile flags: /Odtp /RTCsu
; File d:\microsoft visual studio 14.0\vc\include\xmemory0
;	COMDAT ??$destroy@UGraveRecord@GraveMarkers@@@?$allocator_traits@V?$allocator@U?$_List_node@UGraveRecord@GraveMarkers@@PAX@std@@@std@@@std@@SAXAAV?$allocator@U?$_List_node@UGraveRecord@GraveMarkers@@PAX@std@@@1@PAUGraveRecord@GraveMarkers@@@Z
_TEXT	SEGMENT
__Al$ = 8						; size = 4
__Ptr$ = 12						; size = 4
??$destroy@UGraveRecord@GraveMarkers@@@?$allocator_traits@V?$allocator@U?$_List_node@UGraveRecord@GraveMarkers@@PAX@std@@@std@@@std@@SAXAAV?$allocator@U?$_List_node@UGraveRecord@GraveMarkers@@PAX@std@@@1@PAUGraveRecord@GraveMarkers@@@Z PROC ; std::allocator_traits<std::allocator<std::_List_node<GraveMarkers::GraveRecord,void *> > >::destroy<GraveMarkers::GraveRecord>, COMDAT

; 781  : 		{	// destroy object at _Ptr

	push	ebp
	mov	ebp, esp

; 782  : 		_Al.destroy(_Ptr);

	mov	eax, DWORD PTR __Ptr$[ebp]
	push	eax
	mov	ecx, DWORD PTR __Al$[ebp]
	call	??$destroy@UGraveRecord@GraveMarkers@@@?$allocator@U?$_List_node@UGraveRecord@GraveMarkers@@PAX@std@@@std@@QAEXPAUGraveRecord@GraveMarkers@@@Z ; std::allocator<std::_List_node<GraveMarkers::GraveRecord,void *> >::destroy<GraveMarkers::GraveRecord>

; 783  : 		}

	cmp	ebp, esp
	call	__RTC_CheckEsp
	pop	ebp
	ret	0
??$destroy@UGraveRecord@GraveMarkers@@@?$allocator_traits@V?$allocator@U?$_List_node@UGraveRecord@GraveMarkers@@PAX@std@@@std@@@std@@SAXAAV?$allocator@U?$_List_node@UGraveRecord@GraveMarkers@@PAX@std@@@1@PAUGraveRecord@GraveMarkers@@@Z ENDP ; std::allocator_traits<std::allocator<std::_List_node<GraveMarkers::GraveRecord,void *> > >::destroy<GraveMarkers::GraveRecord>
_TEXT	ENDS
; Function compile flags: /Odtp /RTCsu
; File d:\microsoft visual studio 14.0\vc\include\xmemory0
;	COMDAT ??$destroy@PAU?$_List_node@UGraveRecord@GraveMarkers@@PAX@std@@@?$allocator_traits@V?$allocator@U?$_List_node@UGraveRecord@GraveMarkers@@PAX@std@@@std@@@std@@SAXAAV?$allocator@U?$_List_node@UGraveRecord@GraveMarkers@@PAX@std@@@1@PAPAU?$_List_node@UGraveRecord@GraveMarkers@@PAX@1@@Z
_TEXT	SEGMENT
__Al$ = 8						; size = 4
__Ptr$ = 12						; size = 4
??$destroy@PAU?$_List_node@UGraveRecord@GraveMarkers@@PAX@std@@@?$allocator_traits@V?$allocator@U?$_List_node@UGraveRecord@GraveMarkers@@PAX@std@@@std@@@std@@SAXAAV?$allocator@U?$_List_node@UGraveRecord@GraveMarkers@@PAX@std@@@1@PAPAU?$_List_node@UGraveRecord@GraveMarkers@@PAX@1@@Z PROC ; std::allocator_traits<std::allocator<std::_List_node<GraveMarkers::GraveRecord,void *> > >::destroy<std::_List_node<GraveMarkers::GraveRecord,void *> *>, COMDAT

; 781  : 		{	// destroy object at _Ptr

	push	ebp
	mov	ebp, esp

; 782  : 		_Al.destroy(_Ptr);

	mov	eax, DWORD PTR __Ptr$[ebp]
	push	eax
	mov	ecx, DWORD PTR __Al$[ebp]
	call	??$destroy@PAU?$_List_node@UGraveRecord@GraveMarkers@@PAX@std@@@?$allocator@U?$_List_node@UGraveRecord@GraveMarkers@@PAX@std@@@std@@QAEXPAPAU?$_List_node@UGraveRecord@GraveMarkers@@PAX@1@@Z ; std::allocator<std::_List_node<GraveMarkers::GraveRecord,void *> >::destroy<std::_List_node<GraveMarkers::GraveRecord,void *> *>

; 783  : 		}

	cmp	ebp, esp
	call	__RTC_CheckEsp
	pop	ebp
	ret	0
??$destroy@PAU?$_List_node@UGraveRecord@GraveMarkers@@PAX@std@@@?$allocator_traits@V?$allocator@U?$_List_node@UGraveRecord@GraveMarkers@@PAX@std@@@std@@@std@@SAXAAV?$allocator@U?$_List_node@UGraveRecord@GraveMarkers@@PAX@std@@@1@PAPAU?$_List_node@UGraveRecord@GraveMarkers@@PAX@1@@Z ENDP ; std::allocator_traits<std::allocator<std::_List_node<GraveMarkers::GraveRecord,void *> > >::destroy<std::_List_node<GraveMarkers::GraveRecord,void *> *>
_TEXT	ENDS
; Function compile flags: /Odtp /RTCsu
; File d:\microsoft visual studio 14.0\vc\include\xstddef
;	COMDAT ??$_Addressof@PAU?$_List_node@UGraveRecord@GraveMarkers@@PAX@std@@@std@@YAPAPAU?$_List_node@UGraveRecord@GraveMarkers@@PAX@0@AAPAU10@U?$integral_constant@_N$0A@@0@@Z
_TEXT	SEGMENT
__Val$ = 8						; size = 4
___formal$ = 12						; size = 1
??$_Addressof@PAU?$_List_node@UGraveRecord@GraveMarkers@@PAX@std@@@std@@YAPAPAU?$_List_node@UGraveRecord@GraveMarkers@@PAX@0@AAPAU10@U?$integral_constant@_N$0A@@0@@Z PROC ; std::_Addressof<std::_List_node<GraveMarkers::GraveRecord,void *> *>, COMDAT

; 691  : 	{	// return address of object _Val

	push	ebp
	mov	ebp, esp

; 692  : 	return (reinterpret_cast<_Ty *>(

	mov	eax, DWORD PTR __Val$[ebp]

; 693  : 		&const_cast<char&>(
; 694  : 		reinterpret_cast<const volatile char&>(_Val))));
; 695  : 	}

	pop	ebp
	ret	0
??$_Addressof@PAU?$_List_node@UGraveRecord@GraveMarkers@@PAX@std@@@std@@YAPAPAU?$_List_node@UGraveRecord@GraveMarkers@@PAX@0@AAPAU10@U?$integral_constant@_N$0A@@0@@Z ENDP ; std::_Addressof<std::_List_node<GraveMarkers::GraveRecord,void *> *>
_TEXT	ENDS
; Function compile flags: /Odtp /RTCsu
; File d:\microsoft visual studio 14.0\vc\include\xstddef
;	COMDAT ??$_Addressof@UGraveRecord@GraveMarkers@@@std@@YAPAUGraveRecord@GraveMarkers@@AAU12@U?$integral_constant@_N$0A@@0@@Z
_TEXT	SEGMENT
__Val$ = 8						; size = 4
___formal$ = 12						; size = 1
??$_Addressof@UGraveRecord@GraveMarkers@@@std@@YAPAUGraveRecord@GraveMarkers@@AAU12@U?$integral_constant@_N$0A@@0@@Z PROC ; std::_Addressof<GraveMarkers::GraveRecord>, COMDAT

; 691  : 	{	// return address of object _Val

	push	ebp
	mov	ebp, esp

; 692  : 	return (reinterpret_cast<_Ty *>(

	mov	eax, DWORD PTR __Val$[ebp]

; 693  : 		&const_cast<char&>(
; 694  : 		reinterpret_cast<const volatile char&>(_Val))));
; 695  : 	}

	pop	ebp
	ret	0
??$_Addressof@UGraveRecord@GraveMarkers@@@std@@YAPAUGraveRecord@GraveMarkers@@AAU12@U?$integral_constant@_N$0A@@0@@Z ENDP ; std::_Addressof<GraveMarkers::GraveRecord>
_TEXT	ENDS
; Function compile flags: /Odtp /RTCsu
; File d:\microsoft visual studio 14.0\vc\include\list
;	COMDAT ??$_Buynode@UGraveRecord@GraveMarkers@@@?$_List_buy@UGraveRecord@GraveMarkers@@V?$allocator@UGraveRecord@GraveMarkers@@@std@@@std@@QAEPAU?$_List_node@UGraveRecord@GraveMarkers@@PAX@1@PAU21@0$$QAUGraveRecord@GraveMarkers@@@Z
_TEXT	SEGMENT
tv131 = -28						; size = 4
__Pnode$ = -24						; size = 4
_this$ = -20						; size = 4
