; Listing generated by Microsoft (R) Optimizing Compiler Version 19.00.23026.0 

	TITLE	D:\cours\UQAC\Intelligence artificielle - jeux vidéos\Buckland_AISource\Mini_Projet_Raven\armory\Raven_Projectile.cpp
	.686P
	.XMM
	include listing.inc
	.model	flat

INCLUDELIB LIBCMTD
INCLUDELIB OLDNAMES

CONST	SEGMENT
?colors@@3QBKB DD 0ffH					; colors
	DD	0ff0000H
	DD	0ff00H
	DD	00H
	DD	0c8c8ffH
	DD	0c8c8c8H
	DD	0ffffH
	DD	0aaffH
	DD	0aa00ffH
	DD	05a85H
	DD	0ffffffH
	DD	06400H
	DD	0ffff00H
	DD	0c8c8c8H
	DD	0e6e6ffH
CONST	ENDS
PUBLIC	?__empty_global_delete@@YAXPAX@Z		; __empty_global_delete
PUBLIC	?__empty_global_delete@@YAXPAXI@Z		; __empty_global_delete
PUBLIC	??2@YAPAXIPAX@Z					; operator new
PUBLIC	?max@?$numeric_limits@H@std@@SAHXZ		; std::numeric_limits<int>::max
PUBLIC	?min@?$numeric_limits@M@std@@SAMXZ		; std::numeric_limits<float>::min
PUBLIC	?max@?$numeric_limits@M@std@@SAMXZ		; std::numeric_limits<float>::max
PUBLIC	?min@?$numeric_limits@N@std@@SANXZ		; std::numeric_limits<double>::min
PUBLIC	?max@?$numeric_limits@N@std@@SANXZ		; std::numeric_limits<double>::max
PUBLIC	?_Adopt@_Iterator_base0@std@@QAEXPBX@Z		; std::_Iterator_base0::_Adopt
PUBLIC	??0_Container_proxy@std@@QAE@XZ			; std::_Container_proxy::_Container_proxy
PUBLIC	??0_Container_base12@std@@QAE@XZ		; std::_Container_base12::_Container_base12
PUBLIC	??1_Container_base12@std@@QAE@XZ		; std::_Container_base12::~_Container_base12
PUBLIC	?_Getpfirst@_Container_base12@std@@QBEPAPAU_Iterator_base12@2@XZ ; std::_Container_base12::_Getpfirst
PUBLIC	?_Orphan_all@_Container_base12@std@@QAEXXZ	; std::_Container_base12::_Orphan_all
PUBLIC	?_Swap_all@_Container_base12@std@@QAEXAAU12@@Z	; std::_Container_base12::_Swap_all
PUBLIC	??0_Iterator_base12@std@@QAE@XZ			; std::_Iterator_base12::_Iterator_base12
PUBLIC	??4_Iterator_base12@std@@QAEAAU01@ABU01@@Z	; std::_Iterator_base12::operator=
PUBLIC	??1_Iterator_base12@std@@QAE@XZ			; std::_Iterator_base12::~_Iterator_base12
PUBLIC	?_Adopt@_Iterator_base12@std@@QAEXPBU_Container_base12@2@@Z ; std::_Iterator_base12::_Adopt
PUBLIC	?_Clrcont@_Iterator_base12@std@@QAEXXZ		; std::_Iterator_base12::_Clrcont
PUBLIC	?_Getcont@_Iterator_base12@std@@QBEPBU_Container_base12@2@XZ ; std::_Iterator_base12::_Getcont
PUBLIC	?_Getpnext@_Iterator_base12@std@@QAEPAPAU12@XZ	; std::_Iterator_base12::_Getpnext
PUBLIC	?_Orphan_me@_Iterator_base12@std@@QAEXXZ	; std::_Iterator_base12::_Orphan_me
PUBLIC	??0id@locale@std@@QAE@I@Z			; std::locale::id::id
PUBLIC	??XVector2D@@QAEABU0@ABN@Z			; Vector2D::operator*=
PUBLIC	??D@YA?AUVector2D@@ABU0@N@Z			; operator*
PUBLIC	??G@YA?AUVector2D@@ABU0@0@Z			; operator-
PUBLIC	??H@YA?AUVector2D@@ABU0@0@Z			; operator+
PUBLIC	??K@YA?AUVector2D@@ABU0@N@Z			; operator/
PUBLIC	?Vec2DDistance@@YANABUVector2D@@0@Z		; Vec2DDistance
PUBLIC	?Vec2DDistanceSq@@YANABUVector2D@@0@Z		; Vec2DDistanceSq
PUBLIC	?DistToLineSegment@@YANUVector2D@@00@Z		; DistToLineSegment
PUBLIC	?Pos@BaseGameEntity@@QBE?AUVector2D@@XZ		; BaseGameEntity::Pos
PUBLIC	?BRadius@BaseGameEntity@@QBENXZ			; BaseGameEntity::BRadius
PUBLIC	?ID@BaseGameEntity@@QBEHXZ			; BaseGameEntity::ID
PUBLIC	?GetClosestIntersectingBot@Raven_Projectile@@IBEPAVRaven_Bot@@UVector2D@@0@Z ; Raven_Projectile::GetClosestIntersectingBot
PUBLIC	?GetListOfIntersectingBots@Raven_Projectile@@IBE?AV?$list@PAVRaven_Bot@@V?$allocator@PAVRaven_Bot@@@std@@@std@@UVector2D@@0@Z ; Raven_Projectile::GetListOfIntersectingBots
PUBLIC	??0?$allocator@PAVRaven_Bot@@@std@@QAE@XZ	; std::allocator<Raven_Bot *>::allocator<Raven_Bot *>
PUBLIC	?deallocate@?$allocator@U?$_List_node@PAVRaven_Bot@@PAX@std@@@std@@QAEXPAU?$_List_node@PAVRaven_Bot@@PAX@2@I@Z ; std::allocator<std::_List_node<Raven_Bot *,void *> >::deallocate
PUBLIC	?allocate@?$allocator@U?$_List_node@PAVRaven_Bot@@PAX@std@@@std@@QAEPAU?$_List_node@PAVRaven_Bot@@PAX@2@I@Z ; std::allocator<std::_List_node<Raven_Bot *,void *> >::allocate
PUBLIC	?max_size@?$allocator@U?$_List_node@PAVRaven_Bot@@PAX@std@@@std@@QBEIXZ ; std::allocator<std::_List_node<Raven_Bot *,void *> >::max_size
PUBLIC	?max_size@?$allocator_traits@V?$allocator@U?$_List_node@PAVRaven_Bot@@PAX@std@@@std@@@std@@SAIABV?$allocator@U?$_List_node@PAVRaven_Bot@@PAX@std@@@2@@Z ; std::allocator_traits<std::allocator<std::_List_node<Raven_Bot *,void *> > >::max_size
PUBLIC	?allocate@?$_Wrap_alloc@V?$allocator@U?$_List_node@PAVRaven_Bot@@PAX@std@@@std@@@std@@QAEPAU?$_List_node@PAVRaven_Bot@@PAX@2@I@Z ; std::_Wrap_alloc<std::allocator<std::_List_node<Raven_Bot *,void *> > >::allocate
PUBLIC	?deallocate@?$_Wrap_alloc@V?$allocator@U?$_List_node@PAVRaven_Bot@@PAX@std@@@std@@@std@@QAEXPAU?$_List_node@PAVRaven_Bot@@PAX@2@I@Z ; std::_Wrap_alloc<std::allocator<std::_List_node<Raven_Bot *,void *> > >::deallocate
PUBLIC	?max_size@?$_Wrap_alloc@V?$allocator@U?$_List_node@PAVRaven_Bot@@PAX@std@@@std@@@std@@QBEIU_Nil@2@@Z ; std::_Wrap_alloc<std::allocator<std::_List_node<Raven_Bot *,void *> > >::max_size
PUBLIC	?_Nextnode@?$_List_alloc@U?$_List_base_types@PAVRaven_Bot@@V?$allocator@PAVRaven_Bot@@@std@@@std@@@std@@SAAAPAU?$_List_node@PAVRaven_Bot@@PAX@2@PAU32@@Z ; std::_List_alloc<std::_List_base_types<Raven_Bot *,std::allocator<Raven_Bot *> > >::_Nextnode
PUBLIC	?_Prevnode@?$_List_alloc@U?$_List_base_types@PAVRaven_Bot@@V?$allocator@PAVRaven_Bot@@@std@@@std@@@std@@SAAAPAU?$_List_node@PAVRaven_Bot@@PAX@2@PAU32@@Z ; std::_List_alloc<std::_List_base_types<Raven_Bot *,std::allocator<Raven_Bot *> > >::_Prevnode
PUBLIC	?_Myval@?$_List_alloc@U?$_List_base_types@PAVRaven_Bot@@V?$allocator@PAVRaven_Bot@@@std@@@std@@@std@@SAAAPAVRaven_Bot@@PAU?$_List_node@PAVRaven_Bot@@PAX@2@@Z ; std::_List_alloc<std::_List_base_types<Raven_Bot *,std::allocator<Raven_Bot *> > >::_Myval
PUBLIC	??0?$_List_alloc@U?$_List_base_types@PAVRaven_Bot@@V?$allocator@PAVRaven_Bot@@@std@@@std@@@std@@QAE@ABV?$allocator@PAVRaven_Bot@@@1@@Z ; std::_List_alloc<std::_List_base_types<Raven_Bot *,std::allocator<Raven_Bot *> > >::_List_alloc<std::_List_base_types<Raven_Bot *,std::allocator<Raven_Bot *> > >
PUBLIC	??0?$_List_alloc@U?$_List_base_types@PAVRaven_Bot@@V?$allocator@PAVRaven_Bot@@@std@@@std@@@std@@QAE@$$QAV?$allocator@PAVRaven_Bot@@@1@@Z ; std::_List_alloc<std::_List_base_types<Raven_Bot *,std::allocator<Raven_Bot *> > >::_List_alloc<std::_List_base_types<Raven_Bot *,std::allocator<Raven_Bot *> > >
PUBLIC	??1?$_List_alloc@U?$_List_base_types@PAVRaven_Bot@@V?$allocator@PAVRaven_Bot@@@std@@@std@@@std@@QAE@XZ ; std::_List_alloc<std::_List_base_types<Raven_Bot *,std::allocator<Raven_Bot *> > >::~_List_alloc<std::_List_base_types<Raven_Bot *,std::allocator<Raven_Bot *> > >
PUBLIC	?_Alloc_proxy@?$_List_alloc@U?$_List_base_types@PAVRaven_Bot@@V?$allocator@PAVRaven_Bot@@@std@@@std@@@std@@QAEXXZ ; std::_List_alloc<std::_List_base_types<Raven_Bot *,std::allocator<Raven_Bot *> > >::_Alloc_proxy
PUBLIC	?_Free_proxy@?$_List_alloc@U?$_List_base_types@PAVRaven_Bot@@V?$allocator@PAVRaven_Bot@@@std@@@std@@@std@@QAEXXZ ; std::_List_alloc<std::_List_base_types<Raven_Bot *,std::allocator<Raven_Bot *> > >::_Free_proxy
PUBLIC	?_Getpfirst@?$_List_alloc@U?$_List_base_types@PAVRaven_Bot@@V?$allocator@PAVRaven_Bot@@@std@@@std@@@std@@QBEPAPAU_Iterator_base12@2@XZ ; std::_List_alloc<std::_List_base_types<Raven_Bot *,std::allocator<Raven_Bot *> > >::_Getpfirst
PUBLIC	?_Myproxy@?$_List_alloc@U?$_List_base_types@PAVRaven_Bot@@V?$allocator@PAVRaven_Bot@@@std@@@std@@@std@@QAEAAPAU_Container_proxy@2@XZ ; std::_List_alloc<std::_List_base_types<Raven_Bot *,std::allocator<Raven_Bot *> > >::_Myproxy
PUBLIC	?_Buyheadnode@?$_List_alloc@U?$_List_base_types@PAVRaven_Bot@@V?$allocator@PAVRaven_Bot@@@std@@@std@@@std@@QAEPAU?$_List_node@PAVRaven_Bot@@PAX@2@XZ ; std::_List_alloc<std::_List_base_types<Raven_Bot *,std::allocator<Raven_Bot *> > >::_Buyheadnode
PUBLIC	?_Freeheadnode@?$_List_alloc@U?$_List_base_types@PAVRaven_Bot@@V?$allocator@PAVRaven_Bot@@@std@@@std@@@std@@QAEXPAU?$_List_node@PAVRaven_Bot@@PAX@2@@Z ; std::_List_alloc<std::_List_base_types<Raven_Bot *,std::allocator<Raven_Bot *> > >::_Freeheadnode
PUBLIC	?_Buynode0@?$_List_alloc@U?$_List_base_types@PAVRaven_Bot@@V?$allocator@PAVRaven_Bot@@@std@@@std@@@std@@QAEPAU?$_List_node@PAVRaven_Bot@@PAX@2@PAU32@0@Z ; std::_List_alloc<std::_List_base_types<Raven_Bot *,std::allocator<Raven_Bot *> > >::_Buynode0
PUBLIC	?_Orphan_all@?$_List_alloc@U?$_List_base_types@PAVRaven_Bot@@V?$allocator@PAVRaven_Bot@@@std@@@std@@@std@@QAEXXZ ; std::_List_alloc<std::_List_base_types<Raven_Bot *,std::allocator<Raven_Bot *> > >::_Orphan_all
PUBLIC	?_Swap_all@?$_List_alloc@U?$_List_base_types@PAVRaven_Bot@@V?$allocator@PAVRaven_Bot@@@std@@@std@@@std@@QAEXAAV12@@Z ; std::_List_alloc<std::_List_base_types<Raven_Bot *,std::allocator<Raven_Bot *> > >::_Swap_all
PUBLIC	?_Getal@?$_List_alloc@U?$_List_base_types@PAVRaven_Bot@@V?$allocator@PAVRaven_Bot@@@std@@@std@@@std@@QAEAAU?$_Wrap_alloc@V?$allocator@U?$_List_node@PAVRaven_Bot@@PAX@std@@@std@@@2@XZ ; std::_List_alloc<std::_List_base_types<Raven_Bot *,std::allocator<Raven_Bot *> > >::_Getal
PUBLIC	?_Getal@?$_List_alloc@U?$_List_base_types@PAVRaven_Bot@@V?$allocator@PAVRaven_Bot@@@std@@@std@@@std@@QBEABU?$_Wrap_alloc@V?$allocator@U?$_List_node@PAVRaven_Bot@@PAX@std@@@std@@@2@XZ ; std::_List_alloc<std::_List_base_types<Raven_Bot *,std::allocator<Raven_Bot *> > >::_Getal
PUBLIC	?_Get_data@?$_List_alloc@U?$_List_base_types@PAVRaven_Bot@@V?$allocator@PAVRaven_Bot@@@std@@@std@@@std@@QAEAAV?$_List_val@U?$_List_simple_types@PAVRaven_Bot@@@std@@@2@XZ ; std::_List_alloc<std::_List_base_types<Raven_Bot *,std::allocator<Raven_Bot *> > >::_Get_data
PUBLIC	?_Get_data@?$_List_alloc@U?$_List_base_types@PAVRaven_Bot@@V?$allocator@PAVRaven_Bot@@@std@@@std@@@std@@QBEABV?$_List_val@U?$_List_simple_types@PAVRaven_Bot@@@std@@@2@XZ ; std::_List_alloc<std::_List_base_types<Raven_Bot *,std::allocator<Raven_Bot *> > >::_Get_data
PUBLIC	?_Myhead@?$_List_alloc@U?$_List_base_types@PAVRaven_Bot@@V?$allocator@PAVRaven_Bot@@@std@@@std@@@std@@QAEAAPAU?$_List_node@PAVRaven_Bot@@PAX@2@XZ ; std::_List_alloc<std::_List_base_types<Raven_Bot *,std::allocator<Raven_Bot *> > >::_Myhead
PUBLIC	?_Myhead@?$_List_alloc@U?$_List_base_types@PAVRaven_Bot@@V?$allocator@PAVRaven_Bot@@@std@@@std@@@std@@QBEABQAU?$_List_node@PAVRaven_Bot@@PAX@2@XZ ; std::_List_alloc<std::_List_base_types<Raven_Bot *,std::allocator<Raven_Bot *> > >::_Myhead
PUBLIC	?_Mysize@?$_List_alloc@U?$_List_base_types@PAVRaven_Bot@@V?$allocator@PAVRaven_Bot@@@std@@@std@@@std@@QAEAAIXZ ; std::_List_alloc<std::_List_base_types<Raven_Bot *,std::allocator<Raven_Bot *> > >::_Mysize
PUBLIC	??0?$_List_val@U?$_List_simple_types@PAVRaven_Bot@@@std@@@std@@QAE@XZ ; std::_List_val<std::_List_simple_types<Raven_Bot *> >::_List_val<std::_List_simple_types<Raven_Bot *> >
PUBLIC	?_Nextnode@?$_List_val@U?$_List_simple_types@PAVRaven_Bot@@@std@@@std@@SAAAPAU?$_List_node@PAVRaven_Bot@@PAX@2@PAU32@@Z ; std::_List_val<std::_List_simple_types<Raven_Bot *> >::_Nextnode
PUBLIC	?_Prevnode@?$_List_val@U?$_List_simple_types@PAVRaven_Bot@@@std@@@std@@SAAAPAU?$_List_node@PAVRaven_Bot@@PAX@2@PAU32@@Z ; std::_List_val<std::_List_simple_types<Raven_Bot *> >::_Prevnode
PUBLIC	?_Myval@?$_List_val@U?$_List_simple_types@PAVRaven_Bot@@@std@@@std@@SAAAPAVRaven_Bot@@PAU?$_List_node@PAVRaven_Bot@@PAX@2@@Z ; std::_List_val<std::_List_simple_types<Raven_Bot *> >::_Myval
PUBLIC	??1?$_List_val@U?$_List_simple_types@PAVRaven_Bot@@@std@@@std@@QAE@XZ ; std::_List_val<std::_List_simple_types<Raven_Bot *> >::~_List_val<std::_List_simple_types<Raven_Bot *> >
PUBLIC	?_Get_first@?$_Compressed_pair@U?$_Wrap_alloc@V?$allocator@U?$_List_node@PAVRaven_Bot@@PAX@std@@@std@@@std@@V?$_List_val@U?$_List_simple_types@PAVRaven_Bot@@@std@@@2@$00@std@@QAEAAU?$_Wrap_alloc@V?$allocator@U?$_List_node@PAVRaven_Bot@@PAX@std@@@std@@@2@XZ ; std::_Compressed_pair<std::_Wrap_alloc<std::allocator<std::_List_node<Raven_Bot *,void *> > >,std::_List_val<std::_List_simple_types<Raven_Bot *> >,1>::_Get_first
PUBLIC	?_Get_first@?$_Compressed_pair@U?$_Wrap_alloc@V?$allocator@U?$_List_node@PAVRaven_Bot@@PAX@std@@@std@@@std@@V?$_List_val@U?$_List_simple_types@PAVRaven_Bot@@@std@@@2@$00@std@@QBEABU?$_Wrap_alloc@V?$allocator@U?$_List_node@PAVRaven_Bot@@PAX@std@@@std@@@2@XZ ; std::_Compressed_pair<std::_Wrap_alloc<std::allocator<std::_List_node<Raven_Bot *,void *> > >,std::_List_val<std::_List_simple_types<Raven_Bot *> >,1>::_Get_first
PUBLIC	?_Get_second@?$_Compressed_pair@U?$_Wrap_alloc@V?$allocator@U?$_List_node@PAVRaven_Bot@@PAX@std@@@std@@@std@@V?$_List_val@U?$_List_simple_types@PAVRaven_Bot@@@std@@@2@$00@std@@QAEAAV?$_List_val@U?$_List_simple_types@PAVRaven_Bot@@@std@@@2@XZ ; std::_Compressed_pair<std::_Wrap_alloc<std::allocator<std::_List_node<Raven_Bot *,void *> > >,std::_List_val<std::_List_simple_types<Raven_Bot *> >,1>::_Get_second
PUBLIC	?_Get_second@?$_Compressed_pair@U?$_Wrap_alloc@V?$allocator@U?$_List_node@PAVRaven_Bot@@PAX@std@@@std@@@std@@V?$_List_val@U?$_List_simple_types@PAVRaven_Bot@@@std@@@2@$00@std@@QBEABV?$_List_val@U?$_List_simple_types@PAVRaven_Bot@@@std@@@2@XZ ; std::_Compressed_pair<std::_Wrap_alloc<std::allocator<std::_List_node<Raven_Bot *,void *> > >,std::_List_val<std::_List_simple_types<Raven_Bot *> >,1>::_Get_second
PUBLIC	??1?$_Compressed_pair@U?$_Wrap_alloc@V?$allocator@U?$_List_node@PAVRaven_Bot@@PAX@std@@@std@@@std@@V?$_List_val@U?$_List_simple_types@PAVRaven_Bot@@@std@@@2@$00@std@@QAE@XZ ; std::_Compressed_pair<std::_Wrap_alloc<std::allocator<std::_List_node<Raven_Bot *,void *> > >,std::_List_val<std::_List_simple_types<Raven_Bot *> >,1>::~_Compressed_pair<std::_Wrap_alloc<std::allocator<std::_List_node<Raven_Bot *,void *> > >,std::_List_val<std::_List_simple_types<Raven_Bot *> >,1>
PUBLIC	??0?$_List_buy@PAVRaven_Bot@@V?$allocator@PAVRaven_Bot@@@std@@@std@@QAE@ABV?$allocator@PAVRaven_Bot@@@1@@Z ; std::_List_buy<Raven_Bot *,std::allocator<Raven_Bot *> >::_List_buy<Raven_Bot *,std::allocator<Raven_Bot *> >
PUBLIC	??0?$_List_buy@PAVRaven_Bot@@V?$allocator@PAVRaven_Bot@@@std@@@std@@QAE@$$QAV?$allocator@PAVRaven_Bot@@@1@@Z ; std::_List_buy<Raven_Bot *,std::allocator<Raven_Bot *> >::_List_buy<Raven_Bot *,std::allocator<Raven_Bot *> >
PUBLIC	?_Freenode@?$_List_buy@PAVRaven_Bot@@V?$allocator@PAVRaven_Bot@@@std@@@std@@QAEXPAU?$_List_node@PAVRaven_Bot@@PAX@2@@Z ; std::_List_buy<Raven_Bot *,std::allocator<Raven_Bot *> >::_Freenode
PUBLIC	??1?$_List_buy@PAVRaven_Bot@@V?$allocator@PAVRaven_Bot@@@std@@@std@@QAE@XZ ; std::_List_buy<Raven_Bot *,std::allocator<Raven_Bot *> >::~_List_buy<Raven_Bot *,std::allocator<Raven_Bot *> >
PUBLIC	??0?$list@PAVRaven_Bot@@V?$allocator@PAVRaven_Bot@@@std@@@std@@QAE@XZ ; std::list<Raven_Bot *,std::allocator<Raven_Bot *> >::list<Raven_Bot *,std::allocator<Raven_Bot *> >
PUBLIC	??0?$list@PAVRaven_Bot@@V?$allocator@PAVRaven_Bot@@@std@@@std@@QAE@$$QAV01@@Z ; std::list<Raven_Bot *,std::allocator<Raven_Bot *> >::list<Raven_Bot *,std::allocator<Raven_Bot *> >
PUBLIC	?_Assign_rv@?$list@PAVRaven_Bot@@V?$allocator@PAVRaven_Bot@@@std@@@std@@QAEX$$QAV12@@Z ; std::list<Raven_Bot *,std::allocator<Raven_Bot *> >::_Assign_rv
PUBLIC	??1?$list@PAVRaven_Bot@@V?$allocator@PAVRaven_Bot@@@std@@@std@@QAE@XZ ; std::list<Raven_Bot *,std::allocator<Raven_Bot *> >::~list<Raven_Bot *,std::allocator<Raven_Bot *> >
PUBLIC	?begin@?$list@PAVRaven_Bot@@V?$allocator@PAVRaven_Bot@@@std@@@std@@QBE?AV?$_List_const_iterator@V?$_List_val@U?$_List_simple_types@PAVRaven_Bot@@@std@@@std@@@2@XZ ; std::list<Raven_Bot *,std::allocator<Raven_Bot *> >::begin
PUBLIC	?end@?$list@PAVRaven_Bot@@V?$allocator@PAVRaven_Bot@@@std@@@std@@QBE?AV?$_List_const_iterator@V?$_List_val@U?$_List_simple_types@PAVRaven_Bot@@@std@@@std@@@2@XZ ; std::list<Raven_Bot *,std::allocator<Raven_Bot *> >::end
PUBLIC	?_Unchecked_end@?$list@PAVRaven_Bot@@V?$allocator@PAVRaven_Bot@@@std@@@std@@QAE?AV?$_List_unchecked_iterator@V?$_List_val@U?$_List_simple_types@PAVRaven_Bot@@@std@@@std@@@2@XZ ; std::list<Raven_Bot *,std::allocator<Raven_Bot *> >::_Unchecked_end
PUBLIC	?max_size@?$list@PAVRaven_Bot@@V?$allocator@PAVRaven_Bot@@@std@@@std@@QBEIXZ ; std::list<Raven_Bot *,std::allocator<Raven_Bot *> >::max_size
PUBLIC	?push_back@?$list@PAVRaven_Bot@@V?$allocator@PAVRaven_Bot@@@std@@@std@@QAEXABQAVRaven_Bot@@@Z ; std::list<Raven_Bot *,std::allocator<Raven_Bot *> >::push_back
PUBLIC	?clear@?$list@PAVRaven_Bot@@V?$allocator@PAVRaven_Bot@@@std@@@std@@QAEXXZ ; std::list<Raven_Bot *,std::allocator<Raven_Bot *> >::clear
PUBLIC	?_Tidy@?$list@PAVRaven_Bot@@V?$allocator@PAVRaven_Bot@@@std@@@std@@QAEXXZ ; std::list<Raven_Bot *,std::allocator<Raven_Bot *> >::_Tidy
PUBLIC	?_Incsize@?$list@PAVRaven_Bot@@V?$allocator@PAVRaven_Bot@@@std@@@std@@QAEXI@Z ; std::list<Raven_Bot *,std::allocator<Raven_Bot *> >::_Incsize
PUBLIC	?_Orphan_ptr@?$list@PAVRaven_Bot@@V?$allocator@PAVRaven_Bot@@@std@@@std@@QAEXPAU?$_List_node@PAVRaven_Bot@@PAX@2@@Z ; std::list<Raven_Bot *,std::allocator<Raven_Bot *> >::_Orphan_ptr
PUBLIC	?GetAllBots@Raven_Game@@QBEABV?$list@PAVRaven_Bot@@V?$allocator@PAVRaven_Bot@@@std@@@std@@XZ ; Raven_Game::GetAllBots
PUBLIC	??0?$_Iterator012@Ubidirectional_iterator_tag@std@@PAVRaven_Bot@@HPBQAV3@ABQAV3@U_Iterator_base12@2@@std@@QAE@XZ ; std::_Iterator012<std::bidirectional_iterator_tag,Raven_Bot *,int,Raven_Bot * const *,Raven_Bot * const &,std::_Iterator_base12>::_Iterator012<std::bidirectional_iterator_tag,Raven_Bot *,int,Raven_Bot * const *,Raven_Bot * const &,std::_Iterator_base12>
PUBLIC	??1?$_Iterator012@Ubidirectional_iterator_tag@std@@PAVRaven_Bot@@HPBQAV3@ABQAV3@U_Iterator_base12@2@@std@@QAE@XZ ; std::_Iterator012<std::bidirectional_iterator_tag,Raven_Bot *,int,Raven_Bot * const *,Raven_Bot * const &,std::_Iterator_base12>::~_Iterator012<std::bidirectional_iterator_tag,Raven_Bot *,int,Raven_Bot * const *,Raven_Bot * const &,std::_Iterator_base12>
PUBLIC	??4?$_Iterator012@Ubidirectional_iterator_tag@std@@PAVRaven_Bot@@HPBQAV3@ABQAV3@U_Iterator_base12@2@@std@@QAEAAU01@$$QAU01@@Z ; std::_Iterator012<std::bidirectional_iterator_tag,Raven_Bot *,int,Raven_Bot * const *,Raven_Bot * const &,std::_Iterator_base12>::operator=
PUBLIC	??0?$_List_unchecked_const_iterator@V?$_List_val@U?$_List_simple_types@PAVRaven_Bot@@@std@@@std@@U_Iterator_base12@2@@std@@QAE@XZ ; std::_List_unchecked_const_iterator<std::_List_val<std::_List_simple_types<Raven_Bot *> >,std::_Iterator_base12>::_List_unchecked_const_iterator<std::_List_val<std::_List_simple_types<Raven_Bot *> >,std::_Iterator_base12>
PUBLIC	??0?$_List_unchecked_const_iterator@V?$_List_val@U?$_List_simple_types@PAVRaven_Bot@@@std@@@std@@U_Iterator_base12@2@@std@@QAE@PAU?$_List_node@PAVRaven_Bot@@PAX@1@PBV?$_List_val@U?$_List_simple_types@PAVRaven_Bot@@@std@@@1@@Z ; std::_List_unchecked_const_iterator<std::_List_val<std::_List_simple_types<Raven_Bot *> >,std::_Iterator_base12>::_List_unchecked_const_iterator<std::_List_val<std::_List_simple_types<Raven_Bot *> >,std::_Iterator_base12>
PUBLIC	??1?$_List_unchecked_const_iterator@V?$_List_val@U?$_List_simple_types@PAVRaven_Bot@@@std@@@std@@U_Iterator_base12@2@@std@@QAE@XZ ; std::_List_unchecked_const_iterator<std::_List_val<std::_List_simple_types<Raven_Bot *> >,std::_Iterator_base12>::~_List_unchecked_const_iterator<std::_List_val<std::_List_simple_types<Raven_Bot *> >,std::_Iterator_base12>
PUBLIC	??4?$_List_unchecked_const_iterator@V?$_List_val@U?$_List_simple_types@PAVRaven_Bot@@@std@@@std@@U_Iterator_base12@2@@std@@QAEAAV01@$$QAV01@@Z ; std::_List_unchecked_const_iterator<std::_List_val<std::_List_simple_types<Raven_Bot *> >,std::_Iterator_base12>::operator=
PUBLIC	??0?$_List_const_iterator@V?$_List_val@U?$_List_simple_types@PAVRaven_Bot@@@std@@@std@@@std@@QAE@XZ ; std::_List_const_iterator<std::_List_val<std::_List_simple_types<Raven_Bot *> > >::_List_const_iterator<std::_List_val<std::_List_simple_types<Raven_Bot *> > >
PUBLIC	??0?$_List_const_iterator@V?$_List_val@U?$_List_simple_types@PAVRaven_Bot@@@std@@@std@@@std@@QAE@PAU?$_List_node@PAVRaven_Bot@@PAX@1@PBV?$_List_val@U?$_List_simple_types@PAVRaven_Bot@@@std@@@1@@Z ; std::_List_const_iterator<std::_List_val<std::_List_simple_types<Raven_Bot *> > >::_List_const_iterator<std::_List_val<std::_List_simple_types<Raven_Bot *> > >
PUBLIC	??D?$_List_const_iterator@V?$_List_val@U?$_List_simple_types@PAVRaven_Bot@@@std@@@std@@@std@@QBEABQAVRaven_Bot@@XZ ; std::_List_const_iterator<std::_List_val<std::_List_simple_types<Raven_Bot *> > >::operator*
PUBLIC	??E?$_List_const_iterator@V?$_List_val@U?$_List_simple_types@PAVRaven_Bot@@@std@@@std@@@std@@QAEAAV01@XZ ; std::_List_const_iterator<std::_List_val<std::_List_simple_types<Raven_Bot *> > >::operator++
PUBLIC	??8?$_List_const_iterator@V?$_List_val@U?$_List_simple_types@PAVRaven_Bot@@@std@@@std@@@std@@QBE_NABV01@@Z ; std::_List_const_iterator<std::_List_val<std::_List_simple_types<Raven_Bot *> > >::operator==
PUBLIC	??9?$_List_const_iterator@V?$_List_val@U?$_List_simple_types@PAVRaven_Bot@@@std@@@std@@@std@@QBE_NABV01@@Z ; std::_List_const_iterator<std::_List_val<std::_List_simple_types<Raven_Bot *> > >::operator!=
PUBLIC	??1?$_List_const_iterator@V?$_List_val@U?$_List_simple_types@PAVRaven_Bot@@@std@@@std@@@std@@QAE@XZ ; std::_List_const_iterator<std::_List_val<std::_List_simple_types<Raven_Bot *> > >::~_List_const_iterator<std::_List_val<std::_List_simple_types<Raven_Bot *> > >
PUBLIC	??4?$_List_const_iterator@V?$_List_val@U?$_List_simple_types@PAVRaven_Bot@@@std@@@std@@@std@@QAEAAV01@$$QAV01@@Z ; std::_List_const_iterator<std::_List_val<std::_List_simple_types<Raven_Bot *> > >::operator=
PUBLIC	??0?$_List_unchecked_const_iterator@V?$_List_val@U?$_List_simple_types@PAVRaven_Bot@@@std@@@std@@U_Iterator_base0@2@@std@@QAE@PAU?$_List_node@PAVRaven_Bot@@PAX@1@PBV?$_List_val@U?$_List_simple_types@PAVRaven_Bot@@@std@@@1@@Z ; std::_List_unchecked_const_iterator<std::_List_val<std::_List_simple_types<Raven_Bot *> >,std::_Iterator_base0>::_List_unchecked_const_iterator<std::_List_val<std::_List_simple_types<Raven_Bot *> >,std::_Iterator_base0>
PUBLIC	?_Mynode@?$_List_unchecked_const_iterator@V?$_List_val@U?$_List_simple_types@PAVRaven_Bot@@@std@@@std@@U_Iterator_base0@2@@std@@QBEPAU?$_List_node@PAVRaven_Bot@@PAX@2@XZ ; std::_List_unchecked_const_iterator<std::_List_val<std::_List_simple_types<Raven_Bot *> >,std::_Iterator_base0>::_Mynode
PUBLIC	??0?$_List_unchecked_iterator@V?$_List_val@U?$_List_simple_types@PAVRaven_Bot@@@std@@@std@@@std@@QAE@PAU?$_List_node@PAVRaven_Bot@@PAX@1@PBV?$_List_val@U?$_List_simple_types@PAVRaven_Bot@@@std@@@1@@Z ; std::_List_unchecked_iterator<std::_List_val<std::_List_simple_types<Raven_Bot *> > >::_List_unchecked_iterator<std::_List_val<std::_List_simple_types<Raven_Bot *> > >
PUBLIC	??$_Insert@ABQAVRaven_Bot@@@?$list@PAVRaven_Bot@@V?$allocator@PAVRaven_Bot@@@std@@@std@@QAEXV?$_List_unchecked_const_iterator@V?$_List_val@U?$_List_simple_types@PAVRaven_Bot@@@std@@@std@@U_Iterator_base0@2@@1@ABQAVRaven_Bot@@@Z ; std::list<Raven_Bot *,std::allocator<Raven_Bot *> >::_Insert<Raven_Bot * const &>
PUBLIC	??$move@AAU?$_Wrap_alloc@V?$allocator@U?$_List_node@PAVRaven_Bot@@PAX@std@@@std@@@std@@@std@@YA$$QAU?$_Wrap_alloc@V?$allocator@U?$_List_node@PAVRaven_Bot@@PAX@std@@@std@@@0@AAU10@@Z ; std::move<std::_Wrap_alloc<std::allocator<std::_List_node<Raven_Bot *,void *> > > &>
PUBLIC	??$?0U?$_List_node@PAVRaven_Bot@@PAX@std@@@?$allocator@PAVRaven_Bot@@@std@@QAE@ABV?$allocator@U?$_List_node@PAVRaven_Bot@@PAX@std@@@1@@Z ; std::allocator<Raven_Bot *>::allocator<Raven_Bot *><std::_List_node<Raven_Bot *,void *> >
PUBLIC	??$forward@V?$list@PAVRaven_Bot@@V?$allocator@PAVRaven_Bot@@@std@@@std@@@std@@YA$$QAV?$list@PAVRaven_Bot@@V?$allocator@PAVRaven_Bot@@@std@@@0@AAV10@@Z ; std::forward<std::list<Raven_Bot *,std::allocator<Raven_Bot *> > >
PUBLIC	??$move@AAV?$allocator@PAVRaven_Bot@@@std@@@std@@YA$$QAV?$allocator@PAVRaven_Bot@@@0@AAV10@@Z ; std::move<std::allocator<Raven_Bot *> &>
PUBLIC	??$_Swap_adl@PAU?$_List_node@PAVRaven_Bot@@PAX@std@@@std@@YAXAAPAU?$_List_node@PAVRaven_Bot@@PAX@0@0@Z ; std::_Swap_adl<std::_List_node<Raven_Bot *,void *> *>
PUBLIC	??$swap@PAU?$_List_node@PAVRaven_Bot@@PAX@std@@@std@@YAXAAPAU?$_List_node@PAVRaven_Bot@@PAX@0@0@Z ; std::swap<std::_List_node<Raven_Bot *,void *> *>
PUBLIC	??$swap@I@std@@YAXAAI0@Z			; std::swap<unsigned int>
PUBLIC	??$addressof@PAU?$_List_node@PAVRaven_Bot@@PAX@std@@@std@@YAPAPAU?$_List_node@PAVRaven_Bot@@PAX@0@AAPAU10@@Z ; std::addressof<std::_List_node<Raven_Bot *,void *> *>
PUBLIC	??$destroy@PAU?$_List_node@PAVRaven_Bot@@PAX@std@@@?$_Wrap_alloc@V?$allocator@U?$_List_node@PAVRaven_Bot@@PAX@std@@@std@@@std@@QAEXPAPAU?$_List_node@PAVRaven_Bot@@PAX@1@@Z ; std::_Wrap_alloc<std::allocator<std::_List_node<Raven_Bot *,void *> > >::destroy<std::_List_node<Raven_Bot *,void *> *>
PUBLIC	?deallocate@?$allocator@U_Container_proxy@std@@@std@@QAEXPAU_Container_proxy@2@I@Z ; std::allocator<std::_Container_proxy>::deallocate
PUBLIC	?allocate@?$allocator@U_Container_proxy@std@@@std@@QAEPAU_Container_proxy@2@I@Z ; std::allocator<std::_Container_proxy>::allocate
PUBLIC	?allocate@?$_Wrap_alloc@V?$allocator@U_Container_proxy@std@@@std@@@std@@QAEPAU_Container_proxy@2@I@Z ; std::_Wrap_alloc<std::allocator<std::_Container_proxy> >::allocate
PUBLIC	?deallocate@?$_Wrap_alloc@V?$allocator@U_Container_proxy@std@@@std@@@std@@QAEXPAU_Container_proxy@2@I@Z ; std::_Wrap_alloc<std::allocator<std::_Container_proxy> >::deallocate
PUBLIC	??$?0U?$_Wrap_alloc@V?$allocator@U?$_List_node@PAVRaven_Bot@@PAX@std@@@std@@@std@@@?$_Wrap_alloc@V?$allocator@U_Container_proxy@std@@@std@@@std@@QAE@AAU?$_Wrap_alloc@V?$allocator@U?$_List_node@PAVRaven_Bot@@PAX@std@@@std@@@1@@Z ; std::_Wrap_alloc<std::allocator<std::_Container_proxy> >::_Wrap_alloc<std::allocator<std::_Container_proxy> ><std::_Wrap_alloc<std::allocator<std::_List_node<Raven_Bot *,void *> > > >
PUBLIC	??$?0U?$_List_node@PAVRaven_Bot@@PAX@std@@@?$allocator@U_Container_proxy@std@@@std@@QAE@ABV?$allocator@U?$_List_node@PAVRaven_Bot@@PAX@std@@@1@@Z ; std::allocator<std::_Container_proxy>::allocator<std::_Container_proxy><std::_List_node<Raven_Bot *,void *> >
PUBLIC	??$destroy@U_Container_proxy@std@@@?$_Wrap_alloc@V?$allocator@U_Container_proxy@std@@@std@@@std@@QAEXPAU_Container_proxy@1@@Z ; std::_Wrap_alloc<std::allocator<std::_Container_proxy> >::destroy<std::_Container_proxy>
PUBLIC	??$?0V?$allocator@PAVRaven_Bot@@@std@@$$V@?$_Compressed_pair@U?$_Wrap_alloc@V?$allocator@U?$_List_node@PAVRaven_Bot@@PAX@std@@@std@@@std@@V?$_List_val@U?$_List_simple_types@PAVRaven_Bot@@@std@@@2@$00@std@@QAE@U_One_then_variadic_args_t@1@$$QAV?$allocator@PAVRaven_Bot@@@1@@Z ; std::_Compressed_pair<std::_Wrap_alloc<std::allocator<std::_List_node<Raven_Bot *,void *> > >,std::_List_val<std::_List_simple_types<Raven_Bot *> >,1>::_Compressed_pair<std::_Wrap_alloc<std::allocator<std::_List_node<Raven_Bot *,void *> > >,std::_List_val<std::_List_simple_types<Raven_Bot *> >,1><std::allocator<Raven_Bot *> >
PUBLIC	??$?0ABV?$allocator@PAVRaven_Bot@@@std@@$$V@?$_Compressed_pair@U?$_Wrap_alloc@V?$allocator@U?$_List_node@PAVRaven_Bot@@PAX@std@@@std@@@std@@V?$_List_val@U?$_List_simple_types@PAVRaven_Bot@@@std@@@2@$00@std@@QAE@U_One_then_variadic_args_t@1@ABV?$allocator@PAVRaven_Bot@@@1@@Z ; std::_Compressed_pair<std::_Wrap_alloc<std::allocator<std::_List_node<Raven_Bot *,void *> > >,std::_List_val<std::_List_simple_types<Raven_Bot *> >,1>::_Compressed_pair<std::_Wrap_alloc<std::allocator<std::_List_node<Raven_Bot *,void *> > >,std::_List_val<std::_List_simple_types<Raven_Bot *> >,1><std::allocator<Raven_Bot *> const &>
PUBLIC	??$construct@U_Container_proxy@std@@U12@@?$_Wrap_alloc@V?$allocator@U_Container_proxy@std@@@std@@@std@@QAEXPAU_Container_proxy@1@$$QAU21@@Z ; std::_Wrap_alloc<std::allocator<std::_Container_proxy> >::construct<std::_Container_proxy,std::_Container_proxy>
PUBLIC	??$addressof@PAVRaven_Bot@@@std@@YAPAPAVRaven_Bot@@AAPAV1@@Z ; std::addressof<Raven_Bot *>
PUBLIC	??$destroy@PAVRaven_Bot@@@?$_Wrap_alloc@V?$allocator@U?$_List_node@PAVRaven_Bot@@PAX@std@@@std@@@std@@QAEXPAPAVRaven_Bot@@@Z ; std::_Wrap_alloc<std::allocator<std::_List_node<Raven_Bot *,void *> > >::destroy<Raven_Bot *>
PUBLIC	??$_Allocate@U_Container_proxy@std@@@std@@YAPAU_Container_proxy@0@IPAU10@_N@Z ; std::_Allocate<std::_Container_proxy>
PUBLIC	??$_Deallocate@U_Container_proxy@std@@@std@@YAXPAU_Container_proxy@0@I@Z ; std::_Deallocate<std::_Container_proxy>
PUBLIC	??$_Deallocate@U?$_List_node@PAVRaven_Bot@@PAX@std@@@std@@YAXPAU?$_List_node@PAVRaven_Bot@@PAX@0@I@Z ; std::_Deallocate<std::_List_node<Raven_Bot *,void *> >
PUBLIC	??$construct@PAU?$_List_node@PAVRaven_Bot@@PAX@std@@AAPAU12@@?$_Wrap_alloc@V?$allocator@U?$_List_node@PAVRaven_Bot@@PAX@std@@@std@@@std@@QAEXPAPAU?$_List_node@PAVRaven_Bot@@PAX@1@AAPAU21@@Z ; std::_Wrap_alloc<std::allocator<std::_List_node<Raven_Bot *,void *> > >::construct<std::_List_node<Raven_Bot *,void *> *,std::_List_node<Raven_Bot *,void *> * &>
PUBLIC	??$_Allocate@U?$_List_node@PAVRaven_Bot@@PAX@std@@@std@@YAPAU?$_List_node@PAVRaven_Bot@@PAX@0@IPAU10@_N@Z ; std::_Allocate<std::_List_node<Raven_Bot *,void *> >
PUBLIC	??$forward@ABQAVRaven_Bot@@@std@@YAABQAVRaven_Bot@@ABQAV1@@Z ; std::forward<Raven_Bot * const &>
PUBLIC	??$_Buynode@ABQAVRaven_Bot@@@?$_List_buy@PAVRaven_Bot@@V?$allocator@PAVRaven_Bot@@@std@@@std@@QAEPAU?$_List_node@PAVRaven_Bot@@PAX@1@PAU21@0ABQAVRaven_Bot@@@Z ; std::_List_buy<Raven_Bot *,std::allocator<Raven_Bot *> >::_Buynode<Raven_Bot * const &>
PUBLIC	??$_Move@AAI@std@@YA$$QAIAAI@Z			; std::_Move<unsigned int &>
PUBLIC	??$_Addressof@PAU?$_List_node@PAVRaven_Bot@@PAX@std@@@std@@YAPAPAU?$_List_node@PAVRaven_Bot@@PAX@0@AAPAU10@U?$integral_constant@_N$0A@@0@@Z ; std::_Addressof<std::_List_node<Raven_Bot *,void *> *>
PUBLIC	??$destroy@PAU?$_List_node@PAVRaven_Bot@@PAX@std@@@?$allocator_traits@V?$allocator@U?$_List_node@PAVRaven_Bot@@PAX@std@@@std@@@std@@SAXAAV?$allocator@U?$_List_node@PAVRaven_Bot@@PAX@std@@@1@PAPAU?$_List_node@PAVRaven_Bot@@PAX@1@@Z ; std::allocator_traits<std::allocator<std::_List_node<Raven_Bot *,void *> > >::destroy<std::_List_node<Raven_Bot *,void *> *>
PUBLIC	??$destroy@U_Container_proxy@std@@@?$allocator_traits@V?$allocator@U_Container_proxy@std@@@std@@@std@@SAXAAV?$allocator@U_Container_proxy@std@@@1@PAU_Container_proxy@1@@Z ; std::allocator_traits<std::allocator<std::_Container_proxy> >::destroy<std::_Container_proxy>
PUBLIC	??$forward@V?$allocator@PAVRaven_Bot@@@std@@@std@@YA$$QAV?$allocator@PAVRaven_Bot@@@0@AAV10@@Z ; std::forward<std::allocator<Raven_Bot *> >
PUBLIC	??$?0V?$allocator@PAVRaven_Bot@@@std@@@?$_Wrap_alloc@V?$allocator@U?$_List_node@PAVRaven_Bot@@PAX@std@@@std@@@std@@QAE@ABV?$allocator@PAVRaven_Bot@@@1@@Z ; std::_Wrap_alloc<std::allocator<std::_List_node<Raven_Bot *,void *> > >::_Wrap_alloc<std::allocator<std::_List_node<Raven_Bot *,void *> > ><std::allocator<Raven_Bot *> >
PUBLIC	??$?0PAVRaven_Bot@@@?$allocator@U?$_List_node@PAVRaven_Bot@@PAX@std@@@std@@QAE@ABV?$allocator@PAVRaven_Bot@@@1@@Z ; std::allocator<std::_List_node<Raven_Bot *,void *> >::allocator<std::_List_node<Raven_Bot *,void *> ><Raven_Bot *>
PUBLIC	??$forward@ABV?$allocator@PAVRaven_Bot@@@std@@@std@@YAABV?$allocator@PAVRaven_Bot@@@0@ABV10@@Z ; std::forward<std::allocator<Raven_Bot *> const &>
PUBLIC	??$forward@U_Container_proxy@std@@@std@@YA$$QAU_Container_proxy@0@AAU10@@Z ; std::forward<std::_Container_proxy>
PUBLIC	??$construct@U_Container_proxy@std@@U12@@?$allocator_traits@V?$allocator@U_Container_proxy@std@@@std@@@std@@SAXAAV?$allocator@U_Container_proxy@std@@@1@PAU_Container_proxy@1@$$QAU31@@Z ; std::allocator_traits<std::allocator<std::_Container_proxy> >::construct<std::_Container_proxy,std::_Container_proxy>
PUBLIC	??$_Addressof@PAVRaven_Bot@@@std@@YAPAPAVRaven_Bot@@AAPAV1@U?$integral_constant@_N$0A@@0@@Z ; std::_Addressof<Raven_Bot *>
PUBLIC	??$destroy@PAVRaven_Bot@@@?$allocator_traits@V?$allocator@U?$_List_node@PAVRaven_Bot@@PAX@std@@@std@@@std@@SAXAAV?$allocator@U?$_List_node@PAVRaven_Bot@@PAX@std@@@1@PAPAVRaven_Bot@@@Z ; std::allocator_traits<std::allocator<std::_List_node<Raven_Bot *,void *> > >::destroy<Raven_Bot *>
PUBLIC	??$forward@AAPAU?$_List_node@PAVRaven_Bot@@PAX@std@@@std@@YAAAPAU?$_List_node@PAVRaven_Bot@@PAX@0@AAPAU10@@Z ; std::forward<std::_List_node<Raven_Bot *,void *> * &>
PUBLIC	??$construct@PAU?$_List_node@PAVRaven_Bot@@PAX@std@@AAPAU12@@?$allocator_traits@V?$allocator@U?$_List_node@PAVRaven_Bot@@PAX@std@@@std@@@std@@SAXAAV?$allocator@U?$_List_node@PAVRaven_Bot@@PAX@std@@@1@PAPAU?$_List_node@PAVRaven_Bot@@PAX@1@AAPAU31@@Z ; std::allocator_traits<std::allocator<std::_List_node<Raven_Bot *,void *> > >::construct<std::_List_node<Raven_Bot *,void *> *,std::_List_node<Raven_Bot *,void *> * &>
PUBLIC	??$_Move@AAPAU?$_List_node@PAVRaven_Bot@@PAX@std@@@std@@YA$$QAPAU?$_List_node@PAVRaven_Bot@@PAX@0@AAPAU10@@Z ; std::_Move<std::_List_node<Raven_Bot *,void *> * &>
PUBLIC	??$construct@PAVRaven_Bot@@ABQAV1@@?$_Wrap_alloc@V?$allocator@U?$_List_node@PAVRaven_Bot@@PAX@std@@@std@@@std@@QAEXPAPAVRaven_Bot@@ABQAV2@@Z ; std::_Wrap_alloc<std::allocator<std::_List_node<Raven_Bot *,void *> > >::construct<Raven_Bot *,Raven_Bot * const &>
PUBLIC	??$destroy@PAU?$_List_node@PAVRaven_Bot@@PAX@std@@@?$allocator@U?$_List_node@PAVRaven_Bot@@PAX@std@@@std@@QAEXPAPAU?$_List_node@PAVRaven_Bot@@PAX@1@@Z ; std::allocator<std::_List_node<Raven_Bot *,void *> >::destroy<std::_List_node<Raven_Bot *,void *> *>
PUBLIC	??$destroy@U_Container_proxy@std@@@?$allocator@U_Container_proxy@std@@@std@@QAEXPAU_Container_proxy@1@@Z ; std::allocator<std::_Container_proxy>::destroy<std::_Container_proxy>
PUBLIC	??$construct@U_Container_proxy@std@@U12@@?$allocator@U_Container_proxy@std@@@std@@QAEXPAU_Container_proxy@1@$$QAU21@@Z ; std::allocator<std::_Container_proxy>::construct<std::_Container_proxy,std::_Container_proxy>
PUBLIC	??$destroy@PAVRaven_Bot@@@?$allocator@U?$_List_node@PAVRaven_Bot@@PAX@std@@@std@@QAEXPAPAVRaven_Bot@@@Z ; std::allocator<std::_List_node<Raven_Bot *,void *> >::destroy<Raven_Bot *>
PUBLIC	??$construct@PAU?$_List_node@PAVRaven_Bot@@PAX@std@@AAPAU12@@?$allocator@U?$_List_node@PAVRaven_Bot@@PAX@std@@@std@@QAEXPAPAU?$_List_node@PAVRaven_Bot@@PAX@1@AAPAU21@@Z ; std::allocator<std::_List_node<Raven_Bot *,void *> >::construct<std::_List_node<Raven_Bot *,void *> *,std::_List_node<Raven_Bot *,void *> * &>
PUBLIC	??$construct@PAVRaven_Bot@@ABQAV1@@?$allocator_traits@V?$allocator@U?$_List_node@PAVRaven_Bot@@PAX@std@@@std@@@std@@SAXAAV?$allocator@U?$_List_node@PAVRaven_Bot@@PAX@std@@@1@PAPAVRaven_Bot@@ABQAV3@@Z ; std::allocator_traits<std::allocator<std::_List_node<Raven_Bot *,void *> > >::construct<Raven_Bot *,Raven_Bot * const &>
PUBLIC	??$construct@PAVRaven_Bot@@ABQAV1@@?$allocator@U?$_List_node@PAVRaven_Bot@@PAX@std@@@std@@QAEXPAPAVRaven_Bot@@ABQAV2@@Z ; std::allocator<std::_List_node<Raven_Bot *,void *> >::construct<Raven_Bot *,Raven_Bot * const &>
PUBLIC	??_C@_17CNPHIMPH@?$AA?$CF?$AAl?$AAs?$AA?$AA@	; `string'
PUBLIC	??_C@_1GI@DDIAPGKN@?$AAD?$AA?3?$AA?2?$AAM?$AAi?$AAc?$AAr?$AAo?$AAs?$AAo?$AAf?$AAt?$AA?5?$AAV?$AAi?$AAs?$AAu?$AAa?$AAl?$AA?5?$AAS?$AAt?$AAu?$AAd?$AAi?$AAo?$AA?5?$AA1?$AA4?$AA?4?$AA0?$AA?2@ ; `string'
PUBLIC	??_C@_1DC@POOIKBAO@?$AAI?$AAT?$AAE?$AAR?$AAA?$AAT?$AAO?$AAR?$AA?5?$AAL?$AAI?$AAS?$AAT?$AA?5?$AAC?$AAO?$AAR?$AAR?$AAU?$AAP?$AAT?$AAE?$AAD?$AA?$CB?$AA?$AA@ ; `string'
PUBLIC	??_C@_1GA@IINJPBGE@?$AAD?$AA?3?$AA?2?$AAM?$AAi?$AAc?$AAr?$AAo?$AAs?$AAo?$AAf?$AAt?$AA?5?$AAV?$AAi?$AAs?$AAu?$AAa?$AAl?$AA?5?$AAS?$AAt?$AAu?$AAd?$AAi?$AAo?$AA?5?$AA1?$AA4?$AA?4?$AA0?$AA?2@ ; `string'
PUBLIC	??_C@_1EA@DOGAGKDH@?$AAl?$AAi?$AAs?$AAt?$AA?5?$AAi?$AAt?$AAe?$AAr?$AAa?$AAt?$AAo?$AAr?$AA?5?$AAn?$AAo?$AAt?$AA?5?$AAi?$AAn?$AAc?$AAr?$AAe?$AAm?$AAe?$AAn?$AAt?$AAa?$AAb?$AAl?$AAe?$AA?$AA@ ; `string'
PUBLIC	??_C@_0CE@OFMIGAMM@Standard?5C?$CL?$CL?5Libraries?5Out?5of?5Ra@ ; `string'
PUBLIC	??_C@_1FG@IBPIFFN@?$AA?$CC?$AAS?$AAt?$AAa?$AAn?$AAd?$AAa?$AAr?$AAd?$AA?5?$AAC?$AA?$CL?$AA?$CL?$AA?5?$AAL?$AAi?$AAb?$AAr?$AAa?$AAr?$AAi?$AAe?$AAs?$AA?5?$AAO?$AAu?$AAt?$AA?5?$AAo?$AAf?$AA?5?$AAR@ ; `string'
PUBLIC	??_C@_1OE@NJHNFAGK@?$AAs?$AAt?$AAd?$AA?3?$AA?3?$AA_?$AAL?$AAi?$AAs?$AAt?$AA_?$AAc?$AAo?$AAn?$AAs?$AAt?$AA_?$AAi?$AAt?$AAe?$AAr?$AAa?$AAt?$AAo?$AAr?$AA?$DM?$AAc?$AAl?$AAa?$AAs?$AAs?$AA?5@ ; `string'
PUBLIC	??_C@_1BO@MEPPHOO@?$AA?$CC?$AAo?$AAu?$AAt?$AA?5?$AAo?$AAf?$AA?5?$AAr?$AAa?$AAn?$AAg?$AAe?$AA?$CC?$AA?$AA@ ; `string'
PUBLIC	??_C@_1EC@HILJLMMC@?$AAl?$AAi?$AAs?$AAt?$AA?5?$AAi?$AAt?$AAe?$AAr?$AAa?$AAt?$AAo?$AAr?$AA?5?$AAn?$AAo?$AAt?$AA?5?$AAd?$AAe?$AAr?$AAe?$AAf?$AAe?$AAr?$AAe?$AAn?$AAc?$AAa?$AAb?$AAl?$AAe@ ; `string'
PUBLIC	??_C@_1OC@BFEHCKCD@?$AAs?$AAt?$AAd?$AA?3?$AA?3?$AA_?$AAL?$AAi?$AAs?$AAt?$AA_?$AAc?$AAo?$AAn?$AAs?$AAt?$AA_?$AAi?$AAt?$AAe?$AAr?$AAa?$AAt?$AAo?$AAr?$AA?$DM?$AAc?$AAl?$AAa?$AAs?$AAs?$AA?5@ ; `string'
PUBLIC	?id@?$codecvt@DDU_Mbstatet@@@std@@2V0locale@2@A	; std::codecvt<char,char,_Mbstatet>::id
PUBLIC	?id@?$num_get@DV?$istreambuf_iterator@DU?$char_traits@D@std@@@std@@@std@@2V0locale@2@A ; std::num_get<char,std::istreambuf_iterator<char,std::char_traits<char> > >::id
PUBLIC	??_C@_1DI@MDELDGPI@?$AAl?$AAi?$AAs?$AAt?$AA?5?$AAi?$AAt?$AAe?$AAr?$AAa?$AAt?$AAo?$AAr?$AAs?$AA?5?$AAi?$AAn?$AAc?$AAo?$AAm?$AAp?$AAa?$AAt?$AAi?$AAb?$AAl?$AAe?$AA?$AA@ ; `string'
PUBLIC	??_C@_0CI@FNPHFCCM@Standard?5C?$CL?$CL?5Libraries?5Invalid?5A@ ; `string'
PUBLIC	??_C@_1FO@GJIHNDLM@?$AA?$CC?$AAS?$AAt?$AAa?$AAn?$AAd?$AAa?$AAr?$AAd?$AA?5?$AAC?$AA?$CL?$AA?$CL?$AA?5?$AAL?$AAi?$AAb?$AAr?$AAa?$AAr?$AAi?$AAe?$AAs?$AA?5?$AAI?$AAn?$AAv?$AAa?$AAl?$AAi?$AAd?$AA?5@ ; `string'
PUBLIC	??_C@_1OE@HJIALJKP@?$AAs?$AAt?$AAd?$AA?3?$AA?3?$AA_?$AAL?$AAi?$AAs?$AAt?$AA_?$AAc?$AAo?$AAn?$AAs?$AAt?$AA_?$AAi?$AAt?$AAe?$AAr?$AAa?$AAt?$AAo?$AAr?$AA?$DM?$AAc?$AAl?$AAa?$AAs?$AAs?$AA?5@ ; `string'
PUBLIC	??_C@_1CG@JNLFBNGN@?$AA?$CC?$AAi?$AAn?$AAv?$AAa?$AAl?$AAi?$AAd?$AA?5?$AAa?$AAr?$AAg?$AAu?$AAm?$AAe?$AAn?$AAt?$AA?$CC?$AA?$AA@ ; `string'
PUBLIC	?id@?$numpunct@D@std@@2V0locale@2@A		; std::numpunct<char>::id
PUBLIC	??_C@_0BE@LMNLACIC@_Ptr_container?5?$CB?$DN?50?$AA@ ; `string'
PUBLIC	??_C@_1DG@HGDKEBPG@?$AA?$CC?$AA_?$AAP?$AAt?$AAr?$AA_?$AAc?$AAo?$AAn?$AAt?$AAa?$AAi?$AAn?$AAe?$AAr?$AA?5?$AA?$CB?$AA?$DN?$AA?5?$AA0?$AA?$CC?$AA?5?$AA?$CG?$AA?$CG?$AA?5?$AA0?$AA?$AA@ ; `string'
PUBLIC	??_C@_1GI@MOGLCDAO@?$AAD?$AA?3?$AA?2?$AAM?$AAi?$AAc?$AAr?$AAo?$AAs?$AAo?$AAf?$AAt?$AA?5?$AAV?$AAi?$AAs?$AAu?$AAa?$AAl?$AA?5?$AAS?$AAt?$AAu?$AAd?$AAi?$AAo?$AA?5?$AA1?$AA4?$AA?4?$AA0?$AA?2@ ; `string'
PUBLIC	??_C@_1BO@NKFMJPA@?$AAs?$AAt?$AAd?$AA?3?$AA?3?$AA_?$AAA?$AAl?$AAl?$AAo?$AAc?$AAa?$AAt?$AAe?$AA?$AA@ ; `string'
PUBLIC	??_C@_09GLJCAGLP@_Ptr?5?$CB?$DN?50?$AA@		; `string'
PUBLIC	??_C@_1CC@GKJLLHIM@?$AA?$CC?$AA_?$AAP?$AAt?$AAr?$AA?5?$AA?$CB?$AA?$DN?$AA?5?$AA0?$AA?$CC?$AA?5?$AA?$CG?$AA?$CG?$AA?5?$AA0?$AA?$AA@ ; `string'
PUBLIC	??_C@_0CG@FHBDFCGK@_Count?5?$DM?$DN?5?$CIsize_t?$CJ?$CI?91?$CJ?5?1?5sizeof?5@ ; `string'
PUBLIC	??_C@_1FK@EJGLHMGC@?$AA?$CC?$AA_?$AAC?$AAo?$AAu?$AAn?$AAt?$AA?5?$AA?$DM?$AA?$DN?$AA?5?$AA?$CI?$AAs?$AAi?$AAz?$AAe?$AA_?$AAt?$AA?$CJ?$AA?$CI?$AA?9?$AA1?$AA?$CJ?$AA?5?$AA?1?$AA?5?$AAs?$AAi?$AAz?$AAe?$AAo?$AAf@ ; `string'
PUBLIC	??_C@_1CC@LOFJFFDB@?$AAs?$AAt?$AAd?$AA?3?$AA?3?$AA_?$AAD?$AAe?$AAa?$AAl?$AAl?$AAo?$AAc?$AAa?$AAt?$AAe?$AA?$AA@ ; `string'
PUBLIC	??_C@_0DD@GBGGGKGG@?$CI_Ptr_user?5?$CG?5?$CI_BIG_ALLOCATION_AL@ ; `string'
PUBLIC	??_C@_1HE@CDMBFOKC@?$AA?$CC?$AA?$CI?$AA_?$AAP?$AAt?$AAr?$AA_?$AAu?$AAs?$AAe?$AAr?$AA?5?$AA?$CG?$AA?5?$AA?$CI?$AA_?$AAB?$AAI?$AAG?$AA_?$AAA?$AAL?$AAL?$AAO?$AAC?$AAA?$AAT?$AAI?$AAO?$AAN?$AA_?$AAA@ ; `string'
PUBLIC	??_C@_0EI@NOJHEJCJ@reinterpret_cast?$DMuintptr_t?5?$CK?$DO?$CI_P@ ; `string'
PUBLIC	??_C@_1JO@EKLKIEHP@?$AA?$CC?$AAr?$AAe?$AAi?$AAn?$AAt?$AAe?$AAr?$AAp?$AAr?$AAe?$AAt?$AA_?$AAc?$AAa?$AAs?$AAt?$AA?$DM?$AAu?$AAi?$AAn?$AAt?$AAp?$AAt?$AAr?$AA_?$AAt?$AA?5?$AA?$CK?$AA?$DO?$AA?$CI?$AA_@ ; `string'
PUBLIC	??_C@_0BL@OCKMEJON@_Ptr_container?5?$DM?5_Ptr_user?$AA@ ; `string'
PUBLIC	??_C@_1EE@PDHAHDDC@?$AA?$CC?$AA_?$AAP?$AAt?$AAr?$AA_?$AAc?$AAo?$AAn?$AAt?$AAa?$AAi?$AAn?$AAe?$AAr?$AA?5?$AA?$DM?$AA?5?$AA_?$AAP?$AAt?$AAr?$AA_?$AAu?$AAs?$AAe?$AAr?$AA?$CC?$AA?5?$AA?$CG?$AA?$CG?$AA?5@ ; `string'
PUBLIC	??_C@_0DB@GLFJLNCE@2?5?$CK?5sizeof?$CIvoid?5?$CK?$CJ?5?$DM?$DN?5_Ptr_user?5@ ; `string'
PUBLIC	??_C@_1HA@NAPGMHAO@?$AA?$CC?$AA2?$AA?5?$AA?$CK?$AA?5?$AAs?$AAi?$AAz?$AAe?$AAo?$AAf?$AA?$CI?$AAv?$AAo?$AAi?$AAd?$AA?5?$AA?$CK?$AA?$CJ?$AA?5?$AA?$DM?$AA?$DN?$AA?5?$AA_?$AAP?$AAt?$AAr?$AA_?$AAu?$AAs?$AAe?$AAr@ ; `string'
PUBLIC	??_C@_0CN@BLHJCAL@_Ptr_user?5?9?5_Ptr_container?5?$DM?$DN?5_N@ ; `string'
PUBLIC	??_C@_1GI@DHJGPFNI@?$AA?$CC?$AA_?$AAP?$AAt?$AAr?$AA_?$AAu?$AAs?$AAe?$AAr?$AA?5?$AA?9?$AA?5?$AA_?$AAP?$AAt?$AAr?$AA_?$AAc?$AAo?$AAn?$AAt?$AAa?$AAi?$AAn?$AAe?$AAr?$AA?5?$AA?$DM?$AA?$DN?$AA?5?$AA_@ ; `string'
PUBLIC	??_C@_0BB@MOGOBHAF@list?$DMT?$DO?5too?5long?$AA@ ; `string'
PUBLIC	__real@0000000000000000
PUBLIC	__real@0010000000000000
PUBLIC	__real@00800000
PUBLIC	__real@7f7fffff
PUBLIC	__real@7fefffffffffffff
EXTRN	??2@YAPAXI@Z:PROC				; operator new
EXTRN	??3@YAXPAX@Z:PROC				; operator delete
EXTRN	__invalid_parameter:PROC
EXTRN	??0_Lockit@std@@QAE@H@Z:PROC			; std::_Lockit::_Lockit
EXTRN	??1_Lockit@std@@QAE@XZ:PROC			; std::_Lockit::~_Lockit
EXTRN	_sqrt:PROC
EXTRN	__CrtDbgReportW:PROC
EXTRN	?_Debug_message@std@@YAXPB_W0I@Z:PROC		; std::_Debug_message
EXTRN	?_Xbad_alloc@std@@YAXXZ:PROC			; std::_Xbad_alloc
EXTRN	?_Xlength_error@std@@YAXPBD@Z:PROC		; std::_Xlength_error
EXTRN	@_RTC_CheckStackVars@8:PROC
EXTRN	@__security_check_cookie@4:PROC
EXTRN	__CxxThrowException@8:PROC
EXTRN	__RTC_CheckEsp:PROC
EXTRN	__RTC_InitBase:PROC
EXTRN	__RTC_Shutdown:PROC
EXTRN	___CxxFrameHandler3:PROC
EXTRN	___security_cookie:DWORD
EXTRN	__fltused:DWORD
_BSS	SEGMENT
?MaxInt@@3HB DD	01H DUP (?)				; MaxInt
	ALIGN	8

?MaxDouble@@3NB DQ 01H DUP (?)				; MaxDouble
?MinDouble@@3NB DQ 01H DUP (?)				; MinDouble
?MaxFloat@@3MB DD 01H DUP (?)				; MaxFloat
?MinFloat@@3MB DD 01H DUP (?)				; MinFloat
_BSS	ENDS
;	COMDAT ?id@?$codecvt@DDU_Mbstatet@@@std@@2V0locale@2@A
_BSS	SEGMENT
?id@?$codecvt@DDU_Mbstatet@@@std@@2V0locale@2@A DD 01H DUP (?) ; std::codecvt<char,char,_Mbstatet>::id
_BSS	ENDS
;	COMDAT ?id@?$num_get@DV?$istreambuf_iterator@DU?$char_traits@D@std@@@std@@@std@@2V0locale@2@A
_BSS	SEGMENT
?id@?$num_get@DV?$istreambuf_iterator@DU?$char_traits@D@std@@@std@@@std@@2V0locale@2@A DD 01H DUP (?) ; std::num_get<char,std::istreambuf_iterator<char,std::char_traits<char> > >::id
_BSS	ENDS
;	COMDAT ?id@?$numpunct@D@std@@2V0locale@2@A
_BSS	SEGMENT
?id@?$numpunct@D@std@@2V0locale@2@A DD 01H DUP (?)	; std::numpunct<char>::id
_BSS	ENDS
CRT$XCU	SEGMENT
?MaxInt$initializer$@@3P6AXXZA DD FLAT:??__EMaxInt@@YAXXZ ; MaxInt$initializer$
CRT$XCU	ENDS
;	COMDAT __real@7fefffffffffffff
CONST	SEGMENT
__real@7fefffffffffffff DQ 07fefffffffffffffr	; 1.79769e+308
CONST	ENDS
;	COMDAT __real@7f7fffff
CONST	SEGMENT
__real@7f7fffff DD 07f7fffffr			; 3.40282e+38
CONST	ENDS
;	COMDAT __real@00800000
CONST	SEGMENT
__real@00800000 DD 000800000r			; 1.17549e-38
CONST	ENDS
;	COMDAT __real@0010000000000000
CONST	SEGMENT
__real@0010000000000000 DQ 00010000000000000r	; 2.22507e-308
CONST	ENDS
;	COMDAT __real@0000000000000000
CONST	SEGMENT
__real@0000000000000000 DQ 00000000000000000r	; 0
CONST	ENDS
;	COMDAT rtc$TMZ
rtc$TMZ	SEGMENT
__RTC_Shutdown.rtc$TMZ DD FLAT:__RTC_Shutdown
rtc$TMZ	ENDS
;	COMDAT rtc$IMZ
rtc$IMZ	SEGMENT
__RTC_InitBase.rtc$IMZ DD FLAT:__RTC_InitBase
rtc$IMZ	ENDS
;	COMDAT ??_C@_0BB@MOGOBHAF@list?$DMT?$DO?5too?5long?$AA@
CONST	SEGMENT
??_C@_0BB@MOGOBHAF@list?$DMT?$DO?5too?5long?$AA@ DB 'list<T> too long', 00H ; `string'
CONST	ENDS
;	COMDAT ??_C@_1GI@DHJGPFNI@?$AA?$CC?$AA_?$AAP?$AAt?$AAr?$AA_?$AAu?$AAs?$AAe?$AAr?$AA?5?$AA?9?$AA?5?$AA_?$AAP?$AAt?$AAr?$AA_?$AAc?$AAo?$AAn?$AAt?$AAa?$AAi?$AAn?$AAe?$AAr?$AA?5?$AA?$DM?$AA?$DN?$AA?5?$AA_@
CONST	SEGMENT
??_C@_1GI@DHJGPFNI@?$AA?$CC?$AA_?$AAP?$AAt?$AAr?$AA_?$AAu?$AAs?$AAe?$AAr?$AA?5?$AA?9?$AA?5?$AA_?$AAP?$AAt?$AAr?$AA_?$AAc?$AAo?$AAn?$AAt?$AAa?$AAi?$AAn?$AAe?$AAr?$AA?5?$AA?$DM?$AA?$DN?$AA?5?$AA_@ DB '"'
	DB	00H, '_', 00H, 'P', 00H, 't', 00H, 'r', 00H, '_', 00H, 'u', 00H
	DB	's', 00H, 'e', 00H, 'r', 00H, ' ', 00H, '-', 00H, ' ', 00H, '_'
	DB	00H, 'P', 00H, 't', 00H, 'r', 00H, '_', 00H, 'c', 00H, 'o', 00H
	DB	'n', 00H, 't', 00H, 'a', 00H, 'i', 00H, 'n', 00H, 'e', 00H, 'r'
	DB	00H, ' ', 00H, '<', 00H, '=', 00H, ' ', 00H, '_', 00H, 'N', 00H
	DB	'O', 00H, 'N', 00H, '_', 00H, 'U', 00H, 'S', 00H, 'E', 00H, 'R'
	DB	00H, '_', 00H, 'S', 00H, 'I', 00H, 'Z', 00H, 'E', 00H, '"', 00H
	DB	' ', 00H, '&', 00H, '&', 00H, ' ', 00H, '0', 00H, 00H, 00H ; `string'
CONST	ENDS
;	COMDAT ??_C@_0CN@BLHJCAL@_Ptr_user?5?9?5_Ptr_container?5?$DM?$DN?5_N@
CONST	SEGMENT
??_C@_0CN@BLHJCAL@_Ptr_user?5?9?5_Ptr_container?5?$DM?$DN?5_N@ DB '_Ptr_u'
	DB	'ser - _Ptr_container <= _NON_USER_SIZE', 00H ; `string'
CONST	ENDS
;	COMDAT ??_C@_1HA@NAPGMHAO@?$AA?$CC?$AA2?$AA?5?$AA?$CK?$AA?5?$AAs?$AAi?$AAz?$AAe?$AAo?$AAf?$AA?$CI?$AAv?$AAo?$AAi?$AAd?$AA?5?$AA?$CK?$AA?$CJ?$AA?5?$AA?$DM?$AA?$DN?$AA?5?$AA_?$AAP?$AAt?$AAr?$AA_?$AAu?$AAs?$AAe?$AAr@
CONST	SEGMENT
??_C@_1HA@NAPGMHAO@?$AA?$CC?$AA2?$AA?5?$AA?$CK?$AA?5?$AAs?$AAi?$AAz?$AAe?$AAo?$AAf?$AA?$CI?$AAv?$AAo?$AAi?$AAd?$AA?5?$AA?$CK?$AA?$CJ?$AA?5?$AA?$DM?$AA?$DN?$AA?5?$AA_?$AAP?$AAt?$AAr?$AA_?$AAu?$AAs?$AAe?$AAr@ DB '"'
	DB	00H, '2', 00H, ' ', 00H, '*', 00H, ' ', 00H, 's', 00H, 'i', 00H
	DB	'z', 00H, 'e', 00H, 'o', 00H, 'f', 00H, '(', 00H, 'v', 00H, 'o'
	DB	00H, 'i', 00H, 'd', 00H, ' ', 00H, '*', 00H, ')', 00H, ' ', 00H
	DB	'<', 00H, '=', 00H, ' ', 00H, '_', 00H, 'P', 00H, 't', 00H, 'r'
	DB	00H, '_', 00H, 'u', 00H, 's', 00H, 'e', 00H, 'r', 00H, ' ', 00H
	DB	'-', 00H, ' ', 00H, '_', 00H, 'P', 00H, 't', 00H, 'r', 00H, '_'
	DB	00H, 'c', 00H, 'o', 00H, 'n', 00H, 't', 00H, 'a', 00H, 'i', 00H
	DB	'n', 00H, 'e', 00H, 'r', 00H, '"', 00H, ' ', 00H, '&', 00H, '&'
	DB	00H, ' ', 00H, '0', 00H, 00H, 00H		; `string'
CONST	ENDS
;	COMDAT ??_C@_0DB@GLFJLNCE@2?5?$CK?5sizeof?$CIvoid?5?$CK?$CJ?5?$DM?$DN?5_Ptr_user?5@
CONST	SEGMENT
??_C@_0DB@GLFJLNCE@2?5?$CK?5sizeof?$CIvoid?5?$CK?$CJ?5?$DM?$DN?5_Ptr_user?5@ DB '2'
	DB	' * sizeof(void *) <= _Ptr_user - _Ptr_container', 00H ; `string'
CONST	ENDS
;	COMDAT ??_C@_1EE@PDHAHDDC@?$AA?$CC?$AA_?$AAP?$AAt?$AAr?$AA_?$AAc?$AAo?$AAn?$AAt?$AAa?$AAi?$AAn?$AAe?$AAr?$AA?5?$AA?$DM?$AA?5?$AA_?$AAP?$AAt?$AAr?$AA_?$AAu?$AAs?$AAe?$AAr?$AA?$CC?$AA?5?$AA?$CG?$AA?$CG?$AA?5@
CONST	SEGMENT
??_C@_1EE@PDHAHDDC@?$AA?$CC?$AA_?$AAP?$AAt?$AAr?$AA_?$AAc?$AAo?$AAn?$AAt?$AAa?$AAi?$AAn?$AAe?$AAr?$AA?5?$AA?$DM?$AA?5?$AA_?$AAP?$AAt?$AAr?$AA_?$AAu?$AAs?$AAe?$AAr?$AA?$CC?$AA?5?$AA?$CG?$AA?$CG?$AA?5@ DB '"'
	DB	00H, '_', 00H, 'P', 00H, 't', 00H, 'r', 00H, '_', 00H, 'c', 00H
	DB	'o', 00H, 'n', 00H, 't', 00H, 'a', 00H, 'i', 00H, 'n', 00H, 'e'
	DB	00H, 'r', 00H, ' ', 00H, '<', 00H, ' ', 00H, '_', 00H, 'P', 00H
	DB	't', 00H, 'r', 00H, '_', 00H, 'u', 00H, 's', 00H, 'e', 00H, 'r'
	DB	00H, '"', 00H, ' ', 00H, '&', 00H, '&', 00H, ' ', 00H, '0', 00H
	DB	00H, 00H					; `string'
CONST	ENDS
;	COMDAT ??_C@_0BL@OCKMEJON@_Ptr_container?5?$DM?5_Ptr_user?$AA@
CONST	SEGMENT
??_C@_0BL@OCKMEJON@_Ptr_container?5?$DM?5_Ptr_user?$AA@ DB '_Ptr_containe'
	DB	'r < _Ptr_user', 00H				; `string'
CONST	ENDS
;	COMDAT ??_C@_1JO@EKLKIEHP@?$AA?$CC?$AAr?$AAe?$AAi?$AAn?$AAt?$AAe?$AAr?$AAp?$AAr?$AAe?$AAt?$AA_?$AAc?$AAa?$AAs?$AAt?$AA?$DM?$AAu?$AAi?$AAn?$AAt?$AAp?$AAt?$AAr?$AA_?$AAt?$AA?5?$AA?$CK?$AA?$DO?$AA?$CI?$AA_@
CONST	SEGMENT
??_C@_1JO@EKLKIEHP@?$AA?$CC?$AAr?$AAe?$AAi?$AAn?$AAt?$AAe?$AAr?$AAp?$AAr?$AAe?$AAt?$AA_?$AAc?$AAa?$AAs?$AAt?$AA?$DM?$AAu?$AAi?$AAn?$AAt?$AAp?$AAt?$AAr?$AA_?$AAt?$AA?5?$AA?$CK?$AA?$DO?$AA?$CI?$AA_@ DB '"'
	DB	00H, 'r', 00H, 'e', 00H, 'i', 00H, 'n', 00H, 't', 00H, 'e', 00H
	DB	'r', 00H, 'p', 00H, 'r', 00H, 'e', 00H, 't', 00H, '_', 00H, 'c'
	DB	00H, 'a', 00H, 's', 00H, 't', 00H, '<', 00H, 'u', 00H, 'i', 00H
	DB	'n', 00H, 't', 00H, 'p', 00H, 't', 00H, 'r', 00H, '_', 00H, 't'
	DB	00H, ' ', 00H, '*', 00H, '>', 00H, '(', 00H, '_', 00H, 'P', 00H
	DB	't', 00H, 'r', 00H, '_', 00H, 'p', 00H, 't', 00H, 'r', 00H, ')'
	DB	00H, '[', 00H, '-', 00H, '1', 00H, ']', 00H, ' ', 00H, '=', 00H
	DB	'=', 00H, ' ', 00H, '_', 00H, 'B', 00H, 'I', 00H, 'G', 00H, '_'
	DB	00H, 'A', 00H, 'L', 00H, 'L', 00H, 'O', 00H, 'C', 00H, 'A', 00H
	DB	'T', 00H, 'I', 00H, 'O', 00H, 'N', 00H, '_', 00H, 'S', 00H, 'E'
	DB	00H, 'N', 00H, 'T', 00H, 'I', 00H, 'N', 00H, 'E', 00H, 'L', 00H
	DB	'"', 00H, ' ', 00H, '&', 00H, '&', 00H, ' ', 00H, '0', 00H, 00H
	DB	00H						; `string'
CONST	ENDS
;	COMDAT ??_C@_0EI@NOJHEJCJ@reinterpret_cast?$DMuintptr_t?5?$CK?$DO?$CI_P@
CONST	SEGMENT
??_C@_0EI@NOJHEJCJ@reinterpret_cast?$DMuintptr_t?5?$CK?$DO?$CI_P@ DB 'rei'
	DB	'nterpret_cast<uintptr_t *>(_Ptr_ptr)[-1] == _BIG_ALLOCATION_S'
	DB	'ENTINEL', 00H				; `string'
CONST	ENDS
;	COMDAT ??_C@_1HE@CDMBFOKC@?$AA?$CC?$AA?$CI?$AA_?$AAP?$AAt?$AAr?$AA_?$AAu?$AAs?$AAe?$AAr?$AA?5?$AA?$CG?$AA?5?$AA?$CI?$AA_?$AAB?$AAI?$AAG?$AA_?$AAA?$AAL?$AAL?$AAO?$AAC?$AAA?$AAT?$AAI?$AAO?$AAN?$AA_?$AAA@
CONST	SEGMENT
??_C@_1HE@CDMBFOKC@?$AA?$CC?$AA?$CI?$AA_?$AAP?$AAt?$AAr?$AA_?$AAu?$AAs?$AAe?$AAr?$AA?5?$AA?$CG?$AA?5?$AA?$CI?$AA_?$AAB?$AAI?$AAG?$AA_?$AAA?$AAL?$AAL?$AAO?$AAC?$AAA?$AAT?$AAI?$AAO?$AAN?$AA_?$AAA@ DB '"'
	DB	00H, '(', 00H, '_', 00H, 'P', 00H, 't', 00H, 'r', 00H, '_', 00H
	DB	'u', 00H, 's', 00H, 'e', 00H, 'r', 00H, ' ', 00H, '&', 00H, ' '
	DB	00H, '(', 00H, '_', 00H, 'B', 00H, 'I', 00H, 'G', 00H, '_', 00H
	DB	'A', 00H, 'L', 00H, 'L', 00H, 'O', 00H, 'C', 00H, 'A', 00H, 'T'
	DB	00H, 'I', 00H, 'O', 00H, 'N', 00H, '_', 00H, 'A', 00H, 'L', 00H
	DB	'I', 00H, 'G', 00H, 'N', 00H, 'M', 00H, 'E', 00H, 'N', 00H, 'T'
	DB	00H, ' ', 00H, '-', 00H, ' ', 00H, '1', 00H, ')', 00H, ')', 00H
	DB	' ', 00H, '=', 00H, '=', 00H, ' ', 00H, '0', 00H, '"', 00H, ' '
	DB	00H, '&', 00H, '&', 00H, ' ', 00H, '0', 00H, 00H, 00H ; `string'
CONST	ENDS
;	COMDAT ??_C@_0DD@GBGGGKGG@?$CI_Ptr_user?5?$CG?5?$CI_BIG_ALLOCATION_AL@
CONST	SEGMENT
??_C@_0DD@GBGGGKGG@?$CI_Ptr_user?5?$CG?5?$CI_BIG_ALLOCATION_AL@ DB '(_Ptr'
	DB	'_user & (_BIG_ALLOCATION_ALIGNMENT - 1)) == 0', 00H ; `string'
CONST	ENDS
;	COMDAT ??_C@_1CC@LOFJFFDB@?$AAs?$AAt?$AAd?$AA?3?$AA?3?$AA_?$AAD?$AAe?$AAa?$AAl?$AAl?$AAo?$AAc?$AAa?$AAt?$AAe?$AA?$AA@
CONST	SEGMENT
??_C@_1CC@LOFJFFDB@?$AAs?$AAt?$AAd?$AA?3?$AA?3?$AA_?$AAD?$AAe?$AAa?$AAl?$AAl?$AAo?$AAc?$AAa?$AAt?$AAe?$AA?$AA@ DB 's'
	DB	00H, 't', 00H, 'd', 00H, ':', 00H, ':', 00H, '_', 00H, 'D', 00H
	DB	'e', 00H, 'a', 00H, 'l', 00H, 'l', 00H, 'o', 00H, 'c', 00H, 'a'
	DB	00H, 't', 00H, 'e', 00H, 00H, 00H		; `string'
CONST	ENDS
;	COMDAT ??_C@_1FK@EJGLHMGC@?$AA?$CC?$AA_?$AAC?$AAo?$AAu?$AAn?$AAt?$AA?5?$AA?$DM?$AA?$DN?$AA?5?$AA?$CI?$AAs?$AAi?$AAz?$AAe?$AA_?$AAt?$AA?$CJ?$AA?$CI?$AA?9?$AA1?$AA?$CJ?$AA?5?$AA?1?$AA?5?$AAs?$AAi?$AAz?$AAe?$AAo?$AAf@
CONST	SEGMENT
??_C@_1FK@EJGLHMGC@?$AA?$CC?$AA_?$AAC?$AAo?$AAu?$AAn?$AAt?$AA?5?$AA?$DM?$AA?$DN?$AA?5?$AA?$CI?$AAs?$AAi?$AAz?$AAe?$AA_?$AAt?$AA?$CJ?$AA?$CI?$AA?9?$AA1?$AA?$CJ?$AA?5?$AA?1?$AA?5?$AAs?$AAi?$AAz?$AAe?$AAo?$AAf@ DB '"'
	DB	00H, '_', 00H, 'C', 00H, 'o', 00H, 'u', 00H, 'n', 00H, 't', 00H
	DB	' ', 00H, '<', 00H, '=', 00H, ' ', 00H, '(', 00H, 's', 00H, 'i'
	DB	00H, 'z', 00H, 'e', 00H, '_', 00H, 't', 00H, ')', 00H, '(', 00H
	DB	'-', 00H, '1', 00H, ')', 00H, ' ', 00H, '/', 00H, ' ', 00H, 's'
	DB	00H, 'i', 00H, 'z', 00H, 'e', 00H, 'o', 00H, 'f', 00H, ' ', 00H
	DB	'(', 00H, '_', 00H, 'T', 00H, 'y', 00H, ')', 00H, '"', 00H, ' '
	DB	00H, '&', 00H, '&', 00H, ' ', 00H, '0', 00H, 00H, 00H ; `string'
CONST	ENDS
;	COMDAT ??_C@_0CG@FHBDFCGK@_Count?5?$DM?$DN?5?$CIsize_t?$CJ?$CI?91?$CJ?5?1?5sizeof?5@
CONST	SEGMENT
??_C@_0CG@FHBDFCGK@_Count?5?$DM?$DN?5?$CIsize_t?$CJ?$CI?91?$CJ?5?1?5sizeof?5@ DB '_'
	DB	'Count <= (size_t)(-1) / sizeof (_Ty)', 00H	; `string'
CONST	ENDS
;	COMDAT ??_C@_1CC@GKJLLHIM@?$AA?$CC?$AA_?$AAP?$AAt?$AAr?$AA?5?$AA?$CB?$AA?$DN?$AA?5?$AA0?$AA?$CC?$AA?5?$AA?$CG?$AA?$CG?$AA?5?$AA0?$AA?$AA@
CONST	SEGMENT
??_C@_1CC@GKJLLHIM@?$AA?$CC?$AA_?$AAP?$AAt?$AAr?$AA?5?$AA?$CB?$AA?$DN?$AA?5?$AA0?$AA?$CC?$AA?5?$AA?$CG?$AA?$CG?$AA?5?$AA0?$AA?$AA@ DB '"'
	DB	00H, '_', 00H, 'P', 00H, 't', 00H, 'r', 00H, ' ', 00H, '!', 00H
	DB	'=', 00H, ' ', 00H, '0', 00H, '"', 00H, ' ', 00H, '&', 00H, '&'
	DB	00H, ' ', 00H, '0', 00H, 00H, 00H		; `string'
CONST	ENDS
;	COMDAT ??_C@_09GLJCAGLP@_Ptr?5?$CB?$DN?50?$AA@
CONST	SEGMENT
??_C@_09GLJCAGLP@_Ptr?5?$CB?$DN?50?$AA@ DB '_Ptr != 0', 00H ; `string'
CONST	ENDS
;	COMDAT ??_C@_1BO@NKFMJPA@?$AAs?$AAt?$AAd?$AA?3?$AA?3?$AA_?$AAA?$AAl?$AAl?$AAo?$AAc?$AAa?$AAt?$AAe?$AA?$AA@
CONST	SEGMENT
??_C@_1BO@NKFMJPA@?$AAs?$AAt?$AAd?$AA?3?$AA?3?$AA_?$AAA?$AAl?$AAl?$AAo?$AAc?$AAa?$AAt?$AAe?$AA?$AA@ DB 's'
	DB	00H, 't', 00H, 'd', 00H, ':', 00H, ':', 00H, '_', 00H, 'A', 00H
	DB	'l', 00H, 'l', 00H, 'o', 00H, 'c', 00H, 'a', 00H, 't', 00H, 'e'
	DB	00H, 00H, 00H				; `string'
CONST	ENDS
;	COMDAT ??_C@_1GI@MOGLCDAO@?$AAD?$AA?3?$AA?2?$AAM?$AAi?$AAc?$AAr?$AAo?$AAs?$AAo?$AAf?$AAt?$AA?5?$AAV?$AAi?$AAs?$AAu?$AAa?$AAl?$AA?5?$AAS?$AAt?$AAu?$AAd?$AAi?$AAo?$AA?5?$AA1?$AA4?$AA?4?$AA0?$AA?2@
CONST	SEGMENT
??_C@_1GI@MOGLCDAO@?$AAD?$AA?3?$AA?2?$AAM?$AAi?$AAc?$AAr?$AAo?$AAs?$AAo?$AAf?$AAt?$AA?5?$AAV?$AAi?$AAs?$AAu?$AAa?$AAl?$AA?5?$AAS?$AAt?$AAu?$AAd?$AAi?$AAo?$AA?5?$AA1?$AA4?$AA?4?$AA0?$AA?2@ DB 'D'
	DB	00H, ':', 00H, '\', 00H, 'M', 00H, 'i', 00H, 'c', 00H, 'r', 00H
	DB	'o', 00H, 's', 00H, 'o', 00H, 'f', 00H, 't', 00H, ' ', 00H, 'V'
	DB	00H, 'i', 00H, 's', 00H, 'u', 00H, 'a', 00H, 'l', 00H, ' ', 00H
	DB	'S', 00H, 't', 00H, 'u', 00H, 'd', 00H, 'i', 00H, 'o', 00H, ' '
	DB	00H, '1', 00H, '4', 00H, '.', 00H, '0', 00H, '\', 00H, 'V', 00H
	DB	'C', 00H, '\', 00H, 'i', 00H, 'n', 00H, 'c', 00H, 'l', 00H, 'u'
	DB	00H, 'd', 00H, 'e', 00H, '\', 00H, 'x', 00H, 'm', 00H, 'e', 00H
	DB	'm', 00H, 'o', 00H, 'r', 00H, 'y', 00H, '0', 00H, 00H, 00H ; `string'
CONST	ENDS
;	COMDAT ??_C@_1DG@HGDKEBPG@?$AA?$CC?$AA_?$AAP?$AAt?$AAr?$AA_?$AAc?$AAo?$AAn?$AAt?$AAa?$AAi?$AAn?$AAe?$AAr?$AA?5?$AA?$CB?$AA?$DN?$AA?5?$AA0?$AA?$CC?$AA?5?$AA?$CG?$AA?$CG?$AA?5?$AA0?$AA?$AA@
CONST	SEGMENT
??_C@_1DG@HGDKEBPG@?$AA?$CC?$AA_?$AAP?$AAt?$AAr?$AA_?$AAc?$AAo?$AAn?$AAt?$AAa?$AAi?$AAn?$AAe?$AAr?$AA?5?$AA?$CB?$AA?$DN?$AA?5?$AA0?$AA?$CC?$AA?5?$AA?$CG?$AA?$CG?$AA?5?$AA0?$AA?$AA@ DB '"'
	DB	00H, '_', 00H, 'P', 00H, 't', 00H, 'r', 00H, '_', 00H, 'c', 00H
	DB	'o', 00H, 'n', 00H, 't', 00H, 'a', 00H, 'i', 00H, 'n', 00H, 'e'
	DB	00H, 'r', 00H, ' ', 00H, '!', 00H, '=', 00H, ' ', 00H, '0', 00H
	DB	'"', 00H, ' ', 00H, '&', 00H, '&', 00H, ' ', 00H, '0', 00H, 00H
	DB	00H						; `string'
CONST	ENDS
;	COMDAT ??_C@_0BE@LMNLACIC@_Ptr_container?5?$CB?$DN?50?$AA@
CONST	SEGMENT
??_C@_0BE@LMNLACIC@_Ptr_container?5?$CB?$DN?50?$AA@ DB '_Ptr_container !='
	DB	' 0', 00H					; `string'
CONST	ENDS
;	COMDAT ??_C@_1CG@JNLFBNGN@?$AA?$CC?$AAi?$AAn?$AAv?$AAa?$AAl?$AAi?$AAd?$AA?5?$AAa?$AAr?$AAg?$AAu?$AAm?$AAe?$AAn?$AAt?$AA?$CC?$AA?$AA@
CONST	SEGMENT
??_C@_1CG@JNLFBNGN@?$AA?$CC?$AAi?$AAn?$AAv?$AAa?$AAl?$AAi?$AAd?$AA?5?$AAa?$AAr?$AAg?$AAu?$AAm?$AAe?$AAn?$AAt?$AA?$CC?$AA?$AA@ DB '"'
	DB	00H, 'i', 00H, 'n', 00H, 'v', 00H, 'a', 00H, 'l', 00H, 'i', 00H
	DB	'd', 00H, ' ', 00H, 'a', 00H, 'r', 00H, 'g', 00H, 'u', 00H, 'm'
	DB	00H, 'e', 00H, 'n', 00H, 't', 00H, '"', 00H, 00H, 00H ; `string'
CONST	ENDS
;	COMDAT ??_C@_1OE@HJIALJKP@?$AAs?$AAt?$AAd?$AA?3?$AA?3?$AA_?$AAL?$AAi?$AAs?$AAt?$AA_?$AAc?$AAo?$AAn?$AAs?$AAt?$AA_?$AAi?$AAt?$AAe?$AAr?$AAa?$AAt?$AAo?$AAr?$AA?$DM?$AAc?$AAl?$AAa?$AAs?$AAs?$AA?5@
CONST	SEGMENT
??_C@_1OE@HJIALJKP@?$AAs?$AAt?$AAd?$AA?3?$AA?3?$AA_?$AAL?$AAi?$AAs?$AAt?$AA_?$AAc?$AAo?$AAn?$AAs?$AAt?$AA_?$AAi?$AAt?$AAe?$AAr?$AAa?$AAt?$AAo?$AAr?$AA?$DM?$AAc?$AAl?$AAa?$AAs?$AAs?$AA?5@ DB 's'
	DB	00H, 't', 00H, 'd', 00H, ':', 00H, ':', 00H, '_', 00H, 'L', 00H
	DB	'i', 00H, 's', 00H, 't', 00H, '_', 00H, 'c', 00H, 'o', 00H, 'n'
	DB	00H, 's', 00H, 't', 00H, '_', 00H, 'i', 00H, 't', 00H, 'e', 00H
	DB	'r', 00H, 'a', 00H, 't', 00H, 'o', 00H, 'r', 00H, '<', 00H, 'c'
	DB	00H, 'l', 00H, 'a', 00H, 's', 00H, 's', 00H, ' ', 00H, 's', 00H
	DB	't', 00H, 'd', 00H, ':', 00H, ':', 00H, '_', 00H, 'L', 00H, 'i'
	DB	00H, 's', 00H, 't', 00H, '_', 00H, 'v', 00H, 'a', 00H, 'l', 00H
	DB	'<', 00H, 's', 00H, 't', 00H, 'r', 00H, 'u', 00H, 'c', 00H, 't'
	DB	00H, ' ', 00H, 's', 00H, 't', 00H, 'd', 00H, ':', 00H, ':', 00H
	DB	'_', 00H, 'L', 00H, 'i', 00H, 's', 00H, 't', 00H, '_', 00H, 's'
	DB	00H, 'i', 00H, 'm', 00H, 'p', 00H, 'l', 00H, 'e', 00H, '_', 00H
	DB	't', 00H, 'y', 00H, 'p', 00H, 'e', 00H, 's', 00H, '<', 00H, 'c'
	DB	00H, 'l', 00H, 'a', 00H, 's', 00H, 's', 00H, ' ', 00H, 'R', 00H
	DB	'a', 00H, 'v', 00H, 'e', 00H, 'n', 00H, '_', 00H, 'B', 00H, 'o'
	DB	00H, 't', 00H, ' ', 00H, '*', 00H, '>', 00H, ' ', 00H, '>', 00H
	DB	' ', 00H, '>', 00H, ':', 00H, ':', 00H, 'o', 00H, 'p', 00H, 'e'
	DB	00H, 'r', 00H, 'a', 00H, 't', 00H, 'o', 00H, 'r', 00H, ' ', 00H
	DB	'=', 00H, '=', 00H, 00H, 00H			; `string'
CONST	ENDS
;	COMDAT ??_C@_1FO@GJIHNDLM@?$AA?$CC?$AAS?$AAt?$AAa?$AAn?$AAd?$AAa?$AAr?$AAd?$AA?5?$AAC?$AA?$CL?$AA?$CL?$AA?5?$AAL?$AAi?$AAb?$AAr?$AAa?$AAr?$AAi?$AAe?$AAs?$AA?5?$AAI?$AAn?$AAv?$AAa?$AAl?$AAi?$AAd?$AA?5@
CONST	SEGMENT
??_C@_1FO@GJIHNDLM@?$AA?$CC?$AAS?$AAt?$AAa?$AAn?$AAd?$AAa?$AAr?$AAd?$AA?5?$AAC?$AA?$CL?$AA?$CL?$AA?5?$AAL?$AAi?$AAb?$AAr?$AAa?$AAr?$AAi?$AAe?$AAs?$AA?5?$AAI?$AAn?$AAv?$AAa?$AAl?$AAi?$AAd?$AA?5@ DB '"'
	DB	00H, 'S', 00H, 't', 00H, 'a', 00H, 'n', 00H, 'd', 00H, 'a', 00H
	DB	'r', 00H, 'd', 00H, ' ', 00H, 'C', 00H, '+', 00H, '+', 00H, ' '
	DB	00H, 'L', 00H, 'i', 00H, 'b', 00H, 'r', 00H, 'a', 00H, 'r', 00H
	DB	'i', 00H, 'e', 00H, 's', 00H, ' ', 00H, 'I', 00H, 'n', 00H, 'v'
	DB	00H, 'a', 00H, 'l', 00H, 'i', 00H, 'd', 00H, ' ', 00H, 'A', 00H
	DB	'r', 00H, 'g', 00H, 'u', 00H, 'm', 00H, 'e', 00H, 'n', 00H, 't'
	DB	00H, '"', 00H, ' ', 00H, '&', 00H, '&', 00H, ' ', 00H, '0', 00H
	DB	00H, 00H					; `string'
CONST	ENDS
;	COMDAT ??_C@_0CI@FNPHFCCM@Standard?5C?$CL?$CL?5Libraries?5Invalid?5A@
CONST	SEGMENT
??_C@_0CI@FNPHFCCM@Standard?5C?$CL?$CL?5Libraries?5Invalid?5A@ DB 'Standa'
	DB	'rd C++ Libraries Invalid Argument', 00H	; `string'
CONST	ENDS
;	COMDAT ??_C@_1DI@MDELDGPI@?$AAl?$AAi?$AAs?$AAt?$AA?5?$AAi?$AAt?$AAe?$AAr?$AAa?$AAt?$AAo?$AAr?$AAs?$AA?5?$AAi?$AAn?$AAc?$AAo?$AAm?$AAp?$AAa?$AAt?$AAi?$AAb?$AAl?$AAe?$AA?$AA@
CONST	SEGMENT
??_C@_1DI@MDELDGPI@?$AAl?$AAi?$AAs?$AAt?$AA?5?$AAi?$AAt?$AAe?$AAr?$AAa?$AAt?$AAo?$AAr?$AAs?$AA?5?$AAi?$AAn?$AAc?$AAo?$AAm?$AAp?$AAa?$AAt?$AAi?$AAb?$AAl?$AAe?$AA?$AA@ DB 'l'
	DB	00H, 'i', 00H, 's', 00H, 't', 00H, ' ', 00H, 'i', 00H, 't', 00H
	DB	'e', 00H, 'r', 00H, 'a', 00H, 't', 00H, 'o', 00H, 'r', 00H, 's'
	DB	00H, ' ', 00H, 'i', 00H, 'n', 00H, 'c', 00H, 'o', 00H, 'm', 00H
	DB	'p', 00H, 'a', 00H, 't', 00H, 'i', 00H, 'b', 00H, 'l', 00H, 'e'
	DB	00H, 00H, 00H				; `string'
CONST	ENDS
;	COMDAT ??_C@_1OC@BFEHCKCD@?$AAs?$AAt?$AAd?$AA?3?$AA?3?$AA_?$AAL?$AAi?$AAs?$AAt?$AA_?$AAc?$AAo?$AAn?$AAs?$AAt?$AA_?$AAi?$AAt?$AAe?$AAr?$AAa?$AAt?$AAo?$AAr?$AA?$DM?$AAc?$AAl?$AAa?$AAs?$AAs?$AA?5@
CONST	SEGMENT
??_C@_1OC@BFEHCKCD@?$AAs?$AAt?$AAd?$AA?3?$AA?3?$AA_?$AAL?$AAi?$AAs?$AAt?$AA_?$AAc?$AAo?$AAn?$AAs?$AAt?$AA_?$AAi?$AAt?$AAe?$AAr?$AAa?$AAt?$AAo?$AAr?$AA?$DM?$AAc?$AAl?$AAa?$AAs?$AAs?$AA?5@ DB 's'
	DB	00H, 't', 00H, 'd', 00H, ':', 00H, ':', 00H, '_', 00H, 'L', 00H
	DB	'i', 00H, 's', 00H, 't', 00H, '_', 00H, 'c', 00H, 'o', 00H, 'n'
	DB	00H, 's', 00H, 't', 00H, '_', 00H, 'i', 00H, 't', 00H, 'e', 00H
	DB	'r', 00H, 'a', 00H, 't', 00H, 'o', 00H, 'r', 00H, '<', 00H, 'c'
	DB	00H, 'l', 00H, 'a', 00H, 's', 00H, 's', 00H, ' ', 00H, 's', 00H
	DB	't', 00H, 'd', 00H, ':', 00H, ':', 00H, '_', 00H, 'L', 00H, 'i'
	DB	00H, 's', 00H, 't', 00H, '_', 00H, 'v', 00H, 'a', 00H, 'l', 00H
	DB	'<', 00H, 's', 00H, 't', 00H, 'r', 00H, 'u', 00H, 'c', 00H, 't'
	DB	00H, ' ', 00H, 's', 00H, 't', 00H, 'd', 00H, ':', 00H, ':', 00H
	DB	'_', 00H, 'L', 00H, 'i', 00H, 's', 00H, 't', 00H, '_', 00H, 's'
	DB	00H, 'i', 00H, 'm', 00H, 'p', 00H, 'l', 00H, 'e', 00H, '_', 00H
	DB	't', 00H, 'y', 00H, 'p', 00H, 'e', 00H, 's', 00H, '<', 00H, 'c'
	DB	00H, 'l', 00H, 'a', 00H, 's', 00H, 's', 00H, ' ', 00H, 'R', 00H
	DB	'a', 00H, 'v', 00H, 'e', 00H, 'n', 00H, '_', 00H, 'B', 00H, 'o'
	DB	00H, 't', 00H, ' ', 00H, '*', 00H, '>', 00H, ' ', 00H, '>', 00H
	DB	' ', 00H, '>', 00H, ':', 00H, ':', 00H, 'o', 00H, 'p', 00H, 'e'
	DB	00H, 'r', 00H, 'a', 00H, 't', 00H, 'o', 00H, 'r', 00H, ' ', 00H
	DB	'*', 00H, 00H, 00H				; `string'
CONST	ENDS
;	COMDAT ??_C@_1EC@HILJLMMC@?$AAl?$AAi?$AAs?$AAt?$AA?5?$AAi?$AAt?$AAe?$AAr?$AAa?$AAt?$AAo?$AAr?$AA?5?$AAn?$AAo?$AAt?$AA?5?$AAd?$AAe?$AAr?$AAe?$AAf?$AAe?$AAr?$AAe?$AAn?$AAc?$AAa?$AAb?$AAl?$AAe@
CONST	SEGMENT
??_C@_1EC@HILJLMMC@?$AAl?$AAi?$AAs?$AAt?$AA?5?$AAi?$AAt?$AAe?$AAr?$AAa?$AAt?$AAo?$AAr?$AA?5?$AAn?$AAo?$AAt?$AA?5?$AAd?$AAe?$AAr?$AAe?$AAf?$AAe?$AAr?$AAe?$AAn?$AAc?$AAa?$AAb?$AAl?$AAe@ DB 'l'
	DB	00H, 'i', 00H, 's', 00H, 't', 00H, ' ', 00H, 'i', 00H, 't', 00H
	DB	'e', 00H, 'r', 00H, 'a', 00H, 't', 00H, 'o', 00H, 'r', 00H, ' '
	DB	00H, 'n', 00H, 'o', 00H, 't', 00H, ' ', 00H, 'd', 00H, 'e', 00H
	DB	'r', 00H, 'e', 00H, 'f', 00H, 'e', 00H, 'r', 00H, 'e', 00H, 'n'
	DB	00H, 'c', 00H, 'a', 00H, 'b', 00H, 'l', 00H, 'e', 00H, 00H, 00H ; `string'
CONST	ENDS
;	COMDAT ??_C@_1BO@MEPPHOO@?$AA?$CC?$AAo?$AAu?$AAt?$AA?5?$AAo?$AAf?$AA?5?$AAr?$AAa?$AAn?$AAg?$AAe?$AA?$CC?$AA?$AA@
CONST	SEGMENT
??_C@_1BO@MEPPHOO@?$AA?$CC?$AAo?$AAu?$AAt?$AA?5?$AAo?$AAf?$AA?5?$AAr?$AAa?$AAn?$AAg?$AAe?$AA?$CC?$AA?$AA@ DB '"'
	DB	00H, 'o', 00H, 'u', 00H, 't', 00H, ' ', 00H, 'o', 00H, 'f', 00H
	DB	' ', 00H, 'r', 00H, 'a', 00H, 'n', 00H, 'g', 00H, 'e', 00H, '"'
	DB	00H, 00H, 00H				; `string'
CONST	ENDS
;	COMDAT ??_C@_1OE@NJHNFAGK@?$AAs?$AAt?$AAd?$AA?3?$AA?3?$AA_?$AAL?$AAi?$AAs?$AAt?$AA_?$AAc?$AAo?$AAn?$AAs?$AAt?$AA_?$AAi?$AAt?$AAe?$AAr?$AAa?$AAt?$AAo?$AAr?$AA?$DM?$AAc?$AAl?$AAa?$AAs?$AAs?$AA?5@
CONST	SEGMENT
??_C@_1OE@NJHNFAGK@?$AAs?$AAt?$AAd?$AA?3?$AA?3?$AA_?$AAL?$AAi?$AAs?$AAt?$AA_?$AAc?$AAo?$AAn?$AAs?$AAt?$AA_?$AAi?$AAt?$AAe?$AAr?$AAa?$AAt?$AAo?$AAr?$AA?$DM?$AAc?$AAl?$AAa?$AAs?$AAs?$AA?5@ DB 's'
	DB	00H, 't', 00H, 'd', 00H, ':', 00H, ':', 00H, '_', 00H, 'L', 00H
	DB	'i', 00H, 's', 00H, 't', 00H, '_', 00H, 'c', 00H, 'o', 00H, 'n'
	DB	00H, 's', 00H, 't', 00H, '_', 00H, 'i', 00H, 't', 00H, 'e', 00H
	DB	'r', 00H, 'a', 00H, 't', 00H, 'o', 00H, 'r', 00H, '<', 00H, 'c'
	DB	00H, 'l', 00H, 'a', 00H, 's', 00H, 's', 00H, ' ', 00H, 's', 00H
	DB	't', 00H, 'd', 00H, ':', 00H, ':', 00H, '_', 00H, 'L', 00H, 'i'
	DB	00H, 's', 00H, 't', 00H, '_', 00H, 'v', 00H, 'a', 00H, 'l', 00H
	DB	'<', 00H, 's', 00H, 't', 00H, 'r', 00H, 'u', 00H, 'c', 00H, 't'
	DB	00H, ' ', 00H, 's', 00H, 't', 00H, 'd', 00H, ':', 00H, ':', 00H
	DB	'_', 00H, 'L', 00H, 'i', 00H, 's', 00H, 't', 00H, '_', 00H, 's'
	DB	00H, 'i', 00H, 'm', 00H, 'p', 00H, 'l', 00H, 'e', 00H, '_', 00H
	DB	't', 00H, 'y', 00H, 'p', 00H, 'e', 00H, 's', 00H, '<', 00H, 'c'
	DB	00H, 'l', 00H, 'a', 00H, 's', 00H, 's', 00H, ' ', 00H, 'R', 00H
	DB	'a', 00H, 'v', 00H, 'e', 00H, 'n', 00H, '_', 00H, 'B', 00H, 'o'
	DB	00H, 't', 00H, ' ', 00H, '*', 00H, '>', 00H, ' ', 00H, '>', 00H
	DB	' ', 00H, '>', 00H, ':', 00H, ':', 00H, 'o', 00H, 'p', 00H, 'e'
	DB	00H, 'r', 00H, 'a', 00H, 't', 00H, 'o', 00H, 'r', 00H, ' ', 00H
	DB	'+', 00H, '+', 00H, 00H, 00H			; `string'
CONST	ENDS
;	COMDAT ??_C@_1FG@IBPIFFN@?$AA?$CC?$AAS?$AAt?$AAa?$AAn?$AAd?$AAa?$AAr?$AAd?$AA?5?$AAC?$AA?$CL?$AA?$CL?$AA?5?$AAL?$AAi?$AAb?$AAr?$AAa?$AAr?$AAi?$AAe?$AAs?$AA?5?$AAO?$AAu?$AAt?$AA?5?$AAo?$AAf?$AA?5?$AAR@
CONST	SEGMENT
??_C@_1FG@IBPIFFN@?$AA?$CC?$AAS?$AAt?$AAa?$AAn?$AAd?$AAa?$AAr?$AAd?$AA?5?$AAC?$AA?$CL?$AA?$CL?$AA?5?$AAL?$AAi?$AAb?$AAr?$AAa?$AAr?$AAi?$AAe?$AAs?$AA?5?$AAO?$AAu?$AAt?$AA?5?$AAo?$AAf?$AA?5?$AAR@ DB '"'
	DB	00H, 'S', 00H, 't', 00H, 'a', 00H, 'n', 00H, 'd', 00H, 'a', 00H
	DB	'r', 00H, 'd', 00H, ' ', 00H, 'C', 00H, '+', 00H, '+', 00H, ' '
	DB	00H, 'L', 00H, 'i', 00H, 'b', 00H, 'r', 00H, 'a', 00H, 'r', 00H
	DB	'i', 00H, 'e', 00H, 's', 00H, ' ', 00H, 'O', 00H, 'u', 00H, 't'
	DB	00H, ' ', 00H, 'o', 00H, 'f', 00H, ' ', 00H, 'R', 00H, 'a', 00H
	DB	'n', 00H, 'g', 00H, 'e', 00H, '"', 00H, ' ', 00H, '&', 00H, '&'
	DB	00H, ' ', 00H, '0', 00H, 00H, 00H		; `string'
CONST	ENDS
;	COMDAT ??_C@_0CE@OFMIGAMM@Standard?5C?$CL?$CL?5Libraries?5Out?5of?5Ra@
CONST	SEGMENT
??_C@_0CE@OFMIGAMM@Standard?5C?$CL?$CL?5Libraries?5Out?5of?5Ra@ DB 'Stand'
	DB	'ard C++ Libraries Out of Range', 00H	; `string'
CONST	ENDS
;	COMDAT ??_C@_1EA@DOGAGKDH@?$AAl?$AAi?$AAs?$AAt?$AA?5?$AAi?$AAt?$AAe?$AAr?$AAa?$AAt?$AAo?$AAr?$AA?5?$AAn?$AAo?$AAt?$AA?5?$AAi?$AAn?$AAc?$AAr?$AAe?$AAm?$AAe?$AAn?$AAt?$AAa?$AAb?$AAl?$AAe?$AA?$AA@
CONST	SEGMENT
??_C@_1EA@DOGAGKDH@?$AAl?$AAi?$AAs?$AAt?$AA?5?$AAi?$AAt?$AAe?$AAr?$AAa?$AAt?$AAo?$AAr?$AA?5?$AAn?$AAo?$AAt?$AA?5?$AAi?$AAn?$AAc?$AAr?$AAe?$AAm?$AAe?$AAn?$AAt?$AAa?$AAb?$AAl?$AAe?$AA?$AA@ DB 'l'
	DB	00H, 'i', 00H, 's', 00H, 't', 00H, ' ', 00H, 'i', 00H, 't', 00H
	DB	'e', 00H, 'r', 00H, 'a', 00H, 't', 00H, 'o', 00H, 'r', 00H, ' '
	DB	00H, 'n', 00H, 'o', 00H, 't', 00H, ' ', 00H, 'i', 00H, 'n', 00H
	DB	'c', 00H, 'r', 00H, 'e', 00H, 'm', 00H, 'e', 00H, 'n', 00H, 't'
	DB	00H, 'a', 00H, 'b', 00H, 'l', 00H, 'e', 00H, 00H, 00H ; `string'
CONST	ENDS
;	COMDAT ??_C@_1GA@IINJPBGE@?$AAD?$AA?3?$AA?2?$AAM?$AAi?$AAc?$AAr?$AAo?$AAs?$AAo?$AAf?$AAt?$AA?5?$AAV?$AAi?$AAs?$AAu?$AAa?$AAl?$AA?5?$AAS?$AAt?$AAu?$AAd?$AAi?$AAo?$AA?5?$AA1?$AA4?$AA?4?$AA0?$AA?2@
CONST	SEGMENT
??_C@_1GA@IINJPBGE@?$AAD?$AA?3?$AA?2?$AAM?$AAi?$AAc?$AAr?$AAo?$AAs?$AAo?$AAf?$AAt?$AA?5?$AAV?$AAi?$AAs?$AAu?$AAa?$AAl?$AA?5?$AAS?$AAt?$AAu?$AAd?$AAi?$AAo?$AA?5?$AA1?$AA4?$AA?4?$AA0?$AA?2@ DB 'D'
	DB	00H, ':', 00H, '\', 00H, 'M', 00H, 'i', 00H, 'c', 00H, 'r', 00H
	DB	'o', 00H, 's', 00H, 'o', 00H, 'f', 00H, 't', 00H, ' ', 00H, 'V'
	DB	00H, 'i', 00H, 's', 00H, 'u', 00H, 'a', 00H, 'l', 00H, ' ', 00H
	DB	'S', 00H, 't', 00H, 'u', 00H, 'd', 00H, 'i', 00H, 'o', 00H, ' '
	DB	00H, '1', 00H, '4', 00H, '.', 00H, '0', 00H, '\', 00H, 'V', 00H
	DB	'C', 00H, '\', 00H, 'i', 00H, 'n', 00H, 'c', 00H, 'l', 00H, 'u'
	DB	00H, 'd', 00H, 'e', 00H, '\', 00H, 'l', 00H, 'i', 00H, 's', 00H
	DB	't', 00H, 00H, 00H				; `string'
CONST	ENDS
;	COMDAT ??_C@_1DC@POOIKBAO@?$AAI?$AAT?$AAE?$AAR?$AAA?$AAT?$AAO?$AAR?$AA?5?$AAL?$AAI?$AAS?$AAT?$AA?5?$AAC?$AAO?$AAR?$AAR?$AAU?$AAP?$AAT?$AAE?$AAD?$AA?$CB?$AA?$AA@
CONST	SEGMENT
??_C@_1DC@POOIKBAO@?$AAI?$AAT?$AAE?$AAR?$AAA?$AAT?$AAO?$AAR?$AA?5?$AAL?$AAI?$AAS?$AAT?$AA?5?$AAC?$AAO?$AAR?$AAR?$AAU?$AAP?$AAT?$AAE?$AAD?$AA?$CB?$AA?$AA@ DB 'I'
	DB	00H, 'T', 00H, 'E', 00H, 'R', 00H, 'A', 00H, 'T', 00H, 'O', 00H
	DB	'R', 00H, ' ', 00H, 'L', 00H, 'I', 00H, 'S', 00H, 'T', 00H, ' '
	DB	00H, 'C', 00H, 'O', 00H, 'R', 00H, 'R', 00H, 'U', 00H, 'P', 00H
	DB	'T', 00H, 'E', 00H, 'D', 00H, '!', 00H, 00H, 00H ; `string'
CONST	ENDS
;	COMDAT ??_C@_1GI@DDIAPGKN@?$AAD?$AA?3?$AA?2?$AAM?$AAi?$AAc?$AAr?$AAo?$AAs?$AAo?$AAf?$AAt?$AA?5?$AAV?$AAi?$AAs?$AAu?$AAa?$AAl?$AA?5?$AAS?$AAt?$AAu?$AAd?$AAi?$AAo?$AA?5?$AA1?$AA4?$AA?4?$AA0?$AA?2@
CONST	SEGMENT
??_C@_1GI@DDIAPGKN@?$AAD?$AA?3?$AA?2?$AAM?$AAi?$AAc?$AAr?$AAo?$AAs?$AAo?$AAf?$AAt?$AA?5?$AAV?$AAi?$AAs?$AAu?$AAa?$AAl?$AA?5?$AAS?$AAt?$AAu?$AAd?$AAi?$AAo?$AA?5?$AA1?$AA4?$AA?4?$AA0?$AA?2@ DB 'D'
	DB	00H, ':', 00H, '\', 00H, 'M', 00H, 'i', 00H, 'c', 00H, 'r', 00H
	DB	'o', 00H, 's', 00H, 'o', 00H, 'f', 00H, 't', 00H, ' ', 00H, 'V'
	DB	00H, 'i', 00H, 's', 00H, 'u', 00H, 'a', 00H, 'l', 00H, ' ', 00H
	DB	'S', 00H, 't', 00H, 'u', 00H, 'd', 00H, 'i', 00H, 'o', 00H, ' '
	DB	00H, '1', 00H, '4', 00H, '.', 00H, '0', 00H, '\', 00H, 'V', 00H
	DB	'C', 00H, '\', 00H, 'i', 00H, 'n', 00H, 'c', 00H, 'l', 00H, 'u'
	DB	00H, 'd', 00H, 'e', 00H, '\', 00H, 'x', 00H, 'u', 00H, 't', 00H
	DB	'i', 00H, 'l', 00H, 'i', 00H, 't', 00H, 'y', 00H, 00H, 00H ; `string'
CONST	ENDS
;	COMDAT ??_C@_17CNPHIMPH@?$AA?$CF?$AAl?$AAs?$AA?$AA@
CONST	SEGMENT
??_C@_17CNPHIMPH@?$AA?$CF?$AAl?$AAs?$AA?$AA@ DB '%', 00H, 'l', 00H, 's', 00H
	DB	00H, 00H					; `string'
CONST	ENDS
;	COMDAT xdata$x
xdata$x	SEGMENT
__catchsym$??$_Buynode@ABQAVRaven_Bot@@@?$_List_buy@PAVRaven_Bot@@V?$allocator@PAVRaven_Bot@@@std@@@std@@QAEPAU?$_List_node@PAVRaven_Bot@@PAX@1@PAU21@0ABQAVRaven_Bot@@@Z$2 DD 040H
	DD	00H
	DD	00H
	DD	FLAT:__catch$??$_Buynode@ABQAVRaven_Bot@@@?$_List_buy@PAVRaven_Bot@@V?$allocator@PAVRaven_Bot@@@std@@@std@@QAEPAU?$_List_node@PAVRaven_Bot@@PAX@1@PAU21@0ABQAVRaven_Bot@@@Z$0
__unwindtable$??$_Buynode@ABQAVRaven_Bot@@@?$_List_buy@PAVRaven_Bot@@V?$allocator@PAVRaven_Bot@@@std@@@std@@QAEPAU?$_List_node@PAVRaven_Bot@@PAX@1@PAU21@0ABQAVRaven_Bot@@@Z DD 0ffffffffH
	DD	00H
	DD	0ffffffffH
	DD	00H
__tryblocktable$??$_Buynode@ABQAVRaven_Bot@@@?$_List_buy@PAVRaven_Bot@@V?$allocator@PAVRaven_Bot@@@std@@@std@@QAEPAU?$_List_node@PAVRaven_Bot@@PAX@1@PAU21@0ABQAVRaven_Bot@@@Z DD 00H
	DD	00H
	DD	01H
	DD	01H
	DD	FLAT:__catchsym$??$_Buynode@ABQAVRaven_Bot@@@?$_List_buy@PAVRaven_Bot@@V?$allocator@PAVRaven_Bot@@@std@@@std@@QAEPAU?$_List_node@PAVRaven_Bot@@PAX@1@PAU21@0ABQAVRaven_Bot@@@Z$2
__ehfuncinfo$??$_Buynode@ABQAVRaven_Bot@@@?$_List_buy@PAVRaven_Bot@@V?$allocator@PAVRaven_Bot@@@std@@@std@@QAEPAU?$_List_node@PAVRaven_Bot@@PAX@1@PAU21@0ABQAVRaven_Bot@@@Z DD 019930522H
	DD	02H
	DD	FLAT:__unwindtable$??$_Buynode@ABQAVRaven_Bot@@@?$_List_buy@PAVRaven_Bot@@V?$allocator@PAVRaven_Bot@@@std@@@std@@QAEPAU?$_List_node@PAVRaven_Bot@@PAX@1@PAU21@0ABQAVRaven_Bot@@@Z
	DD	01H
	DD	FLAT:__tryblocktable$??$_Buynode@ABQAVRaven_Bot@@@?$_List_buy@PAVRaven_Bot@@V?$allocator@PAVRaven_Bot@@@std@@@std@@QAEPAU?$_List_node@PAVRaven_Bot@@PAX@1@PAU21@0ABQAVRaven_Bot@@@Z
	DD	2 DUP(00H)
	DD	00H
	DD	01H
xdata$x	ENDS
;	COMDAT xdata$x
xdata$x	SEGMENT
__unwindtable$??0?$_List_unchecked_const_iterator@V?$_List_val@U?$_List_simple_types@PAVRaven_Bot@@@std@@@std@@U_Iterator_base12@2@@std@@QAE@PAU?$_List_node@PAVRaven_Bot@@PAX@1@PBV?$_List_val@U?$_List_simple_types@PAVRaven_Bot@@@std@@@1@@Z DD 0ffffffffH
	DD	FLAT:__unwindfunclet$??0?$_List_unchecked_const_iterator@V?$_List_val@U?$_List_simple_types@PAVRaven_Bot@@@std@@@std@@U_Iterator_base12@2@@std@@QAE@PAU?$_List_node@PAVRaven_Bot@@PAX@1@PBV?$_List_val@U?$_List_simple_types@PAVRaven_Bot@@@std@@@1@@Z$0
__ehfuncinfo$??0?$_List_unchecked_const_iterator@V?$_List_val@U?$_List_simple_types@PAVRaven_Bot@@@std@@@std@@U_Iterator_base12@2@@std@@QAE@PAU?$_List_node@PAVRaven_Bot@@PAX@1@PBV?$_List_val@U?$_List_simple_types@PAVRaven_Bot@@@std@@@1@@Z DD 019930522H
	DD	01H
	DD	FLAT:__unwindtable$??0?$_List_unchecked_const_iterator@V?$_List_val@U?$_List_simple_types@PAVRaven_Bot@@@std@@@std@@U_Iterator_base12@2@@std@@QAE@PAU?$_List_node@PAVRaven_Bot@@PAX@1@PBV?$_List_val@U?$_List_simple_types@PAVRaven_Bot@@@std@@@1@@Z
	DD	2 DUP(00H)
	DD	2 DUP(00H)
	DD	00H
	DD	01H
xdata$x	ENDS
;	COMDAT xdata$x
xdata$x	SEGMENT
__unwindtable$?_Orphan_ptr@?$list@PAVRaven_Bot@@V?$allocator@PAVRaven_Bot@@@std@@@std@@QAEXPAU?$_List_node@PAVRaven_Bot@@PAX@2@@Z DD 0ffffffffH
	DD	FLAT:__unwindfunclet$?_Orphan_ptr@?$list@PAVRaven_Bot@@V?$allocator@PAVRaven_Bot@@@std@@@std@@QAEXPAU?$_List_node@PAVRaven_Bot@@PAX@2@@Z$0
__ehfuncinfo$?_Orphan_ptr@?$list@PAVRaven_Bot@@V?$allocator@PAVRaven_Bot@@@std@@@std@@QAEXPAU?$_List_node@PAVRaven_Bot@@PAX@2@@Z DD 019930522H
	DD	01H
	DD	FLAT:__unwindtable$?_Orphan_ptr@?$list@PAVRaven_Bot@@V?$allocator@PAVRaven_Bot@@@std@@@std@@QAEXPAU?$_List_node@PAVRaven_Bot@@PAX@2@@Z
	DD	2 DUP(00H)
	DD	2 DUP(00H)
	DD	00H
	DD	01H
xdata$x	ENDS
;	COMDAT xdata$x
xdata$x	SEGMENT
__ehfuncinfo$?clear@?$list@PAVRaven_Bot@@V?$allocator@PAVRaven_Bot@@@std@@@std@@QAEXXZ DD 019930522H
	DD	00H
	DD	00H
	DD	2 DUP(00H)
	DD	2 DUP(00H)
	DD	00H
	DD	05H
xdata$x	ENDS
;	COMDAT xdata$x
xdata$x	SEGMENT
__ehfuncinfo$?end@?$list@PAVRaven_Bot@@V?$allocator@PAVRaven_Bot@@@std@@@std@@QBE?AV?$_List_const_iterator@V?$_List_val@U?$_List_simple_types@PAVRaven_Bot@@@std@@@std@@@2@XZ DD 019930522H
	DD	00H
	DD	00H
	DD	2 DUP(00H)
	DD	2 DUP(00H)
	DD	00H
	DD	05H
xdata$x	ENDS
;	COMDAT xdata$x
xdata$x	SEGMENT
__ehfuncinfo$?begin@?$list@PAVRaven_Bot@@V?$allocator@PAVRaven_Bot@@@std@@@std@@QBE?AV?$_List_const_iterator@V?$_List_val@U?$_List_simple_types@PAVRaven_Bot@@@std@@@std@@@2@XZ DD 019930522H
	DD	00H
	DD	00H
	DD	2 DUP(00H)
	DD	2 DUP(00H)
	DD	00H
	DD	05H
xdata$x	ENDS
;	COMDAT xdata$x
xdata$x	SEGMENT
__ehfuncinfo$??1?$list@PAVRaven_Bot@@V?$allocator@PAVRaven_Bot@@@std@@@std@@QAE@XZ DD 019930522H
	DD	00H
	DD	00H
	DD	2 DUP(00H)
	DD	2 DUP(00H)
	DD	00H
	DD	05H
xdata$x	ENDS
;	COMDAT xdata$x
xdata$x	SEGMENT
__unwindtable$??0?$list@PAVRaven_Bot@@V?$allocator@PAVRaven_Bot@@@std@@@std@@QAE@$$QAV01@@Z DD 0ffffffffH
	DD	FLAT:__unwindfunclet$??0?$list@PAVRaven_Bot@@V?$allocator@PAVRaven_Bot@@@std@@@std@@QAE@$$QAV01@@Z$0
__ehfuncinfo$??0?$list@PAVRaven_Bot@@V?$allocator@PAVRaven_Bot@@@std@@@std@@QAE@$$QAV01@@Z DD 019930522H
	DD	01H
	DD	FLAT:__unwindtable$??0?$list@PAVRaven_Bot@@V?$allocator@PAVRaven_Bot@@@std@@@std@@QAE@$$QAV01@@Z
	DD	2 DUP(00H)
	DD	2 DUP(00H)
	DD	00H
	DD	01H
xdata$x	ENDS
;	COMDAT xdata$x
xdata$x	SEGMENT
__catchsym$?_Buynode0@?$_List_alloc@U?$_List_base_types@PAVRaven_Bot@@V?$allocator@PAVRaven_Bot@@@std@@@std@@@std@@QAEPAU?$_List_node@PAVRaven_Bot@@PAX@2@PAU32@0@Z$2 DD 040H
	DD	00H
	DD	00H
	DD	FLAT:__catch$?_Buynode0@?$_List_alloc@U?$_List_base_types@PAVRaven_Bot@@V?$allocator@PAVRaven_Bot@@@std@@@std@@@std@@QAEPAU?$_List_node@PAVRaven_Bot@@PAX@2@PAU32@0@Z$0
__unwindtable$?_Buynode0@?$_List_alloc@U?$_List_base_types@PAVRaven_Bot@@V?$allocator@PAVRaven_Bot@@@std@@@std@@@std@@QAEPAU?$_List_node@PAVRaven_Bot@@PAX@2@PAU32@0@Z DD 0ffffffffH
	DD	00H
	DD	0ffffffffH
	DD	00H
__tryblocktable$?_Buynode0@?$_List_alloc@U?$_List_base_types@PAVRaven_Bot@@V?$allocator@PAVRaven_Bot@@@std@@@std@@@std@@QAEPAU?$_List_node@PAVRaven_Bot@@PAX@2@PAU32@0@Z DD 00H
	DD	00H
	DD	01H
	DD	01H
	DD	FLAT:__catchsym$?_Buynode0@?$_List_alloc@U?$_List_base_types@PAVRaven_Bot@@V?$allocator@PAVRaven_Bot@@@std@@@std@@@std@@QAEPAU?$_List_node@PAVRaven_Bot@@PAX@2@PAU32@0@Z$2
__ehfuncinfo$?_Buynode0@?$_List_alloc@U?$_List_base_types@PAVRaven_Bot@@V?$allocator@PAVRaven_Bot@@@std@@@std@@@std@@QAEPAU?$_List_node@PAVRaven_Bot@@PAX@2@PAU32@0@Z DD 019930522H
	DD	02H
	DD	FLAT:__unwindtable$?_Buynode0@?$_List_alloc@U?$_List_base_types@PAVRaven_Bot@@V?$allocator@PAVRaven_Bot@@@std@@@std@@@std@@QAEPAU?$_List_node@PAVRaven_Bot@@PAX@2@PAU32@0@Z
	DD	01H
	DD	FLAT:__tryblocktable$?_Buynode0@?$_List_alloc@U?$_List_base_types@PAVRaven_Bot@@V?$allocator@PAVRaven_Bot@@@std@@@std@@@std@@QAEPAU?$_List_node@PAVRaven_Bot@@PAX@2@PAU32@0@Z
	DD	2 DUP(00H)
	DD	00H
	DD	01H
xdata$x	ENDS
;	COMDAT xdata$x
xdata$x	SEGMENT
__ehfuncinfo$??1?$_List_alloc@U?$_List_base_types@PAVRaven_Bot@@V?$allocator@PAVRaven_Bot@@@std@@@std@@@std@@QAE@XZ DD 019930522H
	DD	00H
	DD	00H
	DD	2 DUP(00H)
	DD	2 DUP(00H)
	DD	00H
	DD	05H
xdata$x	ENDS
;	COMDAT xdata$x
xdata$x	SEGMENT
__catchsym$??0?$_List_alloc@U?$_List_base_types@PAVRaven_Bot@@V?$allocator@PAVRaven_Bot@@@std@@@std@@@std@@QAE@$$QAV?$allocator@PAVRaven_Bot@@@1@@Z$3 DD 040H
	DD	00H
	DD	00H
	DD	FLAT:__catch$??0?$_List_alloc@U?$_List_base_types@PAVRaven_Bot@@V?$allocator@PAVRaven_Bot@@@std@@@std@@@std@@QAE@$$QAV?$allocator@PAVRaven_Bot@@@1@@Z$0
__tryblocktable$??0?$_List_alloc@U?$_List_base_types@PAVRaven_Bot@@V?$allocator@PAVRaven_Bot@@@std@@@std@@@std@@QAE@$$QAV?$allocator@PAVRaven_Bot@@@1@@Z DD 01H
	DD	01H
	DD	02H
	DD	01H
	DD	FLAT:__catchsym$??0?$_List_alloc@U?$_List_base_types@PAVRaven_Bot@@V?$allocator@PAVRaven_Bot@@@std@@@std@@@std@@QAE@$$QAV?$allocator@PAVRaven_Bot@@@1@@Z$3
__unwindtable$??0?$_List_alloc@U?$_List_base_types@PAVRaven_Bot@@V?$allocator@PAVRaven_Bot@@@std@@@std@@@std@@QAE@$$QAV?$allocator@PAVRaven_Bot@@@1@@Z DD 0ffffffffH
	DD	FLAT:__unwindfunclet$??0?$_List_alloc@U?$_List_base_types@PAVRaven_Bot@@V?$allocator@PAVRaven_Bot@@@std@@@std@@@std@@QAE@$$QAV?$allocator@PAVRaven_Bot@@@1@@Z$2
	DD	00H
	DD	00H
	DD	00H
	DD	00H
__ehfuncinfo$??0?$_List_alloc@U?$_List_base_types@PAVRaven_Bot@@V?$allocator@PAVRaven_Bot@@@std@@@std@@@std@@QAE@$$QAV?$allocator@PAVRaven_Bot@@@1@@Z DD 019930522H
	DD	03H
	DD	FLAT:__unwindtable$??0?$_List_alloc@U?$_List_base_types@PAVRaven_Bot@@V?$allocator@PAVRaven_Bot@@@std@@@std@@@std@@QAE@$$QAV?$allocator@PAVRaven_Bot@@@1@@Z
	DD	01H
	DD	FLAT:__tryblocktable$??0?$_List_alloc@U?$_List_base_types@PAVRaven_Bot@@V?$allocator@PAVRaven_Bot@@@std@@@std@@@std@@QAE@$$QAV?$allocator@PAVRaven_Bot@@@1@@Z
	DD	2 DUP(00H)
	DD	00H
	DD	01H
xdata$x	ENDS
;	COMDAT xdata$x
xdata$x	SEGMENT
__catchsym$??0?$_List_alloc@U?$_List_base_types@PAVRaven_Bot@@V?$allocator@PAVRaven_Bot@@@std@@@std@@@std@@QAE@ABV?$allocator@PAVRaven_Bot@@@1@@Z$3 DD 040H
	DD	00H
	DD	00H
	DD	FLAT:__catch$??0?$_List_alloc@U?$_List_base_types@PAVRaven_Bot@@V?$allocator@PAVRaven_Bot@@@std@@@std@@@std@@QAE@ABV?$allocator@PAVRaven_Bot@@@1@@Z$0
__tryblocktable$??0?$_List_alloc@U?$_List_base_types@PAVRaven_Bot@@V?$allocator@PAVRaven_Bot@@@std@@@std@@@std@@QAE@ABV?$allocator@PAVRaven_Bot@@@1@@Z DD 01H
	DD	01H
	DD	02H
	DD	01H
	DD	FLAT:__catchsym$??0?$_List_alloc@U?$_List_base_types@PAVRaven_Bot@@V?$allocator@PAVRaven_Bot@@@std@@@std@@@std@@QAE@ABV?$allocator@PAVRaven_Bot@@@1@@Z$3
__unwindtable$??0?$_List_alloc@U?$_List_base_types@PAVRaven_Bot@@V?$allocator@PAVRaven_Bot@@@std@@@std@@@std@@QAE@ABV?$allocator@PAVRaven_Bot@@@1@@Z DD 0ffffffffH
	DD	FLAT:__unwindfunclet$??0?$_List_alloc@U?$_List_base_types@PAVRaven_Bot@@V?$allocator@PAVRaven_Bot@@@std@@@std@@@std@@QAE@ABV?$allocator@PAVRaven_Bot@@@1@@Z$2
	DD	00H
	DD	00H
	DD	00H
	DD	00H
__ehfuncinfo$??0?$_List_alloc@U?$_List_base_types@PAVRaven_Bot@@V?$allocator@PAVRaven_Bot@@@std@@@std@@@std@@QAE@ABV?$allocator@PAVRaven_Bot@@@1@@Z DD 019930522H
	DD	03H
	DD	FLAT:__unwindtable$??0?$_List_alloc@U?$_List_base_types@PAVRaven_Bot@@V?$allocator@PAVRaven_Bot@@@std@@@std@@@std@@QAE@ABV?$allocator@PAVRaven_Bot@@@1@@Z
	DD	01H
	DD	FLAT:__tryblocktable$??0?$_List_alloc@U?$_List_base_types@PAVRaven_Bot@@V?$allocator@PAVRaven_Bot@@@std@@@std@@@std@@QAE@ABV?$allocator@PAVRaven_Bot@@@1@@Z
	DD	2 DUP(00H)
	DD	00H
	DD	01H
xdata$x	ENDS
xdata$x	SEGMENT
__unwindtable$?GetClosestIntersectingBot@Raven_Projectile@@IBEPAVRaven_Bot@@UVector2D@@0@Z DD 0ffffffffH
	DD	FLAT:__unwindfunclet$?GetClosestIntersectingBot@Raven_Projectile@@IBEPAVRaven_Bot@@UVector2D@@0@Z$0
	DD	00H
	DD	FLAT:__unwindfunclet$?GetClosestIntersectingBot@Raven_Projectile@@IBEPAVRaven_Bot@@UVector2D@@0@Z$1
	DD	00H
	DD	FLAT:__unwindfunclet$?GetClosestIntersectingBot@Raven_Projectile@@IBEPAVRaven_Bot@@UVector2D@@0@Z$2
__unwindtable$?GetListOfIntersectingBots@Raven_Projectile@@IBE?AV?$list@PAVRaven_Bot@@V?$allocator@PAVRaven_Bot@@@std@@@std@@UVector2D@@0@Z DD 0ffffffffH
	DD	FLAT:__unwindfunclet$?GetListOfIntersectingBots@Raven_Projectile@@IBE?AV?$list@PAVRaven_Bot@@V?$allocator@PAVRaven_Bot@@@std@@@std@@UVector2D@@0@Z$0
	DD	00H
	DD	FLAT:__unwindfunclet$?GetListOfIntersectingBots@Raven_Projectile@@IBE?AV?$list@PAVRaven_Bot@@V?$allocator@PAVRaven_Bot@@@std@@@std@@UVector2D@@0@Z$1
	DD	01H
	DD	FLAT:__unwindfunclet$?GetListOfIntersectingBots@Raven_Projectile@@IBE?AV?$list@PAVRaven_Bot@@V?$allocator@PAVRaven_Bot@@@std@@@std@@UVector2D@@0@Z$2
	DD	01H
	DD	FLAT:__unwindfunclet$?GetListOfIntersectingBots@Raven_Projectile@@IBE?AV?$list@PAVRaven_Bot@@V?$allocator@PAVRaven_Bot@@@std@@@std@@UVector2D@@0@Z$3
__ehfuncinfo$?GetListOfIntersectingBots@Raven_Projectile@@IBE?AV?$list@PAVRaven_Bot@@V?$allocator@PAVRaven_Bot@@@std@@@std@@UVector2D@@0@Z DD 019930522H
	DD	04H
	DD	FLAT:__unwindtable$?GetListOfIntersectingBots@Raven_Projectile@@IBE?AV?$list@PAVRaven_Bot@@V?$allocator@PAVRaven_Bot@@@std@@@std@@UVector2D@@0@Z
	DD	2 DUP(00H)
	DD	2 DUP(00H)
	DD	00H
	DD	01H
__ehfuncinfo$?GetClosestIntersectingBot@Raven_Projectile@@IBEPAVRaven_Bot@@UVector2D@@0@Z DD 019930522H
	DD	03H
	DD	FLAT:__unwindtable$?GetClosestIntersectingBot@Raven_Projectile@@IBEPAVRaven_Bot@@UVector2D@@0@Z
	DD	2 DUP(00H)
	DD	2 DUP(00H)
	DD	00H
	DD	01H
xdata$x	ENDS
;	COMDAT xdata$x
xdata$x	SEGMENT
__unwindtable$?_Adopt@_Iterator_base12@std@@QAEXPBU_Container_base12@2@@Z DD 0ffffffffH
	DD	FLAT:__unwindfunclet$?_Adopt@_Iterator_base12@std@@QAEXPBU_Container_base12@2@@Z$0
	DD	0ffffffffH
	DD	FLAT:__unwindfunclet$?_Adopt@_Iterator_base12@std@@QAEXPBU_Container_base12@2@@Z$1
__ehfuncinfo$?_Adopt@_Iterator_base12@std@@QAEXPBU_Container_base12@2@@Z DD 019930522H
	DD	02H
	DD	FLAT:__unwindtable$?_Adopt@_Iterator_base12@std@@QAEXPBU_Container_base12@2@@Z
	DD	2 DUP(00H)
	DD	2 DUP(00H)
	DD	00H
	DD	01H
xdata$x	ENDS
;	COMDAT xdata$x
xdata$x	SEGMENT
__ehfuncinfo$??1_Iterator_base12@std@@QAE@XZ DD 019930522H
	DD	00H
	DD	00H
	DD	2 DUP(00H)
	DD	2 DUP(00H)
	DD	00H
	DD	05H
xdata$x	ENDS
;	COMDAT xdata$x
xdata$x	SEGMENT
__unwindtable$??4_Iterator_base12@std@@QAEAAU01@ABU01@@Z DD 0ffffffffH
	DD	FLAT:__unwindfunclet$??4_Iterator_base12@std@@QAEAAU01@ABU01@@Z$0
__ehfuncinfo$??4_Iterator_base12@std@@QAEAAU01@ABU01@@Z DD 019930522H
	DD	01H
	DD	FLAT:__unwindtable$??4_Iterator_base12@std@@QAEAAU01@ABU01@@Z
	DD	2 DUP(00H)
	DD	2 DUP(00H)
	DD	00H
	DD	01H
xdata$x	ENDS
;	COMDAT xdata$x
xdata$x	SEGMENT
__ehfuncinfo$??1_Container_base12@std@@QAE@XZ DD 019930522H
	DD	00H
	DD	00H
	DD	2 DUP(00H)
	DD	2 DUP(00H)
	DD	00H
	DD	05H
xdata$x	ENDS
CRT$XCU	SEGMENT
?MaxDouble$initializer$@@3P6AXXZA DD FLAT:??__EMaxDouble@@YAXXZ ; MaxDouble$initializer$
CRT$XCU	ENDS
CRT$XCU	SEGMENT
?MinDouble$initializer$@@3P6AXXZA DD FLAT:??__EMinDouble@@YAXXZ ; MinDouble$initializer$
CRT$XCU	ENDS
CRT$XCU	SEGMENT
?MaxFloat$initializer$@@3P6AXXZA DD FLAT:??__EMaxFloat@@YAXXZ ; MaxFloat$initializer$
CRT$XCU	ENDS
CRT$XCU	SEGMENT
?MinFloat$initializer$@@3P6AXXZA DD FLAT:??__EMinFloat@@YAXXZ ; MinFloat$initializer$
CRT$XCU	ENDS
;	COMDAT CRT$XCU
CRT$XCU	SEGMENT
??id$initializer$@?$num_get@DV?$istreambuf_iterator@DU?$char_traits@D@std@@@std@@@std@@2P6AXXZA@@3P6AXXZA DD FLAT:??__E?id@?$num_get@DV?$istreambuf_iterator@DU?$char_traits@D@std@@@std@@@std@@2V0locale@2@A@@YAXXZ ; ??id$initializer$@?$num_get@DV?$istreambuf_iterator@DU?$char_traits@D@std@@@std@@@std@@2P6AXXZA@@3P6AXXZA
CRT$XCU	ENDS
;	COMDAT CRT$XCU
CRT$XCU	SEGMENT
??id$initializer$@?$codecvt@DDU_Mbstatet@@@std@@2P6AXXZA@@3P6AXXZA DD FLAT:??__E?id@?$codecvt@DDU_Mbstatet@@@std@@2V0locale@2@A@@YAXXZ ; ??id$initializer$@?$codecvt@DDU_Mbstatet@@@std@@2P6AXXZA@@3P6AXXZA
CRT$XCU	ENDS
;	COMDAT CRT$XCU
CRT$XCU	SEGMENT
??id$initializer$@?$numpunct@D@std@@2P6AXXZA@@3P6AXXZA DD FLAT:??__E?id@?$numpunct@D@std@@2V0locale@2@A@@YAXXZ ; ??id$initializer$@?$numpunct@D@std@@2P6AXXZA@@3P6AXXZA
CRT$XCU	ENDS
; Function compile flags: /Odtp /RTCsu
; File d:\microsoft visual studio 14.0\vc\include\xmemory0
;	COMDAT ??$construct@PAVRaven_Bot@@ABQAV1@@?$allocator@U?$_List_node@PAVRaven_Bot@@PAX@std@@@std@@QAEXPAPAVRaven_Bot@@ABQAV2@@Z
_TEXT	SEGMENT
tv73 = -12						; size = 4
$T1 = -8						; size = 4
_this$ = -4						; size = 4
__Ptr$ = 8						; size = 4
_<_Args_0>$ = 12					; size = 4
??$construct@PAVRaven_Bot@@ABQAV1@@?$allocator@U?$_List_node@PAVRaven_Bot@@PAX@std@@@std@@QAEXPAPAVRaven_Bot@@ABQAV2@@Z PROC ; std::allocator<std::_List_node<Raven_Bot *,void *> >::construct<Raven_Bot *,Raven_Bot * const &>, COMDAT
; _this$ = ecx

; 656  : 		{	// construct _Objty(_Types...) at _Ptr

	push	ebp
	mov	ebp, esp
	sub	esp, 12					; 0000000cH
	mov	DWORD PTR [ebp-12], -858993460		; ccccccccH
	mov	DWORD PTR [ebp-8], -858993460		; ccccccccH
	mov	DWORD PTR [ebp-4], -858993460		; ccccccccH
	mov	DWORD PTR _this$[ebp], ecx

; 657  : 		::new ((void *)_Ptr) _Objty(_STD forward<_Types>(_Args)...);

	mov	eax, DWORD PTR __Ptr$[ebp]
	push	eax
	push	4
	call	??2@YAPAXIPAX@Z				; operator new
	add	esp, 8
	mov	DWORD PTR $T1[ebp], eax
	cmp	DWORD PTR $T1[ebp], 0
	je	SHORT $LN3@construct
	mov	ecx, DWORD PTR _<_Args_0>$[ebp]
	push	ecx
	call	??$forward@ABQAVRaven_Bot@@@std@@YAABQAVRaven_Bot@@ABQAV1@@Z ; std::forward<Raven_Bot * const &>
	add	esp, 4
	mov	edx, DWORD PTR $T1[ebp]
	mov	eax, DWORD PTR [eax]
	mov	DWORD PTR [edx], eax
	mov	ecx, DWORD PTR $T1[ebp]
	mov	DWORD PTR tv73[ebp], ecx
	jmp	SHORT $LN1@construct
$LN3@construct:
	mov	DWORD PTR tv73[ebp], 0
$LN1@construct:

; 658  : 		}

	add	esp, 12					; 0000000cH
	cmp	ebp, esp
	call	__RTC_CheckEsp
	mov	esp, ebp
	pop	ebp
	ret	8
??$construct@PAVRaven_Bot@@ABQAV1@@?$allocator@U?$_List_node@PAVRaven_Bot@@PAX@std@@@std@@QAEXPAPAVRaven_Bot@@ABQAV2@@Z ENDP ; std::allocator<std::_List_node<Raven_Bot *,void *> >::construct<Raven_Bot *,Raven_Bot * const &>
_TEXT	ENDS
; Function compile flags: /Odtp /RTCsu
; File d:\microsoft visual studio 14.0\vc\include\xmemory0
;	COMDAT ??$construct@PAVRaven_Bot@@ABQAV1@@?$allocator_traits@V?$allocator@U?$_List_node@PAVRaven_Bot@@PAX@std@@@std@@@std@@SAXAAV?$allocator@U?$_List_node@PAVRaven_Bot@@PAX@std@@@1@PAPAVRaven_Bot@@ABQAV3@@Z
_TEXT	SEGMENT
__Al$ = 8						; size = 4
__Ptr$ = 12						; size = 4
_<_Args_0>$ = 16					; size = 4
??$construct@PAVRaven_Bot@@ABQAV1@@?$allocator_traits@V?$allocator@U?$_List_node@PAVRaven_Bot@@PAX@std@@@std@@@std@@SAXAAV?$allocator@U?$_List_node@PAVRaven_Bot@@PAX@std@@@1@PAPAVRaven_Bot@@ABQAV3@@Z PROC ; std::allocator_traits<std::allocator<std::_List_node<Raven_Bot *,void *> > >::construct<Raven_Bot *,Raven_Bot * const &>, COMDAT

; 774  : 		{	// construct _Objty(_Types...) at _Ptr

	push	ebp
	mov	ebp, esp

; 775  : 		_Al.construct(_Ptr, _STD forward<_Types>(_Args)...);

	mov	eax, DWORD PTR _<_Args_0>$[ebp]
	push	eax
	call	??$forward@ABQAVRaven_Bot@@@std@@YAABQAVRaven_Bot@@ABQAV1@@Z ; std::forward<Raven_Bot * const &>
	add	esp, 4
	push	eax
	mov	ecx, DWORD PTR __Ptr$[ebp]
	push	ecx
	mov	ecx, DWORD PTR __Al$[ebp]
	call	??$construct@PAVRaven_Bot@@ABQAV1@@?$allocator@U?$_List_node@PAVRaven_Bot@@PAX@std@@@std@@QAEXPAPAVRaven_Bot@@ABQAV2@@Z ; std::allocator<std::_List_node<Raven_Bot *,void *> >::construct<Raven_Bot *,Raven_Bot * const &>

; 776  : 		}

	cmp	ebp, esp
	call	__RTC_CheckEsp
	pop	ebp
	ret	0
??$construct@PAVRaven_Bot@@ABQAV1@@?$allocator_traits@V?$allocator@U?$_List_node@PAVRaven_Bot@@PAX@std@@@std@@@std@@SAXAAV?$allocator@U?$_List_node@PAVRaven_Bot@@PAX@std@@@1@PAPAVRaven_Bot@@ABQAV3@@Z ENDP ; std::allocator_traits<std::allocator<std::_List_node<Raven_Bot *,void *> > >::construct<Raven_Bot *,Raven_Bot * const &>
_TEXT	ENDS
; Function compile flags: /Odtp /RTCsu
; File d:\microsoft visual studio 14.0\vc\include\xmemory0
;	COMDAT ??$construct@PAU?$_List_node@PAVRaven_Bot@@PAX@std@@AAPAU12@@?$allocator@U?$_List_node@PAVRaven_Bot@@PAX@std@@@std@@QAEXPAPAU?$_List_node@PAVRaven_Bot@@PAX@1@AAPAU21@@Z
_TEXT	SEGMENT
tv73 = -12						; size = 4
$T1 = -8						; size = 4
_this$ = -4						; size = 4
__Ptr$ = 8						; size = 4
_<_Args_0>$ = 12					; size = 4
??$construct@PAU?$_List_node@PAVRaven_Bot@@PAX@std@@AAPAU12@@?$allocator@U?$_List_node@PAVRaven_Bot@@PAX@std@@@std@@QAEXPAPAU?$_List_node@PAVRaven_Bot@@PAX@1@AAPAU21@@Z PROC ; std::allocator<std::_List_node<Raven_Bot *,void *> >::construct<std::_List_node<Raven_Bot *,void *> *,std::_List_node<Raven_Bot *,void *> * &>, COMDAT
; _this$ = ecx

; 656  : 		{	// construct _Objty(_Types...) at _Ptr

	push	ebp
	mov	ebp, esp
	sub	esp, 12					; 0000000cH
	mov	DWORD PTR [ebp-12], -858993460		; ccccccccH
	mov	DWORD PTR [ebp-8], -858993460		; ccccccccH
	mov	DWORD PTR [ebp-4], -858993460		; ccccccccH
	mov	DWORD PTR _this$[ebp], ecx

; 657  : 		::new ((void *)_Ptr) _Objty(_STD forward<_Types>(_Args)...);

	mov	eax, DWORD PTR __Ptr$[ebp]
	push	eax
	push	4
	call	??2@YAPAXIPAX@Z				; operator new
	add	esp, 8
	mov	DWORD PTR $T1[ebp], eax
	cmp	DWORD PTR $T1[ebp], 0
	je	SHORT $LN3@construct
	mov	ecx, DWORD PTR _<_Args_0>$[ebp]
	push	ecx
	call	??$forward@AAPAU?$_List_node@PAVRaven_Bot@@PAX@std@@@std@@YAAAPAU?$_List_node@PAVRaven_Bot@@PAX@0@AAPAU10@@Z ; std::forward<std::_List_node<Raven_Bot *,void *> * &>
	add	esp, 4
	mov	edx, DWORD PTR $T1[ebp]
	mov	eax, DWORD PTR [eax]
	mov	DWORD PTR [edx], eax
	mov	ecx, DWORD PTR $T1[ebp]
	mov	DWORD PTR tv73[ebp], ecx
	jmp	SHORT $LN1@construct
$LN3@construct:
	mov	DWORD PTR tv73[ebp], 0
$LN1@construct:

; 658  : 		}

	add	esp, 12					; 0000000cH
	cmp	ebp, esp
	call	__RTC_CheckEsp
	mov	esp, ebp
	pop	ebp
	ret	8
??$construct@PAU?$_List_node@PAVRaven_Bot@@PAX@std@@AAPAU12@@?$allocator@U?$_List_node@PAVRaven_Bot@@PAX@std@@@std@@QAEXPAPAU?$_List_node@PAVRaven_Bot@@PAX@1@AAPAU21@@Z ENDP ; std::allocator<std::_List_node<Raven_Bot *,void *> >::construct<std::_List_node<Raven_Bot *,void *> *,std::_List_node<Raven_Bot *,void *> * &>
_TEXT	ENDS
; Function compile flags: /Odtp /RTCsu
; File d:\microsoft visual studio 14.0\vc\include\xmemory0
;	COMDAT ??$destroy@PAVRaven_Bot@@@?$allocator@U?$_List_node@PAVRaven_Bot@@PAX@std@@@std@@QAEXPAPAVRaven_Bot@@@Z
_TEXT	SEGMENT
_this$ = -4						; size = 4
__Ptr$ = 8						; size = 4
??$destroy@PAVRaven_Bot@@@?$allocator@U?$_List_node@PAVRaven_Bot@@PAX@std@@@std@@QAEXPAPAVRaven_Bot@@@Z PROC ; std::allocator<std::_List_node<Raven_Bot *,void *> >::destroy<Raven_Bot *>, COMDAT
; _this$ = ecx

; 663  : 		{	// destroy object at _Ptr

	push	ebp
	mov	ebp, esp
	push	ecx
	mov	DWORD PTR [ebp-4], -858993460		; ccccccccH
	mov	DWORD PTR _this$[ebp], ecx

; 664  : 		_Ptr->~_Uty();
; 665  : 		}

	mov	esp, ebp
	pop	ebp
	ret	4
??$destroy@PAVRaven_Bot@@@?$allocator@U?$_List_node@PAVRaven_Bot@@PAX@std@@@std@@QAEXPAPAVRaven_Bot@@@Z ENDP ; std::allocator<std::_List_node<Raven_Bot *,void *> >::destroy<Raven_Bot *>
_TEXT	ENDS
; Function compile flags: /Odtp /RTCsu
; File d:\microsoft visual studio 14.0\vc\include\xmemory0
;	COMDAT ??$construct@U_Container_proxy@std@@U12@@?$allocator@U_Container_proxy@std@@@std@@QAEXPAU_Container_proxy@1@$$QAU21@@Z
_TEXT	SEGMENT
tv74 = -12						; size = 4
$T1 = -8						; size = 4
_this$ = -4						; size = 4
__Ptr$ = 8						; size = 4
_<_Args_0>$ = 12					; size = 4
??$construct@U_Container_proxy@std@@U12@@?$allocator@U_Container_proxy@std@@@std@@QAEXPAU_Container_proxy@1@$$QAU21@@Z PROC ; std::allocator<std::_Container_proxy>::construct<std::_Container_proxy,std::_Container_proxy>, COMDAT
; _this$ = ecx

; 656  : 		{	// construct _Objty(_Types...) at _Ptr

	push	ebp
	mov	ebp, esp
	sub	esp, 12					; 0000000cH
	mov	DWORD PTR [ebp-12], -858993460		; ccccccccH
	mov	DWORD PTR [ebp-8], -858993460		; ccccccccH
	mov	DWORD PTR [ebp-4], -858993460		; ccccccccH
	mov	DWORD PTR _this$[ebp], ecx

; 657  : 		::new ((void *)_Ptr) _Objty(_STD forward<_Types>(_Args)...);

	mov	eax, DWORD PTR __Ptr$[ebp]
	push	eax
	push	8
	call	??2@YAPAXIPAX@Z				; operator new
	add	esp, 8
	mov	DWORD PTR $T1[ebp], eax
	cmp	DWORD PTR $T1[ebp], 0
	je	SHORT $LN3@construct
	mov	ecx, DWORD PTR _<_Args_0>$[ebp]
	push	ecx
	call	??$forward@U_Container_proxy@std@@@std@@YA$$QAU_Container_proxy@0@AAU10@@Z ; std::forward<std::_Container_proxy>
	add	esp, 4
	mov	edx, DWORD PTR [eax]
	mov	eax, DWORD PTR [eax+4]
	mov	ecx, DWORD PTR $T1[ebp]
	mov	DWORD PTR [ecx], edx
	mov	DWORD PTR [ecx+4], eax
	mov	edx, DWORD PTR $T1[ebp]
	mov	DWORD PTR tv74[ebp], edx
	jmp	SHORT $LN1@construct
$LN3@construct:
	mov	DWORD PTR tv74[ebp], 0
$LN1@construct:

; 658  : 		}

	add	esp, 12					; 0000000cH
	cmp	ebp, esp
	call	__RTC_CheckEsp
	mov	esp, ebp
	pop	ebp
	ret	8
??$construct@U_Container_proxy@std@@U12@@?$allocator@U_Container_proxy@std@@@std@@QAEXPAU_Container_proxy@1@$$QAU21@@Z ENDP ; std::allocator<std::_Container_proxy>::construct<std::_Container_proxy,std::_Container_proxy>
_TEXT	ENDS
; Function compile flags: /Odtp /RTCsu
; File d:\microsoft visual studio 14.0\vc\include\xmemory0
;	COMDAT ??$destroy@U_Container_proxy@std@@@?$allocator@U_Container_proxy@std@@@std@@QAEXPAU_Container_proxy@1@@Z
_TEXT	SEGMENT
_this$ = -4						; size = 4
__Ptr$ = 8						; size = 4
??$destroy@U_Container_proxy@std@@@?$allocator@U_Container_proxy@std@@@std@@QAEXPAU_Container_proxy@1@@Z PROC ; std::allocator<std::_Container_proxy>::destroy<std::_Container_proxy>, COMDAT
; _this$ = ecx

; 663  : 		{	// destroy object at _Ptr

	push	ebp
	mov	ebp, esp
	push	ecx
	mov	DWORD PTR [ebp-4], -858993460		; ccccccccH
	mov	DWORD PTR _this$[ebp], ecx

; 664  : 		_Ptr->~_Uty();
; 665  : 		}

	mov	esp, ebp
	pop	ebp
	ret	4
??$destroy@U_Container_proxy@std@@@?$allocator@U_Container_proxy@std@@@std@@QAEXPAU_Container_proxy@1@@Z ENDP ; std::allocator<std::_Container_proxy>::destroy<std::_Container_proxy>
_TEXT	ENDS
; Function compile flags: /Odtp /RTCsu
; File d:\microsoft visual studio 14.0\vc\include\xmemory0
;	COMDAT ??$destroy@PAU?$_List_node@PAVRaven_Bot@@PAX@std@@@?$allocator@U?$_List_node@PAVRaven_Bot@@PAX@std@@@std@@QAEXPAPAU?$_List_node@PAVRaven_Bot@@PAX@1@@Z
_TEXT	SEGMENT
_this$ = -4						; size = 4
__Ptr$ = 8						; size = 4
??$destroy@PAU?$_List_node@PAVRaven_Bot@@PAX@std@@@?$allocator@U?$_List_node@PAVRaven_Bot@@PAX@std@@@std@@QAEXPAPAU?$_List_node@PAVRaven_Bot@@PAX@1@@Z PROC ; std::allocator<std::_List_node<Raven_Bot *,void *> >::destroy<std::_List_node<Raven_Bot *,void *> *>, COMDAT
; _this$ = ecx

; 663  : 		{	// destroy object at _Ptr

	push	ebp
	mov	ebp, esp
	push	ecx
	mov	DWORD PTR [ebp-4], -858993460		; ccccccccH
	mov	DWORD PTR _this$[ebp], ecx

; 664  : 		_Ptr->~_Uty();
; 665  : 		}

	mov	esp, ebp
	pop	ebp
	ret	4
??$destroy@PAU?$_List_node@PAVRaven_Bot@@PAX@std@@@?$allocator@U?$_List_node@PAVRaven_Bot@@PAX@std@@@std@@QAEXPAPAU?$_List_node@PAVRaven_Bot@@PAX@1@@Z ENDP ; std::allocator<std::_List_node<Raven_Bot *,void *> >::destroy<std::_List_node<Raven_Bot *,void *> *>
_TEXT	ENDS
; Function compile flags: /Odtp /RTCsu
; File d:\microsoft visual studio 14.0\vc\include\xmemory0
;	COMDAT ??$construct@PAVRaven_Bot@@ABQAV1@@?$_Wrap_alloc@V?$allocator@U?$_List_node@PAVRaven_Bot@@PAX@std@@@std@@@std@@QAEXPAPAVRaven_Bot@@ABQAV2@@Z
_TEXT	SEGMENT
_this$ = -4						; size = 4
__Ptr$ = 8						; size = 4
_<_Args_0>$ = 12					; size = 4
??$construct@PAVRaven_Bot@@ABQAV1@@?$_Wrap_alloc@V?$allocator@U?$_List_node@PAVRaven_Bot@@PAX@std@@@std@@@std@@QAEXPAPAVRaven_Bot@@ABQAV2@@Z PROC ; std::_Wrap_alloc<std::allocator<std::_List_node<Raven_Bot *,void *> > >::construct<Raven_Bot *,Raven_Bot * const &>, COMDAT
; _this$ = ecx

; 918  : 		{	// construct _Ty(_Types...) at _Ptr

	push	ebp
	mov	ebp, esp
	push	ecx
	mov	DWORD PTR [ebp-4], -858993460		; ccccccccH
	mov	DWORD PTR _this$[ebp], ecx

; 919  : 		_Mytraits::construct(*this, _Ptr,

	mov	eax, DWORD PTR _<_Args_0>$[ebp]
	push	eax
	call	??$forward@ABQAVRaven_Bot@@@std@@YAABQAVRaven_Bot@@ABQAV1@@Z ; std::forward<Raven_Bot * const &>
	add	esp, 4
	push	eax
	mov	ecx, DWORD PTR __Ptr$[ebp]
	push	ecx
	mov	edx, DWORD PTR _this$[ebp]
	push	edx
	call	??$construct@PAVRaven_Bot@@ABQAV1@@?$allocator_traits@V?$allocator@U?$_List_node@PAVRaven_Bot@@PAX@std@@@std@@@std@@SAXAAV?$allocator@U?$_List_node@PAVRaven_Bot@@PAX@std@@@1@PAPAVRaven_Bot@@ABQAV3@@Z ; std::allocator_traits<std::allocator<std::_List_node<Raven_Bot *,void *> > >::construct<Raven_Bot *,Raven_Bot * const &>
	add	esp, 12					; 0000000cH

; 920  : 			_STD forward<_Types>(_Args)...);
; 921  : 		}

	add	esp, 4
	cmp	ebp, esp
	call	__RTC_CheckEsp
	mov	esp, ebp
	pop	ebp
	ret	8
??$construct@PAVRaven_Bot@@ABQAV1@@?$_Wrap_alloc@V?$allocator@U?$_List_node@PAVRaven_Bot@@PAX@std@@@std@@@std@@QAEXPAPAVRaven_Bot@@ABQAV2@@Z ENDP ; std::_Wrap_alloc<std::allocator<std::_List_node<Raven_Bot *,void *> > >::construct<Raven_Bot *,Raven_Bot * const &>
_TEXT	ENDS
; Function compile flags: /Odtp /RTCsu
; File d:\microsoft visual studio 14.0\vc\include\type_traits
;	COMDAT ??$_Move@AAPAU?$_List_node@PAVRaven_Bot@@PAX@std@@@std@@YA$$QAPAU?$_List_node@PAVRaven_Bot@@PAX@0@AAPAU10@@Z
_TEXT	SEGMENT
__Arg$ = 8						; size = 4
??$_Move@AAPAU?$_List_node@PAVRaven_Bot@@PAX@std@@@std@@YA$$QAPAU?$_List_node@PAVRaven_Bot@@PAX@0@AAPAU10@@Z PROC ; std::_Move<std::_List_node<Raven_Bot *,void *> * &>, COMDAT

; 1317 : 	{	// forward _Arg as movable

	push	ebp
	mov	ebp, esp

; 1318 : 	return (static_cast<typename remove_reference<_Ty>::type&&>(_Arg));

	mov	eax, DWORD PTR __Arg$[ebp]

; 1319 : 	}

	pop	ebp
	ret	0
??$_Move@AAPAU?$_List_node@PAVRaven_Bot@@PAX@std@@@std@@YA$$QAPAU?$_List_node@PAVRaven_Bot@@PAX@0@AAPAU10@@Z ENDP ; std::_Move<std::_List_node<Raven_Bot *,void *> * &>
_TEXT	ENDS
; Function compile flags: /Odtp /RTCsu
; File d:\microsoft visual studio 14.0\vc\include\xlocnum
;	COMDAT ??__E?id@?$numpunct@D@std@@2V0locale@2@A@@YAXXZ
text$di	SEGMENT
??__E?id@?$numpunct@D@std@@2V0locale@2@A@@YAXXZ PROC	; `dynamic initializer for 'std::numpunct<char>::id'', COMDAT

; 259  : 	__PURE_APPDOMAIN_GLOBAL locale::id numpunct<_Elem>::id;

	push	ebp
	mov	ebp, esp
	push	0
	mov	ecx, OFFSET ?id@?$numpunct@D@std@@2V0locale@2@A ; std::numpunct<char>::id
	call	??0id@locale@std@@QAE@I@Z		; std::locale::id::id
	cmp	ebp, esp
	call	__RTC_CheckEsp
	pop	ebp
	ret	0
??__E?id@?$numpunct@D@std@@2V0locale@2@A@@YAXXZ ENDP	; `dynamic initializer for 'std::numpunct<char>::id''
text$di	ENDS
; Function compile flags: /Odtp /RTCsu
; File d:\microsoft visual studio 14.0\vc\include\xlocale
;	COMDAT ??__E?id@?$codecvt@DDU_Mbstatet@@@std@@2V0locale@2@A@@YAXXZ
text$di	SEGMENT
??__E?id@?$codecvt@DDU_Mbstatet@@@std@@2V0locale@2@A@@YAXXZ PROC ; `dynamic initializer for 'std::codecvt<char,char,_Mbstatet>::id'', COMDAT

; 994  : 	__PURE_APPDOMAIN_GLOBAL locale::id codecvt<_Elem, _Byte, _Statype>::id;

	push	ebp
	mov	ebp, esp
	push	0
	mov	ecx, OFFSET ?id@?$codecvt@DDU_Mbstatet@@@std@@2V0locale@2@A ; std::codecvt<char,char,_Mbstatet>::id
	call	??0id@locale@std@@QAE@I@Z		; std::locale::id::id
	cmp	ebp, esp
	call	__RTC_CheckEsp
	pop	ebp
	ret	0
??__E?id@?$codecvt@DDU_Mbstatet@@@std@@2V0locale@2@A@@YAXXZ ENDP ; `dynamic initializer for 'std::codecvt<char,char,_Mbstatet>::id''
text$di	ENDS
; Function compile flags: /Odtp /RTCsu
; File d:\microsoft visual studio 14.0\vc\include\xlocnum
;	COMDAT ??__E?id@?$num_get@DV?$istreambuf_iterator@DU?$char_traits@D@std@@@std@@@std@@2V0locale@2@A@@YAXXZ
text$di	SEGMENT
??__E?id@?$num_get@DV?$istreambuf_iterator@DU?$char_traits@D@std@@@std@@@std@@2V0locale@2@A@@YAXXZ PROC ; `dynamic initializer for 'std::num_get<char,std::istreambuf_iterator<char,std::char_traits<char> > >::id'', COMDAT

; 1114 : 	__PURE_APPDOMAIN_GLOBAL locale::id num_get<_Elem, _InIt>::id;

	push	ebp
	mov	ebp, esp
	push	0
	mov	ecx, OFFSET ?id@?$num_get@DV?$istreambuf_iterator@DU?$char_traits@D@std@@@std@@@std@@2V0locale@2@A ; std::num_get<char,std::istreambuf_iterator<char,std::char_traits<char> > >::id
	call	??0id@locale@std@@QAE@I@Z		; std::locale::id::id
	cmp	ebp, esp
	call	__RTC_CheckEsp
	pop	ebp
	ret	0
??__E?id@?$num_get@DV?$istreambuf_iterator@DU?$char_traits@D@std@@@std@@@std@@2V0locale@2@A@@YAXXZ ENDP ; `dynamic initializer for 'std::num_get<char,std::istreambuf_iterator<char,std::char_traits<char> > >::id''
text$di	ENDS
; Function compile flags: /Odtp /RTCsu
; File d:\microsoft visual studio 14.0\vc\include\xmemory0
;	COMDAT ??$construct@PAU?$_List_node@PAVRaven_Bot@@PAX@std@@AAPAU12@@?$allocator_traits@V?$allocator@U?$_List_node@PAVRaven_Bot@@PAX@std@@@std@@@std@@SAXAAV?$allocator@U?$_List_node@PAVRaven_Bot@@PAX@std@@@1@PAPAU?$_List_node@PAVRaven_Bot@@PAX@1@AAPAU31@@Z
_TEXT	SEGMENT
__Al$ = 8						; size = 4
__Ptr$ = 12						; size = 4
_<_Args_0>$ = 16					; size = 4
??$construct@PAU?$_List_node@PAVRaven_Bot@@PAX@std@@AAPAU12@@?$allocator_traits@V?$allocator@U?$_List_node@PAVRaven_Bot@@PAX@std@@@std@@@std@@SAXAAV?$allocator@U?$_List_node@PAVRaven_Bot@@PAX@std@@@1@PAPAU?$_List_node@PAVRaven_Bot@@PAX@1@AAPAU31@@Z PROC ; std::allocator_traits<std::allocator<std::_List_node<Raven_Bot *,void *> > >::construct<std::_List_node<Raven_Bot *,void *> *,std::_List_node<Raven_Bot *,void *> * &>, COMDAT

; 774  : 		{	// construct _Objty(_Types...) at _Ptr

	push	ebp
	mov	ebp, esp

; 775  : 		_Al.construct(_Ptr, _STD forward<_Types>(_Args)...);

	mov	eax, DWORD PTR _<_Args_0>$[ebp]
	push	eax
	call	??$forward@AAPAU?$_List_node@PAVRaven_Bot@@PAX@std@@@std@@YAAAPAU?$_List_node@PAVRaven_Bot@@PAX@0@AAPAU10@@Z ; std::forward<std::_List_node<Raven_Bot *,void *> * &>
	add	esp, 4
	push	eax
	mov	ecx, DWORD PTR __Ptr$[ebp]
	push	ecx
	mov	ecx, DWORD PTR __Al$[ebp]
	call	??$construct@PAU?$_List_node@PAVRaven_Bot@@PAX@std@@AAPAU12@@?$allocator@U?$_List_node@PAVRaven_Bot@@PAX@std@@@std@@QAEXPAPAU?$_List_node@PAVRaven_Bot@@PAX@1@AAPAU21@@Z ; std::allocator<std::_List_node<Raven_Bot *,void *> >::construct<std::_List_node<Raven_Bot *,void *> *,std::_List_node<Raven_Bot *,void *> * &>

; 776  : 		}

	cmp	ebp, esp
	call	__RTC_CheckEsp
	pop	ebp
	ret	0
??$construct@PAU?$_List_node@PAVRaven_Bot@@PAX@std@@AAPAU12@@?$allocator_traits@V?$allocator@U?$_List_node@PAVRaven_Bot@@PAX@std@@@std@@@std@@SAXAAV?$allocator@U?$_List_node@PAVRaven_Bot@@PAX@std@@@1@PAPAU?$_List_node@PAVRaven_Bot@@PAX@1@AAPAU31@@Z ENDP ; std::allocator_traits<std::allocator<std::_List_node<Raven_Bot *,void *> > >::construct<std::_List_node<Raven_Bot *,void *> *,std::_List_node<Raven_Bot *,void *> * &>
_TEXT	ENDS
; Function compile flags: /Odtp /RTCsu
; File d:\microsoft visual studio 14.0\vc\include\type_traits
;	COMDAT ??$forward@AAPAU?$_List_node@PAVRaven_Bot@@PAX@std@@@std@@YAAAPAU?$_List_node@PAVRaven_Bot@@PAX@0@AAPAU10@@Z
_TEXT	SEGMENT
__Arg$ = 8						; size = 4
??$forward@AAPAU?$_List_node@PAVRaven_Bot@@PAX@std@@@std@@YAAAPAU?$_List_node@PAVRaven_Bot@@PAX@0@AAPAU10@@Z PROC ; std::forward<std::_List_node<Raven_Bot *,void *> * &>, COMDAT

; 1293 : 	{	// forward an lvalue as either an lvalue or an rvalue

	push	ebp
	mov	ebp, esp

; 1294 : 	return (static_cast<_Ty&&>(_Arg));

	mov	eax, DWORD PTR __Arg$[ebp]

; 1295 : 	}

	pop	ebp
	ret	0
??$forward@AAPAU?$_List_node@PAVRaven_Bot@@PAX@std@@@std@@YAAAPAU?$_List_node@PAVRaven_Bot@@PAX@0@AAPAU10@@Z ENDP ; std::forward<std::_List_node<Raven_Bot *,void *> * &>
_TEXT	ENDS
; Function compile flags: /Odtp /RTCsu
; File d:\microsoft visual studio 14.0\vc\include\xmemory0
;	COMDAT ??$destroy@PAVRaven_Bot@@@?$allocator_traits@V?$allocator@U?$_List_node@PAVRaven_Bot@@PAX@std@@@std@@@std@@SAXAAV?$allocator@U?$_List_node@PAVRaven_Bot@@PAX@std@@@1@PAPAVRaven_Bot@@@Z
_TEXT	SEGMENT
__Al$ = 8						; size = 4
__Ptr$ = 12						; size = 4
??$destroy@PAVRaven_Bot@@@?$allocator_traits@V?$allocator@U?$_List_node@PAVRaven_Bot@@PAX@std@@@std@@@std@@SAXAAV?$allocator@U?$_List_node@PAVRaven_Bot@@PAX@std@@@1@PAPAVRaven_Bot@@@Z PROC ; std::allocator_traits<std::allocator<std::_List_node<Raven_Bot *,void *> > >::destroy<Raven_Bot *>, COMDAT

; 781  : 		{	// destroy object at _Ptr

	push	ebp
	mov	ebp, esp

; 782  : 		_Al.destroy(_Ptr);

	mov	eax, DWORD PTR __Ptr$[ebp]
	push	eax
	mov	ecx, DWORD PTR __Al$[ebp]
	call	??$destroy@PAVRaven_Bot@@@?$allocator@U?$_List_node@PAVRaven_Bot@@PAX@std@@@std@@QAEXPAPAVRaven_Bot@@@Z ; std::allocator<std::_List_node<Raven_Bot *,void *> >::destroy<Raven_Bot *>

; 783  : 		}

	cmp	ebp, esp
	call	__RTC_CheckEsp
	pop	ebp
	ret	0
??$destroy@PAVRaven_Bot@@@?$allocator_traits@V?$allocator@U?$_List_node@PAVRaven_Bot@@PAX@std@@@std@@@std@@SAXAAV?$allocator@U?$_List_node@PAVRaven_Bot@@PAX@std@@@1@PAPAVRaven_Bot@@@Z ENDP ; std::allocator_traits<std::allocator<std::_List_node<Raven_Bot *,void *> > >::destroy<Raven_Bot *>
_TEXT	ENDS
; Function compile flags: /Odtp /RTCsu
; File d:\microsoft visual studio 14.0\vc\include\xstddef
;	COMDAT ??$_Addressof@PAVRaven_Bot@@@std@@YAPAPAVRaven_Bot@@AAPAV1@U?$integral_constant@_N$0A@@0@@Z
_TEXT	SEGMENT
__Val$ = 8						; size = 4
___formal$ = 12						; size = 1
??$_Addressof@PAVRaven_Bot@@@std@@YAPAPAVRaven_Bot@@AAPAV1@U?$integral_constant@_N$0A@@0@@Z PROC ; std::_Addressof<Raven_Bot *>, COMDAT

; 691  : 	{	// return address of object _Val

	push	ebp
	mov	ebp, esp

; 692  : 	return (reinterpret_cast<_Ty *>(

	mov	eax, DWORD PTR __Val$[ebp]

; 693  : 		&const_cast<char&>(
; 694  : 		reinterpret_cast<const volatile char&>(_Val))));
; 695  : 	}

	pop	ebp
	ret	0
??$_Addressof@PAVRaven_Bot@@@std@@YAPAPAVRaven_Bot@@AAPAV1@U?$integral_constant@_N$0A@@0@@Z ENDP ; std::_Addressof<Raven_Bot *>
_TEXT	ENDS
; Function compile flags: /Odtp /RTCsu
; File d:\microsoft visual studio 14.0\vc\include\xmemory0
;	COMDAT ??$construct@U_Container_proxy@std@@U12@@?$allocator_traits@V?$allocator@U_Container_proxy@std@@@std@@@std@@SAXAAV?$allocator@U_Container_proxy@std@@@1@PAU_Container_proxy@1@$$QAU31@@Z
_TEXT	SEGMENT
__Al$ = 8						; size = 4
__Ptr$ = 12						; size = 4
_<_Args_0>$ = 16					; size = 4
??$construct@U_Container_proxy@std@@U12@@?$allocator_traits@V?$allocator@U_Container_proxy@std@@@std@@@std@@SAXAAV?$allocator@U_Container_proxy@std@@@1@PAU_Container_proxy@1@$$QAU31@@Z PROC ; std::allocator_traits<std::allocator<std::_Container_proxy> >::construct<std::_Container_proxy,std::_Container_proxy>, COMDAT

; 774  : 		{	// construct _Objty(_Types...) at _Ptr

	push	ebp
	mov	ebp, esp

; 775  : 		_Al.construct(_Ptr, _STD forward<_Types>(_Args)...);

	mov	eax, DWORD PTR _<_Args_0>$[ebp]
	push	eax
	call	??$forward@U_Container_proxy@std@@@std@@YA$$QAU_Container_proxy@0@AAU10@@Z ; std::forward<std::_Container_proxy>
	add	esp, 4
	push	eax
	mov	ecx, DWORD PTR __Ptr$[ebp]
	push	ecx
	mov	ecx, DWORD PTR __Al$[ebp]
	call	??$construct@U_Container_proxy@std@@U12@@?$allocator@U_Container_proxy@std@@@std@@QAEXPAU_Container_proxy@1@$$QAU21@@Z ; std::allocator<std::_Container_proxy>::construct<std::_Container_proxy,std::_Container_proxy>

; 776  : 		}

	cmp	ebp, esp
	call	__RTC_CheckEsp
	pop	ebp
	ret	0
??$construct@U_Container_proxy@std@@U12@@?$allocator_traits@V?$allocator@U_Container_proxy@std@@@std@@@std@@SAXAAV?$allocator@U_Container_proxy@std@@@1@PAU_Container_proxy@1@$$QAU31@@Z ENDP ; std::allocator_traits<std::allocator<std::_Container_proxy> >::construct<std::_Container_proxy,std::_Container_proxy>
_TEXT	ENDS
; Function compile flags: /Odtp /RTCsu
; File d:\microsoft visual studio 14.0\vc\include\type_traits
;	COMDAT ??$forward@U_Container_proxy@std@@@std@@YA$$QAU_Container_proxy@0@AAU10@@Z
_TEXT	SEGMENT
__Arg$ = 8						; size = 4
??$forward@U_Container_proxy@std@@@std@@YA$$QAU_Container_proxy@0@AAU10@@Z PROC ; std::forward<std::_Container_proxy>, COMDAT

; 1293 : 	{	// forward an lvalue as either an lvalue or an rvalue

	push	ebp
	mov	ebp, esp

; 1294 : 	return (static_cast<_Ty&&>(_Arg));

	mov	eax, DWORD PTR __Arg$[ebp]

; 1295 : 	}

	pop	ebp
	ret	0
??$forward@U_Container_proxy@std@@@std@@YA$$QAU_Container_proxy@0@AAU10@@Z ENDP ; std::forward<std::_Container_proxy>
_TEXT	ENDS
; Function compile flags: /Odtp /RTCsu
; File d:\microsoft visual studio 14.0\vc\include\type_traits
;	COMDAT ??$forward@ABV?$allocator@PAVRaven_Bot@@@std@@@std@@YAABV?$allocator@PAVRaven_Bot@@@0@ABV10@@Z
_TEXT	SEGMENT
__Arg$ = 8						; size = 4
??$forward@ABV?$allocator@PAVRaven_Bot@@@std@@@std@@YAABV?$allocator@PAVRaven_Bot@@@0@ABV10@@Z PROC ; std::forward<std::allocator<Raven_Bot *> const &>, COMDAT

; 1293 : 	{	// forward an lvalue as either an lvalue or an rvalue

	push	ebp
	mov	ebp, esp

; 1294 : 	return (static_cast<_Ty&&>(_Arg));

	mov	eax, DWORD PTR __Arg$[ebp]

; 1295 : 	}

	pop	ebp
	ret	0
??$forward@ABV?$allocator@PAVRaven_Bot@@@std@@@std@@YAABV?$allocator@PAVRaven_Bot@@@0@ABV10@@Z ENDP ; std::forward<std::allocator<Raven_Bot *> const &>
_TEXT	ENDS
; Function compile flags: /Odtp /RTCsu
; File d:\microsoft visual studio 14.0\vc\include\xmemory0
;	COMDAT ??$?0PAVRaven_Bot@@@?$allocator@U?$_List_node@PAVRaven_Bot@@PAX@std@@@std@@QAE@ABV?$allocator@PAVRaven_Bot@@@1@@Z
_TEXT	SEGMENT
_this$ = -4						; size = 4
___formal$ = 8						; size = 4
??$?0PAVRaven_Bot@@@?$allocator@U?$_List_node@PAVRaven_Bot@@PAX@std@@@std@@QAE@ABV?$allocator@PAVRaven_Bot@@@1@@Z PROC ; std::allocator<std::_List_node<Raven_Bot *,void *> >::allocator<std::_List_node<Raven_Bot *,void *> ><Raven_Bot *>, COMDAT
; _this$ = ecx

; 629  : 		{	// construct from a related allocator (do nothing)

	push	ebp
	mov	ebp, esp
	push	ecx
	mov	DWORD PTR [ebp-4], -858993460		; ccccccccH
	mov	DWORD PTR _this$[ebp], ecx

; 630  : 		}

	mov	eax, DWORD PTR _this$[ebp]
	mov	esp, ebp
	pop	ebp
	ret	4
??$?0PAVRaven_Bot@@@?$allocator@U?$_List_node@PAVRaven_Bot@@PAX@std@@@std@@QAE@ABV?$allocator@PAVRaven_Bot@@@1@@Z ENDP ; std::allocator<std::_List_node<Raven_Bot *,void *> >::allocator<std::_List_node<Raven_Bot *,void *> ><Raven_Bot *>
_TEXT	ENDS
; Function compile flags: /Odtp /RTCsu
; File d:\microsoft visual studio 14.0\vc\include\xmemory0
;	COMDAT ??$?0V?$allocator@PAVRaven_Bot@@@std@@@?$_Wrap_alloc@V?$allocator@U?$_List_node@PAVRaven_Bot@@PAX@std@@@std@@@std@@QAE@ABV?$allocator@PAVRaven_Bot@@@1@@Z
_TEXT	SEGMENT
_this$ = -4						; size = 4
__Right$ = 8						; size = 4
??$?0V?$allocator@PAVRaven_Bot@@@std@@@?$_Wrap_alloc@V?$allocator@U?$_List_node@PAVRaven_Bot@@PAX@std@@@std@@@std@@QAE@ABV?$allocator@PAVRaven_Bot@@@1@@Z PROC ; std::_Wrap_alloc<std::allocator<std::_List_node<Raven_Bot *,void *> > >::_Wrap_alloc<std::allocator<std::_List_node<Raven_Bot *,void *> > ><std::allocator<Raven_Bot *> >, COMDAT
; _this$ = ecx

; 870  : 		{	// construct from a related allocator

	push	ebp
	mov	ebp, esp
	push	ecx
	mov	DWORD PTR [ebp-4], -858993460		; ccccccccH
	mov	DWORD PTR _this$[ebp], ecx

; 869  : 		: _Mybase(_Right)

	mov	eax, DWORD PTR __Right$[ebp]
	push	eax
	mov	ecx, DWORD PTR _this$[ebp]
	call	??$?0PAVRaven_Bot@@@?$allocator@U?$_List_node@PAVRaven_Bot@@PAX@std@@@std@@QAE@ABV?$allocator@PAVRaven_Bot@@@1@@Z ; std::allocator<std::_List_node<Raven_Bot *,void *> >::allocator<std::_List_node<Raven_Bot *,void *> ><Raven_Bot *>

; 871  : 		}

	mov	eax, DWORD PTR _this$[ebp]
	add	esp, 4
	cmp	ebp, esp
	call	__RTC_CheckEsp
	mov	esp, ebp
	pop	ebp
	ret	4
??$?0V?$allocator@PAVRaven_Bot@@@std@@@?$_Wrap_alloc@V?$allocator@U?$_List_node@PAVRaven_Bot@@PAX@std@@@std@@@std@@QAE@ABV?$allocator@PAVRaven_Bot@@@1@@Z ENDP ; std::_Wrap_alloc<std::allocator<std::_List_node<Raven_Bot *,void *> > >::_Wrap_alloc<std::allocator<std::_List_node<Raven_Bot *,void *> > ><std::allocator<Raven_Bot *> >
_TEXT	ENDS
; Function compile flags: /Odtp /RTCsu
; File d:\microsoft visual studio 14.0\vc\include\type_traits
;	COMDAT ??$forward@V?$allocator@PAVRaven_Bot@@@std@@@std@@YA$$QAV?$allocator@PAVRaven_Bot@@@0@AAV10@@Z
_TEXT	SEGMENT
__Arg$ = 8						; size = 4
??$forward@V?$allocator@PAVRaven_Bot@@@std@@@std@@YA$$QAV?$allocator@PAVRaven_Bot@@@0@AAV10@@Z PROC ; std::forward<std::allocator<Raven_Bot *> >, COMDAT

; 1293 : 	{	// forward an lvalue as either an lvalue or an rvalue

	push	ebp
	mov	ebp, esp

; 1294 : 	return (static_cast<_Ty&&>(_Arg));

	mov	eax, DWORD PTR __Arg$[ebp]

; 1295 : 	}

	pop	ebp
	ret	0
??$forward@V?$allocator@PAVRaven_Bot@@@std@@@std@@YA$$QAV?$allocator@PAVRaven_Bot@@@0@AAV10@@Z ENDP ; std::forward<std::allocator<Raven_Bot *> >
_TEXT	ENDS
; Function compile flags: /Odtp /RTCsu
; File d:\microsoft visual studio 14.0\vc\include\xmemory0
;	COMDAT ??$destroy@U_Container_proxy@std@@@?$allocator_traits@V?$allocator@U_Container_proxy@std@@@std@@@std@@SAXAAV?$allocator@U_Container_proxy@std@@@1@PAU_Container_proxy@1@@Z
_TEXT	SEGMENT
__Al$ = 8						; size = 4
__Ptr$ = 12						; size = 4
??$destroy@U_Container_proxy@std@@@?$allocator_traits@V?$allocator@U_Container_proxy@std@@@std@@@std@@SAXAAV?$allocator@U_Container_proxy@std@@@1@PAU_Container_proxy@1@@Z PROC ; std::allocator_traits<std::allocator<std::_Container_proxy> >::destroy<std::_Container_proxy>, COMDAT

; 781  : 		{	// destroy object at _Ptr

	push	ebp
	mov	ebp, esp

; 782  : 		_Al.destroy(_Ptr);

	mov	eax, DWORD PTR __Ptr$[ebp]
	push	eax
	mov	ecx, DWORD PTR __Al$[ebp]
	call	??$destroy@U_Container_proxy@std@@@?$allocator@U_Container_proxy@std@@@std@@QAEXPAU_Container_proxy@1@@Z ; std::allocator<std::_Container_proxy>::destroy<std::_Container_proxy>

; 783  : 		}

	cmp	ebp, esp
	call	__RTC_CheckEsp
	pop	ebp
	ret	0
??$destroy@U_Container_proxy@std@@@?$allocator_traits@V?$allocator@U_Container_proxy@std@@@std@@@std@@SAXAAV?$allocator@U_Container_proxy@std@@@1@PAU_Container_proxy@1@@Z ENDP ; std::allocator_traits<std::allocator<std::_Container_proxy> >::destroy<std::_Container_proxy>
_TEXT	ENDS
; Function compile flags: /Odtp /RTCsu
; File d:\microsoft visual studio 14.0\vc\include\xmemory0
;	COMDAT ??$destroy@PAU?$_List_node@PAVRaven_Bot@@PAX@std@@@?$allocator_traits@V?$allocator@U?$_List_node@PAVRaven_Bot@@PAX@std@@@std@@@std@@SAXAAV?$allocator@U?$_List_node@PAVRaven_Bot@@PAX@std@@@1@PAPAU?$_List_node@PAVRaven_Bot@@PAX@1@@Z
_TEXT	SEGMENT
__Al$ = 8						; size = 4
__Ptr$ = 12						; size = 4
??$destroy@PAU?$_List_node@PAVRaven_Bot@@PAX@std@@@?$allocator_traits@V?$allocator@U?$_List_node@PAVRaven_Bot@@PAX@std@@@std@@@std@@SAXAAV?$allocator@U?$_List_node@PAVRaven_Bot@@PAX@std@@@1@PAPAU?$_List_node@PAVRaven_Bot@@PAX@1@@Z PROC ; std::allocator_traits<std::allocator<std::_List_node<Raven_Bot *,void *> > >::destroy<std::_List_node<Raven_Bot *,void *> *>, COMDAT

; 781  : 		{	// destroy object at _Ptr

	push	ebp
	mov	ebp, esp

; 782  : 		_Al.destroy(_Ptr);

	mov	eax, DWORD PTR __Ptr$[ebp]
	push	eax
	mov	ecx, DWORD PTR __Al$[ebp]
	call	??$destroy@PAU?$_List_node@PAVRaven_Bot@@PAX@std@@@?$allocator@U?$_List_node@PAVRaven_Bot@@PAX@std@@@std@@QAEXPAPAU?$_List_node@PAVRaven_Bot@@PAX@1@@Z ; std::allocator<std::_List_node<Raven_Bot *,void *> >::destroy<std::_List_node<Raven_Bot *,void *> *>

; 783  : 		}

	cmp	ebp, esp
	call	__RTC_CheckEsp
	pop	ebp
	ret	0
??$destroy@PAU?$_List_node@PAVRaven_Bot@@PAX@std@@@?$allocator_traits@V?$allocator@U?$_List_node@PAVRaven_Bot@@PAX@std@@@std@@@std@@SAXAAV?$allocator@U?$_List_node@PAVRaven_Bot@@PAX@std@@@1@PAPAU?$_List_node@PAVRaven_Bot@@PAX@1@@Z ENDP ; std::allocator_traits<std::allocator<std::_List_node<Raven_Bot *,void *> > >::destroy<std::_List_node<Raven_Bot *,void *> *>
_TEXT	ENDS
; Function compile flags: /Odtp /RTCsu
; File d:\microsoft visual studio 14.0\vc\include\xstddef
;	COMDAT ??$_Addressof@PAU?$_List_node@PAVRaven_Bot@@PAX@std@@@std@@YAPAPAU?$_List_node@PAVRaven_Bot@@PAX@0@AAPAU10@U?$integral_constant@_N$0A@@0@@Z
_TEXT	SEGMENT
__Val$ = 8						; size = 4
___formal$ = 12						; size = 1
??$_Addressof@PAU?$_List_node@PAVRaven_Bot@@PAX@std@@@std@@YAPAPAU?$_List_node@PAVRaven_Bot@@PAX@0@AAPAU10@U?$integral_constant@_N$0A@@0@@Z PROC ; std::_Addressof<std::_List_node<Raven_Bot *,void *> *>, COMDAT

; 691  : 	{	// return address of object _Val

	push	ebp
	mov	ebp, esp

; 692  : 	return (reinterpret_cast<_Ty *>(

	mov	eax, DWORD PTR __Val$[ebp]

; 693  : 		&const_cast<char&>(
; 694  : 		reinterpret_cast<const volatile char&>(_Val))));
; 695  : 	}

	pop	ebp
	ret	0
??$_Addressof@PAU?$_List_node@PAVRaven_Bot@@PAX@std@@@std@@YAPAPAU?$_List_node@PAVRaven_Bot@@PAX@0@AAPAU10@U?$integral_constant@_N$0A@@0@@Z ENDP ; std::_Addressof<std::_List_node<Raven_Bot *,void *> *>
_TEXT	ENDS
; Function compile flags: /Odtp /RTCsu
; File d:\microsoft visual studio 14.0\vc\include\type_traits
;	COMDAT ??$_Move@AAI@std@@YA$$QAIAAI@Z
_TEXT	SEGMENT
__Arg$ = 8						; size = 4
??$_Move@AAI@std@@YA$$QAIAAI@Z PROC			; std::_Move<unsigned int &>, COMDAT

; 1317 : 	{	// forward _Arg as movable

	push	ebp
	mov	ebp, esp

; 1318 : 	return (static_cast<typename remove_reference<_Ty>::type&&>(_Arg));

	mov	eax, DWORD PTR __Arg$[ebp]

; 1319 : 	}

	pop	ebp
	ret	0
??$_Move@AAI@std@@YA$$QAIAAI@Z ENDP			; std::_Move<unsigned int &>
_TEXT	ENDS
; Function compile flags: /Odtp /RTCsu
; File d:\microsoft visual studio 14.0\vc\include\list
;	COMDAT ??$_Buynode@ABQAVRaven_Bot@@@?$_List_buy@PAVRaven_Bot@@V?$allocator@PAVRaven_Bot@@@std@@@std@@QAEPAU?$_List_node@PAVRaven_Bot@@PAX@1@PAU21@0ABQAVRaven_Bot@@@Z
_TEXT	SEGMENT
tv131 = -28						; size = 4
__Pnode$ = -24						; size = 4
_this$ = -20						; size = 4
__$EHRec$ = -16						; size = 16
__Next$ = 8						; size = 4
__Prev$ = 12						; size = 4
_<_Val_0>$ = 16						; size = 4
??$_Buynode@ABQAVRaven_Bot@@@?$_List_buy@PAVRaven_Bot@@V?$allocator@PAVRaven_Bot@@@std@@@std@@QAEPAU?$_List_node@PAVRaven_Bot@@PAX@1@PAU21@0ABQAVRaven_Bot@@@Z PROC ; std::_List_buy<Raven_Bot *,std::allocator<Raven_Bot *> >::_Buynode<Raven_Bot * const &>, COMDAT
; _this$ = ecx

; 828  : 		{	// allocate a node and set links and value

	push	ebp
	mov	ebp, esp
	push	-1
	push	__ehhandler$??$_Buynode@ABQAVRaven_Bot@@@?$_List_buy@PAVRaven_Bot@@V?$allocator@PAVRaven_Bot@@@std@@@std@@QAEPAU?$_List_node@PAVRaven_Bot@@PAX@1@PAU21@0ABQAVRaven_Bot@@@Z
	mov	eax, DWORD PTR fs:0
	push	eax
	push	ecx
	sub	esp, 12					; 0000000cH
	push	ebx
	push	esi
	push	edi
	mov	DWORD PTR [ebp-28], -858993460		; ccccccccH
	mov	DWORD PTR [ebp-24], -858993460		; ccccccccH
	mov	DWORD PTR [ebp-20], -858993460		; ccccccccH
	mov	eax, DWORD PTR ___security_cookie
	xor	eax, ebp
	push	eax
	lea	eax, DWORD PTR __$EHRec$[ebp+4]
	mov	DWORD PTR fs:0, eax
	mov	DWORD PTR __$EHRec$[ebp], esp
	mov	DWORD PTR _this$[ebp], ecx

; 829  : 		_Nodeptr _Pnode = this->_Buynode0(_Next, _Prev);

	mov	eax, DWORD PTR __Prev$[ebp]
	push	eax
	mov	ecx, DWORD PTR __Next$[ebp]
	push	ecx
	mov	ecx, DWORD PTR _this$[ebp]
	call	?_Buynode0@?$_List_alloc@U?$_List_base_types@PAVRaven_Bot@@V?$allocator@PAVRaven_Bot@@@std@@@std@@@std@@QAEPAU?$_List_node@PAVRaven_Bot@@PAX@2@PAU32@0@Z ; std::_List_alloc<std::_List_base_types<Raven_Bot *,std::allocator<Raven_Bot *> > >::_Buynode0
	mov	DWORD PTR __Pnode$[ebp], eax

; 830  : 
; 831  : 		_TRY_BEGIN

	mov	DWORD PTR __$EHRec$[ebp+12], 0

; 832  : 		this->_Getal().construct(

	mov	edx, DWORD PTR __Pnode$[ebp]
	push	edx
	call	?_Myval@?$_List_alloc@U?$_List_base_types@PAVRaven_Bot@@V?$allocator@PAVRaven_Bot@@@std@@@std@@@std@@SAAAPAVRaven_Bot@@PAU?$_List_node@PAVRaven_Bot@@PAX@2@@Z ; std::_List_alloc<std::_List_base_types<Raven_Bot *,std::allocator<Raven_Bot *> > >::_Myval
	add	esp, 4
	mov	DWORD PTR tv131[ebp], eax
	mov	eax, DWORD PTR _<_Val_0>$[ebp]
	push	eax
	call	??$forward@ABQAVRaven_Bot@@@std@@YAABQAVRaven_Bot@@ABQAV1@@Z ; std::forward<Raven_Bot * const &>
	add	esp, 4
	push	eax
	mov	ecx, DWORD PTR tv131[ebp]
	push	ecx
	call	??$addressof@PAVRaven_Bot@@@std@@YAPAPAVRaven_Bot@@AAPAV1@@Z ; std::addressof<Raven_Bot *>
	add	esp, 4
	push	eax
	mov	ecx, DWORD PTR _this$[ebp]
	call	?_Getal@?$_List_alloc@U?$_List_base_types@PAVRaven_Bot@@V?$allocator@PAVRaven_Bot@@@std@@@std@@@std@@QAEAAU?$_Wrap_alloc@V?$allocator@U?$_List_node@PAVRaven_Bot@@PAX@std@@@std@@@2@XZ ; std::_List_alloc<std::_List_base_types<Raven_Bot *,std::allocator<Raven_Bot *> > >::_Getal
	mov	ecx, eax
	call	??$construct@PAVRaven_Bot@@ABQAV1@@?$_Wrap_alloc@V?$allocator@U?$_List_node@PAVRaven_Bot@@PAX@std@@@std@@@std@@QAEXPAPAVRaven_Bot@@ABQAV2@@Z ; std::_Wrap_alloc<std::allocator<std::_List_node<Raven_Bot *,void *> > >::construct<Raven_Bot *,Raven_Bot * const &>
	jmp	SHORT $LN4@Buynode
__catch$??$_Buynode@ABQAVRaven_Bot@@@?$_List_buy@PAVRaven_Bot@@V?$allocator@PAVRaven_Bot@@@std@@@std@@QAEPAU?$_List_node@PAVRaven_Bot@@PAX@1@PAU21@0ABQAVRaven_Bot@@@Z$0:

; 833  : 			_STD addressof(this->_Myval(_Pnode)),
; 834  : 				_STD forward<_Valty>(_Val)...);
; 835  : 		_CATCH_ALL
; 836  : 		this->_Getal().deallocate(_Pnode, 1);

	push	1
	mov	edx, DWORD PTR __Pnode$[ebp]
	push	edx
	mov	ecx, DWORD PTR _this$[ebp]
	call	?_Getal@?$_List_alloc@U?$_List_base_types@PAVRaven_Bot@@V?$allocator@PAVRaven_Bot@@@std@@@std@@@std@@QAEAAU?$_Wrap_alloc@V?$allocator@U?$_List_node@PAVRaven_Bot@@PAX@std@@@std@@@2@XZ ; std::_List_alloc<std::_List_base_types<Raven_Bot *,std::allocator<Raven_Bot *> > >::_Getal
	mov	ecx, eax
	call	?deallocate@?$_Wrap_alloc@V?$allocator@U?$_List_node@PAVRaven_Bot@@PAX@std@@@std@@@std@@QAEXPAU?$_List_node@PAVRaven_Bot@@PAX@2@I@Z ; std::_Wrap_alloc<std::allocator<std::_List_node<Raven_Bot *,void *> > >::deallocate

; 837  : 		_RERAISE;

	push	0
	push	0
	call	__CxxThrowException@8

; 838  : 		_CATCH_END

	mov	eax, $LN7@Buynode
	ret	0
$LN4@Buynode:
	mov	DWORD PTR __$EHRec$[ebp+12], -1
	jmp	SHORT __tryend$??$_Buynode@ABQAVRaven_Bot@@@?$_List_buy@PAVRaven_Bot@@V?$allocator@PAVRaven_Bot@@@std@@@std@@QAEPAU?$_List_node@PAVRaven_Bot@@PAX@1@PAU21@0ABQAVRaven_Bot@@@Z$1
$LN7@Buynode:
	mov	DWORD PTR __$EHRec$[ebp+12], -1
__tryend$??$_Buynode@ABQAVRaven_Bot@@@?$_List_buy@PAVRaven_Bot@@V?$allocator@PAVRaven_Bot@@@std@@@std@@QAEPAU?$_List_node@PAVRaven_Bot@@PAX@1@PAU21@0ABQAVRaven_Bot@@@Z$1:

; 839  : 
; 840  : 		return (_Pnode);

	mov	eax, DWORD PTR __Pnode$[ebp]
$LN3@Buynode:

; 841  : 		}

	mov	ecx, DWORD PTR __$EHRec$[ebp+4]
	mov	DWORD PTR fs:0, ecx
	pop	ecx
	pop	edi
	pop	esi
	pop	ebx
	add	esp, 28					; 0000001cH
	cmp	ebp, esp
	call	__RTC_CheckEsp
	mov	esp, ebp
	pop	ebp
	ret	12					; 0000000cH
_TEXT	ENDS
;	COMDAT text$x
text$x	SEGMENT
__ehhandler$??$_Buynode@ABQAVRaven_Bot@@@?$_List_buy@PAVRaven_Bot@@V?$allocator@PAVRaven_Bot@@@std@@@std@@QAEPAU?$_List_node@PAVRaven_Bot@@PAX@1@PAU21@0ABQAVRaven_Bot@@@Z:
	mov	edx, DWORD PTR [esp+8]
	lea	eax, DWORD PTR [edx+12]
	mov	ecx, DWORD PTR [edx-32]
	xor	ecx, eax
	call	@__security_check_cookie@4
	mov	eax, OFFSET __ehfuncinfo$??$_Buynode@ABQAVRaven_Bot@@@?$_List_buy@PAVRaven_Bot@@V?$allocator@PAVRaven_Bot@@@std@@@std@@QAEPAU?$_List_node@PAVRaven_Bot@@PAX@1@PAU21@0ABQAVRaven_Bot@@@Z
	jmp	___CxxFrameHandler3
text$x	ENDS
??$_Buynode@ABQAVRaven_Bot@@@?$_List_buy@PAVRaven_Bot@@V?$allocator@PAVRaven_Bot@@@std@@@std@@QAEPAU?$_List_node@PAVRaven_Bot@@PAX@1@PAU21@0ABQAVRaven_Bot@@@Z ENDP ; std::_List_buy<Raven_Bot *,std::allocator<Raven_Bot *> >::_Buynode<Raven_Bot * const &>
; Function compile flags: /Odtp /RTCsu
; File d:\microsoft visual studio 14.0\vc\include\type_traits
;	COMDAT ??$forward@ABQAVRaven_Bot@@@std@@YAABQAVRaven_Bot@@ABQAV1@@Z
_TEXT	SEGMENT
__Arg$ = 8						; size = 4
??$forward@ABQAVRaven_Bot@@@std@@YAABQAVRaven_Bot@@ABQAV1@@Z PROC ; std::forward<Raven_Bot * const &>, COMDAT

; 1293 : 	{	// forward an lvalue as either an lvalue or an rvalue

	push	ebp
	mov	ebp, esp

; 1294 : 	return (static_cast<_Ty&&>(_Arg));

	mov	eax, DWORD PTR __Arg$[ebp]

; 1295 : 	}

	pop	ebp
	ret	0
??$forward@ABQAVRaven_Bot@@@std@@YAABQAVRaven_Bot@@ABQAV1@@Z ENDP ; std::forward<Raven_Bot * const &>
_TEXT	ENDS
; Function compile flags: /Odtp /RTCsu
; File d:\microsoft visual studio 14.0\vc\include\xmemory0
;	COMDAT ??$_Allocate@U?$_List_node@PAVRaven_Bot@@PAX@std@@@std@@YAPAU?$_List_node@PAVRaven_Bot@@PAX@0@IPAU10@_N@Z
_TEXT	SEGMENT
__Ptr_container$1 = -16					; size = 4
__Block_size$2 = -12					; size = 4
__User_size$ = -8					; size = 4
__Ptr$ = -4						; size = 4
__Count$ = 8						; size = 4
___formal$ = 12						; size = 4
__Try_aligned_allocation$ = 16				; size = 1
??$_Allocate@U?$_List_node@PAVRaven_Bot@@PAX@std@@@std@@YAPAU?$_List_node@PAVRaven_Bot@@PAX@0@IPAU10@_N@Z PROC ; std::_Allocate<std::_List_node<Raven_Bot *,void *> >, COMDAT

; 54   : 	{	// allocate storage for _Count elements of type _Ty

	push	ebp
	mov	ebp, esp
	sub	esp, 16					; 00000010H
	mov	eax, -858993460				; ccccccccH
	mov	DWORD PTR [ebp-16], eax
	mov	DWORD PTR [ebp-12], eax
	mov	DWORD PTR [ebp-8], eax
	mov	DWORD PTR [ebp-4], eax

; 55   : 	void *_Ptr = 0;

	mov	DWORD PTR __Ptr$[ebp], 0

; 56   : 
; 57   : 	if (_Count == 0)

	cmp	DWORD PTR __Count$[ebp], 0
	jne	SHORT $LN2@Allocate

; 58   : 		return (static_cast<_Ty *>(_Ptr));

	mov	eax, DWORD PTR __Ptr$[ebp]
	jmp	$LN9@Allocate
$LN2@Allocate:

; 59   : 
; 60   : 	// check overflow of multiply
; 61   : 	if ((size_t)(-1) / sizeof (_Ty) < _Count)

	cmp	DWORD PTR __Count$[ebp], 357913941	; 15555555H
	jbe	SHORT $LN3@Allocate

; 62   : 		_Xbad_alloc();	// report no memory

	call	?_Xbad_alloc@std@@YAXXZ			; std::_Xbad_alloc
$LN3@Allocate:

; 63   : 	const size_t _User_size = _Count * sizeof (_Ty);

	imul	eax, DWORD PTR __Count$[ebp], 12
	mov	DWORD PTR __User_size$[ebp], eax

; 64   : 
; 65   :  #if defined(_M_IX86) || defined(_M_X64)
; 66   : 	if (_Try_aligned_allocation
; 67   : 		&& _BIG_ALLOCATION_THRESHOLD <= _User_size)

	movzx	ecx, BYTE PTR __Try_aligned_allocation$[ebp]
	test	ecx, ecx
	je	$LN4@Allocate
	cmp	DWORD PTR __User_size$[ebp], 4096	; 00001000H
	jb	$LN4@Allocate

; 68   : 		{	// allocate large block
; 69   : 		static_assert(sizeof (void *) < _BIG_ALLOCATION_ALIGNMENT,
; 70   : 			"Big allocations should at least match vector register size");
; 71   : 		const size_t _Block_size = _NON_USER_SIZE + _User_size;

	mov	edx, DWORD PTR __User_size$[ebp]
	add	edx, 39					; 00000027H
	mov	DWORD PTR __Block_size$2[ebp], edx

; 72   : 		if (_Block_size <= _User_size)

	mov	eax, DWORD PTR __Block_size$2[ebp]
	cmp	eax, DWORD PTR __User_size$[ebp]
	ja	SHORT $LN6@Allocate

; 73   : 			_Xbad_alloc();	// report no memory

	call	?_Xbad_alloc@std@@YAXXZ			; std::_Xbad_alloc
$LN6@Allocate:

; 74   : 		const uintptr_t _Ptr_container =
; 75   : 			reinterpret_cast<uintptr_t>(::operator new(_Block_size));

	mov	ecx, DWORD PTR __Block_size$2[ebp]
	push	ecx
	call	??2@YAPAXI@Z				; operator new
	add	esp, 4
	mov	DWORD PTR __Ptr_container$1[ebp], eax

; 76   : 		_SCL_SECURE_ALWAYS_VALIDATE(_Ptr_container != 0);

	cmp	DWORD PTR __Ptr_container$1[ebp], 0
	jne	SHORT $LN7@Allocate
	mov	edx, OFFSET ??_C@_0BE@LMNLACIC@_Ptr_container?5?$CB?$DN?50?$AA@
	test	edx, edx
	je	SHORT $LN10@Allocate
	xor	eax, eax
	jne	SHORT $LN11@Allocate
$LN10@Allocate:
	push	OFFSET ??_C@_1DG@HGDKEBPG@?$AA?$CC?$AA_?$AAP?$AAt?$AAr?$AA_?$AAc?$AAo?$AAn?$AAt?$AAa?$AAi?$AAn?$AAe?$AAr?$AA?5?$AA?$CB?$AA?$DN?$AA?5?$AA0?$AA?$CC?$AA?5?$AA?$CG?$AA?$CG?$AA?5?$AA0?$AA?$AA@
	push	OFFSET ??_C@_17CNPHIMPH@?$AA?$CF?$AAl?$AAs?$AA?$AA@
	push	0
	push	76					; 0000004cH
	push	OFFSET ??_C@_1GI@MOGLCDAO@?$AAD?$AA?3?$AA?2?$AAM?$AAi?$AAc?$AAr?$AAo?$AAs?$AAo?$AAf?$AAt?$AA?5?$AAV?$AAi?$AAs?$AAu?$AAa?$AAl?$AA?5?$AAS?$AAt?$AAu?$AAd?$AAi?$AAo?$AA?5?$AA1?$AA4?$AA?4?$AA0?$AA?2@
	push	2
	call	__CrtDbgReportW
	add	esp, 24					; 00000018H
	cmp	eax, 1
	jne	SHORT $LN11@Allocate
	int	3
$LN11@Allocate:
	push	0
	push	76					; 0000004cH
	push	OFFSET ??_C@_1GI@MOGLCDAO@?$AAD?$AA?3?$AA?2?$AAM?$AAi?$AAc?$AAr?$AAo?$AAs?$AAo?$AAf?$AAt?$AA?5?$AAV?$AAi?$AAs?$AAu?$AAa?$AAl?$AA?5?$AAS?$AAt?$AAu?$AAd?$AAi?$AAo?$AA?5?$AA1?$AA4?$AA?4?$AA0?$AA?2@
	push	OFFSET ??_C@_1BO@NKFMJPA@?$AAs?$AAt?$AAd?$AA?3?$AA?3?$AA_?$AAA?$AAl?$AAl?$AAo?$AAc?$AAa?$AAt?$AAe?$AA?$AA@
	push	OFFSET ??_C@_1CG@JNLFBNGN@?$AA?$CC?$AAi?$AAn?$AAv?$AAa?$AAl?$AAi?$AAd?$AA?5?$AAa?$AAr?$AAg?$AAu?$AAm?$AAe?$AAn?$AAt?$AA?$CC?$AA?$AA@
	call	__invalid_parameter
	add	esp, 20					; 00000014H
$LN7@Allocate:

; 77   : 		_Ptr = reinterpret_cast<void *>((_Ptr_container + _NON_USER_SIZE)

	mov	edx, DWORD PTR __Ptr_container$1[ebp]
	add	edx, 39					; 00000027H
	and	edx, -32				; ffffffe0H
	mov	DWORD PTR __Ptr$[ebp], edx

; 78   : 			& ~(_BIG_ALLOCATION_ALIGNMENT - 1));
; 79   : 		static_cast<uintptr_t *>(_Ptr)[-1] = _Ptr_container;

	mov	eax, 4
	imul	ecx, eax, -1
	mov	edx, DWORD PTR __Ptr$[ebp]
	mov	eax, DWORD PTR __Ptr_container$1[ebp]
	mov	DWORD PTR [edx+ecx], eax

; 80   : 
; 81   :  #ifdef _DEBUG
; 82   : 		static_cast<uintptr_t *>(_Ptr)[-2] = _BIG_ALLOCATION_SENTINEL;

	mov	ecx, 4
	imul	edx, ecx, -2
	mov	eax, DWORD PTR __Ptr$[ebp]
	mov	DWORD PTR [eax+edx], -84215046		; fafafafaH

; 83   :  #endif /* _DEBUG */
; 84   : 		}
; 85   : 	else

	jmp	SHORT $LN5@Allocate
$LN4@Allocate:

; 86   :  #endif /* defined(_M_IX86) || defined(_M_X64) */
; 87   : 
; 88   : 		{	// allocate normal block
; 89   : 		_Ptr = ::operator new(_User_size);

	mov	ecx, DWORD PTR __User_size$[ebp]
	push	ecx
	call	??2@YAPAXI@Z				; operator new
	add	esp, 4
	mov	DWORD PTR __Ptr$[ebp], eax

; 90   : 		_SCL_SECURE_ALWAYS_VALIDATE(_Ptr != 0);

	cmp	DWORD PTR __Ptr$[ebp], 0
	jne	SHORT $LN5@Allocate
	mov	edx, OFFSET ??_C@_09GLJCAGLP@_Ptr?5?$CB?$DN?50?$AA@
	test	edx, edx
	je	SHORT $LN12@Allocate
	xor	eax, eax
	jne	SHORT $LN13@Allocate
$LN12@Allocate:
	push	OFFSET ??_C@_1CC@GKJLLHIM@?$AA?$CC?$AA_?$AAP?$AAt?$AAr?$AA?5?$AA?$CB?$AA?$DN?$AA?5?$AA0?$AA?$CC?$AA?5?$AA?$CG?$AA?$CG?$AA?5?$AA0?$AA?$AA@
	push	OFFSET ??_C@_17CNPHIMPH@?$AA?$CF?$AAl?$AAs?$AA?$AA@
	push	0
	push	90					; 0000005aH
	push	OFFSET ??_C@_1GI@MOGLCDAO@?$AAD?$AA?3?$AA?2?$AAM?$AAi?$AAc?$AAr?$AAo?$AAs?$AAo?$AAf?$AAt?$AA?5?$AAV?$AAi?$AAs?$AAu?$AAa?$AAl?$AA?5?$AAS?$AAt?$AAu?$AAd?$AAi?$AAo?$AA?5?$AA1?$AA4?$AA?4?$AA0?$AA?2@
	push	2
	call	__CrtDbgReportW
	add	esp, 24					; 00000018H
	cmp	eax, 1
	jne	SHORT $LN13@Allocate
	int	3
$LN13@Allocate:
	push	0
	push	90					; 0000005aH
	push	OFFSET ??_C@_1GI@MOGLCDAO@?$AAD?$AA?3?$AA?2?$AAM?$AAi?$AAc?$AAr?$AAo?$AAs?$AAo?$AAf?$AAt?$AA?5?$AAV?$AAi?$AAs?$AAu?$AAa?$AAl?$AA?5?$AAS?$AAt?$AAu?$AAd?$AAi?$AAo?$AA?5?$AA1?$AA4?$AA?4?$AA0?$AA?2@
	push	OFFSET ??_C@_1BO@NKFMJPA@?$AAs?$AAt?$AAd?$AA?3?$AA?3?$AA_?$AAA?$AAl?$AAl?$AAo?$AAc?$AAa?$AAt?$AAe?$AA?$AA@
	push	OFFSET ??_C@_1CG@JNLFBNGN@?$AA?$CC?$AAi?$AAn?$AAv?$AAa?$AAl?$AAi?$AAd?$AA?5?$AAa?$AAr?$AAg?$AAu?$AAm?$AAe?$AAn?$AAt?$AA?$CC?$AA?$AA@
	call	__invalid_parameter
	add	esp, 20					; 00000014H
$LN5@Allocate:

; 91   : 		}
; 92   : 	return (static_cast<_Ty *>(_Ptr));

	mov	eax, DWORD PTR __Ptr$[ebp]
$LN9@Allocate:

; 93   : 	}

	add	esp, 16					; 00000010H
	cmp	ebp, esp
	call	__RTC_CheckEsp
	mov	esp, ebp
	pop	ebp
	ret	0
??$_Allocate@U?$_List_node@PAVRaven_Bot@@PAX@std@@@std@@YAPAU?$_List_node@PAVRaven_Bot@@PAX@0@IPAU10@_N@Z ENDP ; std::_Allocate<std::_List_node<Raven_Bot *,void *> >
_TEXT	ENDS
; Function compile flags: /Odtp /RTCsu
; File d:\microsoft visual studio 14.0\vc\include\xmemory0
;	COMDAT ??$construct@PAU?$_List_node@PAVRaven_Bot@@PAX@std@@AAPAU12@@?$_Wrap_alloc@V?$allocator@U?$_List_node@PAVRaven_Bot@@PAX@std@@@std@@@std@@QAEXPAPAU?$_List_node@PAVRaven_Bot@@PAX@1@AAPAU21@@Z
_TEXT	SEGMENT
_this$ = -4						; size = 4
__Ptr$ = 8						; size = 4
_<_Args_0>$ = 12					; size = 4
??$construct@PAU?$_List_node@PAVRaven_Bot@@PAX@std@@AAPAU12@@?$_Wrap_alloc@V?$allocator@U?$_List_node@PAVRaven_Bot@@PAX@std@@@std@@@std@@QAEXPAPAU?$_List_node@PAVRaven_Bot@@PAX@1@AAPAU21@@Z PROC ; std::_Wrap_alloc<std::allocator<std::_List_node<Raven_Bot *,void *> > >::construct<std::_List_node<Raven_Bot *,void *> *,std::_List_node<Raven_Bot *,void *> * &>, COMDAT
; _this$ = ecx

; 918  : 		{	// construct _Ty(_Types...) at _Ptr

	push	ebp
	mov	ebp, esp
	push	ecx
	mov	DWORD PTR [ebp-4], -858993460		; ccccccccH
	mov	DWORD PTR _this$[ebp], ecx

; 919  : 		_Mytraits::construct(*this, _Ptr,

	mov	eax, DWORD PTR _<_Args_0>$[ebp]
	push	eax
	call	??$forward@AAPAU?$_List_node@PAVRaven_Bot@@PAX@std@@@std@@YAAAPAU?$_List_node@PAVRaven_Bot@@PAX@0@AAPAU10@@Z ; std::forward<std::_List_node<Raven_Bot *,void *> * &>
	add	esp, 4
	push	eax
	mov	ecx, DWORD PTR __Ptr$[ebp]
	push	ecx
	mov	edx, DWORD PTR _this$[ebp]
	push	edx
	call	??$construct@PAU?$_List_node@PAVRaven_Bot@@PAX@std@@AAPAU12@@?$allocator_traits@V?$allocator@U?$_List_node@PAVRaven_Bot@@PAX@std@@@std@@@std@@SAXAAV?$allocator@U?$_List_node@PAVRaven_Bot@@PAX@std@@@1@PAPAU?$_List_node@PAVRaven_Bot@@PAX@1@AAPAU31@@Z ; std::allocator_traits<std::allocator<std::_List_node<Raven_Bot *,void *> > >::construct<std::_List_node<Raven_Bot *,void *> *,std::_List_node<Raven_Bot *,void *> * &>
	add	esp, 12					; 0000000cH

; 920  : 			_STD forward<_Types>(_Args)...);
; 921  : 		}

	add	esp, 4
	cmp	ebp, esp
	call	__RTC_CheckEsp
	mov	esp, ebp
	pop	ebp
	ret	8
??$construct@PAU?$_List_node@PAVRaven_Bot@@PAX@std@@AAPAU12@@?$_Wrap_alloc@V?$allocator@U?$_List_node@PAVRaven_Bot@@PAX@std@@@std@@@std@@QAEXPAPAU?$_List_node@PAVRaven_Bot@@PAX@1@AAPAU21@@Z ENDP ; std::_Wrap_alloc<std::allocator<std::_List_node<Raven_Bot *,void *> > >::construct<std::_List_node<Raven_Bot *,void *> *,std::_List_node<Raven_Bot *,void *> * &>
_TEXT	ENDS
; Function compile flags: /Odtp /RTCsu
; File d:\microsoft visual studio 14.0\vc\include\xmemory0
;	COMDAT ??$_Deallocate@U?$_List_node@PAVRaven_Bot@@PAX@std@@@std@@YAXPAU?$_List_node@PAVRaven_Bot@@PAX@0@I@Z
_TEXT	SEGMENT
__Ptr_container$1 = -16					; size = 4
__Ptr_ptr$2 = -12					; size = 4
__Ptr_user$3 = -8					; size = 4
__User_size$ = -4					; size = 4
__Ptr$ = 8						; size = 4
__Count$ = 12						; size = 4
??$_Deallocate@U?$_List_node@PAVRaven_Bot@@PAX@std@@@std@@YAXPAU?$_List_node@PAVRaven_Bot@@PAX@0@I@Z PROC ; std::_Deallocate<std::_List_node<Raven_Bot *,void *> >, COMDAT

; 98   : 	{	// deallocate storage for _Count elements of type _Ty

	push	ebp
	mov	ebp, esp
	sub	esp, 16					; 00000010H
	mov	eax, -858993460				; ccccccccH
	mov	DWORD PTR [ebp-16], eax
	mov	DWORD PTR [ebp-12], eax
	mov	DWORD PTR [ebp-8], eax
	mov	DWORD PTR [ebp-4], eax

; 99   :  #if defined(_M_IX86) || defined(_M_X64)
; 100  : 	_SCL_SECURE_ALWAYS_VALIDATE(_Count <= (size_t)(-1) / sizeof (_Ty));

	cmp	DWORD PTR __Count$[ebp], 357913941	; 15555555H
	jbe	SHORT $LN2@Deallocate
	mov	eax, OFFSET ??_C@_0CG@FHBDFCGK@_Count?5?$DM?$DN?5?$CIsize_t?$CJ?$CI?91?$CJ?5?1?5sizeof?5@
	test	eax, eax
	je	SHORT $LN10@Deallocate
	xor	ecx, ecx
	jne	SHORT $LN11@Deallocate
$LN10@Deallocate:
	push	OFFSET ??_C@_1FK@EJGLHMGC@?$AA?$CC?$AA_?$AAC?$AAo?$AAu?$AAn?$AAt?$AA?5?$AA?$DM?$AA?$DN?$AA?5?$AA?$CI?$AAs?$AAi?$AAz?$AAe?$AA_?$AAt?$AA?$CJ?$AA?$CI?$AA?9?$AA1?$AA?$CJ?$AA?5?$AA?1?$AA?5?$AAs?$AAi?$AAz?$AAe?$AAo?$AAf@
	push	OFFSET ??_C@_17CNPHIMPH@?$AA?$CF?$AAl?$AAs?$AA?$AA@
	push	0
	push	100					; 00000064H
	push	OFFSET ??_C@_1GI@MOGLCDAO@?$AAD?$AA?3?$AA?2?$AAM?$AAi?$AAc?$AAr?$AAo?$AAs?$AAo?$AAf?$AAt?$AA?5?$AAV?$AAi?$AAs?$AAu?$AAa?$AAl?$AA?5?$AAS?$AAt?$AAu?$AAd?$AAi?$AAo?$AA?5?$AA1?$AA4?$AA?4?$AA0?$AA?2@
	push	2
	call	__CrtDbgReportW
	add	esp, 24					; 00000018H
	cmp	eax, 1
	jne	SHORT $LN11@Deallocate
	int	3
$LN11@Deallocate:
	push	0
	push	100					; 00000064H
	push	OFFSET ??_C@_1GI@MOGLCDAO@?$AAD?$AA?3?$AA?2?$AAM?$AAi?$AAc?$AAr?$AAo?$AAs?$AAo?$AAf?$AAt?$AA?5?$AAV?$AAi?$AAs?$AAu?$AAa?$AAl?$AA?5?$AAS?$AAt?$AAu?$AAd?$AAi?$AAo?$AA?5?$AA1?$AA4?$AA?4?$AA0?$AA?2@
	push	OFFSET ??_C@_1CC@LOFJFFDB@?$AAs?$AAt?$AAd?$AA?3?$AA?3?$AA_?$AAD?$AAe?$AAa?$AAl?$AAl?$AAo?$AAc?$AAa?$AAt?$AAe?$AA?$AA@
	push	OFFSET ??_C@_1CG@JNLFBNGN@?$AA?$CC?$AAi?$AAn?$AAv?$AAa?$AAl?$AAi?$AAd?$AA?5?$AAa?$AAr?$AAg?$AAu?$AAm?$AAe?$AAn?$AAt?$AA?$CC?$AA?$AA@
	call	__invalid_parameter
	add	esp, 20					; 00000014H
$LN2@Deallocate:

; 101  : 	const size_t _User_size = _Count * sizeof (_Ty);

	imul	eax, DWORD PTR __Count$[ebp], 12
	mov	DWORD PTR __User_size$[ebp], eax

; 102  : 	if (_BIG_ALLOCATION_THRESHOLD <= _User_size)

	cmp	DWORD PTR __User_size$[ebp], 4096	; 00001000H
	jb	$LN3@Deallocate

; 103  : 		{	// deallocate large block
; 104  : 		const uintptr_t _Ptr_user = reinterpret_cast<uintptr_t>(_Ptr);

	mov	ecx, DWORD PTR __Ptr$[ebp]
	mov	DWORD PTR __Ptr_user$3[ebp], ecx

; 105  : 		_SCL_SECURE_ALWAYS_VALIDATE(

	mov	edx, DWORD PTR __Ptr_user$3[ebp]
	and	edx, 31					; 0000001fH
	je	SHORT $LN4@Deallocate
	mov	eax, OFFSET ??_C@_0DD@GBGGGKGG@?$CI_Ptr_user?5?$CG?5?$CI_BIG_ALLOCATION_AL@
	test	eax, eax
	je	SHORT $LN12@Deallocate
	xor	ecx, ecx
	jne	SHORT $LN13@Deallocate
$LN12@Deallocate:
	push	OFFSET ??_C@_1HE@CDMBFOKC@?$AA?$CC?$AA?$CI?$AA_?$AAP?$AAt?$AAr?$AA_?$AAu?$AAs?$AAe?$AAr?$AA?5?$AA?$CG?$AA?5?$AA?$CI?$AA_?$AAB?$AAI?$AAG?$AA_?$AAA?$AAL?$AAL?$AAO?$AAC?$AAA?$AAT?$AAI?$AAO?$AAN?$AA_?$AAA@
	push	OFFSET ??_C@_17CNPHIMPH@?$AA?$CF?$AAl?$AAs?$AA?$AA@
	push	0
	push	106					; 0000006aH
	push	OFFSET ??_C@_1GI@MOGLCDAO@?$AAD?$AA?3?$AA?2?$AAM?$AAi?$AAc?$AAr?$AAo?$AAs?$AAo?$AAf?$AAt?$AA?5?$AAV?$AAi?$AAs?$AAu?$AAa?$AAl?$AA?5?$AAS?$AAt?$AAu?$AAd?$AAi?$AAo?$AA?5?$AA1?$AA4?$AA?4?$AA0?$AA?2@
	push	2
	call	__CrtDbgReportW
	add	esp, 24					; 00000018H
	cmp	eax, 1
	jne	SHORT $LN13@Deallocate
	int	3
$LN13@Deallocate:
	push	0
	push	106					; 0000006aH
	push	OFFSET ??_C@_1GI@MOGLCDAO@?$AAD?$AA?3?$AA?2?$AAM?$AAi?$AAc?$AAr?$AAo?$AAs?$AAo?$AAf?$AAt?$AA?5?$AAV?$AAi?$AAs?$AAu?$AAa?$AAl?$AA?5?$AAS?$AAt?$AAu?$AAd?$AAi?$AAo?$AA?5?$AA1?$AA4?$AA?4?$AA0?$AA?2@
	push	OFFSET ??_C@_1CC@LOFJFFDB@?$AAs?$AAt?$AAd?$AA?3?$AA?3?$AA_?$AAD?$AAe?$AAa?$AAl?$AAl?$AAo?$AAc?$AAa?$AAt?$AAe?$AA?$AA@
	push	OFFSET ??_C@_1CG@JNLFBNGN@?$AA?$CC?$AAi?$AAn?$AAv?$AAa?$AAl?$AAi?$AAd?$AA?5?$AAa?$AAr?$AAg?$AAu?$AAm?$AAe?$AAn?$AAt?$AA?$CC?$AA?$AA@
	call	__invalid_parameter
	add	esp, 20					; 00000014H
$LN4@Deallocate:

; 106  : 			(_Ptr_user & (_BIG_ALLOCATION_ALIGNMENT - 1)) == 0);
; 107  : 		const uintptr_t _Ptr_ptr = _Ptr_user - sizeof(void *);

	mov	eax, DWORD PTR __Ptr_user$3[ebp]
	sub	eax, 4
	mov	DWORD PTR __Ptr_ptr$2[ebp], eax

; 108  : 		const uintptr_t _Ptr_container =
; 109  : 			*reinterpret_cast<uintptr_t *>(_Ptr_ptr);

	mov	ecx, DWORD PTR __Ptr_ptr$2[ebp]
	mov	edx, DWORD PTR [ecx]
	mov	DWORD PTR __Ptr_container$1[ebp], edx

; 110  : 
; 111  :  #ifdef _DEBUG
; 112  : 		// If the following asserts, it likely means that we are performing
; 113  : 		// an aligned delete on memory coming from an unaligned allocation.
; 114  : 		_SCL_SECURE_ALWAYS_VALIDATE(

	mov	eax, 4
	imul	ecx, eax, -1
	mov	edx, DWORD PTR __Ptr_ptr$2[ebp]
	cmp	DWORD PTR [edx+ecx], -84215046		; fafafafaH
	je	SHORT $LN5@Deallocate
	mov	eax, OFFSET ??_C@_0EI@NOJHEJCJ@reinterpret_cast?$DMuintptr_t?5?$CK?$DO?$CI_P@
	test	eax, eax
	je	SHORT $LN14@Deallocate
	xor	ecx, ecx
	jne	SHORT $LN15@Deallocate
$LN14@Deallocate:
	push	OFFSET ??_C@_1JO@EKLKIEHP@?$AA?$CC?$AAr?$AAe?$AAi?$AAn?$AAt?$AAe?$AAr?$AAp?$AAr?$AAe?$AAt?$AA_?$AAc?$AAa?$AAs?$AAt?$AA?$DM?$AAu?$AAi?$AAn?$AAt?$AAp?$AAt?$AAr?$AA_?$AAt?$AA?5?$AA?$CK?$AA?$DO?$AA?$CI?$AA_@
	push	OFFSET ??_C@_17CNPHIMPH@?$AA?$CF?$AAl?$AAs?$AA?$AA@
	push	0
	push	116					; 00000074H
	push	OFFSET ??_C@_1GI@MOGLCDAO@?$AAD?$AA?3?$AA?2?$AAM?$AAi?$AAc?$AAr?$AAo?$AAs?$AAo?$AAf?$AAt?$AA?5?$AAV?$AAi?$AAs?$AAu?$AAa?$AAl?$AA?5?$AAS?$AAt?$AAu?$AAd?$AAi?$AAo?$AA?5?$AA1?$AA4?$AA?4?$AA0?$AA?2@
	push	2
	call	__CrtDbgReportW
	add	esp, 24					; 00000018H
	cmp	eax, 1
	jne	SHORT $LN15@Deallocate
	int	3
$LN15@Deallocate:
	push	0
	push	116					; 00000074H
	push	OFFSET ??_C@_1GI@MOGLCDAO@?$AAD?$AA?3?$AA?2?$AAM?$AAi?$AAc?$AAr?$AAo?$AAs?$AAo?$AAf?$AAt?$AA?5?$AAV?$AAi?$AAs?$AAu?$AAa?$AAl?$AA?5?$AAS?$AAt?$AAu?$AAd?$AAi?$AAo?$AA?5?$AA1?$AA4?$AA?4?$AA0?$AA?2@
	push	OFFSET ??_C@_1CC@LOFJFFDB@?$AAs?$AAt?$AAd?$AA?3?$AA?3?$AA_?$AAD?$AAe?$AAa?$AAl?$AAl?$AAo?$AAc?$AAa?$AAt?$AAe?$AA?$AA@
	push	OFFSET ??_C@_1CG@JNLFBNGN@?$AA?$CC?$AAi?$AAn?$AAv?$AAa?$AAl?$AAi?$AAd?$AA?5?$AAa?$AAr?$AAg?$AAu?$AAm?$AAe?$AAn?$AAt?$AA?$CC?$AA?$AA@
	call	__invalid_parameter
	add	esp, 20					; 00000014H
$LN5@Deallocate:

; 115  : 			reinterpret_cast<uintptr_t *>(_Ptr_ptr)[-1] ==
; 116  : 				_BIG_ALLOCATION_SENTINEL);
; 117  :  #endif /* _DEBUG */
; 118  : 
; 119  : 		// Extra paranoia on aligned allocation/deallocation
; 120  : 		_SCL_SECURE_ALWAYS_VALIDATE(_Ptr_container < _Ptr_user);

	mov	eax, DWORD PTR __Ptr_container$1[ebp]
	cmp	eax, DWORD PTR __Ptr_user$3[ebp]
	jb	SHORT $LN6@Deallocate
	mov	ecx, OFFSET ??_C@_0BL@OCKMEJON@_Ptr_container?5?$DM?5_Ptr_user?$AA@
	test	ecx, ecx
	je	SHORT $LN16@Deallocate
	xor	edx, edx
	jne	SHORT $LN17@Deallocate
$LN16@Deallocate:
	push	OFFSET ??_C@_1EE@PDHAHDDC@?$AA?$CC?$AA_?$AAP?$AAt?$AAr?$AA_?$AAc?$AAo?$AAn?$AAt?$AAa?$AAi?$AAn?$AAe?$AAr?$AA?5?$AA?$DM?$AA?5?$AA_?$AAP?$AAt?$AAr?$AA_?$AAu?$AAs?$AAe?$AAr?$AA?$CC?$AA?5?$AA?$CG?$AA?$CG?$AA?5@
	push	OFFSET ??_C@_17CNPHIMPH@?$AA?$CF?$AAl?$AAs?$AA?$AA@
	push	0
	push	120					; 00000078H
	push	OFFSET ??_C@_1GI@MOGLCDAO@?$AAD?$AA?3?$AA?2?$AAM?$AAi?$AAc?$AAr?$AAo?$AAs?$AAo?$AAf?$AAt?$AA?5?$AAV?$AAi?$AAs?$AAu?$AAa?$AAl?$AA?5?$AAS?$AAt?$AAu?$AAd?$AAi?$AAo?$AA?5?$AA1?$AA4?$AA?4?$AA0?$AA?2@
	push	2
	call	__CrtDbgReportW
	add	esp, 24					; 00000018H
	cmp	eax, 1
	jne	SHORT $LN17@Deallocate
	int	3
$LN17@Deallocate:
	push	0
	push	120					; 00000078H
	push	OFFSET ??_C@_1GI@MOGLCDAO@?$AAD?$AA?3?$AA?2?$AAM?$AAi?$AAc?$AAr?$AAo?$AAs?$AAo?$AAf?$AAt?$AA?5?$AAV?$AAi?$AAs?$AAu?$AAa?$AAl?$AA?5?$AAS?$AAt?$AAu?$AAd?$AAi?$AAo?$AA?5?$AA1?$AA4?$AA?4?$AA0?$AA?2@
	push	OFFSET ??_C@_1CC@LOFJFFDB@?$AAs?$AAt?$AAd?$AA?3?$AA?3?$AA_?$AAD?$AAe?$AAa?$AAl?$AAl?$AAo?$AAc?$AAa?$AAt?$AAe?$AA?$AA@
	push	OFFSET ??_C@_1CG@JNLFBNGN@?$AA?$CC?$AAi?$AAn?$AAv?$AAa?$AAl?$AAi?$AAd?$AA?5?$AAa?$AAr?$AAg?$AAu?$AAm?$AAe?$AAn?$AAt?$AA?$CC?$AA?$AA@
	call	__invalid_parameter
	add	esp, 20					; 00000014H
$LN6@Deallocate:

; 121  : 
; 122  :  #ifdef _DEBUG
; 123  : 		_SCL_SECURE_ALWAYS_VALIDATE(2 * sizeof(void *)

	mov	ecx, DWORD PTR __Ptr_user$3[ebp]
	sub	ecx, DWORD PTR __Ptr_container$1[ebp]
	cmp	ecx, 8
	jae	SHORT $LN7@Deallocate
	mov	edx, OFFSET ??_C@_0DB@GLFJLNCE@2?5?$CK?5sizeof?$CIvoid?5?$CK?$CJ?5?$DM?$DN?5_Ptr_user?5@
	test	edx, edx
	je	SHORT $LN18@Deallocate
	xor	eax, eax
	jne	SHORT $LN19@Deallocate
$LN18@Deallocate:
	push	OFFSET ??_C@_1HA@NAPGMHAO@?$AA?$CC?$AA2?$AA?5?$AA?$CK?$AA?5?$AAs?$AAi?$AAz?$AAe?$AAo?$AAf?$AA?$CI?$AAv?$AAo?$AAi?$AAd?$AA?5?$AA?$CK?$AA?$CJ?$AA?5?$AA?$DM?$AA?$DN?$AA?5?$AA_?$AAP?$AAt?$AAr?$AA_?$AAu?$AAs?$AAe?$AAr@
	push	OFFSET ??_C@_17CNPHIMPH@?$AA?$CF?$AAl?$AAs?$AA?$AA@
	push	0
	push	124					; 0000007cH
	push	OFFSET ??_C@_1GI@MOGLCDAO@?$AAD?$AA?3?$AA?2?$AAM?$AAi?$AAc?$AAr?$AAo?$AAs?$AAo?$AAf?$AAt?$AA?5?$AAV?$AAi?$AAs?$AAu?$AAa?$AAl?$AA?5?$AAS?$AAt?$AAu?$AAd?$AAi?$AAo?$AA?5?$AA1?$AA4?$AA?4?$AA0?$AA?2@
	push	2
	call	__CrtDbgReportW
	add	esp, 24					; 00000018H
	cmp	eax, 1
	jne	SHORT $LN19@Deallocate
	int	3
$LN19@Deallocate:
	push	0
	push	124					; 0000007cH
	push	OFFSET ??_C@_1GI@MOGLCDAO@?$AAD?$AA?3?$AA?2?$AAM?$AAi?$AAc?$AAr?$AAo?$AAs?$AAo?$AAf?$AAt?$AA?5?$AAV?$AAi?$AAs?$AAu?$AAa?$AAl?$AA?5?$AAS?$AAt?$AAu?$AAd?$AAi?$AAo?$AA?5?$AA1?$AA4?$AA?4?$AA0?$AA?2@
	push	OFFSET ??_C@_1CC@LOFJFFDB@?$AAs?$AAt?$AAd?$AA?3?$AA?3?$AA_?$AAD?$AAe?$AAa?$AAl?$AAl?$AAo?$AAc?$AAa?$AAt?$AAe?$AA?$AA@
	push	OFFSET ??_C@_1CG@JNLFBNGN@?$AA?$CC?$AAi?$AAn?$AAv?$AAa?$AAl?$AAi?$AAd?$AA?5?$AAa?$AAr?$AAg?$AAu?$AAm?$AAe?$AAn?$AAt?$AA?$CC?$AA?$AA@
	call	__invalid_parameter
	add	esp, 20					; 00000014H
$LN7@Deallocate:

; 124  : 			<= _Ptr_user - _Ptr_container);
; 125  : 
; 126  :  #else /* _DEBUG */
; 127  : 		_SCL_SECURE_ALWAYS_VALIDATE(sizeof(void *)
; 128  : 			<= _Ptr_user - _Ptr_container);
; 129  :  #endif /* _DEBUG */
; 130  : 
; 131  : 		_SCL_SECURE_ALWAYS_VALIDATE(_Ptr_user - _Ptr_container

	mov	edx, DWORD PTR __Ptr_user$3[ebp]
	sub	edx, DWORD PTR __Ptr_container$1[ebp]
	cmp	edx, 39					; 00000027H
	jbe	SHORT $LN8@Deallocate
	mov	eax, OFFSET ??_C@_0CN@BLHJCAL@_Ptr_user?5?9?5_Ptr_container?5?$DM?$DN?5_N@
	test	eax, eax
	je	SHORT $LN20@Deallocate
	xor	ecx, ecx
	jne	SHORT $LN21@Deallocate
$LN20@Deallocate:
	push	OFFSET ??_C@_1GI@DHJGPFNI@?$AA?$CC?$AA_?$AAP?$AAt?$AAr?$AA_?$AAu?$AAs?$AAe?$AAr?$AA?5?$AA?9?$AA?5?$AA_?$AAP?$AAt?$AAr?$AA_?$AAc?$AAo?$AAn?$AAt?$AAa?$AAi?$AAn?$AAe?$AAr?$AA?5?$AA?$DM?$AA?$DN?$AA?5?$AA_@
	push	OFFSET ??_C@_17CNPHIMPH@?$AA?$CF?$AAl?$AAs?$AA?$AA@
	push	0
	push	132					; 00000084H
	push	OFFSET ??_C@_1GI@MOGLCDAO@?$AAD?$AA?3?$AA?2?$AAM?$AAi?$AAc?$AAr?$AAo?$AAs?$AAo?$AAf?$AAt?$AA?5?$AAV?$AAi?$AAs?$AAu?$AAa?$AAl?$AA?5?$AAS?$AAt?$AAu?$AAd?$AAi?$AAo?$AA?5?$AA1?$AA4?$AA?4?$AA0?$AA?2@
	push	2
	call	__CrtDbgReportW
	add	esp, 24					; 00000018H
	cmp	eax, 1
	jne	SHORT $LN21@Deallocate
	int	3
$LN21@Deallocate:
	push	0
	push	132					; 00000084H
	push	OFFSET ??_C@_1GI@MOGLCDAO@?$AAD?$AA?3?$AA?2?$AAM?$AAi?$AAc?$AAr?$AAo?$AAs?$AAo?$AAf?$AAt?$AA?5?$AAV?$AAi?$AAs?$AAu?$AAa?$AAl?$AA?5?$AAS?$AAt?$AAu?$AAd?$AAi?$AAo?$AA?5?$AA1?$AA4?$AA?4?$AA0?$AA?2@
	push	OFFSET ??_C@_1CC@LOFJFFDB@?$AAs?$AAt?$AAd?$AA?3?$AA?3?$AA_?$AAD?$AAe?$AAa?$AAl?$AAl?$AAo?$AAc?$AAa?$AAt?$AAe?$AA?$AA@
	push	OFFSET ??_C@_1CG@JNLFBNGN@?$AA?$CC?$AAi?$AAn?$AAv?$AAa?$AAl?$AAi?$AAd?$AA?5?$AAa?$AAr?$AAg?$AAu?$AAm?$AAe?$AAn?$AAt?$AA?$CC?$AA?$AA@
	call	__invalid_parameter
	add	esp, 20					; 00000014H
$LN8@Deallocate:

; 132  : 			<= _NON_USER_SIZE);
; 133  : 
; 134  : 		_Ptr = reinterpret_cast<_Ty *>(_Ptr_container);

	mov	eax, DWORD PTR __Ptr_container$1[ebp]
	mov	DWORD PTR __Ptr$[ebp], eax
$LN3@Deallocate:

; 135  : 		}
; 136  :  #endif /* defined(_M_IX86) || defined(_M_X64) */
; 137  : 
; 138  : 	::operator delete(_Ptr);

	mov	ecx, DWORD PTR __Ptr$[ebp]
	push	ecx
	call	??3@YAXPAX@Z				; operator delete
	add	esp, 4

; 139  : 	}

	add	esp, 16					; 00000010H
	cmp	ebp, esp
	call	__RTC_CheckEsp
	mov	esp, ebp
	pop	ebp
	ret	0
??$_Deallocate@U?$_List_node@PAVRaven_Bot@@PAX@std@@@std@@YAXPAU?$_List_node@PAVRaven_Bot@@PAX@0@I@Z ENDP ; std::_Deallocate<std::_List_node<Raven_Bot *,void *> >
_TEXT	ENDS
; Function compile flags: /Odtp /RTCsu
; File d:\microsoft visual studio 14.0\vc\include\xmemory0
;	COMDAT ??$_Deallocate@U_Container_proxy@std@@@std@@YAXPAU_Container_proxy@0@I@Z
_TEXT	SEGMENT
__Ptr_container$1 = -16					; size = 4
__Ptr_ptr$2 = -12					; size = 4
__Ptr_user$3 = -8					; size = 4
__User_size$ = -4					; size = 4
__Ptr$ = 8						; size = 4
__Count$ = 12						; size = 4
??$_Deallocate@U_Container_proxy@std@@@std@@YAXPAU_Container_proxy@0@I@Z PROC ; std::_Deallocate<std::_Container_proxy>, COMDAT

; 98   : 	{	// deallocate storage for _Count elements of type _Ty

	push	ebp
	mov	ebp, esp
	sub	esp, 16					; 00000010H
	mov	eax, -858993460				; ccccccccH
	mov	DWORD PTR [ebp-16], eax
	mov	DWORD PTR [ebp-12], eax
	mov	DWORD PTR [ebp-8], eax
	mov	DWORD PTR [ebp-4], eax

; 99   :  #if defined(_M_IX86) || defined(_M_X64)
; 100  : 	_SCL_SECURE_ALWAYS_VALIDATE(_Count <= (size_t)(-1) / sizeof (_Ty));

	cmp	DWORD PTR __Count$[ebp], 536870911	; 1fffffffH
	jbe	SHORT $LN2@Deallocate
	mov	eax, OFFSET ??_C@_0CG@FHBDFCGK@_Count?5?$DM?$DN?5?$CIsize_t?$CJ?$CI?91?$CJ?5?1?5sizeof?5@
	test	eax, eax
	je	SHORT $LN10@Deallocate
	xor	ecx, ecx
	jne	SHORT $LN11@Deallocate
$LN10@Deallocate:
	push	OFFSET ??_C@_1FK@EJGLHMGC@?$AA?$CC?$AA_?$AAC?$AAo?$AAu?$AAn?$AAt?$AA?5?$AA?$DM?$AA?$DN?$AA?5?$AA?$CI?$AAs?$AAi?$AAz?$AAe?$AA_?$AAt?$AA?$CJ?$AA?$CI?$AA?9?$AA1?$AA?$CJ?$AA?5?$AA?1?$AA?5?$AAs?$AAi?$AAz?$AAe?$AAo?$AAf@
	push	OFFSET ??_C@_17CNPHIMPH@?$AA?$CF?$AAl?$AAs?$AA?$AA@
	push	0
	push	100					; 00000064H
	push	OFFSET ??_C@_1GI@MOGLCDAO@?$AAD?$AA?3?$AA?2?$AAM?$AAi?$AAc?$AAr?$AAo?$AAs?$AAo?$AAf?$AAt?$AA?5?$AAV?$AAi?$AAs?$AAu?$AAa?$AAl?$AA?5?$AAS?$AAt?$AAu?$AAd?$AAi?$AAo?$AA?5?$AA1?$AA4?$AA?4?$AA0?$AA?2@
	push	2
	call	__CrtDbgReportW
	add	esp, 24					; 00000018H
	cmp	eax, 1
	jne	SHORT $LN11@Deallocate
	int	3
$LN11@Deallocate:
	push	0
	push	100					; 00000064H
	push	OFFSET ??_C@_1GI@MOGLCDAO@?$AAD?$AA?3?$AA?2?$AAM?$AAi?$AAc?$AAr?$AAo?$AAs?$AAo?$AAf?$AAt?$AA?5?$AAV?$AAi?$AAs?$AAu?$AAa?$AAl?$AA?5?$AAS?$AAt?$AAu?$AAd?$AAi?$AAo?$AA?5?$AA1?$AA4?$AA?4?$AA0?$AA?2@
	push	OFFSET ??_C@_1CC@LOFJFFDB@?$AAs?$AAt?$AAd?$AA?3?$AA?3?$AA_?$AAD?$AAe?$AAa?$AAl?$AAl?$AAo?$AAc?$AAa?$AAt?$AAe?$AA?$AA@
	push	OFFSET ??_C@_1CG@JNLFBNGN@?$AA?$CC?$AAi?$AAn?$AAv?$AAa?$AAl?$AAi?$AAd?$AA?5?$AAa?$AAr?$AAg?$AAu?$AAm?$AAe?$AAn?$AAt?$AA?$CC?$AA?$AA@
	call	__invalid_parameter
	add	esp, 20					; 00000014H
$LN2@Deallocate:

; 101  : 	const size_t _User_size = _Count * sizeof (_Ty);

	mov	eax, DWORD PTR __Count$[ebp]
	shl	eax, 3
	mov	DWORD PTR __User_size$[ebp], eax

; 102  : 	if (_BIG_ALLOCATION_THRESHOLD <= _User_size)

	cmp	DWORD PTR __User_size$[ebp], 4096	; 00001000H
	jb	$LN3@Deallocate

; 103  : 		{	// deallocate large block
; 104  : 		const uintptr_t _Ptr_user = reinterpret_cast<uintptr_t>(_Ptr);

	mov	ecx, DWORD PTR __Ptr$[ebp]
	mov	DWORD PTR __Ptr_user$3[ebp], ecx

; 105  : 		_SCL_SECURE_ALWAYS_VALIDATE(

	mov	edx, DWORD PTR __Ptr_user$3[ebp]
	and	edx, 31					; 0000001fH
	je	SHORT $LN4@Deallocate
	mov	eax, OFFSET ??_C@_0DD@GBGGGKGG@?$CI_Ptr_user?5?$CG?5?$CI_BIG_ALLOCATION_AL@
	test	eax, eax
	je	SHORT $LN12@Deallocate
	xor	ecx, ecx
	jne	SHORT $LN13@Deallocate
$LN12@Deallocate:
	push	OFFSET ??_C@_1HE@CDMBFOKC@?$AA?$CC?$AA?$CI?$AA_?$AAP?$AAt?$AAr?$AA_?$AAu?$AAs?$AAe?$AAr?$AA?5?$AA?$CG?$AA?5?$AA?$CI?$AA_?$AAB?$AAI?$AAG?$AA_?$AAA?$AAL?$AAL?$AAO?$AAC?$AAA?$AAT?$AAI?$AAO?$AAN?$AA_?$AAA@
	push	OFFSET ??_C@_17CNPHIMPH@?$AA?$CF?$AAl?$AAs?$AA?$AA@
	push	0
	push	106					; 0000006aH
	push	OFFSET ??_C@_1GI@MOGLCDAO@?$AAD?$AA?3?$AA?2?$AAM?$AAi?$AAc?$AAr?$AAo?$AAs?$AAo?$AAf?$AAt?$AA?5?$AAV?$AAi?$AAs?$AAu?$AAa?$AAl?$AA?5?$AAS?$AAt?$AAu?$AAd?$AAi?$AAo?$AA?5?$AA1?$AA4?$AA?4?$AA0?$AA?2@
	push	2
	call	__CrtDbgReportW
	add	esp, 24					; 00000018H
	cmp	eax, 1
	jne	SHORT $LN13@Deallocate
	int	3
$LN13@Deallocate:
	push	0
	push	106					; 0000006aH
	push	OFFSET ??_C@_1GI@MOGLCDAO@?$AAD?$AA?3?$AA?2?$AAM?$AAi?$AAc?$AAr?$AAo?$AAs?$AAo?$AAf?$AAt?$AA?5?$AAV?$AAi?$AAs?$AAu?$AAa?$AAl?$AA?5?$AAS?$AAt?$AAu?$AAd?$AAi?$AAo?$AA?5?$AA1?$AA4?$AA?4?$AA0?$AA?2@
	push	OFFSET ??_C@_1CC@LOFJFFDB@?$AAs?$AAt?$AAd?$AA?3?$AA?3?$AA_?$AAD?$AAe?$AAa?$AAl?$AAl?$AAo?$AAc?$AAa?$AAt?$AAe?$AA?$AA@
	push	OFFSET ??_C@_1CG@JNLFBNGN@?$AA?$CC?$AAi?$AAn?$AAv?$AAa?$AAl?$AAi?$AAd?$AA?5?$AAa?$AAr?$AAg?$AAu?$AAm?$AAe?$AAn?$AAt?$AA?$CC?$AA?$AA@
	call	__invalid_parameter
	add	esp, 20					; 00000014H
$LN4@Deallocate:

; 106  : 			(_Ptr_user & (_BIG_ALLOCATION_ALIGNMENT - 1)) == 0);
; 107  : 		const uintptr_t _Ptr_ptr = _Ptr_user - sizeof(void *);

	mov	eax, DWORD PTR __Ptr_user$3[ebp]
	sub	eax, 4
	mov	DWORD PTR __Ptr_ptr$2[ebp], eax

; 108  : 		const uintptr_t _Ptr_container =
; 109  : 			*reinterpret_cast<uintptr_t *>(_Ptr_ptr);

	mov	ecx, DWORD PTR __Ptr_ptr$2[ebp]
	mov	edx, DWORD PTR [ecx]
	mov	DWORD PTR __Ptr_container$1[ebp], edx

; 110  : 
; 111  :  #ifdef _DEBUG
; 112  : 		// If the following asserts, it likely means that we are performing
; 113  : 		// an aligned delete on memory coming from an unaligned allocation.
; 114  : 		_SCL_SECURE_ALWAYS_VALIDATE(

	mov	eax, 4
	imul	ecx, eax, -1
	mov	edx, DWORD PTR __Ptr_ptr$2[ebp]
	cmp	DWORD PTR [edx+ecx], -84215046		; fafafafaH
	je	SHORT $LN5@Deallocate
	mov	eax, OFFSET ??_C@_0EI@NOJHEJCJ@reinterpret_cast?$DMuintptr_t?5?$CK?$DO?$CI_P@
	test	eax, eax
	je	SHORT $LN14@Deallocate
	xor	ecx, ecx
	jne	SHORT $LN15@Deallocate
$LN14@Deallocate:
	push	OFFSET ??_C@_1JO@EKLKIEHP@?$AA?$CC?$AAr?$AAe?$AAi?$AAn?$AAt?$AAe?$AAr?$AAp?$AAr?$AAe?$AAt?$AA_?$AAc?$AAa?$AAs?$AAt?$AA?$DM?$AAu?$AAi?$AAn?$AAt?$AAp?$AAt?$AAr?$AA_?$AAt?$AA?5?$AA?$CK?$AA?$DO?$AA?$CI?$AA_@
	push	OFFSET ??_C@_17CNPHIMPH@?$AA?$CF?$AAl?$AAs?$AA?$AA@
	push	0
	push	116					; 00000074H
	push	OFFSET ??_C@_1GI@MOGLCDAO@?$AAD?$AA?3?$AA?2?$AAM?$AAi?$AAc?$AAr?$AAo?$AAs?$AAo?$AAf?$AAt?$AA?5?$AAV?$AAi?$AAs?$AAu?$AAa?$AAl?$AA?5?$AAS?$AAt?$AAu?$AAd?$AAi?$AAo?$AA?5?$AA1?$AA4?$AA?4?$AA0?$AA?2@
	push	2
	call	__CrtDbgReportW
	add	esp, 24					; 00000018H
	cmp	eax, 1
	jne	SHORT $LN15@Deallocate
	int	3
$LN15@Deallocate:
	push	0
	push	116					; 00000074H
	push	OFFSET ??_C@_1GI@MOGLCDAO@?$AAD?$AA?3?$AA?2?$AAM?$AAi?$AAc?$AAr?$AAo?$AAs?$AAo?$AAf?$AAt?$AA?5?$AAV?$AAi?$AAs?$AAu?$AAa?$AAl?$AA?5?$AAS?$AAt?$AAu?$AAd?$AAi?$AAo?$AA?5?$AA1?$AA4?$AA?4?$AA0?$AA?2@
	push	OFFSET ??_C@_1CC@LOFJFFDB@?$AAs?$AAt?$AAd?$AA?3?$AA?3?$AA_?$AAD?$AAe?$AAa?$AAl?$AAl?$AAo?$AAc?$AAa?$AAt?$AAe?$AA?$AA@
	push	OFFSET ??_C@_1CG@JNLFBNGN@?$AA?$CC?$AAi?$AAn?$AAv?$AAa?$AAl?$AAi?$AAd?$AA?5?$AAa?$AAr?$AAg?$AAu?$AAm?$AAe?$AAn?$AAt?$AA?$CC?$AA?$AA@
	call	__invalid_parameter
	add	esp, 20					; 00000014H
$LN5@Deallocate:

; 115  : 			reinterpret_cast<uintptr_t *>(_Ptr_ptr)[-1] ==
; 116  : 				_BIG_ALLOCATION_SENTINEL);
; 117  :  #endif /* _DEBUG */
; 118  : 
; 119  : 		// Extra paranoia on aligned allocation/deallocation
; 120  : 		_SCL_SECURE_ALWAYS_VALIDATE(_Ptr_container < _Ptr_user);

	mov	eax, DWORD PTR __Ptr_container$1[ebp]
	cmp	eax, DWORD PTR __Ptr_user$3[ebp]
	jb	SHORT $LN6@Deallocate
	mov	ecx, OFFSET ??_C@_0BL@OCKMEJON@_Ptr_container?5?$DM?5_Ptr_user?$AA@
	test	ecx, ecx
	je	SHORT $LN16@Deallocate
	xor	edx, edx
	jne	SHORT $LN17@Deallocate
$LN16@Deallocate:
	push	OFFSET ??_C@_1EE@PDHAHDDC@?$AA?$CC?$AA_?$AAP?$AAt?$AAr?$AA_?$AAc?$AAo?$AAn?$AAt?$AAa?$AAi?$AAn?$AAe?$AAr?$AA?5?$AA?$DM?$AA?5?$AA_?$AAP?$AAt?$AAr?$AA_?$AAu?$AAs?$AAe?$AAr?$AA?$CC?$AA?5?$AA?$CG?$AA?$CG?$AA?5@
	push	OFFSET ??_C@_17CNPHIMPH@?$AA?$CF?$AAl?$AAs?$AA?$AA@
	push	0
	push	120					; 00000078H
	push	OFFSET ??_C@_1GI@MOGLCDAO@?$AAD?$AA?3?$AA?2?$AAM?$AAi?$AAc?$AAr?$AAo?$AAs?$AAo?$AAf?$AAt?$AA?5?$AAV?$AAi?$AAs?$AAu?$AAa?$AAl?$AA?5?$AAS?$AAt?$AAu?$AAd?$AAi?$AAo?$AA?5?$AA1?$AA4?$AA?4?$AA0?$AA?2@
	push	2
	call	__CrtDbgReportW
	add	esp, 24					; 00000018H
	cmp	eax, 1
	jne	SHORT $LN17@Deallocate
	int	3
$LN17@Deallocate:
	push	0
	push	120					; 00000078H
	push	OFFSET ??_C@_1GI@MOGLCDAO@?$AAD?$AA?3?$AA?2?$AAM?$AAi?$AAc?$AAr?$AAo?$AAs?$AAo?$AAf?$AAt?$AA?5?$AAV?$AAi?$AAs?$AAu?$AAa?$AAl?$AA?5?$AAS?$AAt?$AAu?$AAd?$AAi?$AAo?$AA?5?$AA1?$AA4?$AA?4?$AA0?$AA?2@
	push	OFFSET ??_C@_1CC@LOFJFFDB@?$AAs?$AAt?$AAd?$AA?3?$AA?3?$AA_?$AAD?$AAe?$AAa?$AAl?$AAl?$AAo?$AAc?$AAa?$AAt?$AAe?$AA?$AA@
	push	OFFSET ??_C@_1CG@JNLFBNGN@?$AA?$CC?$AAi?$AAn?$AAv?$AAa?$AAl?$AAi?$AAd?$AA?5?$AAa?$AAr?$AAg?$AAu?$AAm?$AAe?$AAn?$AAt?$AA?$CC?$AA?$AA@
	call	__invalid_parameter
	add	esp, 20					; 00000014H
$LN6@Deallocate:

; 121  : 
; 122  :  #ifdef _DEBUG
; 123  : 		_SCL_SECURE_ALWAYS_VALIDATE(2 * sizeof(void *)

	mov	ecx, DWORD PTR __Ptr_user$3[ebp]
	sub	ecx, DWORD PTR __Ptr_container$1[ebp]
	cmp	ecx, 8
	jae	SHORT $LN7@Deallocate
	mov	edx, OFFSET ??_C@_0DB@GLFJLNCE@2?5?$CK?5sizeof?$CIvoid?5?$CK?$CJ?5?$DM?$DN?5_Ptr_user?5@
	test	edx, edx
	je	SHORT $LN18@Deallocate
	xor	eax, eax
	jne	SHORT $LN19@Deallocate
$LN18@Deallocate:
	push	OFFSET ??_C@_1HA@NAPGMHAO@?$AA?$CC?$AA2?$AA?5?$AA?$CK?$AA?5?$AAs?$AAi?$AAz?$AAe?$AAo?$AAf?$AA?$CI?$AAv?$AAo?$AAi?$AAd?$AA?5?$AA?$CK?$AA?$CJ?$AA?5?$AA?$DM?$AA?$DN?$AA?5?$AA_?$AAP?$AAt?$AAr?$AA_?$AAu?$AAs?$AAe?$AAr@
	push	OFFSET ??_C@_17CNPHIMPH@?$AA?$CF?$AAl?$AAs?$AA?$AA@
	push	0
	push	124					; 0000007cH
	push	OFFSET ??_C@_1GI@MOGLCDAO@?$AAD?$AA?3?$AA?2?$AAM?$AAi?$AAc?$AAr?$AAo?$AAs?$AAo?$AAf?$AAt?$AA?5?$AAV?$AAi?$AAs?$AAu?$AAa?$AAl?$AA?5?$AAS?$AAt?$AAu?$AAd?$AAi?$AAo?$AA?5?$AA1?$AA4?$AA?4?$AA0?$AA?2@
	push	2
	call	__CrtDbgReportW
	add	esp, 24					; 00000018H
	cmp	eax, 1
	jne	SHORT $LN19@Deallocate
	int	3
$LN19@Deallocate:
	push	0
	push	124					; 0000007cH
	push	OFFSET ??_C@_1GI@MOGLCDAO@?$AAD?$AA?3?$AA?2?$AAM?$AAi?$AAc?$AAr?$AAo?$AAs?$AAo?$AAf?$AAt?$AA?5?$AAV?$AAi?$AAs?$AAu?$AAa?$AAl?$AA?5?$AAS?$AAt?$AAu?$AAd?$AAi?$AAo?$AA?5?$AA1?$AA4?$AA?4?$AA0?$AA?2@
	push	OFFSET ??_C@_1CC@LOFJFFDB@?$AAs?$AAt?$AAd?$AA?3?$AA?3?$AA_?$AAD?$AAe?$AAa?$AAl?$AAl?$AAo?$AAc?$AAa?$AAt?$AAe?$AA?$AA@
	push	OFFSET ??_C@_1CG@JNLFBNGN@?$AA?$CC?$AAi?$AAn?$AAv?$AAa?$AAl?$AAi?$AAd?$AA?5?$AAa?$AAr?$AAg?$AAu?$AAm?$AAe?$AAn?$AAt?$AA?$CC?$AA?$AA@
	call	__invalid_parameter
	add	esp, 20					; 00000014H
$LN7@Deallocate:

; 124  : 			<= _Ptr_user - _Ptr_container);
; 125  : 
; 126  :  #else /* _DEBUG */
; 127  : 		_SCL_SECURE_ALWAYS_VALIDATE(sizeof(void *)
; 128  : 			<= _Ptr_user - _Ptr_container);
; 129  :  #endif /* _DEBUG */
; 130  : 
; 131  : 		_SCL_SECURE_ALWAYS_VALIDATE(_Ptr_user - _Ptr_container

	mov	edx, DWORD PTR __Ptr_user$3[ebp]
	sub	edx, DWORD PTR __Ptr_container$1[ebp]
	cmp	edx, 39					; 00000027H
	jbe	SHORT $LN8@Deallocate
	mov	eax, OFFSET ??_C@_0CN@BLHJCAL@_Ptr_user?5?9?5_Ptr_container?5?$DM?$DN?5_N@
	test	eax, eax
	je	SHORT $LN20@Deallocate
	xor	ecx, ecx
	jne	SHORT $LN21@Deallocate
$LN20@Deallocate:
	push	OFFSET ??_C@_1GI@DHJGPFNI@?$AA?$CC?$AA_?$AAP?$AAt?$AAr?$AA_?$AAu?$AAs?$AAe?$AAr?$AA?5?$AA?9?$AA?5?$AA_?$AAP?$AAt?$AAr?$AA_?$AAc?$AAo?$AAn?$AAt?$AAa?$AAi?$AAn?$AAe?$AAr?$AA?5?$AA?$DM?$AA?$DN?$AA?5?$AA_@
	push	OFFSET ??_C@_17CNPHIMPH@?$AA?$CF?$AAl?$AAs?$AA?$AA@
	push	0
	push	132					; 00000084H
	push	OFFSET ??_C@_1GI@MOGLCDAO@?$AAD?$AA?3?$AA?2?$AAM?$AAi?$AAc?$AAr?$AAo?$AAs?$AAo?$AAf?$AAt?$AA?5?$AAV?$AAi?$AAs?$AAu?$AAa?$AAl?$AA?5?$AAS?$AAt?$AAu?$AAd?$AAi?$AAo?$AA?5?$AA1?$AA4?$AA?4?$AA0?$AA?2@
	push	2
	call	__CrtDbgReportW
	add	esp, 24					; 00000018H
	cmp	eax, 1
	jne	SHORT $LN21@Deallocate
	int	3
$LN21@Deallocate:
	push	0
	push	132					; 00000084H
	push	OFFSET ??_C@_1GI@MOGLCDAO@?$AAD?$AA?3?$AA?2?$AAM?$AAi?$AAc?$AAr?$AAo?$AAs?$AAo?$AAf?$AAt?$AA?5?$AAV?$AAi?$AAs?$AAu?$AAa?$AAl?$AA?5?$AAS?$AAt?$AAu?$AAd?$AAi?$AAo?$AA?5?$AA1?$AA4?$AA?4?$AA0?$AA?2@
	push	OFFSET ??_C@_1CC@LOFJFFDB@?$AAs?$AAt?$AAd?$AA?3?$AA?3?$AA_?$AAD?$AAe?$AAa?$AAl?$AAl?$AAo?$AAc?$AAa?$AAt?$AAe?$AA?$AA@
	push	OFFSET ??_C@_1CG@JNLFBNGN@?$AA?$CC?$AAi?$AAn?$AAv?$AAa?$AAl?$AAi?$AAd?$AA?5?$AAa?$AAr?$AAg?$AAu?$AAm?$AAe?$AAn?$AAt?$AA?$CC?$AA?$AA@
	call	__invalid_parameter
	add	esp, 20					; 00000014H
$LN8@Deallocate:

; 132  : 			<= _NON_USER_SIZE);
; 133  : 
; 134  : 		_Ptr = reinterpret_cast<_Ty *>(_Ptr_container);

	mov	eax, DWORD PTR __Ptr_container$1[ebp]
	mov	DWORD PTR __Ptr$[ebp], eax
$LN3@Deallocate:

; 135  : 		}
; 136  :  #endif /* defined(_M_IX86) || defined(_M_X64) */
; 137  : 
; 138  : 	::operator delete(_Ptr);

	mov	ecx, DWORD PTR __Ptr$[ebp]
	push	ecx
	call	??3@YAXPAX@Z				; operator delete
	add	esp, 4

; 139  : 	}

	add	esp, 16					; 00000010H
	cmp	ebp, esp
	call	__RTC_CheckEsp
	mov	esp, ebp
	pop	ebp
	ret	0
??$_Deallocate@U_Container_proxy@std@@@std@@YAXPAU_Container_proxy@0@I@Z ENDP ; std::_Deallocate<std::_Container_proxy>
_TEXT	ENDS
; Function compile flags: /Odtp /RTCsu
; File d:\microsoft visual studio 14.0\vc\include\xmemory0
;	COMDAT ??$_Allocate@U_Container_proxy@std@@@std@@YAPAU_Container_proxy@0@IPAU10@_N@Z
_TEXT	SEGMENT
__Ptr_container$1 = -16					; size = 4
__Block_size$2 = -12					; size = 4
__User_size$ = -8					; size = 4
__Ptr$ = -4						; size = 4
__Count$ = 8						; size = 4
___formal$ = 12						; size = 4
__Try_aligned_allocation$ = 16				; size = 1
??$_Allocate@U_Container_proxy@std@@@std@@YAPAU_Container_proxy@0@IPAU10@_N@Z PROC ; std::_Allocate<std::_Container_proxy>, COMDAT

; 54   : 	{	// allocate storage for _Count elements of type _Ty

	push	ebp
	mov	ebp, esp
	sub	esp, 16					; 00000010H
	mov	eax, -858993460				; ccccccccH
	mov	DWORD PTR [ebp-16], eax
	mov	DWORD PTR [ebp-12], eax
	mov	DWORD PTR [ebp-8], eax
	mov	DWORD PTR [ebp-4], eax

; 55   : 	void *_Ptr = 0;

	mov	DWORD PTR __Ptr$[ebp], 0

; 56   : 
; 57   : 	if (_Count == 0)

	cmp	DWORD PTR __Count$[ebp], 0
	jne	SHORT $LN2@Allocate

; 58   : 		return (static_cast<_Ty *>(_Ptr));

	mov	eax, DWORD PTR __Ptr$[ebp]
	jmp	$LN9@Allocate
$LN2@Allocate:

; 59   : 
; 60   : 	// check overflow of multiply
; 61   : 	if ((size_t)(-1) / sizeof (_Ty) < _Count)

	cmp	DWORD PTR __Count$[ebp], 536870911	; 1fffffffH
	jbe	SHORT $LN3@Allocate

; 62   : 		_Xbad_alloc();	// report no memory

	call	?_Xbad_alloc@std@@YAXXZ			; std::_Xbad_alloc
$LN3@Allocate:

; 63   : 	const size_t _User_size = _Count * sizeof (_Ty);

	mov	eax, DWORD PTR __Count$[ebp]
	shl	eax, 3
	mov	DWORD PTR __User_size$[ebp], eax

; 64   : 
; 65   :  #if defined(_M_IX86) || defined(_M_X64)
; 66   : 	if (_Try_aligned_allocation
; 67   : 		&& _BIG_ALLOCATION_THRESHOLD <= _User_size)

	movzx	ecx, BYTE PTR __Try_aligned_allocation$[ebp]
	test	ecx, ecx
	je	$LN4@Allocate
	cmp	DWORD PTR __User_size$[ebp], 4096	; 00001000H
	jb	$LN4@Allocate

; 68   : 		{	// allocate large block
; 69   : 		static_assert(sizeof (void *) < _BIG_ALLOCATION_ALIGNMENT,
; 70   : 			"Big allocations should at least match vector register size");
; 71   : 		const size_t _Block_size = _NON_USER_SIZE + _User_size;

	mov	edx, DWORD PTR __User_size$[ebp]
	add	edx, 39					; 00000027H
	mov	DWORD PTR __Block_size$2[ebp], edx

; 72   : 		if (_Block_size <= _User_size)

	mov	eax, DWORD PTR __Block_size$2[ebp]
	cmp	eax, DWORD PTR __User_size$[ebp]
	ja	SHORT $LN6@Allocate

; 73   : 			_Xbad_alloc();	// report no memory

	call	?_Xbad_alloc@std@@YAXXZ			; std::_Xbad_alloc
$LN6@Allocate:

; 74   : 		const uintptr_t _Ptr_container =
; 75   : 			reinterpret_cast<uintptr_t>(::operator new(_Block_size));

	mov	ecx, DWORD PTR __Block_size$2[ebp]
	push	ecx
	call	??2@YAPAXI@Z				; operator new
	add	esp, 4
	mov	DWORD PTR __Ptr_container$1[ebp], eax

; 76   : 		_SCL_SECURE_ALWAYS_VALIDATE(_Ptr_container != 0);

	cmp	DWORD PTR __Ptr_container$1[ebp], 0
	jne	SHORT $LN7@Allocate
	mov	edx, OFFSET ??_C@_0BE@LMNLACIC@_Ptr_container?5?$CB?$DN?50?$AA@
	test	edx, edx
	je	SHORT $LN10@Allocate
	xor	eax, eax
	jne	SHORT $LN11@Allocate
$LN10@Allocate:
	push	OFFSET ??_C@_1DG@HGDKEBPG@?$AA?$CC?$AA_?$AAP?$AAt?$AAr?$AA_?$AAc?$AAo?$AAn?$AAt?$AAa?$AAi?$AAn?$AAe?$AAr?$AA?5?$AA?$CB?$AA?$DN?$AA?5?$AA0?$AA?$CC?$AA?5?$AA?$CG?$AA?$CG?$AA?5?$AA0?$AA?$AA@
	push	OFFSET ??_C@_17CNPHIMPH@?$AA?$CF?$AAl?$AAs?$AA?$AA@
	push	0
	push	76					; 0000004cH
	push	OFFSET ??_C@_1GI@MOGLCDAO@?$AAD?$AA?3?$AA?2?$AAM?$AAi?$AAc?$AAr?$AAo?$AAs?$AAo?$AAf?$AAt?$AA?5?$AAV?$AAi?$AAs?$AAu?$AAa?$AAl?$AA?5?$AAS?$AAt?$AAu?$AAd?$AAi?$AAo?$AA?5?$AA1?$AA4?$AA?4?$AA0?$AA?2@
	push	2
	call	__CrtDbgReportW
	add	esp, 24					; 00000018H
	cmp	eax, 1
	jne	SHORT $LN11@Allocate
	int	3
$LN11@Allocate:
	push	0
	push	76					; 0000004cH
	push	OFFSET ??_C@_1GI@MOGLCDAO@?$AAD?$AA?3?$AA?2?$AAM?$AAi?$AAc?$AAr?$AAo?$AAs?$AAo?$AAf?$AAt?$AA?5?$AAV?$AAi?$AAs?$AAu?$AAa?$AAl?$AA?5?$AAS?$AAt?$AAu?$AAd?$AAi?$AAo?$AA?5?$AA1?$AA4?$AA?4?$AA0?$AA?2@
	push	OFFSET ??_C@_1BO@NKFMJPA@?$AAs?$AAt?$AAd?$AA?3?$AA?3?$AA_?$AAA?$AAl?$AAl?$AAo?$AAc?$AAa?$AAt?$AAe?$AA?$AA@
	push	OFFSET ??_C@_1CG@JNLFBNGN@?$AA?$CC?$AAi?$AAn?$AAv?$AAa?$AAl?$AAi?$AAd?$AA?5?$AAa?$AAr?$AAg?$AAu?$AAm?$AAe?$AAn?$AAt?$AA?$CC?$AA?$AA@
	call	__invalid_parameter
	add	esp, 20					; 00000014H
$LN7@Allocate:

; 77   : 		_Ptr = reinterpret_cast<void *>((_Ptr_container + _NON_USER_SIZE)

	mov	edx, DWORD PTR __Ptr_container$1[ebp]
	add	edx, 39					; 00000027H
	and	edx, -32				; ffffffe0H
	mov	DWORD PTR __Ptr$[ebp], edx

; 78   : 			& ~(_BIG_ALLOCATION_ALIGNMENT - 1));
; 79   : 		static_cast<uintptr_t *>(_Ptr)[-1] = _Ptr_container;

	mov	eax, 4
	imul	ecx, eax, -1
	mov	edx, DWORD PTR __Ptr$[ebp]
	mov	eax, DWORD PTR __Ptr_container$1[ebp]
	mov	DWORD PTR [edx+ecx], eax

; 80   : 
; 81   :  #ifdef _DEBUG
; 82   : 		static_cast<uintptr_t *>(_Ptr)[-2] = _BIG_ALLOCATION_SENTINEL;

	mov	ecx, 4
	imul	edx, ecx, -2
	mov	eax, DWORD PTR __Ptr$[ebp]
	mov	DWORD PTR [eax+edx], -84215046		; fafafafaH

; 83   :  #endif /* _DEBUG */
; 84   : 		}
; 85   : 	else

	jmp	SHORT $LN5@Allocate
$LN4@Allocate:

; 86   :  #endif /* defined(_M_IX86) || defined(_M_X64) */
; 87   : 
; 88   : 		{	// allocate normal block
; 89   : 		_Ptr = ::operator new(_User_size);

	mov	ecx, DWORD PTR __User_size$[ebp]
	push	ecx
	call	??2@YAPAXI@Z				; operator new
	add	esp, 4
	mov	DWORD PTR __Ptr$[ebp], eax

; 90   : 		_SCL_SECURE_ALWAYS_VALIDATE(_Ptr != 0);

	cmp	DWORD PTR __Ptr$[ebp], 0
	jne	SHORT $LN5@Allocate
	mov	edx, OFFSET ??_C@_09GLJCAGLP@_Ptr?5?$CB?$DN?50?$AA@
	test	edx, edx
	je	SHORT $LN12@Allocate
	xor	eax, eax
	jne	SHORT $LN13@Allocate
$LN12@Allocate:
	push	OFFSET ??_C@_1CC@GKJLLHIM@?$AA?$CC?$AA_?$AAP?$AAt?$AAr?$AA?5?$AA?$CB?$AA?$DN?$AA?5?$AA0?$AA?$CC?$AA?5?$AA?$CG?$AA?$CG?$AA?5?$AA0?$AA?$AA@
	push	OFFSET ??_C@_17CNPHIMPH@?$AA?$CF?$AAl?$AAs?$AA?$AA@
	push	0
	push	90					; 0000005aH
	push	OFFSET ??_C@_1GI@MOGLCDAO@?$AAD?$AA?3?$AA?2?$AAM?$AAi?$AAc?$AAr?$AAo?$AAs?$AAo?$AAf?$AAt?$AA?5?$AAV?$AAi?$AAs?$AAu?$AAa?$AAl?$AA?5?$AAS?$AAt?$AAu?$AAd?$AAi?$AAo?$AA?5?$AA1?$AA4?$AA?4?$AA0?$AA?2@
	push	2
	call	__CrtDbgReportW
	add	esp, 24					; 00000018H
	cmp	eax, 1
	jne	SHORT $LN13@Allocate
	int	3
$LN13@Allocate:
	push	0
	push	90					; 0000005aH
	push	OFFSET ??_C@_1GI@MOGLCDAO@?$AAD?$AA?3?$AA?2?$AAM?$AAi?$AAc?$AAr?$AAo?$AAs?$AAo?$AAf?$AAt?$AA?5?$AAV?$AAi?$AAs?$AAu?$AAa?$AAl?$AA?5?$AAS?$AAt?$AAu?$AAd?$AAi?$AAo?$AA?5?$AA1?$AA4?$AA?4?$AA0?$AA?2@
	push	OFFSET ??_C@_1BO@NKFMJPA@?$AAs?$AAt?$AAd?$AA?3?$AA?3?$AA_?$AAA?$AAl?$AAl?$AAo?$AAc?$AAa?$AAt?$AAe?$AA?$AA@
	push	OFFSET ??_C@_1CG@JNLFBNGN@?$AA?$CC?$AAi?$AAn?$AAv?$AAa?$AAl?$AAi?$AAd?$AA?5?$AAa?$AAr?$AAg?$AAu?$AAm?$AAe?$AAn?$AAt?$AA?$CC?$AA?$AA@
	call	__invalid_parameter
	add	esp, 20					; 00000014H
$LN5@Allocate:

; 91   : 		}
; 92   : 	return (static_cast<_Ty *>(_Ptr));

	mov	eax, DWORD PTR __Ptr$[ebp]
$LN9@Allocate:

; 93   : 	}

	add	esp, 16					; 00000010H
	cmp	ebp, esp
	call	__RTC_CheckEsp
	mov	esp, ebp
	pop	ebp
	ret	0
??$_Allocate@U_Container_proxy@std@@@std@@YAPAU_Container_proxy@0@IPAU10@_N@Z ENDP ; std::_Allocate<std::_Container_proxy>
_TEXT	ENDS
; Function compile flags: /Odtp /RTCsu
; File d:\microsoft visual studio 14.0\vc\include\xmemory0
;	COMDAT ??$destroy@PAVRaven_Bot@@@?$_Wrap_alloc@V?$allocator@U?$_List_node@PAVRaven_Bot@@PAX@std@@@std@@@std@@QAEXPAPAVRaven_Bot@@@Z
_TEXT	SEGMENT
_this$ = -4						; size = 4
__Ptr$ = 8						; size = 4
??$destroy@PAVRaven_Bot@@@?$_Wrap_alloc@V?$allocator@U?$_List_node@PAVRaven_Bot@@PAX@std@@@std@@@std@@QAEXPAPAVRaven_Bot@@@Z PROC ; std::_Wrap_alloc<std::allocator<std::_List_node<Raven_Bot *,void *> > >::destroy<Raven_Bot *>, COMDAT
; _this$ = ecx

; 926  : 		{	// destroy object at _Ptr

	push	ebp
	mov	ebp, esp
	push	ecx
	mov	DWORD PTR [ebp-4], -858993460		; ccccccccH
	mov	DWORD PTR _this$[ebp], ecx

; 927  : 		_Mytraits::destroy(*this, _Ptr);

	mov	eax, DWORD PTR __Ptr$[ebp]
	push	eax
	mov	ecx, DWORD PTR _this$[ebp]
	push	ecx
	call	??$destroy@PAVRaven_Bot@@@?$allocator_traits@V?$allocator@U?$_List_node@PAVRaven_Bot@@PAX@std@@@std@@@std@@SAXAAV?$allocator@U?$_List_node@PAVRaven_Bot@@PAX@std@@@1@PAPAVRaven_Bot@@@Z ; std::allocator_traits<std::allocator<std::_List_node<Raven_Bot *,void *> > >::destroy<Raven_Bot *>
	add	esp, 8

; 928  : 		}

	add	esp, 4
	cmp	ebp, esp
	call	__RTC_CheckEsp
	mov	esp, ebp
	pop	ebp
	ret	4
??$destroy@PAVRaven_Bot@@@?$_Wrap_alloc@V?$allocator@U?$_List_node@PAVRaven_Bot@@PAX@std@@@std@@@std@@QAEXPAPAVRaven_Bot@@@Z ENDP ; std::_Wrap_alloc<std::allocator<std::_List_node<Raven_Bot *,void *> > >::destroy<Raven_Bot *>
_TEXT	ENDS
; Function compile flags: /Odtp /RTCsu
; File d:\microsoft visual studio 14.0\vc\include\xstddef
;	COMDAT ??$addressof@PAVRaven_Bot@@@std@@YAPAPAVRaven_Bot@@AAPAV1@@Z
_TEXT	SEGMENT
$T1 = -2						; size = 1
__Val$ = 8						; size = 4
??$addressof@PAVRaven_Bot@@@std@@YAPAPAVRaven_Bot@@AAPAV1@@Z PROC ; std::addressof<Raven_Bot *>, COMDAT

; 699  : 	{	// return address of _Val

	push	ebp
	mov	ebp, esp
	push	ecx
	mov	DWORD PTR [ebp-4], -858993460		; ccccccccH

; 700  : 	return (_Addressof(_Val, is_function<_Ty>()));

	movzx	eax, BYTE PTR $T1[ebp]
	push	eax
	mov	ecx, DWORD PTR __Val$[ebp]
	push	ecx
	call	??$_Addressof@PAVRaven_Bot@@@std@@YAPAPAVRaven_Bot@@AAPAV1@U?$integral_constant@_N$0A@@0@@Z ; std::_Addressof<Raven_Bot *>
	add	esp, 8

; 701  : 	}

	add	esp, 4
	cmp	ebp, esp
	call	__RTC_CheckEsp
	mov	esp, ebp
	pop	ebp
	ret	0
??$addressof@PAVRaven_Bot@@@std@@YAPAPAVRaven_Bot@@AAPAV1@@Z ENDP ; std::addressof<Raven_Bot *>
_TEXT	ENDS
; Function compile flags: /Odtp /RTCsu
; File d:\microsoft visual studio 14.0\vc\include\xmemory0
;	COMDAT ??$construct@U_Container_proxy@std@@U12@@?$_Wrap_alloc@V?$allocator@U_Container_proxy@std@@@std@@@std@@QAEXPAU_Container_proxy@1@$$QAU21@@Z
_TEXT	SEGMENT
_this$ = -4						; size = 4
__Ptr$ = 8						; size = 4
_<_Args_0>$ = 12					; size = 4
??$construct@U_Container_proxy@std@@U12@@?$_Wrap_alloc@V?$allocator@U_Container_proxy@std@@@std@@@std@@QAEXPAU_Container_proxy@1@$$QAU21@@Z PROC ; std::_Wrap_alloc<std::allocator<std::_Container_proxy> >::construct<std::_Container_proxy,std::_Container_proxy>, COMDAT
; _this$ = ecx

; 918  : 		{	// construct _Ty(_Types...) at _Ptr

	push	ebp
	mov	ebp, esp
	push	ecx
	mov	DWORD PTR [ebp-4], -858993460		; ccccccccH
	mov	DWORD PTR _this$[ebp], ecx

; 919  : 		_Mytraits::construct(*this, _Ptr,

	mov	eax, DWORD PTR _<_Args_0>$[ebp]
	push	eax
	call	??$forward@U_Container_proxy@std@@@std@@YA$$QAU_Container_proxy@0@AAU10@@Z ; std::forward<std::_Container_proxy>
	add	esp, 4
	push	eax
	mov	ecx, DWORD PTR __Ptr$[ebp]
	push	ecx
	mov	edx, DWORD PTR _this$[ebp]
	push	edx
	call	??$construct@U_Container_proxy@std@@U12@@?$allocator_traits@V?$allocator@U_Container_proxy@std@@@std@@@std@@SAXAAV?$allocator@U_Container_proxy@std@@@1@PAU_Container_proxy@1@$$QAU31@@Z ; std::allocator_traits<std::allocator<std::_Container_proxy> >::construct<std::_Container_proxy,std::_Container_proxy>
	add	esp, 12					; 0000000cH

; 920  : 			_STD forward<_Types>(_Args)...);
; 921  : 		}

	add	esp, 4
	cmp	ebp, esp
	call	__RTC_CheckEsp
	mov	esp, ebp
	pop	ebp
	ret	8
??$construct@U_Container_proxy@std@@U12@@?$_Wrap_alloc@V?$allocator@U_Container_proxy@std@@@std@@@std@@QAEXPAU_Container_proxy@1@$$QAU21@@Z ENDP ; std::_Wrap_alloc<std::allocator<std::_Container_proxy> >::construct<std::_Container_proxy,std::_Container_proxy>
_TEXT	ENDS
; Function compile flags: /Odtp /RTCsu
; File d:\microsoft visual studio 14.0\vc\include\xutility
;	COMDAT ??$?0ABV?$allocator@PAVRaven_Bot@@@std@@$$V@?$_Compressed_pair@U?$_Wrap_alloc@V?$allocator@U?$_List_node@PAVRaven_Bot@@PAX@std@@@std@@@std@@V?$_List_val@U?$_List_simple_types@PAVRaven_Bot@@@std@@@2@$00@std@@QAE@U_One_then_variadic_args_t@1@ABV?$allocator@PAVRaven_Bot@@@1@@Z
_TEXT	SEGMENT
_this$ = -4						; size = 4
___formal$ = 8						; size = 1
__Val1$ = 12						; size = 4
??$?0ABV?$allocator@PAVRaven_Bot@@@std@@$$V@?$_Compressed_pair@U?$_Wrap_alloc@V?$allocator@U?$_List_node@PAVRaven_Bot@@PAX@std@@@std@@@std@@V?$_List_val@U?$_List_simple_types@PAVRaven_Bot@@@std@@@2@$00@std@@QAE@U_One_then_variadic_args_t@1@ABV?$allocator@PAVRaven_Bot@@@1@@Z PROC ; std::_Compressed_pair<std::_Wrap_alloc<std::allocator<std::_List_node<Raven_Bot *,void *> > >,std::_List_val<std::_List_simple_types<Raven_Bot *> >,1>::_Compressed_pair<std::_Wrap_alloc<std::allocator<std::_List_node<Raven_Bot *,void *> > >,std::_List_val<std::_List_simple_types<Raven_Bot *> >,1><std::allocator<Raven_Bot *> const &>, COMDAT
; _this$ = ecx

; 288  : 		{	// construct from forwarded values

	push	ebp
	mov	ebp, esp
	push	ecx
	mov	DWORD PTR [ebp-4], -858993460		; ccccccccH
	mov	DWORD PTR _this$[ebp], ecx

; 286  : 		: _Ty1(_STD forward<_Other1>(_Val1)),

	mov	eax, DWORD PTR __Val1$[ebp]
	push	eax
	call	??$forward@ABV?$allocator@PAVRaven_Bot@@@std@@@std@@YAABV?$allocator@PAVRaven_Bot@@@0@ABV10@@Z ; std::forward<std::allocator<Raven_Bot *> const &>
	add	esp, 4
	push	eax
	mov	ecx, DWORD PTR _this$[ebp]
	call	??$?0V?$allocator@PAVRaven_Bot@@@std@@@?$_Wrap_alloc@V?$allocator@U?$_List_node@PAVRaven_Bot@@PAX@std@@@std@@@std@@QAE@ABV?$allocator@PAVRaven_Bot@@@1@@Z ; std::_Wrap_alloc<std::allocator<std::_List_node<Raven_Bot *,void *> > >::_Wrap_alloc<std::allocator<std::_List_node<Raven_Bot *,void *> > ><std::allocator<Raven_Bot *> >

; 287  : 			_Myval2(_STD forward<_Other2>(_Val2)...)

	mov	ecx, DWORD PTR _this$[ebp]
	call	??0?$_List_val@U?$_List_simple_types@PAVRaven_Bot@@@std@@@std@@QAE@XZ ; std::_List_val<std::_List_simple_types<Raven_Bot *> >::_List_val<std::_List_simple_types<Raven_Bot *> >

; 289  : 		}

	mov	eax, DWORD PTR _this$[ebp]
	add	esp, 4
	cmp	ebp, esp
	call	__RTC_CheckEsp
	mov	esp, ebp
	pop	ebp
	ret	8
??$?0ABV?$allocator@PAVRaven_Bot@@@std@@$$V@?$_Compressed_pair@U?$_Wrap_alloc@V?$allocator@U?$_List_node@PAVRaven_Bot@@PAX@std@@@std@@@std@@V?$_List_val@U?$_List_simple_types@PAVRaven_Bot@@@std@@@2@$00@std@@QAE@U_One_then_variadic_args_t@1@ABV?$allocator@PAVRaven_Bot@@@1@@Z ENDP ; std::_Compressed_pair<std::_Wrap_alloc<std::allocator<std::_List_node<Raven_Bot *,void *> > >,std::_List_val<std::_List_simple_types<Raven_Bot *> >,1>::_Compressed_pair<std::_Wrap_alloc<std::allocator<std::_List_node<Raven_Bot *,void *> > >,std::_List_val<std::_List_simple_types<Raven_Bot *> >,1><std::allocator<Raven_Bot *> const &>
_TEXT	ENDS
; Function compile flags: /Odtp /RTCsu
; File d:\microsoft visual studio 14.0\vc\include\xutility
;	COMDAT ??$?0V?$allocator@PAVRaven_Bot@@@std@@$$V@?$_Compressed_pair@U?$_Wrap_alloc@V?$allocator@U?$_List_node@PAVRaven_Bot@@PAX@std@@@std@@@std@@V?$_List_val@U?$_List_simple_types@PAVRaven_Bot@@@std@@@2@$00@std@@QAE@U_One_then_variadic_args_t@1@$$QAV?$allocator@PAVRaven_Bot@@@1@@Z
_TEXT	SEGMENT
_this$ = -4						; size = 4
___formal$ = 8						; size = 1
__Val1$ = 12						; size = 4
??$?0V?$allocator@PAVRaven_Bot@@@std@@$$V@?$_Compressed_pair@U?$_Wrap_alloc@V?$allocator@U?$_List_node@PAVRaven_Bot@@PAX@std@@@std@@@std@@V?$_List_val@U?$_List_simple_types@PAVRaven_Bot@@@std@@@2@$00@std@@QAE@U_One_then_variadic_args_t@1@$$QAV?$allocator@PAVRaven_Bot@@@1@@Z PROC ; std::_Compressed_pair<std::_Wrap_alloc<std::allocator<std::_List_node<Raven_Bot *,void *> > >,std::_List_val<std::_List_simple_types<Raven_Bot *> >,1>::_Compressed_pair<std::_Wrap_alloc<std::allocator<std::_List_node<Raven_Bot *,void *> > >,std::_List_val<std::_List_simple_types<Raven_Bot *> >,1><std::allocator<Raven_Bot *> >, COMDAT
; _this$ = ecx

; 288  : 		{	// construct from forwarded values

	push	ebp
	mov	ebp, esp
	push	ecx
	mov	DWORD PTR [ebp-4], -858993460		; ccccccccH
	mov	DWORD PTR _this$[ebp], ecx

; 286  : 		: _Ty1(_STD forward<_Other1>(_Val1)),

	mov	eax, DWORD PTR __Val1$[ebp]
	push	eax
	call	??$forward@V?$allocator@PAVRaven_Bot@@@std@@@std@@YA$$QAV?$allocator@PAVRaven_Bot@@@0@AAV10@@Z ; std::forward<std::allocator<Raven_Bot *> >
	add	esp, 4
	push	eax
	mov	ecx, DWORD PTR _this$[ebp]
	call	??$?0V?$allocator@PAVRaven_Bot@@@std@@@?$_Wrap_alloc@V?$allocator@U?$_List_node@PAVRaven_Bot@@PAX@std@@@std@@@std@@QAE@ABV?$allocator@PAVRaven_Bot@@@1@@Z ; std::_Wrap_alloc<std::allocator<std::_List_node<Raven_Bot *,void *> > >::_Wrap_alloc<std::allocator<std::_List_node<Raven_Bot *,void *> > ><std::allocator<Raven_Bot *> >

; 287  : 			_Myval2(_STD forward<_Other2>(_Val2)...)

	mov	ecx, DWORD PTR _this$[ebp]
	call	??0?$_List_val@U?$_List_simple_types@PAVRaven_Bot@@@std@@@std@@QAE@XZ ; std::_List_val<std::_List_simple_types<Raven_Bot *> >::_List_val<std::_List_simple_types<Raven_Bot *> >

; 289  : 		}

	mov	eax, DWORD PTR _this$[ebp]
	add	esp, 4
	cmp	ebp, esp
	call	__RTC_CheckEsp
	mov	esp, ebp
	pop	ebp
	ret	8
??$?0V?$allocator@PAVRaven_Bot@@@std@@$$V@?$_Compressed_pair@U?$_Wrap_alloc@V?$allocator@U?$_List_node@PAVRaven_Bot@@PAX@std@@@std@@@std@@V?$_List_val@U?$_List_simple_types@PAVRaven_Bot@@@std@@@2@$00@std@@QAE@U_One_then_variadic_args_t@1@$$QAV?$allocator@PAVRaven_Bot@@@1@@Z ENDP ; std::_Compressed_pair<std::_Wrap_alloc<std::allocator<std::_List_node<Raven_Bot *,void *> > >,std::_List_val<std::_List_simple_types<Raven_Bot *> >,1>::_Compressed_pair<std::_Wrap_alloc<std::allocator<std::_List_node<Raven_Bot *,void *> > >,std::_List_val<std::_List_simple_types<Raven_Bot *> >,1><std::allocator<Raven_Bot *> >
_TEXT	ENDS
; Function compile flags: /Odtp /RTCsu
; File d:\microsoft visual studio 14.0\vc\include\xmemory0
;	COMDAT ??$destroy@U_Container_proxy@std@@@?$_Wrap_alloc@V?$allocator@U_Container_proxy@std@@@std@@@std@@QAEXPAU_Container_proxy@1@@Z
_TEXT	SEGMENT
_this$ = -4						; size = 4
__Ptr$ = 8						; size = 4
??$destroy@U_Container_proxy@std@@@?$_Wrap_alloc@V?$allocator@U_Container_proxy@std@@@std@@@std@@QAEXPAU_Container_proxy@1@@Z PROC ; std::_Wrap_alloc<std::allocator<std::_Container_proxy> >::destroy<std::_Container_proxy>, COMDAT
; _this$ = ecx

; 926  : 		{	// destroy object at _Ptr

	push	ebp
	mov	ebp, esp
	push	ecx
	mov	DWORD PTR [ebp-4], -858993460		; ccccccccH
	mov	DWORD PTR _this$[ebp], ecx

; 927  : 		_Mytraits::destroy(*this, _Ptr);

	mov	eax, DWORD PTR __Ptr$[ebp]
	push	eax
	mov	ecx, DWORD PTR _this$[ebp]
	push	ecx
	call	??$destroy@U_Container_proxy@std@@@?$allocator_traits@V?$allocator@U_Container_proxy@std@@@std@@@std@@SAXAAV?$allocator@U_Container_proxy@std@@@1@PAU_Container_proxy@1@@Z ; std::allocator_traits<std::allocator<std::_Container_proxy> >::destroy<std::_Container_proxy>
	add	esp, 8

; 928  : 		}

	add	esp, 4
	cmp	ebp, esp
	call	__RTC_CheckEsp
	mov	esp, ebp
	pop	ebp
	ret	4
??$destroy@U_Container_proxy@std@@@?$_Wrap_alloc@V?$allocator@U_Container_proxy@std@@@std@@@std@@QAEXPAU_Container_proxy@1@@Z ENDP ; std::_Wrap_alloc<std::allocator<std::_Container_proxy> >::destroy<std::_Container_proxy>
_TEXT	ENDS
; Function compile flags: /Odtp /RTCsu
; File d:\microsoft visual studio 14.0\vc\include\xmemory0
;	COMDAT ??$?0U?$_List_node@PAVRaven_Bot@@PAX@std@@@?$allocator@U_Container_proxy@std@@@std@@QAE@ABV?$allocator@U?$_List_node@PAVRaven_Bot@@PAX@std@@@1@@Z
_TEXT	SEGMENT
_this$ = -4						; size = 4
___formal$ = 8						; size = 4
??$?0U?$_List_node@PAVRaven_Bot@@PAX@std@@@?$allocator@U_Container_proxy@std@@@std@@QAE@ABV?$allocator@U?$_List_node@PAVRaven_Bot@@PAX@std@@@1@@Z PROC ; std::allocator<std::_Container_proxy>::allocator<std::_Container_proxy><std::_List_node<Raven_Bot *,void *> >, COMDAT
; _this$ = ecx

; 629  : 		{	// construct from a related allocator (do nothing)

	push	ebp
	mov	ebp, esp
	push	ecx
	mov	DWORD PTR [ebp-4], -858993460		; ccccccccH
	mov	DWORD PTR _this$[ebp], ecx

; 630  : 		}

	mov	eax, DWORD PTR _this$[ebp]
	mov	esp, ebp
	pop	ebp
	ret	4
??$?0U?$_List_node@PAVRaven_Bot@@PAX@std@@@?$allocator@U_Container_proxy@std@@@std@@QAE@ABV?$allocator@U?$_List_node@PAVRaven_Bot@@PAX@std@@@1@@Z ENDP ; std::allocator<std::_Container_proxy>::allocator<std::_Container_proxy><std::_List_node<Raven_Bot *,void *> >
_TEXT	ENDS
; Function compile flags: /Odtp /RTCsu
; File d:\microsoft visual studio 14.0\vc\include\xmemory0
;	COMDAT ??$?0U?$_Wrap_alloc@V?$allocator@U?$_List_node@PAVRaven_Bot@@PAX@std@@@std@@@std@@@?$_Wrap_alloc@V?$allocator@U_Container_proxy@std@@@std@@@std@@QAE@AAU?$_Wrap_alloc@V?$allocator@U?$_List_node@PAVRaven_Bot@@PAX@std@@@std@@@1@@Z
_TEXT	SEGMENT
_this$ = -4						; size = 4
__Right$ = 8						; size = 4
??$?0U?$_Wrap_alloc@V?$allocator@U?$_List_node@PAVRaven_Bot@@PAX@std@@@std@@@std@@@?$_Wrap_alloc@V?$allocator@U_Container_proxy@std@@@std@@@std@@QAE@AAU?$_Wrap_alloc@V?$allocator@U?$_List_node@PAVRaven_Bot@@PAX@std@@@std@@@1@@Z PROC ; std::_Wrap_alloc<std::allocator<std::_Container_proxy> >::_Wrap_alloc<std::allocator<std::_Container_proxy> ><std::_Wrap_alloc<std::allocator<std::_List_node<Raven_Bot *,void *> > > >, COMDAT
; _this$ = ecx

; 876  : 		{	// construct from a related allocator

	push	ebp
	mov	ebp, esp
	push	ecx
	mov	DWORD PTR [ebp-4], -858993460		; ccccccccH
	mov	DWORD PTR _this$[ebp], ecx

; 875  : 		: _Mybase(_Right)

	mov	eax, DWORD PTR __Right$[ebp]
	push	eax
	mov	ecx, DWORD PTR _this$[ebp]
	call	??$?0U?$_List_node@PAVRaven_Bot@@PAX@std@@@?$allocator@U_Container_proxy@std@@@std@@QAE@ABV?$allocator@U?$_List_node@PAVRaven_Bot@@PAX@std@@@1@@Z ; std::allocator<std::_Container_proxy>::allocator<std::_Container_proxy><std::_List_node<Raven_Bot *,void *> >

; 877  : 		}

	mov	eax, DWORD PTR _this$[ebp]
	add	esp, 4
	cmp	ebp, esp
	call	__RTC_CheckEsp
	mov	esp, ebp
	pop	ebp
	ret	4
??$?0U?$_Wrap_alloc@V?$allocator@U?$_List_node@PAVRaven_Bot@@PAX@std@@@std@@@std@@@?$_Wrap_alloc@V?$allocator@U_Container_proxy@std@@@std@@@std@@QAE@AAU?$_Wrap_alloc@V?$allocator@U?$_List_node@PAVRaven_Bot@@PAX@std@@@std@@@1@@Z ENDP ; std::_Wrap_alloc<std::allocator<std::_Container_proxy> >::_Wrap_alloc<std::allocator<std::_Container_proxy> ><std::_Wrap_alloc<std::allocator<std::_List_node<Raven_Bot *,void *> > > >
_TEXT	ENDS
; Function compile flags: /Odtp /RTCsu
; File d:\microsoft visual studio 14.0\vc\include\xmemory0
;	COMDAT ?deallocate@?$_Wrap_alloc@V?$allocator@U_Container_proxy@std@@@std@@@std@@QAEXPAU_Container_proxy@2@I@Z
_TEXT	SEGMENT
_this$ = -4						; size = 4
__Ptr$ = 8						; size = 4
__Count$ = 12						; size = 4
?deallocate@?$_Wrap_alloc@V?$allocator@U_Container_proxy@std@@@std@@@std@@QAEXPAU_Container_proxy@2@I@Z PROC ; std::_Wrap_alloc<std::allocator<std::_Container_proxy> >::deallocate, COMDAT
; _this$ = ecx

; 910  : 		{	// deallocate object at _Ptr, ignore size

	push	ebp
	mov	ebp, esp
	push	ecx
	mov	DWORD PTR [ebp-4], -858993460		; ccccccccH
	mov	DWORD PTR _this$[ebp], ecx

; 911  : 		_Mybase::deallocate(_Ptr, _Count);

	mov	eax, DWORD PTR __Count$[ebp]
	push	eax
	mov	ecx, DWORD PTR __Ptr$[ebp]
	push	ecx
	mov	ecx, DWORD PTR _this$[ebp]
	call	?deallocate@?$allocator@U_Container_proxy@std@@@std@@QAEXPAU_Container_proxy@2@I@Z ; std::allocator<std::_Container_proxy>::deallocate

; 912  : 		}

	add	esp, 4
	cmp	ebp, esp
	call	__RTC_CheckEsp
	mov	esp, ebp
	pop	ebp
	ret	8
?deallocate@?$_Wrap_alloc@V?$allocator@U_Container_proxy@std@@@std@@@std@@QAEXPAU_Container_proxy@2@I@Z ENDP ; std::_Wrap_alloc<std::allocator<std::_Container_proxy> >::deallocate
_TEXT	ENDS
; Function compile flags: /Odtp /RTCsu
; File d:\microsoft visual studio 14.0\vc\include\xmemory0
;	COMDAT ?allocate@?$_Wrap_alloc@V?$allocator@U_Container_proxy@std@@@std@@@std@@QAEPAU_Container_proxy@2@I@Z
_TEXT	SEGMENT
_this$ = -4						; size = 4
__Count$ = 8						; size = 4
?allocate@?$_Wrap_alloc@V?$allocator@U_Container_proxy@std@@@std@@@std@@QAEPAU_Container_proxy@2@I@Z PROC ; std::_Wrap_alloc<std::allocator<std::_Container_proxy> >::allocate, COMDAT
; _this$ = ecx

; 899  : 		{	// allocate array of _Count elements

	push	ebp
	mov	ebp, esp
	push	ecx
	mov	DWORD PTR [ebp-4], -858993460		; ccccccccH
	mov	DWORD PTR _this$[ebp], ecx

; 900  : 		return (_Mybase::allocate(_Count));

	mov	eax, DWORD PTR __Count$[ebp]
	push	eax
	mov	ecx, DWORD PTR _this$[ebp]
	call	?allocate@?$allocator@U_Container_proxy@std@@@std@@QAEPAU_Container_proxy@2@I@Z ; std::allocator<std::_Container_proxy>::allocate

; 901  : 		}

	add	esp, 4
	cmp	ebp, esp
	call	__RTC_CheckEsp
	mov	esp, ebp
	pop	ebp
	ret	4
?allocate@?$_Wrap_alloc@V?$allocator@U_Container_proxy@std@@@std@@@std@@QAEPAU_Container_proxy@2@I@Z ENDP ; std::_Wrap_alloc<std::allocator<std::_Container_proxy> >::allocate
_TEXT	ENDS
; Function compile flags: /Odtp /RTCsu
; File d:\microsoft visual studio 14.0\vc\include\xmemory0
;	COMDAT ?allocate@?$allocator@U_Container_proxy@std@@@std@@QAEPAU_Container_proxy@2@I@Z
_TEXT	SEGMENT
_this$ = -4						; size = 4
__Count$ = 8						; size = 4
?allocate@?$allocator@U_Container_proxy@std@@@std@@QAEPAU_Container_proxy@2@I@Z PROC ; std::allocator<std::_Container_proxy>::allocate, COMDAT
; _this$ = ecx

; 644  : 		{	// allocate array of _Count elements

	push	ebp
	mov	ebp, esp
	push	ecx
	mov	DWORD PTR [ebp-4], -858993460		; ccccccccH
	mov	DWORD PTR _this$[ebp], ecx

; 645  : 		return (_Allocate(_Count, (pointer)0));

	push	1
	push	0
	mov	eax, DWORD PTR __Count$[ebp]
	push	eax
	call	??$_Allocate@U_Container_proxy@std@@@std@@YAPAU_Container_proxy@0@IPAU10@_N@Z ; std::_Allocate<std::_Container_proxy>
	add	esp, 12					; 0000000cH

; 646  : 		}

	add	esp, 4
	cmp	ebp, esp
	call	__RTC_CheckEsp
	mov	esp, ebp
	pop	ebp
	ret	4
?allocate@?$allocator@U_Container_proxy@std@@@std@@QAEPAU_Container_proxy@2@I@Z ENDP ; std::allocator<std::_Container_proxy>::allocate
_TEXT	ENDS
; Function compile flags: /Odtp /RTCsu
; File d:\microsoft visual studio 14.0\vc\include\xmemory0
;	COMDAT ?deallocate@?$allocator@U_Container_proxy@std@@@std@@QAEXPAU_Container_proxy@2@I@Z
_TEXT	SEGMENT
_this$ = -4						; size = 4
__Ptr$ = 8						; size = 4
__Count$ = 12						; size = 4
?deallocate@?$allocator@U_Container_proxy@std@@@std@@QAEXPAU_Container_proxy@2@I@Z PROC ; std::allocator<std::_Container_proxy>::deallocate, COMDAT
; _this$ = ecx

; 639  : 		{	// deallocate object at _Ptr

	push	ebp
	mov	ebp, esp
	push	ecx
	mov	DWORD PTR [ebp-4], -858993460		; ccccccccH
	mov	DWORD PTR _this$[ebp], ecx

; 640  : 		_Deallocate(_Ptr, _Count);

	mov	eax, DWORD PTR __Count$[ebp]
	push	eax
	mov	ecx, DWORD PTR __Ptr$[ebp]
	push	ecx
	call	??$_Deallocate@U_Container_proxy@std@@@std@@YAXPAU_Container_proxy@0@I@Z ; std::_Deallocate<std::_Container_proxy>
	add	esp, 8

; 641  : 		}

	add	esp, 4
	cmp	ebp, esp
	call	__RTC_CheckEsp
	mov	esp, ebp
	pop	ebp
	ret	8
?deallocate@?$allocator@U_Container_proxy@std@@@std@@QAEXPAU_Container_proxy@2@I@Z ENDP ; std::allocator<std::_Container_proxy>::deallocate
_TEXT	ENDS
; Function compile flags: /Odtp /RTCsu
; File d:\microsoft visual studio 14.0\vc\include\xmemory0
;	COMDAT ??$destroy@PAU?$_List_node@PAVRaven_Bot@@PAX@std@@@?$_Wrap_alloc@V?$allocator@U?$_List_node@PAVRaven_Bot@@PAX@std@@@std@@@std@@QAEXPAPAU?$_List_node@PAVRaven_Bot@@PAX@1@@Z
_TEXT	SEGMENT
_this$ = -4						; size = 4
__Ptr$ = 8						; size = 4
??$destroy@PAU?$_List_node@PAVRaven_Bot@@PAX@std@@@?$_Wrap_alloc@V?$allocator@U?$_List_node@PAVRaven_Bot@@PAX@std@@@std@@@std@@QAEXPAPAU?$_List_node@PAVRaven_Bot@@PAX@1@@Z PROC ; std::_Wrap_alloc<std::allocator<std::_List_node<Raven_Bot *,void *> > >::destroy<std::_List_node<Raven_Bot *,void *> *>, COMDAT
; _this$ = ecx

; 926  : 		{	// destroy object at _Ptr

	push	ebp
	mov	ebp, esp
	push	ecx
	mov	DWORD PTR [ebp-4], -858993460		; ccccccccH
	mov	DWORD PTR _this$[ebp], ecx

; 927  : 		_Mytraits::destroy(*this, _Ptr);

	mov	eax, DWORD PTR __Ptr$[ebp]
	push	eax
	mov	ecx, DWORD PTR _this$[ebp]
	push	ecx
	call	??$destroy@PAU?$_List_node@PAVRaven_Bot@@PAX@std@@@?$allocator_traits@V?$allocator@U?$_List_node@PAVRaven_Bot@@PAX@std@@@std@@@std@@SAXAAV?$allocator@U?$_List_node@PAVRaven_Bot@@PAX@std@@@1@PAPAU?$_List_node@PAVRaven_Bot@@PAX@1@@Z ; std::allocator_traits<std::allocator<std::_List_node<Raven_Bot *,void *> > >::destroy<std::_List_node<Raven_Bot *,void *> *>
	add	esp, 8

; 928  : 		}

	add	esp, 4
	cmp	ebp, esp
	call	__RTC_CheckEsp
	mov	esp, ebp
	pop	ebp
	ret	4
??$destroy@PAU?$_List_node@PAVRaven_Bot@@PAX@std@@@?$_Wrap_alloc@V?$allocator@U?$_List_node@PAVRaven_Bot@@PAX@std@@@std@@@std@@QAEXPAPAU?$_List_node@PAVRaven_Bot@@PAX@1@@Z ENDP ; std::_Wrap_alloc<std::allocator<std::_List_node<Raven_Bot *,void *> > >::destroy<std::_List_node<Raven_Bot *,void *> *>
_TEXT	ENDS
; Function compile flags: /Odtp /RTCsu
; File d:\microsoft visual studio 14.0\vc\include\xstddef
;	COMDAT ??$addressof@PAU?$_List_node@PAVRaven_Bot@@PAX@std@@@std@@YAPAPAU?$_List_node@PAVRaven_Bot@@PAX@0@AAPAU10@@Z
_TEXT	SEGMENT
$T1 = -2						; size = 1
__Val$ = 8						; size = 4
??$addressof@PAU?$_List_node@PAVRaven_Bot@@PAX@std@@@std@@YAPAPAU?$_List_node@PAVRaven_Bot@@PAX@0@AAPAU10@@Z PROC ; std::addressof<std::_List_node<Raven_Bot *,void *> *>, COMDAT

; 699  : 	{	// return address of _Val

	push	ebp
	mov	ebp, esp
	push	ecx
	mov	DWORD PTR [ebp-4], -858993460		; ccccccccH

; 700  : 	return (_Addressof(_Val, is_function<_Ty>()));

	movzx	eax, BYTE PTR $T1[ebp]
	push	eax
	mov	ecx, DWORD PTR __Val$[ebp]
	push	ecx
	call	??$_Addressof@PAU?$_List_node@PAVRaven_Bot@@PAX@std@@@std@@YAPAPAU?$_List_node@PAVRaven_Bot@@PAX@0@AAPAU10@U?$integral_constant@_N$0A@@0@@Z ; std::_Addressof<std::_List_node<Raven_Bot *,void *> *>
	add	esp, 8

; 701  : 	}

	add	esp, 4
	cmp	ebp, esp
	call	__RTC_CheckEsp
	mov	esp, ebp
	pop	ebp
	ret	0
??$addressof@PAU?$_List_node@PAVRaven_Bot@@PAX@std@@@std@@YAPAPAU?$_List_node@PAVRaven_Bot@@PAX@0@AAPAU10@@Z ENDP ; std::addressof<std::_List_node<Raven_Bot *,void *> *>
_TEXT	ENDS
; Function compile flags: /Odtp /RTCsu
; File d:\microsoft visual studio 14.0\vc\include\utility
;	COMDAT ??$swap@I@std@@YAXAAI0@Z
_TEXT	SEGMENT
__Tmp$ = -8						; size = 4
__Left$ = 8						; size = 4
__Right$ = 12						; size = 4
??$swap@I@std@@YAXAAI0@Z PROC				; std::swap<unsigned int>, COMDAT

; 51   : 	{	// exchange values stored at _Left and _Right

	push	ebp
	mov	ebp, esp
	sub	esp, 12					; 0000000cH
	mov	DWORD PTR [ebp-12], -858993460		; ccccccccH
	mov	DWORD PTR [ebp-8], -858993460		; ccccccccH
	mov	DWORD PTR [ebp-4], -858993460		; ccccccccH

; 52   : 	_Ty _Tmp = _Move(_Left);

	mov	eax, DWORD PTR __Left$[ebp]
	push	eax
	call	??$_Move@AAI@std@@YA$$QAIAAI@Z		; std::_Move<unsigned int &>
	add	esp, 4
	mov	ecx, DWORD PTR [eax]
	mov	DWORD PTR __Tmp$[ebp], ecx

; 53   : 	_Left = _Move(_Right);

	mov	edx, DWORD PTR __Right$[ebp]
	push	edx
	call	??$_Move@AAI@std@@YA$$QAIAAI@Z		; std::_Move<unsigned int &>
	add	esp, 4
	mov	ecx, DWORD PTR __Left$[ebp]
	mov	edx, DWORD PTR [eax]
	mov	DWORD PTR [ecx], edx

; 54   : 	_Right = _Move(_Tmp);

	lea	eax, DWORD PTR __Tmp$[ebp]
	push	eax
	call	??$_Move@AAI@std@@YA$$QAIAAI@Z		; std::_Move<unsigned int &>
	add	esp, 4
	mov	ecx, DWORD PTR __Right$[ebp]
	mov	edx, DWORD PTR [eax]
	mov	DWORD PTR [ecx], edx

; 55   : 	}

	push	edx
	mov	ecx, ebp
	push	eax
	lea	edx, DWORD PTR $LN5@swap
	call	@_RTC_CheckStackVars@8
	pop	eax
	pop	edx
	add	esp, 12					; 0000000cH
	cmp	ebp, esp
	call	__RTC_CheckEsp
	mov	esp, ebp
	pop	ebp
	ret	0
	npad	3
$LN5@swap:
	DD	1
	DD	$LN4@swap
$LN4@swap:
	DD	-8					; fffffff8H
	DD	4
	DD	$LN3@swap
$LN3@swap:
	DB	95					; 0000005fH
	DB	84					; 00000054H
	DB	109					; 0000006dH
	DB	112					; 00000070H
	DB	0
??$swap@I@std@@YAXAAI0@Z ENDP				; std::swap<unsigned int>
_TEXT	ENDS
; Function compile flags: /Odtp /RTCsu
; File d:\microsoft visual studio 14.0\vc\include\utility
;	COMDAT ??$swap@PAU?$_List_node@PAVRaven_Bot@@PAX@std@@@std@@YAXAAPAU?$_List_node@PAVRaven_Bot@@PAX@0@0@Z
_TEXT	SEGMENT
__Tmp$ = -8						; size = 4
__Left$ = 8						; size = 4
__Right$ = 12						; size = 4
??$swap@PAU?$_List_node@PAVRaven_Bot@@PAX@std@@@std@@YAXAAPAU?$_List_node@PAVRaven_Bot@@PAX@0@0@Z PROC ; std::swap<std::_List_node<Raven_Bot *,void *> *>, COMDAT

; 51   : 	{	// exchange values stored at _Left and _Right

	push	ebp
	mov	ebp, esp
	sub	esp, 12					; 0000000cH
	mov	DWORD PTR [ebp-12], -858993460		; ccccccccH
	mov	DWORD PTR [ebp-8], -858993460		; ccccccccH
	mov	DWORD PTR [ebp-4], -858993460		; ccccccccH

; 52   : 	_Ty _Tmp = _Move(_Left);

	mov	eax, DWORD PTR __Left$[ebp]
	push	eax
	call	??$_Move@AAPAU?$_List_node@PAVRaven_Bot@@PAX@std@@@std@@YA$$QAPAU?$_List_node@PAVRaven_Bot@@PAX@0@AAPAU10@@Z ; std::_Move<std::_List_node<Raven_Bot *,void *> * &>
	add	esp, 4
	mov	ecx, DWORD PTR [eax]
	mov	DWORD PTR __Tmp$[ebp], ecx

; 53   : 	_Left = _Move(_Right);

	mov	edx, DWORD PTR __Right$[ebp]
	push	edx
	call	??$_Move@AAPAU?$_List_node@PAVRaven_Bot@@PAX@std@@@std@@YA$$QAPAU?$_List_node@PAVRaven_Bot@@PAX@0@AAPAU10@@Z ; std::_Move<std::_List_node<Raven_Bot *,void *> * &>
	add	esp, 4
	mov	ecx, DWORD PTR __Left$[ebp]
	mov	edx, DWORD PTR [eax]
	mov	DWORD PTR [ecx], edx

; 54   : 	_Right = _Move(_Tmp);

	lea	eax, DWORD PTR __Tmp$[ebp]
	push	eax
	call	??$_Move@AAPAU?$_List_node@PAVRaven_Bot@@PAX@std@@@std@@YA$$QAPAU?$_List_node@PAVRaven_Bot@@PAX@0@AAPAU10@@Z ; std::_Move<std::_List_node<Raven_Bot *,void *> * &>
	add	esp, 4
	mov	ecx, DWORD PTR __Right$[ebp]
	mov	edx, DWORD PTR [eax]
	mov	DWORD PTR [ecx], edx

; 55   : 	}

	push	edx
	mov	ecx, ebp
	push	eax
	lea	edx, DWORD PTR $LN5@swap
	call	@_RTC_CheckStackVars@8
	pop	eax
	pop	edx
	add	esp, 12					; 0000000cH
	cmp	ebp, esp
	call	__RTC_CheckEsp
	mov	esp, ebp
	pop	ebp
	ret	0
	npad	3
$LN5@swap:
	DD	1
	DD	$LN4@swap
$LN4@swap:
	DD	-8					; fffffff8H
	DD	4
	DD	$LN3@swap
$LN3@swap:
	DB	95					; 0000005fH
	DB	84					; 00000054H
	DB	109					; 0000006dH
	DB	112					; 00000070H
	DB	0
??$swap@PAU?$_List_node@PAVRaven_Bot@@PAX@std@@@std@@YAXAAPAU?$_List_node@PAVRaven_Bot@@PAX@0@0@Z ENDP ; std::swap<std::_List_node<Raven_Bot *,void *> *>
_TEXT	ENDS
; Function compile flags: /Odtp /RTCsu
; File d:\microsoft visual studio 14.0\vc\include\utility
;	COMDAT ??$_Swap_adl@PAU?$_List_node@PAVRaven_Bot@@PAX@std@@@std@@YAXAAPAU?$_List_node@PAVRaven_Bot@@PAX@0@0@Z
_TEXT	SEGMENT
__Left$ = 8						; size = 4
__Right$ = 12						; size = 4
??$_Swap_adl@PAU?$_List_node@PAVRaven_Bot@@PAX@std@@@std@@YAXAAPAU?$_List_node@PAVRaven_Bot@@PAX@0@0@Z PROC ; std::_Swap_adl<std::_List_node<Raven_Bot *,void *> *>, COMDAT

; 61   : 	{	// exchange values stored at _Left and _Right, using ADL

	push	ebp
	mov	ebp, esp

; 62   : 	swap(_Left, _Right);

	mov	eax, DWORD PTR __Right$[ebp]
	push	eax
	mov	ecx, DWORD PTR __Left$[ebp]
	push	ecx
	call	??$swap@PAU?$_List_node@PAVRaven_Bot@@PAX@std@@@std@@YAXAAPAU?$_List_node@PAVRaven_Bot@@PAX@0@0@Z ; std::swap<std::_List_node<Raven_Bot *,void *> *>
	add	esp, 8

; 63   : 	}

	cmp	ebp, esp
	call	__RTC_CheckEsp
	pop	ebp
	ret	0
??$_Swap_adl@PAU?$_List_node@PAVRaven_Bot@@PAX@std@@@std@@YAXAAPAU?$_List_node@PAVRaven_Bot@@PAX@0@0@Z ENDP ; std::_Swap_adl<std::_List_node<Raven_Bot *,void *> *>
_TEXT	ENDS
; Function compile flags: /Odtp /RTCsu
; File d:\microsoft visual studio 14.0\vc\include\type_traits
;	COMDAT ??$move@AAV?$allocator@PAVRaven_Bot@@@std@@@std@@YA$$QAV?$allocator@PAVRaven_Bot@@@0@AAV10@@Z
_TEXT	SEGMENT
__Arg$ = 8						; size = 4
??$move@AAV?$allocator@PAVRaven_Bot@@@std@@@std@@YA$$QAV?$allocator@PAVRaven_Bot@@@0@AAV10@@Z PROC ; std::move<std::allocator<Raven_Bot *> &>, COMDAT

; 1309 : 	{	// forward _Arg as movable

	push	ebp
	mov	ebp, esp

; 1310 : 	return (static_cast<typename remove_reference<_Ty>::type&&>(_Arg));

	mov	eax, DWORD PTR __Arg$[ebp]

; 1311 : 	}

	pop	ebp
	ret	0
??$move@AAV?$allocator@PAVRaven_Bot@@@std@@@std@@YA$$QAV?$allocator@PAVRaven_Bot@@@0@AAV10@@Z ENDP ; std::move<std::allocator<Raven_Bot *> &>
_TEXT	ENDS
; Function compile flags: /Odtp /RTCsu
; File d:\microsoft visual studio 14.0\vc\include\type_traits
;	COMDAT ??$forward@V?$list@PAVRaven_Bot@@V?$allocator@PAVRaven_Bot@@@std@@@std@@@std@@YA$$QAV?$list@PAVRaven_Bot@@V?$allocator@PAVRaven_Bot@@@std@@@0@AAV10@@Z
_TEXT	SEGMENT
__Arg$ = 8						; size = 4
??$forward@V?$list@PAVRaven_Bot@@V?$allocator@PAVRaven_Bot@@@std@@@std@@@std@@YA$$QAV?$list@PAVRaven_Bot@@V?$allocator@PAVRaven_Bot@@@std@@@0@AAV10@@Z PROC ; std::forward<std::list<Raven_Bot *,std::allocator<Raven_Bot *> > >, COMDAT

; 1293 : 	{	// forward an lvalue as either an lvalue or an rvalue

	push	ebp
	mov	ebp, esp

; 1294 : 	return (static_cast<_Ty&&>(_Arg));

	mov	eax, DWORD PTR __Arg$[ebp]

; 1295 : 	}

	pop	ebp
	ret	0
??$forward@V?$list@PAVRaven_Bot@@V?$allocator@PAVRaven_Bot@@@std@@@std@@@std@@YA$$QAV?$list@PAVRaven_Bot@@V?$allocator@PAVRaven_Bot@@@std@@@0@AAV10@@Z ENDP ; std::forward<std::list<Raven_Bot *,std::allocator<Raven_Bot *> > >
_TEXT	ENDS
; Function compile flags: /Odtp /RTCsu
; File d:\microsoft visual studio 14.0\vc\include\xmemory0
;	COMDAT ??$?0U?$_List_node@PAVRaven_Bot@@PAX@std@@@?$allocator@PAVRaven_Bot@@@std@@QAE@ABV?$allocator@U?$_List_node@PAVRaven_Bot@@PAX@std@@@1@@Z
_TEXT	SEGMENT
_this$ = -4						; size = 4
___formal$ = 8						; size = 4
??$?0U?$_List_node@PAVRaven_Bot@@PAX@std@@@?$allocator@PAVRaven_Bot@@@std@@QAE@ABV?$allocator@U?$_List_node@PAVRaven_Bot@@PAX@std@@@1@@Z PROC ; std::allocator<Raven_Bot *>::allocator<Raven_Bot *><std::_List_node<Raven_Bot *,void *> >, COMDAT
; _this$ = ecx

; 629  : 		{	// construct from a related allocator (do nothing)

	push	ebp
	mov	ebp, esp
	push	ecx
	mov	DWORD PTR [ebp-4], -858993460		; ccccccccH
	mov	DWORD PTR _this$[ebp], ecx

; 630  : 		}

	mov	eax, DWORD PTR _this$[ebp]
	mov	esp, ebp
	pop	ebp
	ret	4
??$?0U?$_List_node@PAVRaven_Bot@@PAX@std@@@?$allocator@PAVRaven_Bot@@@std@@QAE@ABV?$allocator@U?$_List_node@PAVRaven_Bot@@PAX@std@@@1@@Z ENDP ; std::allocator<Raven_Bot *>::allocator<Raven_Bot *><std::_List_node<Raven_Bot *,void *> >
_TEXT	ENDS
; Function compile flags: /Odtp /RTCsu
; File d:\microsoft visual studio 14.0\vc\include\type_traits
;	COMDAT ??$move@AAU?$_Wrap_alloc@V?$allocator@U?$_List_node@PAVRaven_Bot@@PAX@std@@@std@@@std@@@std@@YA$$QAU?$_Wrap_alloc@V?$allocator@U?$_List_node@PAVRaven_Bot@@PAX@std@@@std@@@0@AAU10@@Z
_TEXT	SEGMENT
__Arg$ = 8						; size = 4
??$move@AAU?$_Wrap_alloc@V?$allocator@U?$_List_node@PAVRaven_Bot@@PAX@std@@@std@@@std@@@std@@YA$$QAU?$_Wrap_alloc@V?$allocator@U?$_List_node@PAVRaven_Bot@@PAX@std@@@std@@@0@AAU10@@Z PROC ; std::move<std::_Wrap_alloc<std::allocator<std::_List_node<Raven_Bot *,void *> > > &>, COMDAT

; 1309 : 	{	// forward _Arg as movable

	push	ebp
	mov	ebp, esp

; 1310 : 	return (static_cast<typename remove_reference<_Ty>::type&&>(_Arg));

	mov	eax, DWORD PTR __Arg$[ebp]

; 1311 : 	}

	pop	ebp
	ret	0
??$move@AAU?$_Wrap_alloc@V?$allocator@U?$_List_node@PAVRaven_Bot@@PAX@std@@@std@@@std@@@std@@YA$$QAU?$_Wrap_alloc@V?$allocator@U?$_List_node@PAVRaven_Bot@@PAX@std@@@std@@@0@AAU10@@Z ENDP ; std::move<std::_Wrap_alloc<std::allocator<std::_List_node<Raven_Bot *,void *> > > &>
_TEXT	ENDS
; Function compile flags: /Odtp /RTCsu
; File d:\microsoft visual studio 14.0\vc\include\list
;	COMDAT ??$_Insert@ABQAVRaven_Bot@@@?$list@PAVRaven_Bot@@V?$allocator@PAVRaven_Bot@@@std@@@std@@QAEXV?$_List_unchecked_const_iterator@V?$_List_val@U?$_List_simple_types@PAVRaven_Bot@@@std@@@std@@U_Iterator_base0@2@@1@ABQAVRaven_Bot@@@Z
_TEXT	SEGMENT
__Newnode$ = -12					; size = 4
__Pnode$ = -8						; size = 4
_this$ = -4						; size = 4
__Where$ = 8						; size = 4
_<_Val_0>$ = 12						; size = 4
??$_Insert@ABQAVRaven_Bot@@@?$list@PAVRaven_Bot@@V?$allocator@PAVRaven_Bot@@@std@@@std@@QAEXV?$_List_unchecked_const_iterator@V?$_List_val@U?$_List_simple_types@PAVRaven_Bot@@@std@@@std@@U_Iterator_base0@2@@1@ABQAVRaven_Bot@@@Z PROC ; std::list<Raven_Bot *,std::allocator<Raven_Bot *> >::_Insert<Raven_Bot * const &>, COMDAT
; _this$ = ecx

; 1058 : 		{	// insert element at _Where

	push	ebp
	mov	ebp, esp
	sub	esp, 12					; 0000000cH
	mov	DWORD PTR [ebp-12], -858993460		; ccccccccH
	mov	DWORD PTR [ebp-8], -858993460		; ccccccccH
	mov	DWORD PTR [ebp-4], -858993460		; ccccccccH
	mov	DWORD PTR _this$[ebp], ecx

; 1059 : 		_Nodeptr _Pnode = _Where._Mynode();

	lea	ecx, DWORD PTR __Where$[ebp]
	call	?_Mynode@?$_List_unchecked_const_iterator@V?$_List_val@U?$_List_simple_types@PAVRaven_Bot@@@std@@@std@@U_Iterator_base0@2@@std@@QBEPAU?$_List_node@PAVRaven_Bot@@PAX@2@XZ ; std::_List_unchecked_const_iterator<std::_List_val<std::_List_simple_types<Raven_Bot *> >,std::_Iterator_base0>::_Mynode
	mov	DWORD PTR __Pnode$[ebp], eax

; 1060 : 		_Nodeptr _Newnode =
; 1061 : 			this->_Buynode(_Pnode, this->_Prevnode(_Pnode),

	mov	eax, DWORD PTR _<_Val_0>$[ebp]
	push	eax
	call	??$forward@ABQAVRaven_Bot@@@std@@YAABQAVRaven_Bot@@ABQAV1@@Z ; std::forward<Raven_Bot * const &>
	add	esp, 4
	push	eax
	mov	ecx, DWORD PTR __Pnode$[ebp]
	push	ecx
	call	?_Prevnode@?$_List_alloc@U?$_List_base_types@PAVRaven_Bot@@V?$allocator@PAVRaven_Bot@@@std@@@std@@@std@@SAAAPAU?$_List_node@PAVRaven_Bot@@PAX@2@PAU32@@Z ; std::_List_alloc<std::_List_base_types<Raven_Bot *,std::allocator<Raven_Bot *> > >::_Prevnode
	add	esp, 4
	mov	edx, DWORD PTR [eax]
	push	edx
	mov	eax, DWORD PTR __Pnode$[ebp]
	push	eax
	mov	ecx, DWORD PTR _this$[ebp]
	call	??$_Buynode@ABQAVRaven_Bot@@@?$_List_buy@PAVRaven_Bot@@V?$allocator@PAVRaven_Bot@@@std@@@std@@QAEPAU?$_List_node@PAVRaven_Bot@@PAX@1@PAU21@0ABQAVRaven_Bot@@@Z ; std::_List_buy<Raven_Bot *,std::allocator<Raven_Bot *> >::_Buynode<Raven_Bot * const &>
	mov	DWORD PTR __Newnode$[ebp], eax

; 1062 : 				_STD forward<_Valty>(_Val)...);
; 1063 : 		_Incsize(1);

	push	1
	mov	ecx, DWORD PTR _this$[ebp]
	call	?_Incsize@?$list@PAVRaven_Bot@@V?$allocator@PAVRaven_Bot@@@std@@@std@@QAEXI@Z ; std::list<Raven_Bot *,std::allocator<Raven_Bot *> >::_Incsize

; 1064 : 		this->_Prevnode(_Pnode) = _Newnode;

	mov	ecx, DWORD PTR __Pnode$[ebp]
	push	ecx
	call	?_Prevnode@?$_List_alloc@U?$_List_base_types@PAVRaven_Bot@@V?$allocator@PAVRaven_Bot@@@std@@@std@@@std@@SAAAPAU?$_List_node@PAVRaven_Bot@@PAX@2@PAU32@@Z ; std::_List_alloc<std::_List_base_types<Raven_Bot *,std::allocator<Raven_Bot *> > >::_Prevnode
	add	esp, 4
	mov	edx, DWORD PTR __Newnode$[ebp]
	mov	DWORD PTR [eax], edx

; 1065 : 		this->_Nextnode(this->_Prevnode(_Newnode)) = _Newnode;

	mov	eax, DWORD PTR __Newnode$[ebp]
	push	eax
	call	?_Prevnode@?$_List_alloc@U?$_List_base_types@PAVRaven_Bot@@V?$allocator@PAVRaven_Bot@@@std@@@std@@@std@@SAAAPAU?$_List_node@PAVRaven_Bot@@PAX@2@PAU32@@Z ; std::_List_alloc<std::_List_base_types<Raven_Bot *,std::allocator<Raven_Bot *> > >::_Prevnode
	add	esp, 4
	mov	ecx, DWORD PTR [eax]
	push	ecx
	call	?_Nextnode@?$_List_alloc@U?$_List_base_types@PAVRaven_Bot@@V?$allocator@PAVRaven_Bot@@@std@@@std@@@std@@SAAAPAU?$_List_node@PAVRaven_Bot@@PAX@2@PAU32@@Z ; std::_List_alloc<std::_List_base_types<Raven_Bot *,std::allocator<Raven_Bot *> > >::_Nextnode
	add	esp, 4
	mov	edx, DWORD PTR __Newnode$[ebp]
	mov	DWORD PTR [eax], edx

; 1066 : 		}

	add	esp, 12					; 0000000cH
	cmp	ebp, esp
	call	__RTC_CheckEsp
	mov	esp, ebp
	pop	ebp
	ret	8
??$_Insert@ABQAVRaven_Bot@@@?$list@PAVRaven_Bot@@V?$allocator@PAVRaven_Bot@@@std@@@std@@QAEXV?$_List_unchecked_const_iterator@V?$_List_val@U?$_List_simple_types@PAVRaven_Bot@@@std@@@std@@U_Iterator_base0@2@@1@ABQAVRaven_Bot@@@Z ENDP ; std::list<Raven_Bot *,std::allocator<Raven_Bot *> >::_Insert<Raven_Bot * const &>
_TEXT	ENDS
; Function compile flags: /Odtp /RTCsu
; File d:\microsoft visual studio 14.0\vc\include\list
;	COMDAT ??0?$_List_unchecked_iterator@V?$_List_val@U?$_List_simple_types@PAVRaven_Bot@@@std@@@std@@@std@@QAE@PAU?$_List_node@PAVRaven_Bot@@PAX@1@PBV?$_List_val@U?$_List_simple_types@PAVRaven_Bot@@@std@@@1@@Z
_TEXT	SEGMENT
_this$ = -4						; size = 4
__Pnode$ = 8						; size = 4
__Plist$ = 12						; size = 4
??0?$_List_unchecked_iterator@V?$_List_val@U?$_List_simple_types@PAVRaven_Bot@@@std@@@std@@@std@@QAE@PAU?$_List_node@PAVRaven_Bot@@PAX@1@PBV?$_List_val@U?$_List_simple_types@PAVRaven_Bot@@@std@@@1@@Z PROC ; std::_List_unchecked_iterator<std::_List_val<std::_List_simple_types<Raven_Bot *> > >::_List_unchecked_iterator<std::_List_val<std::_List_simple_types<Raven_Bot *> > >, COMDAT
; _this$ = ecx

; 124  : 		{	// construct with node pointer _Pnode

	push	ebp
	mov	ebp, esp
	push	ecx
	mov	DWORD PTR [ebp-4], -858993460		; ccccccccH
	mov	DWORD PTR _this$[ebp], ecx

; 123  : 		: _Mybase(_Pnode, _Plist)

	mov	eax, DWORD PTR __Plist$[ebp]
	push	eax
	mov	ecx, DWORD PTR __Pnode$[ebp]
	push	ecx
	mov	ecx, DWORD PTR _this$[ebp]
	call	??0?$_List_unchecked_const_iterator@V?$_List_val@U?$_List_simple_types@PAVRaven_Bot@@@std@@@std@@U_Iterator_base0@2@@std@@QAE@PAU?$_List_node@PAVRaven_Bot@@PAX@1@PBV?$_List_val@U?$_List_simple_types@PAVRaven_Bot@@@std@@@1@@Z ; std::_List_unchecked_const_iterator<std::_List_val<std::_List_simple_types<Raven_Bot *> >,std::_Iterator_base0>::_List_unchecked_const_iterator<std::_List_val<std::_List_simple_types<Raven_Bot *> >,std::_Iterator_base0>

; 125  : 		}

	mov	eax, DWORD PTR _this$[ebp]
	add	esp, 4
	cmp	ebp, esp
	call	__RTC_CheckEsp
	mov	esp, ebp
	pop	ebp
	ret	8
??0?$_List_unchecked_iterator@V?$_List_val@U?$_List_simple_types@PAVRaven_Bot@@@std@@@std@@@std@@QAE@PAU?$_List_node@PAVRaven_Bot@@PAX@1@PBV?$_List_val@U?$_List_simple_types@PAVRaven_Bot@@@std@@@1@@Z ENDP ; std::_List_unchecked_iterator<std::_List_val<std::_List_simple_types<Raven_Bot *> > >::_List_unchecked_iterator<std::_List_val<std::_List_simple_types<Raven_Bot *> > >
_TEXT	ENDS
; Function compile flags: /Odtp /RTCsu
; File d:\microsoft visual studio 14.0\vc\include\list
;	COMDAT ?_Mynode@?$_List_unchecked_const_iterator@V?$_List_val@U?$_List_simple_types@PAVRaven_Bot@@@std@@@std@@U_Iterator_base0@2@@std@@QBEPAU?$_List_node@PAVRaven_Bot@@PAX@2@XZ
_TEXT	SEGMENT
_this$ = -4						; size = 4
?_Mynode@?$_List_unchecked_const_iterator@V?$_List_val@U?$_List_simple_types@PAVRaven_Bot@@@std@@@std@@U_Iterator_base0@2@@std@@QBEPAU?$_List_node@PAVRaven_Bot@@PAX@2@XZ PROC ; std::_List_unchecked_const_iterator<std::_List_val<std::_List_simple_types<Raven_Bot *> >,std::_Iterator_base0>::_Mynode, COMDAT
; _this$ = ecx

; 95   : 		{	// return node pointer

	push	ebp
	mov	ebp, esp
	push	ecx
	mov	DWORD PTR [ebp-4], -858993460		; ccccccccH
	mov	DWORD PTR _this$[ebp], ecx

; 96   : 		return (_Ptr);

	mov	eax, DWORD PTR _this$[ebp]
	mov	eax, DWORD PTR [eax]

; 97   : 		}

	mov	esp, ebp
	pop	ebp
	ret	0
?_Mynode@?$_List_unchecked_const_iterator@V?$_List_val@U?$_List_simple_types@PAVRaven_Bot@@@std@@@std@@U_Iterator_base0@2@@std@@QBEPAU?$_List_node@PAVRaven_Bot@@PAX@2@XZ ENDP ; std::_List_unchecked_const_iterator<std::_List_val<std::_List_simple_types<Raven_Bot *> >,std::_Iterator_base0>::_Mynode
_TEXT	ENDS
; Function compile flags: /Odtp /RTCsu
; File d:\microsoft visual studio 14.0\vc\include\list
;	COMDAT ??0?$_List_unchecked_const_iterator@V?$_List_val@U?$_List_simple_types@PAVRaven_Bot@@@std@@@std@@U_Iterator_base0@2@@std@@QAE@PAU?$_List_node@PAVRaven_Bot@@PAX@1@PBV?$_List_val@U?$_List_simple_types@PAVRaven_Bot@@@std@@@1@@Z
_TEXT	SEGMENT
_this$ = -4						; size = 4
__Pnode$ = 8						; size = 4
__Plist$ = 12						; size = 4
??0?$_List_unchecked_const_iterator@V?$_List_val@U?$_List_simple_types@PAVRaven_Bot@@@std@@@std@@U_Iterator_base0@2@@std@@QAE@PAU?$_List_node@PAVRaven_Bot@@PAX@1@PBV?$_List_val@U?$_List_simple_types@PAVRaven_Bot@@@std@@@1@@Z PROC ; std::_List_unchecked_const_iterator<std::_List_val<std::_List_simple_types<Raven_Bot *> >,std::_Iterator_base0>::_List_unchecked_const_iterator<std::_List_val<std::_List_simple_types<Raven_Bot *> >,std::_Iterator_base0>, COMDAT
; _this$ = ecx

; 44   : 		{	// construct with node pointer _Pnode

	push	ebp
	mov	ebp, esp
	push	ecx
	mov	DWORD PTR [ebp-4], -858993460		; ccccccccH
	mov	DWORD PTR _this$[ebp], ecx

; 43   : 		: _Ptr(_Pnode)

	mov	eax, DWORD PTR _this$[ebp]
	mov	ecx, DWORD PTR __Pnode$[ebp]
	mov	DWORD PTR [eax], ecx

; 45   : 		this->_Adopt(_Plist);

	mov	edx, DWORD PTR __Plist$[ebp]
	push	edx
	mov	ecx, DWORD PTR _this$[ebp]
	call	?_Adopt@_Iterator_base0@std@@QAEXPBX@Z	; std::_Iterator_base0::_Adopt

; 46   : 		}

	mov	eax, DWORD PTR _this$[ebp]
	add	esp, 4
	cmp	ebp, esp
	call	__RTC_CheckEsp
	mov	esp, ebp
	pop	ebp
	ret	8
??0?$_List_unchecked_const_iterator@V?$_List_val@U?$_List_simple_types@PAVRaven_Bot@@@std@@@std@@U_Iterator_base0@2@@std@@QAE@PAU?$_List_node@PAVRaven_Bot@@PAX@1@PBV?$_List_val@U?$_List_simple_types@PAVRaven_Bot@@@std@@@1@@Z ENDP ; std::_List_unchecked_const_iterator<std::_List_val<std::_List_simple_types<Raven_Bot *> >,std::_Iterator_base0>::_List_unchecked_const_iterator<std::_List_val<std::_List_simple_types<Raven_Bot *> >,std::_Iterator_base0>
_TEXT	ENDS
; Function compile flags: /Odtp /RTCsu
;	COMDAT ??4?$_List_const_iterator@V?$_List_val@U?$_List_simple_types@PAVRaven_Bot@@@std@@@std@@@std@@QAEAAV01@$$QAV01@@Z
_TEXT	SEGMENT
_this$ = -4						; size = 4
___that$ = 8						; size = 4
??4?$_List_const_iterator@V?$_List_val@U?$_List_simple_types@PAVRaven_Bot@@@std@@@std@@@std@@QAEAAV01@$$QAV01@@Z PROC ; std::_List_const_iterator<std::_List_val<std::_List_simple_types<Raven_Bot *> > >::operator=, COMDAT
; _this$ = ecx
	push	ebp
	mov	ebp, esp
	push	ecx
	mov	DWORD PTR [ebp-4], -858993460		; ccccccccH
	mov	DWORD PTR _this$[ebp], ecx
	mov	eax, DWORD PTR ___that$[ebp]
	push	eax
	mov	ecx, DWORD PTR _this$[ebp]
	call	??4?$_List_unchecked_const_iterator@V?$_List_val@U?$_List_simple_types@PAVRaven_Bot@@@std@@@std@@U_Iterator_base12@2@@std@@QAEAAV01@$$QAV01@@Z
	mov	eax, DWORD PTR _this$[ebp]
	add	esp, 4
	cmp	ebp, esp
	call	__RTC_CheckEsp
	mov	esp, ebp
	pop	ebp
	ret	4
??4?$_List_const_iterator@V?$_List_val@U?$_List_simple_types@PAVRaven_Bot@@@std@@@std@@@std@@QAEAAV01@$$QAV01@@Z ENDP ; std::_List_const_iterator<std::_List_val<std::_List_simple_types<Raven_Bot *> > >::operator=
_TEXT	ENDS
; Function compile flags: /Odtp /RTCsu
;	COMDAT ??1?$_List_const_iterator@V?$_List_val@U?$_List_simple_types@PAVRaven_Bot@@@std@@@std@@@std@@QAE@XZ
_TEXT	SEGMENT
_this$ = -4						; size = 4
??1?$_List_const_iterator@V?$_List_val@U?$_List_simple_types@PAVRaven_Bot@@@std@@@std@@@std@@QAE@XZ PROC ; std::_List_const_iterator<std::_List_val<std::_List_simple_types<Raven_Bot *> > >::~_List_const_iterator<std::_List_val<std::_List_simple_types<Raven_Bot *> > >, COMDAT
; _this$ = ecx
	push	ebp
	mov	ebp, esp
	push	ecx
	mov	DWORD PTR [ebp-4], -858993460		; ccccccccH
	mov	DWORD PTR _this$[ebp], ecx
	mov	ecx, DWORD PTR _this$[ebp]
	call	??1?$_List_unchecked_const_iterator@V?$_List_val@U?$_List_simple_types@PAVRaven_Bot@@@std@@@std@@U_Iterator_base12@2@@std@@QAE@XZ
	add	esp, 4
	cmp	ebp, esp
	call	__RTC_CheckEsp
	mov	esp, ebp
	pop	ebp
	ret	0
??1?$_List_const_iterator@V?$_List_val@U?$_List_simple_types@PAVRaven_Bot@@@std@@@std@@@std@@QAE@XZ ENDP ; std::_List_const_iterator<std::_List_val<std::_List_simple_types<Raven_Bot *> > >::~_List_const_iterator<std::_List_val<std::_List_simple_types<Raven_Bot *> > >
_TEXT	ENDS
; Function compile flags: /Odtp /RTCsu
; File d:\microsoft visual studio 14.0\vc\include\list
;	COMDAT ??9?$_List_const_iterator@V?$_List_val@U?$_List_simple_types@PAVRaven_Bot@@@std@@@std@@@std@@QBE_NABV01@@Z
_TEXT	SEGMENT
tv69 = -8						; size = 4
_this$ = -4						; size = 4
__Right$ = 8						; size = 4
??9?$_List_const_iterator@V?$_List_val@U?$_List_simple_types@PAVRaven_Bot@@@std@@@std@@@std@@QBE_NABV01@@Z PROC ; std::_List_const_iterator<std::_List_val<std::_List_simple_types<Raven_Bot *> > >::operator!=, COMDAT
; _this$ = ecx

; 300  : 		{	// test for iterator inequality

	push	ebp
	mov	ebp, esp
	sub	esp, 8
	mov	DWORD PTR [ebp-8], -858993460		; ccccccccH
	mov	DWORD PTR [ebp-4], -858993460		; ccccccccH
	mov	DWORD PTR _this$[ebp], ecx

; 301  : 		return (!(*this == _Right));

	mov	eax, DWORD PTR __Right$[ebp]
	push	eax
	mov	ecx, DWORD PTR _this$[ebp]
	call	??8?$_List_const_iterator@V?$_List_val@U?$_List_simple_types@PAVRaven_Bot@@@std@@@std@@@std@@QBE_NABV01@@Z ; std::_List_const_iterator<std::_List_val<std::_List_simple_types<Raven_Bot *> > >::operator==
	movzx	ecx, al
	test	ecx, ecx
	jne	SHORT $LN3@operator
	mov	DWORD PTR tv69[ebp], 1
	jmp	SHORT $LN4@operator
$LN3@operator:
	mov	DWORD PTR tv69[ebp], 0
$LN4@operator:
	mov	al, BYTE PTR tv69[ebp]

; 302  : 		}

	add	esp, 8
	cmp	ebp, esp
	call	__RTC_CheckEsp
	mov	esp, ebp
	pop	ebp
	ret	4
??9?$_List_const_iterator@V?$_List_val@U?$_List_simple_types@PAVRaven_Bot@@@std@@@std@@@std@@QBE_NABV01@@Z ENDP ; std::_List_const_iterator<std::_List_val<std::_List_simple_types<Raven_Bot *> > >::operator!=
_TEXT	ENDS
; Function compile flags: /Odtp /RTCsu
; File d:\microsoft visual studio 14.0\vc\include\list
;	COMDAT ??8?$_List_const_iterator@V?$_List_val@U?$_List_simple_types@PAVRaven_Bot@@@std@@@std@@@std@@QBE_NABV01@@Z
_TEXT	SEGMENT
tv139 = -8						; size = 4
_this$ = -4						; size = 4
__Right$ = 8						; size = 4
??8?$_List_const_iterator@V?$_List_val@U?$_List_simple_types@PAVRaven_Bot@@@std@@@std@@@std@@QBE_NABV01@@Z PROC ; std::_List_const_iterator<std::_List_val<std::_List_simple_types<Raven_Bot *> > >::operator==, COMDAT
; _this$ = ecx

; 284  : 		{	// test for iterator equality

	push	ebp
	mov	ebp, esp
	sub	esp, 8
	push	esi
	mov	DWORD PTR [ebp-8], -858993460		; ccccccccH
	mov	DWORD PTR [ebp-4], -858993460		; ccccccccH
	mov	DWORD PTR _this$[ebp], ecx

; 285  :  #if _ITERATOR_DEBUG_LEVEL == 2
; 286  : 		if (this->_Getcont() != _Right._Getcont())

	mov	ecx, DWORD PTR _this$[ebp]
	call	?_Getcont@_Iterator_base12@std@@QBEPBU_Container_base12@2@XZ ; std::_Iterator_base12::_Getcont
	mov	esi, eax
	mov	ecx, DWORD PTR __Right$[ebp]
	call	?_Getcont@_Iterator_base12@std@@QBEPBU_Container_base12@2@XZ ; std::_Iterator_base12::_Getcont
	cmp	esi, eax
	je	SHORT $LN2@operator

; 287  : 			{	// report error
; 288  : 			_DEBUG_ERROR("list iterators incompatible");

	push	288					; 00000120H
	push	OFFSET ??_C@_1GA@IINJPBGE@?$AAD?$AA?3?$AA?2?$AAM?$AAi?$AAc?$AAr?$AAo?$AAs?$AAo?$AAf?$AAt?$AA?5?$AAV?$AAi?$AAs?$AAu?$AAa?$AAl?$AA?5?$AAS?$AAt?$AAu?$AAd?$AAi?$AAo?$AA?5?$AA1?$AA4?$AA?4?$AA0?$AA?2@
	push	OFFSET ??_C@_1DI@MDELDGPI@?$AAl?$AAi?$AAs?$AAt?$AA?5?$AAi?$AAt?$AAe?$AAr?$AAa?$AAt?$AAo?$AAr?$AAs?$AA?5?$AAi?$AAn?$AAc?$AAo?$AAm?$AAp?$AAa?$AAt?$AAi?$AAb?$AAl?$AAe?$AA?$AA@
	call	?_Debug_message@std@@YAXPB_W0I@Z	; std::_Debug_message
	add	esp, 12					; 0000000cH

; 289  : 			_SCL_SECURE_INVALID_ARGUMENT;

	mov	eax, OFFSET ??_C@_0CI@FNPHFCCM@Standard?5C?$CL?$CL?5Libraries?5Invalid?5A@
	test	eax, eax
	je	SHORT $LN4@operator
	xor	ecx, ecx
	jne	SHORT $LN5@operator
$LN4@operator:
	push	OFFSET ??_C@_1FO@GJIHNDLM@?$AA?$CC?$AAS?$AAt?$AAa?$AAn?$AAd?$AAa?$AAr?$AAd?$AA?5?$AAC?$AA?$CL?$AA?$CL?$AA?5?$AAL?$AAi?$AAb?$AAr?$AAa?$AAr?$AAi?$AAe?$AAs?$AA?5?$AAI?$AAn?$AAv?$AAa?$AAl?$AAi?$AAd?$AA?5@
	push	OFFSET ??_C@_17CNPHIMPH@?$AA?$CF?$AAl?$AAs?$AA?$AA@
	push	0
	push	289					; 00000121H
	push	OFFSET ??_C@_1GA@IINJPBGE@?$AAD?$AA?3?$AA?2?$AAM?$AAi?$AAc?$AAr?$AAo?$AAs?$AAo?$AAf?$AAt?$AA?5?$AAV?$AAi?$AAs?$AAu?$AAa?$AAl?$AA?5?$AAS?$AAt?$AAu?$AAd?$AAi?$AAo?$AA?5?$AA1?$AA4?$AA?4?$AA0?$AA?2@
	push	2
	call	__CrtDbgReportW
	add	esp, 24					; 00000018H
	cmp	eax, 1
	jne	SHORT $LN5@operator
	int	3
$LN5@operator:
	push	0
	push	289					; 00000121H
	push	OFFSET ??_C@_1GA@IINJPBGE@?$AAD?$AA?3?$AA?2?$AAM?$AAi?$AAc?$AAr?$AAo?$AAs?$AAo?$AAf?$AAt?$AA?5?$AAV?$AAi?$AAs?$AAu?$AAa?$AAl?$AA?5?$AAS?$AAt?$AAu?$AAd?$AAi?$AAo?$AA?5?$AA1?$AA4?$AA?4?$AA0?$AA?2@
	push	OFFSET ??_C@_1OE@HJIALJKP@?$AAs?$AAt?$AAd?$AA?3?$AA?3?$AA_?$AAL?$AAi?$AAs?$AAt?$AA_?$AAc?$AAo?$AAn?$AAs?$AAt?$AA_?$AAi?$AAt?$AAe?$AAr?$AAa?$AAt?$AAo?$AAr?$AA?$DM?$AAc?$AAl?$AAa?$AAs?$AAs?$AA?5@
	push	OFFSET ??_C@_1CG@JNLFBNGN@?$AA?$CC?$AAi?$AAn?$AAv?$AAa?$AAl?$AAi?$AAd?$AA?5?$AAa?$AAr?$AAg?$AAu?$AAm?$AAe?$AAn?$AAt?$AA?$CC?$AA?$AA@
	call	__invalid_parameter
	add	esp, 20					; 00000014H
$LN2@operator:

; 290  : 			}
; 291  : 
; 292  :  #elif _ITERATOR_DEBUG_LEVEL == 1
; 293  : 		_SCL_SECURE_VALIDATE(this->_Getcont() == _Right._Getcont());
; 294  :  #endif /* _ITERATOR_DEBUG_LEVEL */
; 295  : 
; 296  : 		return (this->_Ptr == _Right._Ptr);

	mov	eax, DWORD PTR _this$[ebp]
	mov	ecx, DWORD PTR __Right$[ebp]
	mov	edx, DWORD PTR [eax+8]
	cmp	edx, DWORD PTR [ecx+8]
	jne	SHORT $LN6@operator
	mov	DWORD PTR tv139[ebp], 1
	jmp	SHORT $LN7@operator
$LN6@operator:
	mov	DWORD PTR tv139[ebp], 0
$LN7@operator:
	mov	al, BYTE PTR tv139[ebp]

; 297  : 		}

	pop	esi
	add	esp, 8
	cmp	ebp, esp
	call	__RTC_CheckEsp
	mov	esp, ebp
	pop	ebp
	ret	4
??8?$_List_const_iterator@V?$_List_val@U?$_List_simple_types@PAVRaven_Bot@@@std@@@std@@@std@@QBE_NABV01@@Z ENDP ; std::_List_const_iterator<std::_List_val<std::_List_simple_types<Raven_Bot *> > >::operator==
_TEXT	ENDS
; Function compile flags: /Odtp /RTCsu
; File d:\microsoft visual studio 14.0\vc\include\list
;	COMDAT ??E?$_List_const_iterator@V?$_List_val@U?$_List_simple_types@PAVRaven_Bot@@@std@@@std@@@std@@QAEAAV01@XZ
_TEXT	SEGMENT
_this$ = -4						; size = 4
??E?$_List_const_iterator@V?$_List_val@U?$_List_simple_types@PAVRaven_Bot@@@std@@@std@@@std@@QAEAAV01@XZ PROC ; std::_List_const_iterator<std::_List_val<std::_List_simple_types<Raven_Bot *> > >::operator++, COMDAT
; _this$ = ecx

; 224  : 		{	// preincrement

	push	ebp
	mov	ebp, esp
	push	ecx
	mov	DWORD PTR [ebp-4], -858993460		; ccccccccH
	mov	DWORD PTR _this$[ebp], ecx

; 225  :  #if _ITERATOR_DEBUG_LEVEL == 2
; 226  : 		if (this->_Getcont() == 0
; 227  : 			|| this->_Ptr == 0
; 228  : 			|| this->_Ptr == ((_Mylist *)this->_Getcont())->_Myhead)

	mov	ecx, DWORD PTR _this$[ebp]
	call	?_Getcont@_Iterator_base12@std@@QBEPBU_Container_base12@2@XZ ; std::_Iterator_base12::_Getcont
	test	eax, eax
	je	SHORT $LN3@operator
	mov	eax, DWORD PTR _this$[ebp]
	cmp	DWORD PTR [eax+8], 0
	je	SHORT $LN3@operator
	mov	ecx, DWORD PTR _this$[ebp]
	call	?_Getcont@_Iterator_base12@std@@QBEPBU_Container_base12@2@XZ ; std::_Iterator_base12::_Getcont
	mov	ecx, DWORD PTR _this$[ebp]
	mov	edx, DWORD PTR [ecx+8]
	cmp	edx, DWORD PTR [eax+4]
	jne	SHORT $LN2@operator
$LN3@operator:

; 229  : 			{	// report error
; 230  : 			_DEBUG_ERROR("list iterator not incrementable");

	push	230					; 000000e6H
	push	OFFSET ??_C@_1GA@IINJPBGE@?$AAD?$AA?3?$AA?2?$AAM?$AAi?$AAc?$AAr?$AAo?$AAs?$AAo?$AAf?$AAt?$AA?5?$AAV?$AAi?$AAs?$AAu?$AAa?$AAl?$AA?5?$AAS?$AAt?$AAu?$AAd?$AAi?$AAo?$AA?5?$AA1?$AA4?$AA?4?$AA0?$AA?2@
	push	OFFSET ??_C@_1EA@DOGAGKDH@?$AAl?$AAi?$AAs?$AAt?$AA?5?$AAi?$AAt?$AAe?$AAr?$AAa?$AAt?$AAo?$AAr?$AA?5?$AAn?$AAo?$AAt?$AA?5?$AAi?$AAn?$AAc?$AAr?$AAe?$AAm?$AAe?$AAn?$AAt?$AAa?$AAb?$AAl?$AAe?$AA?$AA@
	call	?_Debug_message@std@@YAXPB_W0I@Z	; std::_Debug_message
	add	esp, 12					; 0000000cH

; 231  : 			_SCL_SECURE_OUT_OF_RANGE;

	mov	eax, OFFSET ??_C@_0CE@OFMIGAMM@Standard?5C?$CL?$CL?5Libraries?5Out?5of?5Ra@
	test	eax, eax
	je	SHORT $LN5@operator
	xor	ecx, ecx
	jne	SHORT $LN6@operator
$LN5@operator:
	push	OFFSET ??_C@_1FG@IBPIFFN@?$AA?$CC?$AAS?$AAt?$AAa?$AAn?$AAd?$AAa?$AAr?$AAd?$AA?5?$AAC?$AA?$CL?$AA?$CL?$AA?5?$AAL?$AAi?$AAb?$AAr?$AAa?$AAr?$AAi?$AAe?$AAs?$AA?5?$AAO?$AAu?$AAt?$AA?5?$AAo?$AAf?$AA?5?$AAR@
	push	OFFSET ??_C@_17CNPHIMPH@?$AA?$CF?$AAl?$AAs?$AA?$AA@
	push	0
	push	231					; 000000e7H
	push	OFFSET ??_C@_1GA@IINJPBGE@?$AAD?$AA?3?$AA?2?$AAM?$AAi?$AAc?$AAr?$AAo?$AAs?$AAo?$AAf?$AAt?$AA?5?$AAV?$AAi?$AAs?$AAu?$AAa?$AAl?$AA?5?$AAS?$AAt?$AAu?$AAd?$AAi?$AAo?$AA?5?$AA1?$AA4?$AA?4?$AA0?$AA?2@
	push	2
	call	__CrtDbgReportW
	add	esp, 24					; 00000018H
	cmp	eax, 1
	jne	SHORT $LN6@operator
	int	3
$LN6@operator:
	push	0
	push	231					; 000000e7H
	push	OFFSET ??_C@_1GA@IINJPBGE@?$AAD?$AA?3?$AA?2?$AAM?$AAi?$AAc?$AAr?$AAo?$AAs?$AAo?$AAf?$AAt?$AA?5?$AAV?$AAi?$AAs?$AAu?$AAa?$AAl?$AA?5?$AAS?$AAt?$AAu?$AAd?$AAi?$AAo?$AA?5?$AA1?$AA4?$AA?4?$AA0?$AA?2@
	push	OFFSET ??_C@_1OE@NJHNFAGK@?$AAs?$AAt?$AAd?$AA?3?$AA?3?$AA_?$AAL?$AAi?$AAs?$AAt?$AA_?$AAc?$AAo?$AAn?$AAs?$AAt?$AA_?$AAi?$AAt?$AAe?$AAr?$AAa?$AAt?$AAo?$AAr?$AA?$DM?$AAc?$AAl?$AAa?$AAs?$AAs?$AA?5@
	push	OFFSET ??_C@_1BO@MEPPHOO@?$AA?$CC?$AAo?$AAu?$AAt?$AA?5?$AAo?$AAf?$AA?5?$AAr?$AAa?$AAn?$AAg?$AAe?$AA?$CC?$AA?$AA@
	call	__invalid_parameter
	add	esp, 20					; 00000014H
$LN2@operator:

; 232  : 			}
; 233  : 
; 234  :  #elif _ITERATOR_DEBUG_LEVEL == 1
; 235  : 		_SCL_SECURE_VALIDATE(this->_Getcont() != 0 && this->_Ptr != 0);
; 236  : 		_SCL_SECURE_VALIDATE_RANGE(this->_Ptr !=
; 237  : 			((_Mylist *)this->_Getcont())->_Myhead);
; 238  :  #endif /* _ITERATOR_DEBUG_LEVEL */
; 239  : 
; 240  : 		this->_Ptr = _Mylist::_Nextnode(this->_Ptr);

	mov	eax, DWORD PTR _this$[ebp]
	mov	ecx, DWORD PTR [eax+8]
	push	ecx
	call	?_Nextnode@?$_List_val@U?$_List_simple_types@PAVRaven_Bot@@@std@@@std@@SAAAPAU?$_List_node@PAVRaven_Bot@@PAX@2@PAU32@@Z ; std::_List_val<std::_List_simple_types<Raven_Bot *> >::_Nextnode
	add	esp, 4
	mov	edx, DWORD PTR _this$[ebp]
	mov	eax, DWORD PTR [eax]
	mov	DWORD PTR [edx+8], eax

; 241  : 		return (*this);

	mov	eax, DWORD PTR _this$[ebp]

; 242  : 		}

	add	esp, 4
	cmp	ebp, esp
	call	__RTC_CheckEsp
	mov	esp, ebp
	pop	ebp
	ret	0
??E?$_List_const_iterator@V?$_List_val@U?$_List_simple_types@PAVRaven_Bot@@@std@@@std@@@std@@QAEAAV01@XZ ENDP ; std::_List_const_iterator<std::_List_val<std::_List_simple_types<Raven_Bot *> > >::operator++
_TEXT	ENDS
; Function compile flags: /Odtp /RTCsu
; File d:\microsoft visual studio 14.0\vc\include\list
;	COMDAT ??D?$_List_const_iterator@V?$_List_val@U?$_List_simple_types@PAVRaven_Bot@@@std@@@std@@@std@@QBEABQAVRaven_Bot@@XZ
_TEXT	SEGMENT
_this$ = -4						; size = 4
??D?$_List_const_iterator@V?$_List_val@U?$_List_simple_types@PAVRaven_Bot@@@std@@@std@@@std@@QBEABQAVRaven_Bot@@XZ PROC ; std::_List_const_iterator<std::_List_val<std::_List_simple_types<Raven_Bot *> > >::operator*, COMDAT
; _this$ = ecx

; 204  : 		{	// return designated value

	push	ebp
	mov	ebp, esp
	push	ecx
	mov	DWORD PTR [ebp-4], -858993460		; ccccccccH
	mov	DWORD PTR _this$[ebp], ecx

; 205  :  #if _ITERATOR_DEBUG_LEVEL == 2
; 206  : 		if (this->_Getcont() == 0
; 207  : 			|| this->_Ptr == 0
; 208  : 			|| this->_Ptr == ((_Mylist *)this->_Getcont())->_Myhead)

	mov	ecx, DWORD PTR _this$[ebp]
	call	?_Getcont@_Iterator_base12@std@@QBEPBU_Container_base12@2@XZ ; std::_Iterator_base12::_Getcont
	test	eax, eax
	je	SHORT $LN3@operator
	mov	eax, DWORD PTR _this$[ebp]
	cmp	DWORD PTR [eax+8], 0
	je	SHORT $LN3@operator
	mov	ecx, DWORD PTR _this$[ebp]
	call	?_Getcont@_Iterator_base12@std@@QBEPBU_Container_base12@2@XZ ; std::_Iterator_base12::_Getcont
	mov	ecx, DWORD PTR _this$[ebp]
	mov	edx, DWORD PTR [ecx+8]
	cmp	edx, DWORD PTR [eax+4]
	jne	SHORT $LN2@operator
$LN3@operator:

; 209  : 			{	// report error
; 210  : 			_DEBUG_ERROR("list iterator not dereferencable");

	push	210					; 000000d2H
	push	OFFSET ??_C@_1GA@IINJPBGE@?$AAD?$AA?3?$AA?2?$AAM?$AAi?$AAc?$AAr?$AAo?$AAs?$AAo?$AAf?$AAt?$AA?5?$AAV?$AAi?$AAs?$AAu?$AAa?$AAl?$AA?5?$AAS?$AAt?$AAu?$AAd?$AAi?$AAo?$AA?5?$AA1?$AA4?$AA?4?$AA0?$AA?2@
	push	OFFSET ??_C@_1EC@HILJLMMC@?$AAl?$AAi?$AAs?$AAt?$AA?5?$AAi?$AAt?$AAe?$AAr?$AAa?$AAt?$AAo?$AAr?$AA?5?$AAn?$AAo?$AAt?$AA?5?$AAd?$AAe?$AAr?$AAe?$AAf?$AAe?$AAr?$AAe?$AAn?$AAc?$AAa?$AAb?$AAl?$AAe@
	call	?_Debug_message@std@@YAXPB_W0I@Z	; std::_Debug_message
	add	esp, 12					; 0000000cH

; 211  : 			_SCL_SECURE_OUT_OF_RANGE;

	mov	eax, OFFSET ??_C@_0CE@OFMIGAMM@Standard?5C?$CL?$CL?5Libraries?5Out?5of?5Ra@
	test	eax, eax
	je	SHORT $LN5@operator
	xor	ecx, ecx
	jne	SHORT $LN6@operator
$LN5@operator:
	push	OFFSET ??_C@_1FG@IBPIFFN@?$AA?$CC?$AAS?$AAt?$AAa?$AAn?$AAd?$AAa?$AAr?$AAd?$AA?5?$AAC?$AA?$CL?$AA?$CL?$AA?5?$AAL?$AAi?$AAb?$AAr?$AAa?$AAr?$AAi?$AAe?$AAs?$AA?5?$AAO?$AAu?$AAt?$AA?5?$AAo?$AAf?$AA?5?$AAR@
	push	OFFSET ??_C@_17CNPHIMPH@?$AA?$CF?$AAl?$AAs?$AA?$AA@
	push	0
	push	211					; 000000d3H
	push	OFFSET ??_C@_1GA@IINJPBGE@?$AAD?$AA?3?$AA?2?$AAM?$AAi?$AAc?$AAr?$AAo?$AAs?$AAo?$AAf?$AAt?$AA?5?$AAV?$AAi?$AAs?$AAu?$AAa?$AAl?$AA?5?$AAS?$AAt?$AAu?$AAd?$AAi?$AAo?$AA?5?$AA1?$AA4?$AA?4?$AA0?$AA?2@
	push	2
	call	__CrtDbgReportW
	add	esp, 24					; 00000018H
	cmp	eax, 1
	jne	SHORT $LN6@operator
	int	3
$LN6@operator:
	push	0
	push	211					; 000000d3H
	push	OFFSET ??_C@_1GA@IINJPBGE@?$AAD?$AA?3?$AA?2?$AAM?$AAi?$AAc?$AAr?$AAo?$AAs?$AAo?$AAf?$AAt?$AA?5?$AAV?$AAi?$AAs?$AAu?$AAa?$AAl?$AA?5?$AAS?$AAt?$AAu?$AAd?$AAi?$AAo?$AA?5?$AA1?$AA4?$AA?4?$AA0?$AA?2@
	push	OFFSET ??_C@_1OC@BFEHCKCD@?$AAs?$AAt?$AAd?$AA?3?$AA?3?$AA_?$AAL?$AAi?$AAs?$AAt?$AA_?$AAc?$AAo?$AAn?$AAs?$AAt?$AA_?$AAi?$AAt?$AAe?$AAr?$AAa?$AAt?$AAo?$AAr?$AA?$DM?$AAc?$AAl?$AAa?$AAs?$AAs?$AA?5@
	push	OFFSET ??_C@_1BO@MEPPHOO@?$AA?$CC?$AAo?$AAu?$AAt?$AA?5?$AAo?$AAf?$AA?5?$AAr?$AAa?$AAn?$AAg?$AAe?$AA?$CC?$AA?$AA@
	call	__invalid_parameter
	add	esp, 20					; 00000014H
$LN2@operator:

; 212  : 			}
; 213  : 
; 214  :  #elif _ITERATOR_DEBUG_LEVEL == 1
; 215  : 		_SCL_SECURE_VALIDATE(this->_Getcont() != 0 && this->_Ptr != 0);
; 216  : 		_SCL_SECURE_VALIDATE_RANGE(this->_Ptr !=
; 217  : 			((_Mylist *)this->_Getcont())->_Myhead);
; 218  :  #endif /* _ITERATOR_DEBUG_LEVEL */
; 219  : 
; 220  : 		return (_Mylist::_Myval(this->_Ptr));

	mov	eax, DWORD PTR _this$[ebp]
	mov	ecx, DWORD PTR [eax+8]
	push	ecx
	call	?_Myval@?$_List_val@U?$_List_simple_types@PAVRaven_Bot@@@std@@@std@@SAAAPAVRaven_Bot@@PAU?$_List_node@PAVRaven_Bot@@PAX@2@@Z ; std::_List_val<std::_List_simple_types<Raven_Bot *> >::_Myval
	add	esp, 4

; 221  : 		}

	add	esp, 4
	cmp	ebp, esp
	call	__RTC_CheckEsp
	mov	esp, ebp
	pop	ebp
	ret	0
??D?$_List_const_iterator@V?$_List_val@U?$_List_simple_types@PAVRaven_Bot@@@std@@@std@@@std@@QBEABQAVRaven_Bot@@XZ ENDP ; std::_List_const_iterator<std::_List_val<std::_List_simple_types<Raven_Bot *> > >::operator*
_TEXT	ENDS
; Function compile flags: /Odtp /RTCsu
; File d:\microsoft visual studio 14.0\vc\include\list
;	COMDAT ??0?$_List_const_iterator@V?$_List_val@U?$_List_simple_types@PAVRaven_Bot@@@std@@@std@@@std@@QAE@PAU?$_List_node@PAVRaven_Bot@@PAX@1@PBV?$_List_val@U?$_List_simple_types@PAVRaven_Bot@@@std@@@1@@Z
_TEXT	SEGMENT
_this$ = -4						; size = 4
__Pnode$ = 8						; size = 4
__Plist$ = 12						; size = 4
??0?$_List_const_iterator@V?$_List_val@U?$_List_simple_types@PAVRaven_Bot@@@std@@@std@@@std@@QAE@PAU?$_List_node@PAVRaven_Bot@@PAX@1@PBV?$_List_val@U?$_List_simple_types@PAVRaven_Bot@@@std@@@1@@Z PROC ; std::_List_const_iterator<std::_List_val<std::_List_simple_types<Raven_Bot *> > >::_List_const_iterator<std::_List_val<std::_List_simple_types<Raven_Bot *> > >, COMDAT
; _this$ = ecx

; 187  : 		{	// construct with node pointer _Pnode

	push	ebp
	mov	ebp, esp
	push	ecx
	mov	DWORD PTR [ebp-4], -858993460		; ccccccccH
	mov	DWORD PTR _this$[ebp], ecx

; 186  : 		: _Mybase(_Pnode, _Plist)

	mov	eax, DWORD PTR __Plist$[ebp]
	push	eax
	mov	ecx, DWORD PTR __Pnode$[ebp]
	push	ecx
	mov	ecx, DWORD PTR _this$[ebp]
	call	??0?$_List_unchecked_const_iterator@V?$_List_val@U?$_List_simple_types@PAVRaven_Bot@@@std@@@std@@U_Iterator_base12@2@@std@@QAE@PAU?$_List_node@PAVRaven_Bot@@PAX@1@PBV?$_List_val@U?$_List_simple_types@PAVRaven_Bot@@@std@@@1@@Z ; std::_List_unchecked_const_iterator<std::_List_val<std::_List_simple_types<Raven_Bot *> >,std::_Iterator_base12>::_List_unchecked_const_iterator<std::_List_val<std::_List_simple_types<Raven_Bot *> >,std::_Iterator_base12>

; 188  : 		}

	mov	eax, DWORD PTR _this$[ebp]
	add	esp, 4
	cmp	ebp, esp
	call	__RTC_CheckEsp
	mov	esp, ebp
	pop	ebp
	ret	8
??0?$_List_const_iterator@V?$_List_val@U?$_List_simple_types@PAVRaven_Bot@@@std@@@std@@@std@@QAE@PAU?$_List_node@PAVRaven_Bot@@PAX@1@PBV?$_List_val@U?$_List_simple_types@PAVRaven_Bot@@@std@@@1@@Z ENDP ; std::_List_const_iterator<std::_List_val<std::_List_simple_types<Raven_Bot *> > >::_List_const_iterator<std::_List_val<std::_List_simple_types<Raven_Bot *> > >
_TEXT	ENDS
; Function compile flags: /Odtp /RTCsu
; File d:\microsoft visual studio 14.0\vc\include\list
;	COMDAT ??0?$_List_const_iterator@V?$_List_val@U?$_List_simple_types@PAVRaven_Bot@@@std@@@std@@@std@@QAE@XZ
_TEXT	SEGMENT
_this$ = -4						; size = 4
??0?$_List_const_iterator@V?$_List_val@U?$_List_simple_types@PAVRaven_Bot@@@std@@@std@@@std@@QAE@XZ PROC ; std::_List_const_iterator<std::_List_val<std::_List_simple_types<Raven_Bot *> > >::_List_const_iterator<std::_List_val<std::_List_simple_types<Raven_Bot *> > >, COMDAT
; _this$ = ecx

; 182  : 		{	// construct with null node pointer

	push	ebp
	mov	ebp, esp
	push	ecx
	mov	DWORD PTR [ebp-4], -858993460		; ccccccccH
	mov	DWORD PTR _this$[ebp], ecx

; 181  : 		: _Mybase()

	mov	ecx, DWORD PTR _this$[ebp]
	call	??0?$_List_unchecked_const_iterator@V?$_List_val@U?$_List_simple_types@PAVRaven_Bot@@@std@@@std@@U_Iterator_base12@2@@std@@QAE@XZ ; std::_List_unchecked_const_iterator<std::_List_val<std::_List_simple_types<Raven_Bot *> >,std::_Iterator_base12>::_List_unchecked_const_iterator<std::_List_val<std::_List_simple_types<Raven_Bot *> >,std::_Iterator_base12>

; 183  : 		}

	mov	eax, DWORD PTR _this$[ebp]
	add	esp, 4
	cmp	ebp, esp
	call	__RTC_CheckEsp
	mov	esp, ebp
	pop	ebp
	ret	0
??0?$_List_const_iterator@V?$_List_val@U?$_List_simple_types@PAVRaven_Bot@@@std@@@std@@@std@@QAE@XZ ENDP ; std::_List_const_iterator<std::_List_val<std::_List_simple_types<Raven_Bot *> > >::_List_const_iterator<std::_List_val<std::_List_simple_types<Raven_Bot *> > >
_TEXT	ENDS
; Function compile flags: /Odtp /RTCsu
;	COMDAT ??4?$_List_unchecked_const_iterator@V?$_List_val@U?$_List_simple_types@PAVRaven_Bot@@@std@@@std@@U_Iterator_base12@2@@std@@QAEAAV01@$$QAV01@@Z
_TEXT	SEGMENT
_this$ = -4						; size = 4
___that$ = 8						; size = 4
??4?$_List_unchecked_const_iterator@V?$_List_val@U?$_List_simple_types@PAVRaven_Bot@@@std@@@std@@U_Iterator_base12@2@@std@@QAEAAV01@$$QAV01@@Z PROC ; std::_List_unchecked_const_iterator<std::_List_val<std::_List_simple_types<Raven_Bot *> >,std::_Iterator_base12>::operator=, COMDAT
; _this$ = ecx
	push	ebp
	mov	ebp, esp
	push	ecx
	mov	DWORD PTR [ebp-4], -858993460		; ccccccccH
	mov	DWORD PTR _this$[ebp], ecx
	mov	eax, DWORD PTR ___that$[ebp]
	push	eax
	mov	ecx, DWORD PTR _this$[ebp]
	call	??4?$_Iterator012@Ubidirectional_iterator_tag@std@@PAVRaven_Bot@@HPBQAV3@ABQAV3@U_Iterator_base12@2@@std@@QAEAAU01@$$QAU01@@Z
	mov	ecx, DWORD PTR _this$[ebp]
	mov	edx, DWORD PTR ___that$[ebp]
	mov	eax, DWORD PTR [edx+8]
	mov	DWORD PTR [ecx+8], eax
	mov	eax, DWORD PTR _this$[ebp]
	add	esp, 4
	cmp	ebp, esp
	call	__RTC_CheckEsp
	mov	esp, ebp
	pop	ebp
	ret	4
??4?$_List_unchecked_const_iterator@V?$_List_val@U?$_List_simple_types@PAVRaven_Bot@@@std@@@std@@U_Iterator_base12@2@@std@@QAEAAV01@$$QAV01@@Z ENDP ; std::_List_unchecked_const_iterator<std::_List_val<std::_List_simple_types<Raven_Bot *> >,std::_Iterator_base12>::operator=
_TEXT	ENDS
; Function compile flags: /Odtp /RTCsu
;	COMDAT ??1?$_List_unchecked_const_iterator@V?$_List_val@U?$_List_simple_types@PAVRaven_Bot@@@std@@@std@@U_Iterator_base12@2@@std@@QAE@XZ
_TEXT	SEGMENT
_this$ = -4						; size = 4
??1?$_List_unchecked_const_iterator@V?$_List_val@U?$_List_simple_types@PAVRaven_Bot@@@std@@@std@@U_Iterator_base12@2@@std@@QAE@XZ PROC ; std::_List_unchecked_const_iterator<std::_List_val<std::_List_simple_types<Raven_Bot *> >,std::_Iterator_base12>::~_List_unchecked_const_iterator<std::_List_val<std::_List_simple_types<Raven_Bot *> >,std::_Iterator_base12>, COMDAT
; _this$ = ecx
	push	ebp
	mov	ebp, esp
	push	ecx
	mov	DWORD PTR [ebp-4], -858993460		; ccccccccH
	mov	DWORD PTR _this$[ebp], ecx
	mov	ecx, DWORD PTR _this$[ebp]
	call	??1?$_Iterator012@Ubidirectional_iterator_tag@std@@PAVRaven_Bot@@HPBQAV3@ABQAV3@U_Iterator_base12@2@@std@@QAE@XZ
	add	esp, 4
	cmp	ebp, esp
	call	__RTC_CheckEsp
	mov	esp, ebp
	pop	ebp
	ret	0
??1?$_List_unchecked_const_iterator@V?$_List_val@U?$_List_simple_types@PAVRaven_Bot@@@std@@@std@@U_Iterator_base12@2@@std@@QAE@XZ ENDP ; std::_List_unchecked_const_iterator<std::_List_val<std::_List_simple_types<Raven_Bot *> >,std::_Iterator_base12>::~_List_unchecked_const_iterator<std::_List_val<std::_List_simple_types<Raven_Bot *> >,std::_Iterator_base12>
_TEXT	ENDS
; Function compile flags: /Odtp /RTCsu
; File d:\microsoft visual studio 14.0\vc\include\list
;	COMDAT ??0?$_List_unchecked_const_iterator@V?$_List_val@U?$_List_simple_types@PAVRaven_Bot@@@std@@@std@@U_Iterator_base12@2@@std@@QAE@PAU?$_List_node@PAVRaven_Bot@@PAX@1@PBV?$_List_val@U?$_List_simple_types@PAVRaven_Bot@@@std@@@1@@Z
_TEXT	SEGMENT
_this$ = -16						; size = 4
__$EHRec$ = -12						; size = 12
__Pnode$ = 8						; size = 4
__Plist$ = 12						; size = 4
??0?$_List_unchecked_const_iterator@V?$_List_val@U?$_List_simple_types@PAVRaven_Bot@@@std@@@std@@U_Iterator_base12@2@@std@@QAE@PAU?$_List_node@PAVRaven_Bot@@PAX@1@PBV?$_List_val@U?$_List_simple_types@PAVRaven_Bot@@@std@@@1@@Z PROC ; std::_List_unchecked_const_iterator<std::_List_val<std::_List_simple_types<Raven_Bot *> >,std::_Iterator_base12>::_List_unchecked_const_iterator<std::_List_val<std::_List_simple_types<Raven_Bot *> >,std::_Iterator_base12>, COMDAT
; _this$ = ecx

; 44   : 		{	// construct with node pointer _Pnode

	push	ebp
	mov	ebp, esp
	push	-1
	push	__ehhandler$??0?$_List_unchecked_const_iterator@V?$_List_val@U?$_List_simple_types@PAVRaven_Bot@@@std@@@std@@U_Iterator_base12@2@@std@@QAE@PAU?$_List_node@PAVRaven_Bot@@PAX@1@PBV?$_List_val@U?$_List_simple_types@PAVRaven_Bot@@@std@@@1@@Z
	mov	eax, DWORD PTR fs:0
	push	eax
	push	ecx
	mov	DWORD PTR [ebp-16], -858993460		; ccccccccH
	mov	eax, DWORD PTR ___security_cookie
	xor	eax, ebp
	push	eax
	lea	eax, DWORD PTR __$EHRec$[ebp]
	mov	DWORD PTR fs:0, eax
	mov	DWORD PTR _this$[ebp], ecx
	mov	ecx, DWORD PTR _this$[ebp]
	call	??0?$_Iterator012@Ubidirectional_iterator_tag@std@@PAVRaven_Bot@@HPBQAV3@ABQAV3@U_Iterator_base12@2@@std@@QAE@XZ
	mov	DWORD PTR __$EHRec$[ebp+8], 0

; 43   : 		: _Ptr(_Pnode)

	mov	eax, DWORD PTR _this$[ebp]
	mov	ecx, DWORD PTR __Pnode$[ebp]
	mov	DWORD PTR [eax+8], ecx

; 45   : 		this->_Adopt(_Plist);

	mov	edx, DWORD PTR __Plist$[ebp]
	push	edx
	mov	ecx, DWORD PTR _this$[ebp]
	call	?_Adopt@_Iterator_base12@std@@QAEXPBU_Container_base12@2@@Z ; std::_Iterator_base12::_Adopt

; 46   : 		}

	mov	DWORD PTR __$EHRec$[ebp+8], -1
	mov	eax, DWORD PTR _this$[ebp]
	mov	ecx, DWORD PTR __$EHRec$[ebp]
	mov	DWORD PTR fs:0, ecx
	pop	ecx
	add	esp, 16					; 00000010H
	cmp	ebp, esp
	call	__RTC_CheckEsp
	mov	esp, ebp
	pop	ebp
	ret	8
_TEXT	ENDS
;	COMDAT text$x
text$x	SEGMENT
__unwindfunclet$??0?$_List_unchecked_const_iterator@V?$_List_val@U?$_List_simple_types@PAVRaven_Bot@@@std@@@std@@U_Iterator_base12@2@@std@@QAE@PAU?$_List_node@PAVRaven_Bot@@PAX@1@PBV?$_List_val@U?$_List_simple_types@PAVRaven_Bot@@@std@@@1@@Z$0:
	mov	ecx, DWORD PTR _this$[ebp]
	jmp	??1?$_Iterator012@Ubidirectional_iterator_tag@std@@PAVRaven_Bot@@HPBQAV3@ABQAV3@U_Iterator_base12@2@@std@@QAE@XZ
__ehhandler$??0?$_List_unchecked_const_iterator@V?$_List_val@U?$_List_simple_types@PAVRaven_Bot@@@std@@@std@@U_Iterator_base12@2@@std@@QAE@PAU?$_List_node@PAVRaven_Bot@@PAX@1@PBV?$_List_val@U?$_List_simple_types@PAVRaven_Bot@@@std@@@1@@Z:
	mov	edx, DWORD PTR [esp+8]
	lea	eax, DWORD PTR [edx+12]
	mov	ecx, DWORD PTR [edx-8]
	xor	ecx, eax
	call	@__security_check_cookie@4
	mov	eax, OFFSET __ehfuncinfo$??0?$_List_unchecked_const_iterator@V?$_List_val@U?$_List_simple_types@PAVRaven_Bot@@@std@@@std@@U_Iterator_base12@2@@std@@QAE@PAU?$_List_node@PAVRaven_Bot@@PAX@1@PBV?$_List_val@U?$_List_simple_types@PAVRaven_Bot@@@std@@@1@@Z
	jmp	___CxxFrameHandler3
text$x	ENDS
??0?$_List_unchecked_const_iterator@V?$_List_val@U?$_List_simple_types@PAVRaven_Bot@@@std@@@std@@U_Iterator_base12@2@@std@@QAE@PAU?$_List_node@PAVRaven_Bot@@PAX@1@PBV?$_List_val@U?$_List_simple_types@PAVRaven_Bot@@@std@@@1@@Z ENDP ; std::_List_unchecked_const_iterator<std::_List_val<std::_List_simple_types<Raven_Bot *> >,std::_Iterator_base12>::_List_unchecked_const_iterator<std::_List_val<std::_List_simple_types<Raven_Bot *> >,std::_Iterator_base12>
; Function compile flags: /Odtp /RTCsu
; File d:\microsoft visual studio 14.0\vc\include\list
;	COMDAT ??0?$_List_unchecked_const_iterator@V?$_List_val@U?$_List_simple_types@PAVRaven_Bot@@@std@@@std@@U_Iterator_base12@2@@std@@QAE@XZ
_TEXT	SEGMENT
_this$ = -4						; size = 4
??0?$_List_unchecked_const_iterator@V?$_List_val@U?$_List_simple_types@PAVRaven_Bot@@@std@@@std@@U_Iterator_base12@2@@std@@QAE@XZ PROC ; std::_List_unchecked_const_iterator<std::_List_val<std::_List_simple_types<Raven_Bot *> >,std::_Iterator_base12>::_List_unchecked_const_iterator<std::_List_val<std::_List_simple_types<Raven_Bot *> >,std::_Iterator_base12>, COMDAT
; _this$ = ecx

; 39   : 		{	// construct with null node pointer

	push	ebp
	mov	ebp, esp
	push	ecx
	mov	DWORD PTR [ebp-4], -858993460		; ccccccccH
	mov	DWORD PTR _this$[ebp], ecx
	mov	ecx, DWORD PTR _this$[ebp]
	call	??0?$_Iterator012@Ubidirectional_iterator_tag@std@@PAVRaven_Bot@@HPBQAV3@ABQAV3@U_Iterator_base12@2@@std@@QAE@XZ

; 38   : 		: _Ptr(0)

	mov	eax, DWORD PTR _this$[ebp]
	mov	DWORD PTR [eax+8], 0

; 40   : 		}

	mov	eax, DWORD PTR _this$[ebp]
	add	esp, 4
	cmp	ebp, esp
	call	__RTC_CheckEsp
	mov	esp, ebp
	pop	ebp
	ret	0
??0?$_List_unchecked_const_iterator@V?$_List_val@U?$_List_simple_types@PAVRaven_Bot@@@std@@@std@@U_Iterator_base12@2@@std@@QAE@XZ ENDP ; std::_List_unchecked_const_iterator<std::_List_val<std::_List_simple_types<Raven_Bot *> >,std::_Iterator_base12>::_List_unchecked_const_iterator<std::_List_val<std::_List_simple_types<Raven_Bot *> >,std::_Iterator_base12>
_TEXT	ENDS
; Function compile flags: /Odtp /RTCsu
;	COMDAT ??4?$_Iterator012@Ubidirectional_iterator_tag@std@@PAVRaven_Bot@@HPBQAV3@ABQAV3@U_Iterator_base12@2@@std@@QAEAAU01@$$QAU01@@Z
_TEXT	SEGMENT
_this$ = -4						; size = 4
___that$ = 8						; size = 4
??4?$_Iterator012@Ubidirectional_iterator_tag@std@@PAVRaven_Bot@@HPBQAV3@ABQAV3@U_Iterator_base12@2@@std@@QAEAAU01@$$QAU01@@Z PROC ; std::_Iterator012<std::bidirectional_iterator_tag,Raven_Bot *,int,Raven_Bot * const *,Raven_Bot * const &,std::_Iterator_base12>::operator=, COMDAT
; _this$ = ecx
	push	ebp
	mov	ebp, esp
	push	ecx
	mov	DWORD PTR [ebp-4], -858993460		; ccccccccH
	mov	DWORD PTR _this$[ebp], ecx
	mov	eax, DWORD PTR ___that$[ebp]
	push	eax
	mov	ecx, DWORD PTR _this$[ebp]
	call	??4_Iterator_base12@std@@QAEAAU01@ABU01@@Z ; std::_Iterator_base12::operator=
	mov	eax, DWORD PTR _this$[ebp]
	add	esp, 4
	cmp	ebp, esp
	call	__RTC_CheckEsp
	mov	esp, ebp
	pop	ebp
	ret	4
??4?$_Iterator012@Ubidirectional_iterator_tag@std@@PAVRaven_Bot@@HPBQAV3@ABQAV3@U_Iterator_base12@2@@std@@QAEAAU01@$$QAU01@@Z ENDP ; std::_Iterator012<std::bidirectional_iterator_tag,Raven_Bot *,int,Raven_Bot * const *,Raven_Bot * const &,std::_Iterator_base12>::operator=
_TEXT	ENDS
; Function compile flags: /Odtp /RTCsu
;	COMDAT ??1?$_Iterator012@Ubidirectional_iterator_tag@std@@PAVRaven_Bot@@HPBQAV3@ABQAV3@U_Iterator_base12@2@@std@@QAE@XZ
_TEXT	SEGMENT
_this$ = -4						; size = 4
??1?$_Iterator012@Ubidirectional_iterator_tag@std@@PAVRaven_Bot@@HPBQAV3@ABQAV3@U_Iterator_base12@2@@std@@QAE@XZ PROC ; std::_Iterator012<std::bidirectional_iterator_tag,Raven_Bot *,int,Raven_Bot * const *,Raven_Bot * const &,std::_Iterator_base12>::~_Iterator012<std::bidirectional_iterator_tag,Raven_Bot *,int,Raven_Bot * const *,Raven_Bot * const &,std::_Iterator_base12>, COMDAT
; _this$ = ecx
	push	ebp
	mov	ebp, esp
	push	ecx
	mov	DWORD PTR [ebp-4], -858993460		; ccccccccH
	mov	DWORD PTR _this$[ebp], ecx
	mov	ecx, DWORD PTR _this$[ebp]
	call	??1_Iterator_base12@std@@QAE@XZ		; std::_Iterator_base12::~_Iterator_base12
	add	esp, 4
	cmp	ebp, esp
	call	__RTC_CheckEsp
	mov	esp, ebp
	pop	ebp
	ret	0
??1?$_Iterator012@Ubidirectional_iterator_tag@std@@PAVRaven_Bot@@HPBQAV3@ABQAV3@U_Iterator_base12@2@@std@@QAE@XZ ENDP ; std::_Iterator012<std::bidirectional_iterator_tag,Raven_Bot *,int,Raven_Bot * const *,Raven_Bot * const &,std::_Iterator_base12>::~_Iterator012<std::bidirectional_iterator_tag,Raven_Bot *,int,Raven_Bot * const *,Raven_Bot * const &,std::_Iterator_base12>
_TEXT	ENDS
; Function compile flags: /Odtp /RTCsu
;	COMDAT ??0?$_Iterator012@Ubidirectional_iterator_tag@std@@PAVRaven_Bot@@HPBQAV3@ABQAV3@U_Iterator_base12@2@@std@@QAE@XZ
_TEXT	SEGMENT
_this$ = -4						; size = 4
??0?$_Iterator012@Ubidirectional_iterator_tag@std@@PAVRaven_Bot@@HPBQAV3@ABQAV3@U_Iterator_base12@2@@std@@QAE@XZ PROC ; std::_Iterator012<std::bidirectional_iterator_tag,Raven_Bot *,int,Raven_Bot * const *,Raven_Bot * const &,std::_Iterator_base12>::_Iterator012<std::bidirectional_iterator_tag,Raven_Bot *,int,Raven_Bot * const *,Raven_Bot * const &,std::_Iterator_base12>, COMDAT
; _this$ = ecx
	push	ebp
	mov	ebp, esp
	push	ecx
	mov	DWORD PTR [ebp-4], -858993460		; ccccccccH
	mov	DWORD PTR _this$[ebp], ecx
	mov	ecx, DWORD PTR _this$[ebp]
	call	??0_Iterator_base12@std@@QAE@XZ		; std::_Iterator_base12::_Iterator_base12
	mov	eax, DWORD PTR _this$[ebp]
	add	esp, 4
	cmp	ebp, esp
	call	__RTC_CheckEsp
	mov	esp, ebp
	pop	ebp
	ret	0
??0?$_Iterator012@Ubidirectional_iterator_tag@std@@PAVRaven_Bot@@HPBQAV3@ABQAV3@U_Iterator_base12@2@@std@@QAE@XZ ENDP ; std::_Iterator012<std::bidirectional_iterator_tag,Raven_Bot *,int,Raven_Bot * const *,Raven_Bot * const &,std::_Iterator_base12>::_Iterator012<std::bidirectional_iterator_tag,Raven_Bot *,int,Raven_Bot * const *,Raven_Bot * const &,std::_Iterator_base12>
_TEXT	ENDS
; Function compile flags: /Odtp /RTCsu
; File d:\cours\uqac\intelligence artificielle - jeux vidéos\buckland_aisource\mini_projet_raven\raven_game.h
;	COMDAT ?GetAllBots@Raven_Game@@QBEABV?$list@PAVRaven_Bot@@V?$allocator@PAVRaven_Bot@@@std@@@std@@XZ
_TEXT	SEGMENT
_this$ = -4						; size = 4
?GetAllBots@Raven_Game@@QBEABV?$list@PAVRaven_Bot@@V?$allocator@PAVRaven_Bot@@@std@@@std@@XZ PROC ; Raven_Game::GetAllBots, COMDAT
; _this$ = ecx

; 159  :   const std::list<Raven_Bot*>&             GetAllBots()const{return m_Bots;}

	push	ebp
	mov	ebp, esp
	push	ecx
	mov	DWORD PTR [ebp-4], -858993460		; ccccccccH
	mov	DWORD PTR _this$[ebp], ecx
	mov	eax, DWORD PTR _this$[ebp]
	add	eax, 4
	mov	esp, ebp
	pop	ebp
	ret	0
?GetAllBots@Raven_Game@@QBEABV?$list@PAVRaven_Bot@@V?$allocator@PAVRaven_Bot@@@std@@@std@@XZ ENDP ; Raven_Game::GetAllBots
_TEXT	ENDS
; Function compile flags: /Odtp /RTCsu
; File d:\microsoft visual studio 14.0\vc\include\list
;	COMDAT ?_Orphan_ptr@?$list@PAVRaven_Bot@@V?$allocator@PAVRaven_Bot@@@std@@@std@@QAEXPAU?$_List_node@PAVRaven_Bot@@PAX@2@@Z
_TEXT	SEGMENT
__Pnext$ = -32						; size = 4
__Lock$ = -24						; size = 4
_this$ = -16						; size = 4
__$EHRec$ = -12						; size = 12
__Ptr$ = 8						; size = 4
?_Orphan_ptr@?$list@PAVRaven_Bot@@V?$allocator@PAVRaven_Bot@@@std@@@std@@QAEXPAU?$_List_node@PAVRaven_Bot@@PAX@2@@Z PROC ; std::list<Raven_Bot *,std::allocator<Raven_Bot *> >::_Orphan_ptr, COMDAT
; _this$ = ecx

; 1915 : 		{	// orphan iterators with specified node pointers

	push	ebp
	mov	ebp, esp
	push	-1
	push	__ehhandler$?_Orphan_ptr@?$list@PAVRaven_Bot@@V?$allocator@PAVRaven_Bot@@@std@@@std@@QAEXPAU?$_List_node@PAVRaven_Bot@@PAX@2@@Z
	mov	eax, DWORD PTR fs:0
	push	eax
	sub	esp, 20					; 00000014H
	push	esi
	mov	eax, -858993460				; ccccccccH
	mov	DWORD PTR [ebp-32], eax
	mov	DWORD PTR [ebp-28], eax
	mov	DWORD PTR [ebp-24], eax
	mov	DWORD PTR [ebp-20], eax
	mov	DWORD PTR [ebp-16], eax
	mov	eax, DWORD PTR ___security_cookie
	xor	eax, ebp
	push	eax
	lea	eax, DWORD PTR __$EHRec$[ebp]
	mov	DWORD PTR fs:0, eax
	mov	DWORD PTR _this$[ebp], ecx

; 1916 : 		_Lockit _Lock(_LOCK_DEBUG);

	push	3
	lea	ecx, DWORD PTR __Lock$[ebp]
	call	??0_Lockit@std@@QAE@H@Z			; std::_Lockit::_Lockit
	mov	DWORD PTR __$EHRec$[ebp+8], 0

; 1917 : 		const_iterator **_Pnext = (const_iterator **)this->_Getpfirst();

	mov	ecx, DWORD PTR _this$[ebp]
	call	?_Getpfirst@?$_List_alloc@U?$_List_base_types@PAVRaven_Bot@@V?$allocator@PAVRaven_Bot@@@std@@@std@@@std@@QBEPAPAU_Iterator_base12@2@XZ ; std::_List_alloc<std::_List_base_types<Raven_Bot *,std::allocator<Raven_Bot *> > >::_Getpfirst
	mov	DWORD PTR __Pnext$[ebp], eax

; 1918 : 		if (_Pnext != 0)

	cmp	DWORD PTR __Pnext$[ebp], 0
	je	SHORT $LN4@Orphan_ptr
$LN2@Orphan_ptr:

; 1919 : 			while (*_Pnext != 0)

	mov	eax, DWORD PTR __Pnext$[ebp]
	cmp	DWORD PTR [eax], 0
	je	SHORT $LN4@Orphan_ptr

; 1920 : 				{	// test an iterator
; 1921 : 				if ((*_Pnext)->_Ptr == this->_Myhead()
; 1922 : 					|| (_Ptr != 0 && (*_Pnext)->_Ptr != _Ptr))

	mov	ecx, DWORD PTR __Pnext$[ebp]
	mov	esi, DWORD PTR [ecx]
	mov	ecx, DWORD PTR _this$[ebp]
	call	?_Myhead@?$_List_alloc@U?$_List_base_types@PAVRaven_Bot@@V?$allocator@PAVRaven_Bot@@@std@@@std@@@std@@QAEAAPAU?$_List_node@PAVRaven_Bot@@PAX@2@XZ ; std::_List_alloc<std::_List_base_types<Raven_Bot *,std::allocator<Raven_Bot *> > >::_Myhead
	mov	edx, DWORD PTR [esi+8]
	cmp	edx, DWORD PTR [eax]
	je	SHORT $LN7@Orphan_ptr
	cmp	DWORD PTR __Ptr$[ebp], 0
	je	SHORT $LN5@Orphan_ptr
	mov	eax, DWORD PTR __Pnext$[ebp]
	mov	ecx, DWORD PTR [eax]
	mov	edx, DWORD PTR [ecx+8]
	cmp	edx, DWORD PTR __Ptr$[ebp]
	je	SHORT $LN5@Orphan_ptr
$LN7@Orphan_ptr:

; 1923 : 					_Pnext = (const_iterator **)(*_Pnext)->_Getpnext();

	mov	eax, DWORD PTR __Pnext$[ebp]
	mov	ecx, DWORD PTR [eax]
	call	?_Getpnext@_Iterator_base12@std@@QAEPAPAU12@XZ ; std::_Iterator_base12::_Getpnext
	mov	DWORD PTR __Pnext$[ebp], eax

; 1924 : 				else

	jmp	SHORT $LN6@Orphan_ptr
$LN5@Orphan_ptr:

; 1925 : 					{	// orphan the iterator
; 1926 : 					(*_Pnext)->_Clrcont();

	mov	ecx, DWORD PTR __Pnext$[ebp]
	mov	ecx, DWORD PTR [ecx]
	call	?_Clrcont@_Iterator_base12@std@@QAEXXZ	; std::_Iterator_base12::_Clrcont

; 1927 : 					*_Pnext = *(const_iterator **)(*_Pnext)->_Getpnext();

	mov	edx, DWORD PTR __Pnext$[ebp]
	mov	ecx, DWORD PTR [edx]
	call	?_Getpnext@_Iterator_base12@std@@QAEPAPAU12@XZ ; std::_Iterator_base12::_Getpnext
	mov	ecx, DWORD PTR __Pnext$[ebp]
	mov	edx, DWORD PTR [eax]
	mov	DWORD PTR [ecx], edx
$LN6@Orphan_ptr:

; 1928 : 					}
; 1929 : 				}

	jmp	SHORT $LN2@Orphan_ptr
$LN4@Orphan_ptr:

; 1930 : 		}

	mov	DWORD PTR __$EHRec$[ebp+8], -1
	lea	ecx, DWORD PTR __Lock$[ebp]
	call	??1_Lockit@std@@QAE@XZ			; std::_Lockit::~_Lockit
	push	edx
	mov	ecx, ebp
	push	eax
	lea	edx, DWORD PTR $LN13@Orphan_ptr
	call	@_RTC_CheckStackVars@8
	pop	eax
	pop	edx
	mov	ecx, DWORD PTR __$EHRec$[ebp]
	mov	DWORD PTR fs:0, ecx
	pop	ecx
	pop	esi
	add	esp, 32					; 00000020H
	cmp	ebp, esp
	call	__RTC_CheckEsp
	mov	esp, ebp
	pop	ebp
	ret	4
	npad	2
$LN13@Orphan_ptr:
	DD	1
	DD	$LN12@Orphan_ptr
$LN12@Orphan_ptr:
	DD	-24					; ffffffe8H
	DD	4
	DD	$LN10@Orphan_ptr
$LN10@Orphan_ptr:
	DB	95					; 0000005fH
	DB	76					; 0000004cH
	DB	111					; 0000006fH
	DB	99					; 00000063H
	DB	107					; 0000006bH
	DB	0
_TEXT	ENDS
;	COMDAT text$x
text$x	SEGMENT
__unwindfunclet$?_Orphan_ptr@?$list@PAVRaven_Bot@@V?$allocator@PAVRaven_Bot@@@std@@@std@@QAEXPAU?$_List_node@PAVRaven_Bot@@PAX@2@@Z$0:
	lea	ecx, DWORD PTR __Lock$[ebp]
	jmp	??1_Lockit@std@@QAE@XZ			; std::_Lockit::~_Lockit
__ehhandler$?_Orphan_ptr@?$list@PAVRaven_Bot@@V?$allocator@PAVRaven_Bot@@@std@@@std@@QAEXPAU?$_List_node@PAVRaven_Bot@@PAX@2@@Z:
	mov	edx, DWORD PTR [esp+8]
	lea	eax, DWORD PTR [edx+12]
	mov	ecx, DWORD PTR [edx-28]
	xor	ecx, eax
	call	@__security_check_cookie@4
	mov	eax, OFFSET __ehfuncinfo$?_Orphan_ptr@?$list@PAVRaven_Bot@@V?$allocator@PAVRaven_Bot@@@std@@@std@@QAEXPAU?$_List_node@PAVRaven_Bot@@PAX@2@@Z
	jmp	___CxxFrameHandler3
text$x	ENDS
?_Orphan_ptr@?$list@PAVRaven_Bot@@V?$allocator@PAVRaven_Bot@@@std@@@std@@QAEXPAU?$_List_node@PAVRaven_Bot@@PAX@2@@Z ENDP ; std::list<Raven_Bot *,std::allocator<Raven_Bot *> >::_Orphan_ptr
; Function compile flags: /Odtp /RTCsu
; File d:\microsoft visual studio 14.0\vc\include\list
;	COMDAT ?_Incsize@?$list@PAVRaven_Bot@@V?$allocator@PAVRaven_Bot@@@std@@@std@@QAEXI@Z
_TEXT	SEGMENT
tv82 = -8						; size = 4
_this$ = -4						; size = 4
__Count$ = 8						; size = 4
?_Incsize@?$list@PAVRaven_Bot@@V?$allocator@PAVRaven_Bot@@@std@@@std@@QAEXI@Z PROC ; std::list<Raven_Bot *,std::allocator<Raven_Bot *> >::_Incsize, COMDAT
; _this$ = ecx

; 1907 : 		{	// alter element count, with checking

	push	ebp
	mov	ebp, esp
	sub	esp, 8
	push	esi
	mov	DWORD PTR [ebp-8], -858993460		; ccccccccH
	mov	DWORD PTR [ebp-4], -858993460		; ccccccccH
	mov	DWORD PTR _this$[ebp], ecx

; 1908 : 		if (max_size() - this->_Mysize() - 1 < _Count)

	mov	ecx, DWORD PTR _this$[ebp]
	call	?max_size@?$list@PAVRaven_Bot@@V?$allocator@PAVRaven_Bot@@@std@@@std@@QBEIXZ ; std::list<Raven_Bot *,std::allocator<Raven_Bot *> >::max_size
	mov	esi, eax
	mov	ecx, DWORD PTR _this$[ebp]
	call	?_Mysize@?$_List_alloc@U?$_List_base_types@PAVRaven_Bot@@V?$allocator@PAVRaven_Bot@@@std@@@std@@@std@@QAEAAIXZ ; std::_List_alloc<std::_List_base_types<Raven_Bot *,std::allocator<Raven_Bot *> > >::_Mysize
	sub	esi, DWORD PTR [eax]
	sub	esi, 1
	cmp	esi, DWORD PTR __Count$[ebp]
	jae	SHORT $LN2@Incsize

; 1909 : 			_Xlength_error("list<T> too long");

	push	OFFSET ??_C@_0BB@MOGOBHAF@list?$DMT?$DO?5too?5long?$AA@
	call	?_Xlength_error@std@@YAXPBD@Z		; std::_Xlength_error
$LN2@Incsize:

; 1910 : 		this->_Mysize() += _Count;

	mov	ecx, DWORD PTR _this$[ebp]
	call	?_Mysize@?$_List_alloc@U?$_List_base_types@PAVRaven_Bot@@V?$allocator@PAVRaven_Bot@@@std@@@std@@@std@@QAEAAIXZ ; std::_List_alloc<std::_List_base_types<Raven_Bot *,std::allocator<Raven_Bot *> > >::_Mysize
	mov	DWORD PTR tv82[ebp], eax
	mov	eax, DWORD PTR tv82[ebp]
	mov	ecx, DWORD PTR [eax]
	add	ecx, DWORD PTR __Count$[ebp]
	mov	edx, DWORD PTR tv82[ebp]
	mov	DWORD PTR [edx], ecx
$LN3@Incsize:

; 1911 : 		}

	pop	esi
	add	esp, 8
	cmp	ebp, esp
	call	__RTC_CheckEsp
	mov	esp, ebp
	pop	ebp
	ret	4
?_Incsize@?$list@PAVRaven_Bot@@V?$allocator@PAVRaven_Bot@@@std@@@std@@QAEXI@Z ENDP ; std::list<Raven_Bot *,std::allocator<Raven_Bot *> >::_Incsize
_TEXT	ENDS
; Function compile flags: /Odtp /RTCsu
; File d:\microsoft visual studio 14.0\vc\include\list
;	COMDAT ?_Tidy@?$list@PAVRaven_Bot@@V?$allocator@PAVRaven_Bot@@@std@@@std@@QAEXXZ
_TEXT	SEGMENT
_this$ = -4						; size = 4
?_Tidy@?$list@PAVRaven_Bot@@V?$allocator@PAVRaven_Bot@@@std@@@std@@QAEXXZ PROC ; std::list<Raven_Bot *,std::allocator<Raven_Bot *> >::_Tidy, COMDAT
; _this$ = ecx

; 1884 : 		{	// free all storage

	push	ebp
	mov	ebp, esp
	push	ecx
	mov	DWORD PTR [ebp-4], -858993460		; ccccccccH
	mov	DWORD PTR _this$[ebp], ecx

; 1885 : 		clear();

	mov	ecx, DWORD PTR _this$[ebp]
	call	?clear@?$list@PAVRaven_Bot@@V?$allocator@PAVRaven_Bot@@@std@@@std@@QAEXXZ ; std::list<Raven_Bot *,std::allocator<Raven_Bot *> >::clear

; 1886 : 		}

	add	esp, 4
	cmp	ebp, esp
	call	__RTC_CheckEsp
	mov	esp, ebp
	pop	ebp
	ret	0
?_Tidy@?$list@PAVRaven_Bot@@V?$allocator@PAVRaven_Bot@@@std@@@std@@QAEXXZ ENDP ; std::list<Raven_Bot *,std::allocator<Raven_Bot *> >::_Tidy
_TEXT	ENDS
; Function compile flags: /Odtp /RTCsu
; File d:\microsoft visual studio 14.0\vc\include\list
;	COMDAT ?clear@?$list@PAVRaven_Bot@@V?$allocator@PAVRaven_Bot@@@std@@@std@@QAEXXZ
_TEXT	SEGMENT
__Pnext$2 = -24						; size = 4
__Pnode$ = -20						; size = 4
_this$ = -16						; size = 4
__$EHRec$ = -12						; size = 12
?clear@?$list@PAVRaven_Bot@@V?$allocator@PAVRaven_Bot@@@std@@@std@@QAEXXZ PROC ; std::list<Raven_Bot *,std::allocator<Raven_Bot *> >::clear, COMDAT
; _this$ = ecx

; 1496 : 		{	// erase all

	push	ebp
	mov	ebp, esp
	push	-1
	push	__ehhandler$?clear@?$list@PAVRaven_Bot@@V?$allocator@PAVRaven_Bot@@@std@@@std@@QAEXXZ
	mov	eax, DWORD PTR fs:0
	push	eax
	sub	esp, 12					; 0000000cH
	push	esi
	mov	DWORD PTR [ebp-24], -858993460		; ccccccccH
	mov	DWORD PTR [ebp-20], -858993460		; ccccccccH
	mov	DWORD PTR [ebp-16], -858993460		; ccccccccH
	mov	eax, DWORD PTR ___security_cookie
	xor	eax, ebp
	push	eax
	lea	eax, DWORD PTR __$EHRec$[ebp]
	mov	DWORD PTR fs:0, eax
	mov	DWORD PTR _this$[ebp], ecx

; 1497 :  #if _ITERATOR_DEBUG_LEVEL == 2
; 1498 : 
; 1499 : 		this->_Orphan_ptr(nullptr);

	push	0
	mov	ecx, DWORD PTR _this$[ebp]
	call	?_Orphan_ptr@?$list@PAVRaven_Bot@@V?$allocator@PAVRaven_Bot@@@std@@@std@@QAEXPAU?$_List_node@PAVRaven_Bot@@PAX@2@@Z ; std::list<Raven_Bot *,std::allocator<Raven_Bot *> >::_Orphan_ptr

; 1500 :  #endif /* _ITERATOR_DEBUG_LEVEL == 2 */
; 1501 : 		_Nodeptr _Pnode = this->_Nextnode(this->_Myhead());

	mov	ecx, DWORD PTR _this$[ebp]
	call	?_Myhead@?$_List_alloc@U?$_List_base_types@PAVRaven_Bot@@V?$allocator@PAVRaven_Bot@@@std@@@std@@@std@@QAEAAPAU?$_List_node@PAVRaven_Bot@@PAX@2@XZ ; std::_List_alloc<std::_List_base_types<Raven_Bot *,std::allocator<Raven_Bot *> > >::_Myhead
	mov	eax, DWORD PTR [eax]
	push	eax
	call	?_Nextnode@?$_List_alloc@U?$_List_base_types@PAVRaven_Bot@@V?$allocator@PAVRaven_Bot@@@std@@@std@@@std@@SAAAPAU?$_List_node@PAVRaven_Bot@@PAX@2@PAU32@@Z ; std::_List_alloc<std::_List_base_types<Raven_Bot *,std::allocator<Raven_Bot *> > >::_Nextnode
	add	esp, 4
	mov	ecx, DWORD PTR [eax]
	mov	DWORD PTR __Pnode$[ebp], ecx

; 1502 : 		this->_Nextnode(this->_Myhead()) = this->_Myhead();

	mov	ecx, DWORD PTR _this$[ebp]
	call	?_Myhead@?$_List_alloc@U?$_List_base_types@PAVRaven_Bot@@V?$allocator@PAVRaven_Bot@@@std@@@std@@@std@@QAEAAPAU?$_List_node@PAVRaven_Bot@@PAX@2@XZ ; std::_List_alloc<std::_List_base_types<Raven_Bot *,std::allocator<Raven_Bot *> > >::_Myhead
	mov	esi, eax
	mov	ecx, DWORD PTR _this$[ebp]
	call	?_Myhead@?$_List_alloc@U?$_List_base_types@PAVRaven_Bot@@V?$allocator@PAVRaven_Bot@@@std@@@std@@@std@@QAEAAPAU?$_List_node@PAVRaven_Bot@@PAX@2@XZ ; std::_List_alloc<std::_List_base_types<Raven_Bot *,std::allocator<Raven_Bot *> > >::_Myhead
	mov	edx, DWORD PTR [eax]
	push	edx
	call	?_Nextnode@?$_List_alloc@U?$_List_base_types@PAVRaven_Bot@@V?$allocator@PAVRaven_Bot@@@std@@@std@@@std@@SAAAPAU?$_List_node@PAVRaven_Bot@@PAX@2@PAU32@@Z ; std::_List_alloc<std::_List_base_types<Raven_Bot *,std::allocator<Raven_Bot *> > >::_Nextnode
	add	esp, 4
	mov	ecx, DWORD PTR [esi]
	mov	DWORD PTR [eax], ecx

; 1503 : 		this->_Prevnode(this->_Myhead()) = this->_Myhead();

	mov	ecx, DWORD PTR _this$[ebp]
	call	?_Myhead@?$_List_alloc@U?$_List_base_types@PAVRaven_Bot@@V?$allocator@PAVRaven_Bot@@@std@@@std@@@std@@QAEAAPAU?$_List_node@PAVRaven_Bot@@PAX@2@XZ ; std::_List_alloc<std::_List_base_types<Raven_Bot *,std::allocator<Raven_Bot *> > >::_Myhead
	mov	esi, eax
	mov	ecx, DWORD PTR _this$[ebp]
	call	?_Myhead@?$_List_alloc@U?$_List_base_types@PAVRaven_Bot@@V?$allocator@PAVRaven_Bot@@@std@@@std@@@std@@QAEAAPAU?$_List_node@PAVRaven_Bot@@PAX@2@XZ ; std::_List_alloc<std::_List_base_types<Raven_Bot *,std::allocator<Raven_Bot *> > >::_Myhead
	mov	edx, DWORD PTR [eax]
	push	edx
	call	?_Prevnode@?$_List_alloc@U?$_List_base_types@PAVRaven_Bot@@V?$allocator@PAVRaven_Bot@@@std@@@std@@@std@@SAAAPAU?$_List_node@PAVRaven_Bot@@PAX@2@PAU32@@Z ; std::_List_alloc<std::_List_base_types<Raven_Bot *,std::allocator<Raven_Bot *> > >::_Prevnode
	add	esp, 4
	mov	ecx, DWORD PTR [esi]
	mov	DWORD PTR [eax], ecx

; 1504 : 		this->_Mysize() = 0;

	mov	ecx, DWORD PTR _this$[ebp]
	call	?_Mysize@?$_List_alloc@U?$_List_base_types@PAVRaven_Bot@@V?$allocator@PAVRaven_Bot@@@std@@@std@@@std@@QAEAAIXZ ; std::_List_alloc<std::_List_base_types<Raven_Bot *,std::allocator<Raven_Bot *> > >::_Mysize
	mov	DWORD PTR [eax], 0

; 1505 : 
; 1506 : 		for (_Nodeptr _Pnext; _Pnode != this->_Myhead(); _Pnode = _Pnext)

	jmp	SHORT $LN4@clear
$LN2@clear:
	mov	edx, DWORD PTR __Pnext$2[ebp]
	mov	DWORD PTR __Pnode$[ebp], edx
$LN4@clear:
	mov	ecx, DWORD PTR _this$[ebp]
	call	?_Myhead@?$_List_alloc@U?$_List_base_types@PAVRaven_Bot@@V?$allocator@PAVRaven_Bot@@@std@@@std@@@std@@QAEAAPAU?$_List_node@PAVRaven_Bot@@PAX@2@XZ ; std::_List_alloc<std::_List_base_types<Raven_Bot *,std::allocator<Raven_Bot *> > >::_Myhead
	mov	ecx, DWORD PTR __Pnode$[ebp]
	cmp	ecx, DWORD PTR [eax]
	je	SHORT $LN5@clear

; 1507 : 			{	// delete an element
; 1508 : 			_Pnext = this->_Nextnode(_Pnode);

	mov	edx, DWORD PTR __Pnode$[ebp]
	push	edx
	call	?_Nextnode@?$_List_alloc@U?$_List_base_types@PAVRaven_Bot@@V?$allocator@PAVRaven_Bot@@@std@@@std@@@std@@SAAAPAU?$_List_node@PAVRaven_Bot@@PAX@2@PAU32@@Z ; std::_List_alloc<std::_List_base_types<Raven_Bot *,std::allocator<Raven_Bot *> > >::_Nextnode
	add	esp, 4
	mov	eax, DWORD PTR [eax]
	mov	DWORD PTR __Pnext$2[ebp], eax

; 1509 : 			this->_Freenode(_Pnode);

	mov	ecx, DWORD PTR __Pnode$[ebp]
	push	ecx
	mov	ecx, DWORD PTR _this$[ebp]
	call	?_Freenode@?$_List_buy@PAVRaven_Bot@@V?$allocator@PAVRaven_Bot@@@std@@@std@@QAEXPAU?$_List_node@PAVRaven_Bot@@PAX@2@@Z ; std::_List_buy<Raven_Bot *,std::allocator<Raven_Bot *> >::_Freenode

; 1510 : 			}

	jmp	SHORT $LN2@clear
$LN5@clear:

; 1511 : 		}

	mov	ecx, DWORD PTR __$EHRec$[ebp]
	mov	DWORD PTR fs:0, ecx
	pop	ecx
	pop	esi
	add	esp, 24					; 00000018H
	cmp	ebp, esp
	call	__RTC_CheckEsp
	mov	esp, ebp
	pop	ebp
	ret	0
_TEXT	ENDS
;	COMDAT text$x
text$x	SEGMENT
__ehhandler$?clear@?$list@PAVRaven_Bot@@V?$allocator@PAVRaven_Bot@@@std@@@std@@QAEXXZ:
	mov	edx, DWORD PTR [esp+8]
	lea	eax, DWORD PTR [edx+12]
	mov	ecx, DWORD PTR [edx-20]
	xor	ecx, eax
	call	@__security_check_cookie@4
	mov	eax, OFFSET __ehfuncinfo$?clear@?$list@PAVRaven_Bot@@V?$allocator@PAVRaven_Bot@@@std@@@std@@QAEXXZ
	jmp	___CxxFrameHandler3
text$x	ENDS
?clear@?$list@PAVRaven_Bot@@V?$allocator@PAVRaven_Bot@@@std@@@std@@QAEXXZ ENDP ; std::list<Raven_Bot *,std::allocator<Raven_Bot *> >::clear
; Function compile flags: /Odtp /RTCsu
; File d:\microsoft visual studio 14.0\vc\include\list
;	COMDAT ?push_back@?$list@PAVRaven_Bot@@V?$allocator@PAVRaven_Bot@@@std@@@std@@QAEXABQAVRaven_Bot@@@Z
_TEXT	SEGMENT
$T1 = -12						; size = 4
$T2 = -8						; size = 4
_this$ = -4						; size = 4
__Val$ = 8						; size = 4
?push_back@?$list@PAVRaven_Bot@@V?$allocator@PAVRaven_Bot@@@std@@@std@@QAEXABQAVRaven_Bot@@@Z PROC ; std::list<Raven_Bot *,std::allocator<Raven_Bot *> >::push_back, COMDAT
; _this$ = ecx

; 1288 : 		{	// insert element at end

	push	ebp
	mov	ebp, esp
	sub	esp, 12					; 0000000cH
	mov	DWORD PTR [ebp-12], -858993460		; ccccccccH
	mov	DWORD PTR [ebp-8], -858993460		; ccccccccH
	mov	DWORD PTR [ebp-4], -858993460		; ccccccccH
	mov	DWORD PTR _this$[ebp], ecx

; 1289 : 		_Insert(_Unchecked_end(), _Val);

	lea	eax, DWORD PTR $T1[ebp]
	push	eax
	mov	ecx, DWORD PTR _this$[ebp]
	call	?_Unchecked_end@?$list@PAVRaven_Bot@@V?$allocator@PAVRaven_Bot@@@std@@@std@@QAE?AV?$_List_unchecked_iterator@V?$_List_val@U?$_List_simple_types@PAVRaven_Bot@@@std@@@std@@@2@XZ ; std::list<Raven_Bot *,std::allocator<Raven_Bot *> >::_Unchecked_end
	mov	ecx, DWORD PTR [eax]
	mov	DWORD PTR $T2[ebp], ecx
	mov	edx, DWORD PTR __Val$[ebp]
	push	edx
	mov	eax, DWORD PTR $T2[ebp]
	push	eax
	mov	ecx, DWORD PTR _this$[ebp]
	call	??$_Insert@ABQAVRaven_Bot@@@?$list@PAVRaven_Bot@@V?$allocator@PAVRaven_Bot@@@std@@@std@@QAEXV?$_List_unchecked_const_iterator@V?$_List_val@U?$_List_simple_types@PAVRaven_Bot@@@std@@@std@@U_Iterator_base0@2@@1@ABQAVRaven_Bot@@@Z ; std::list<Raven_Bot *,std::allocator<Raven_Bot *> >::_Insert<Raven_Bot * const &>

; 1290 : 		}

	add	esp, 12					; 0000000cH
	cmp	ebp, esp
	call	__RTC_CheckEsp
	mov	esp, ebp
	pop	ebp
	ret	4
?push_back@?$list@PAVRaven_Bot@@V?$allocator@PAVRaven_Bot@@@std@@@std@@QAEXABQAVRaven_Bot@@@Z ENDP ; std::list<Raven_Bot *,std::allocator<Raven_Bot *> >::push_back
_TEXT	ENDS
; Function compile flags: /Odtp /RTCsu
; File d:\microsoft visual studio 14.0\vc\include\list
;	COMDAT ?max_size@?$list@PAVRaven_Bot@@V?$allocator@PAVRaven_Bot@@@std@@@std@@QBEIXZ
_TEXT	SEGMENT
$T1 = -5						; size = 1
_this$ = -4						; size = 4
?max_size@?$list@PAVRaven_Bot@@V?$allocator@PAVRaven_Bot@@@std@@@std@@QBEIXZ PROC ; std::list<Raven_Bot *,std::allocator<Raven_Bot *> >::max_size, COMDAT
; _this$ = ecx

; 1243 : 		{	// return maximum possible length of sequence

	push	ebp
	mov	ebp, esp
	sub	esp, 8
	mov	DWORD PTR [ebp-8], -858993460		; ccccccccH
	mov	DWORD PTR [ebp-4], -858993460		; ccccccccH
	mov	DWORD PTR _this$[ebp], ecx

; 1244 : 		return (this->_Getal().max_size());

	movzx	eax, BYTE PTR $T1[ebp]
	push	eax
	mov	ecx, DWORD PTR _this$[ebp]
	call	?_Getal@?$_List_alloc@U?$_List_base_types@PAVRaven_Bot@@V?$allocator@PAVRaven_Bot@@@std@@@std@@@std@@QBEABU?$_Wrap_alloc@V?$allocator@U?$_List_node@PAVRaven_Bot@@PAX@std@@@std@@@2@XZ ; std::_List_alloc<std::_List_base_types<Raven_Bot *,std::allocator<Raven_Bot *> > >::_Getal
	mov	ecx, eax
	call	?max_size@?$_Wrap_alloc@V?$allocator@U?$_List_node@PAVRaven_Bot@@PAX@std@@@std@@@std@@QBEIU_Nil@2@@Z ; std::_Wrap_alloc<std::allocator<std::_List_node<Raven_Bot *,void *> > >::max_size

; 1245 : 		}

	add	esp, 8
	cmp	ebp, esp
	call	__RTC_CheckEsp
	mov	esp, ebp
	pop	ebp
	ret	0
?max_size@?$list@PAVRaven_Bot@@V?$allocator@PAVRaven_Bot@@@std@@@std@@QBEIXZ ENDP ; std::list<Raven_Bot *,std::allocator<Raven_Bot *> >::max_size
_TEXT	ENDS
; Function compile flags: /Odtp /RTCsu
; File d:\microsoft visual studio 14.0\vc\include\list
;	COMDAT ?_Unchecked_end@?$list@PAVRaven_Bot@@V?$allocator@PAVRaven_Bot@@@std@@@std@@QAE?AV?$_List_unchecked_iterator@V?$_List_val@U?$_List_simple_types@PAVRaven_Bot@@@std@@@std@@@2@XZ
_TEXT	SEGMENT
_this$ = -4						; size = 4
___$ReturnUdt$ = 8					; size = 4
?_Unchecked_end@?$list@PAVRaven_Bot@@V?$allocator@PAVRaven_Bot@@@std@@@std@@QAE?AV?$_List_unchecked_iterator@V?$_List_val@U?$_List_simple_types@PAVRaven_Bot@@@std@@@std@@@2@XZ PROC ; std::list<Raven_Bot *,std::allocator<Raven_Bot *> >::_Unchecked_end, COMDAT
; _this$ = ecx

; 1149 : 		{	// return unchecked iterator for end of mutable sequence

	push	ebp
	mov	ebp, esp
	push	ecx
	mov	DWORD PTR [ebp-4], -858993460		; ccccccccH
	mov	DWORD PTR _this$[ebp], ecx

; 1150 : 		return (_Unchecked_iterator(this->_Myhead(), &this->_Get_data()));

	mov	ecx, DWORD PTR _this$[ebp]
	call	?_Get_data@?$_List_alloc@U?$_List_base_types@PAVRaven_Bot@@V?$allocator@PAVRaven_Bot@@@std@@@std@@@std@@QAEAAV?$_List_val@U?$_List_simple_types@PAVRaven_Bot@@@std@@@2@XZ ; std::_List_alloc<std::_List_base_types<Raven_Bot *,std::allocator<Raven_Bot *> > >::_Get_data
	push	eax
	mov	ecx, DWORD PTR _this$[ebp]
	call	?_Myhead@?$_List_alloc@U?$_List_base_types@PAVRaven_Bot@@V?$allocator@PAVRaven_Bot@@@std@@@std@@@std@@QAEAAPAU?$_List_node@PAVRaven_Bot@@PAX@2@XZ ; std::_List_alloc<std::_List_base_types<Raven_Bot *,std::allocator<Raven_Bot *> > >::_Myhead
	mov	eax, DWORD PTR [eax]
	push	eax
	mov	ecx, DWORD PTR ___$ReturnUdt$[ebp]
	call	??0?$_List_unchecked_iterator@V?$_List_val@U?$_List_simple_types@PAVRaven_Bot@@@std@@@std@@@std@@QAE@PAU?$_List_node@PAVRaven_Bot@@PAX@1@PBV?$_List_val@U?$_List_simple_types@PAVRaven_Bot@@@std@@@1@@Z ; std::_List_unchecked_iterator<std::_List_val<std::_List_simple_types<Raven_Bot *> > >::_List_unchecked_iterator<std::_List_val<std::_List_simple_types<Raven_Bot *> > >
	mov	eax, DWORD PTR ___$ReturnUdt$[ebp]

; 1151 : 		}

	add	esp, 4
	cmp	ebp, esp
	call	__RTC_CheckEsp
	mov	esp, ebp
	pop	ebp
	ret	4
?_Unchecked_end@?$list@PAVRaven_Bot@@V?$allocator@PAVRaven_Bot@@@std@@@std@@QAE?AV?$_List_unchecked_iterator@V?$_List_val@U?$_List_simple_types@PAVRaven_Bot@@@std@@@std@@@2@XZ ENDP ; std::list<Raven_Bot *,std::allocator<Raven_Bot *> >::_Unchecked_end
_TEXT	ENDS
; Function compile flags: /Odtp /RTCsu
; File d:\microsoft visual studio 14.0\vc\include\list
;	COMDAT ?end@?$list@PAVRaven_Bot@@V?$allocator@PAVRaven_Bot@@@std@@@std@@QBE?AV?$_List_const_iterator@V?$_List_val@U?$_List_simple_types@PAVRaven_Bot@@@std@@@std@@@2@XZ
_TEXT	SEGMENT
_this$ = -16						; size = 4
__$EHRec$ = -12						; size = 12
___$ReturnUdt$ = 8					; size = 4
?end@?$list@PAVRaven_Bot@@V?$allocator@PAVRaven_Bot@@@std@@@std@@QBE?AV?$_List_const_iterator@V?$_List_val@U?$_List_simple_types@PAVRaven_Bot@@@std@@@std@@@2@XZ PROC ; std::list<Raven_Bot *,std::allocator<Raven_Bot *> >::end, COMDAT
; _this$ = ecx

; 1132 : 		{	// return iterator for end of nonmutable sequence

	push	ebp
	mov	ebp, esp
	push	-1
	push	__ehhandler$?end@?$list@PAVRaven_Bot@@V?$allocator@PAVRaven_Bot@@@std@@@std@@QBE?AV?$_List_const_iterator@V?$_List_val@U?$_List_simple_types@PAVRaven_Bot@@@std@@@std@@@2@XZ
	mov	eax, DWORD PTR fs:0
	push	eax
	push	ecx
	mov	DWORD PTR [ebp-16], -858993460		; ccccccccH
	mov	eax, DWORD PTR ___security_cookie
	xor	eax, ebp
	push	eax
	lea	eax, DWORD PTR __$EHRec$[ebp]
	mov	DWORD PTR fs:0, eax
	mov	DWORD PTR _this$[ebp], ecx

; 1133 : 		return (const_iterator(this->_Myhead(), &this->_Get_data()));

	mov	ecx, DWORD PTR _this$[ebp]
	call	?_Get_data@?$_List_alloc@U?$_List_base_types@PAVRaven_Bot@@V?$allocator@PAVRaven_Bot@@@std@@@std@@@std@@QBEABV?$_List_val@U?$_List_simple_types@PAVRaven_Bot@@@std@@@2@XZ ; std::_List_alloc<std::_List_base_types<Raven_Bot *,std::allocator<Raven_Bot *> > >::_Get_data
	push	eax
	mov	ecx, DWORD PTR _this$[ebp]
	call	?_Myhead@?$_List_alloc@U?$_List_base_types@PAVRaven_Bot@@V?$allocator@PAVRaven_Bot@@@std@@@std@@@std@@QBEABQAU?$_List_node@PAVRaven_Bot@@PAX@2@XZ ; std::_List_alloc<std::_List_base_types<Raven_Bot *,std::allocator<Raven_Bot *> > >::_Myhead
	mov	eax, DWORD PTR [eax]
	push	eax
	mov	ecx, DWORD PTR ___$ReturnUdt$[ebp]
	call	??0?$_List_const_iterator@V?$_List_val@U?$_List_simple_types@PAVRaven_Bot@@@std@@@std@@@std@@QAE@PAU?$_List_node@PAVRaven_Bot@@PAX@1@PBV?$_List_val@U?$_List_simple_types@PAVRaven_Bot@@@std@@@1@@Z ; std::_List_const_iterator<std::_List_val<std::_List_simple_types<Raven_Bot *> > >::_List_const_iterator<std::_List_val<std::_List_simple_types<Raven_Bot *> > >
	mov	eax, DWORD PTR ___$ReturnUdt$[ebp]

; 1134 : 		}

	mov	ecx, DWORD PTR __$EHRec$[ebp]
	mov	DWORD PTR fs:0, ecx
	pop	ecx
	add	esp, 16					; 00000010H
	cmp	ebp, esp
	call	__RTC_CheckEsp
	mov	esp, ebp
	pop	ebp
	ret	4
_TEXT	ENDS
;	COMDAT text$x
text$x	SEGMENT
__ehhandler$?end@?$list@PAVRaven_Bot@@V?$allocator@PAVRaven_Bot@@@std@@@std@@QBE?AV?$_List_const_iterator@V?$_List_val@U?$_List_simple_types@PAVRaven_Bot@@@std@@@std@@@2@XZ:
	mov	edx, DWORD PTR [esp+8]
	lea	eax, DWORD PTR [edx+12]
	mov	ecx, DWORD PTR [edx-8]
	xor	ecx, eax
	call	@__security_check_cookie@4
	mov	eax, OFFSET __ehfuncinfo$?end@?$list@PAVRaven_Bot@@V?$allocator@PAVRaven_Bot@@@std@@@std@@QBE?AV?$_List_const_iterator@V?$_List_val@U?$_List_simple_types@PAVRaven_Bot@@@std@@@std@@@2@XZ
	jmp	___CxxFrameHandler3
text$x	ENDS
?end@?$list@PAVRaven_Bot@@V?$allocator@PAVRaven_Bot@@@std@@@std@@QBE?AV?$_List_const_iterator@V?$_List_val@U?$_List_simple_types@PAVRaven_Bot@@@std@@@std@@@2@XZ ENDP ; std::list<Raven_Bot *,std::allocator<Raven_Bot *> >::end
; Function compile flags: /Odtp /RTCsu
; File d:\microsoft visual studio 14.0\vc\include\list
;	COMDAT ?begin@?$list@PAVRaven_Bot@@V?$allocator@PAVRaven_Bot@@@std@@@std@@QBE?AV?$_List_const_iterator@V?$_List_val@U?$_List_simple_types@PAVRaven_Bot@@@std@@@std@@@2@XZ
_TEXT	SEGMENT
_this$ = -16						; size = 4
__$EHRec$ = -12						; size = 12
___$ReturnUdt$ = 8					; size = 4
?begin@?$list@PAVRaven_Bot@@V?$allocator@PAVRaven_Bot@@@std@@@std@@QBE?AV?$_List_const_iterator@V?$_List_val@U?$_List_simple_types@PAVRaven_Bot@@@std@@@std@@@2@XZ PROC ; std::list<Raven_Bot *,std::allocator<Raven_Bot *> >::begin, COMDAT
; _this$ = ecx

; 1121 : 		{	// return iterator for beginning of nonmutable sequence

	push	ebp
	mov	ebp, esp
	push	-1
	push	__ehhandler$?begin@?$list@PAVRaven_Bot@@V?$allocator@PAVRaven_Bot@@@std@@@std@@QBE?AV?$_List_const_iterator@V?$_List_val@U?$_List_simple_types@PAVRaven_Bot@@@std@@@std@@@2@XZ
	mov	eax, DWORD PTR fs:0
	push	eax
	push	ecx
	mov	DWORD PTR [ebp-16], -858993460		; ccccccccH
	mov	eax, DWORD PTR ___security_cookie
	xor	eax, ebp
	push	eax
	lea	eax, DWORD PTR __$EHRec$[ebp]
	mov	DWORD PTR fs:0, eax
	mov	DWORD PTR _this$[ebp], ecx

; 1122 : 		return (const_iterator(this->_Nextnode(this->_Myhead()),

	mov	ecx, DWORD PTR _this$[ebp]
	call	?_Get_data@?$_List_alloc@U?$_List_base_types@PAVRaven_Bot@@V?$allocator@PAVRaven_Bot@@@std@@@std@@@std@@QBEABV?$_List_val@U?$_List_simple_types@PAVRaven_Bot@@@std@@@2@XZ ; std::_List_alloc<std::_List_base_types<Raven_Bot *,std::allocator<Raven_Bot *> > >::_Get_data
	push	eax
	mov	ecx, DWORD PTR _this$[ebp]
	call	?_Myhead@?$_List_alloc@U?$_List_base_types@PAVRaven_Bot@@V?$allocator@PAVRaven_Bot@@@std@@@std@@@std@@QBEABQAU?$_List_node@PAVRaven_Bot@@PAX@2@XZ ; std::_List_alloc<std::_List_base_types<Raven_Bot *,std::allocator<Raven_Bot *> > >::_Myhead
	mov	eax, DWORD PTR [eax]
	push	eax
	call	?_Nextnode@?$_List_alloc@U?$_List_base_types@PAVRaven_Bot@@V?$allocator@PAVRaven_Bot@@@std@@@std@@@std@@SAAAPAU?$_List_node@PAVRaven_Bot@@PAX@2@PAU32@@Z ; std::_List_alloc<std::_List_base_types<Raven_Bot *,std::allocator<Raven_Bot *> > >::_Nextnode
	add	esp, 4
	mov	ecx, DWORD PTR [eax]
	push	ecx
	mov	ecx, DWORD PTR ___$ReturnUdt$[ebp]
	call	??0?$_List_const_iterator@V?$_List_val@U?$_List_simple_types@PAVRaven_Bot@@@std@@@std@@@std@@QAE@PAU?$_List_node@PAVRaven_Bot@@PAX@1@PBV?$_List_val@U?$_List_simple_types@PAVRaven_Bot@@@std@@@1@@Z ; std::_List_const_iterator<std::_List_val<std::_List_simple_types<Raven_Bot *> > >::_List_const_iterator<std::_List_val<std::_List_simple_types<Raven_Bot *> > >
	mov	eax, DWORD PTR ___$ReturnUdt$[ebp]

; 1123 : 			&this->_Get_data()));
; 1124 : 		}

	mov	ecx, DWORD PTR __$EHRec$[ebp]
	mov	DWORD PTR fs:0, ecx
	pop	ecx
	add	esp, 16					; 00000010H
	cmp	ebp, esp
	call	__RTC_CheckEsp
	mov	esp, ebp
	pop	ebp
	ret	4
_TEXT	ENDS
;	COMDAT text$x
text$x	SEGMENT
__ehhandler$?begin@?$list@PAVRaven_Bot@@V?$allocator@PAVRaven_Bot@@@std@@@std@@QBE?AV?$_List_const_iterator@V?$_List_val@U?$_List_simple_types@PAVRaven_Bot@@@std@@@std@@@2@XZ:
	mov	edx, DWORD PTR [esp+8]
	lea	eax, DWORD PTR [edx+12]
	mov	ecx, DWORD PTR [edx-8]
	xor	ecx, eax
	call	@__security_check_cookie@4
	mov	eax, OFFSET __ehfuncinfo$?begin@?$list@PAVRaven_Bot@@V?$allocator@PAVRaven_Bot@@@std@@@std@@QBE?AV?$_List_const_iterator@V?$_List_val@U?$_List_simple_types@PAVRaven_Bot@@@std@@@std@@@2@XZ
	jmp	___CxxFrameHandler3
text$x	ENDS
?begin@?$list@PAVRaven_Bot@@V?$allocator@PAVRaven_Bot@@@std@@@std@@QBE?AV?$_List_const_iterator@V?$_List_val@U?$_List_simple_types@PAVRaven_Bot@@@std@@@std@@@2@XZ ENDP ; std::list<Raven_Bot *,std::allocator<Raven_Bot *> >::begin
; Function compile flags: /Odtp /RTCsu
; File d:\microsoft visual studio 14.0\vc\include\list
;	COMDAT ??1?$list@PAVRaven_Bot@@V?$allocator@PAVRaven_Bot@@@std@@@std@@QAE@XZ
_TEXT	SEGMENT
_this$ = -16						; size = 4
__$EHRec$ = -12						; size = 12
??1?$list@PAVRaven_Bot@@V?$allocator@PAVRaven_Bot@@@std@@@std@@QAE@XZ PROC ; std::list<Raven_Bot *,std::allocator<Raven_Bot *> >::~list<Raven_Bot *,std::allocator<Raven_Bot *> >, COMDAT
; _this$ = ecx

; 1094 : 		{	// destroy the object

	push	ebp
	mov	ebp, esp
	push	-1
	push	__ehhandler$??1?$list@PAVRaven_Bot@@V?$allocator@PAVRaven_Bot@@@std@@@std@@QAE@XZ
	mov	eax, DWORD PTR fs:0
	push	eax
	push	ecx
	mov	DWORD PTR [ebp-16], -858993460		; ccccccccH
	mov	eax, DWORD PTR ___security_cookie
	xor	eax, ebp
	push	eax
	lea	eax, DWORD PTR __$EHRec$[ebp]
	mov	DWORD PTR fs:0, eax
	mov	DWORD PTR _this$[ebp], ecx

; 1095 : 		_Tidy();

	mov	ecx, DWORD PTR _this$[ebp]
	call	?_Tidy@?$list@PAVRaven_Bot@@V?$allocator@PAVRaven_Bot@@@std@@@std@@QAEXXZ ; std::list<Raven_Bot *,std::allocator<Raven_Bot *> >::_Tidy

; 1096 : 		}

	mov	ecx, DWORD PTR _this$[ebp]
	call	??1?$_List_buy@PAVRaven_Bot@@V?$allocator@PAVRaven_Bot@@@std@@@std@@QAE@XZ
	mov	ecx, DWORD PTR __$EHRec$[ebp]
	mov	DWORD PTR fs:0, ecx
	pop	ecx
	add	esp, 16					; 00000010H
	cmp	ebp, esp
	call	__RTC_CheckEsp
	mov	esp, ebp
	pop	ebp
	ret	0
_TEXT	ENDS
;	COMDAT text$x
text$x	SEGMENT
__ehhandler$??1?$list@PAVRaven_Bot@@V?$allocator@PAVRaven_Bot@@@std@@@std@@QAE@XZ:
	mov	edx, DWORD PTR [esp+8]
	lea	eax, DWORD PTR [edx+12]
	mov	ecx, DWORD PTR [edx-8]
	xor	ecx, eax
	call	@__security_check_cookie@4
	mov	eax, OFFSET __ehfuncinfo$??1?$list@PAVRaven_Bot@@V?$allocator@PAVRaven_Bot@@@std@@@std@@QAE@XZ
	jmp	___CxxFrameHandler3
text$x	ENDS
??1?$list@PAVRaven_Bot@@V?$allocator@PAVRaven_Bot@@@std@@@std@@QAE@XZ ENDP ; std::list<Raven_Bot *,std::allocator<Raven_Bot *> >::~list<Raven_Bot *,std::allocator<Raven_Bot *> >
; Function compile flags: /Odtp /RTCsu
; File d:\microsoft visual studio 14.0\vc\include\list
;	COMDAT ?_Assign_rv@?$list@PAVRaven_Bot@@V?$allocator@PAVRaven_Bot@@@std@@@std@@QAEX$$QAV12@@Z
_TEXT	SEGMENT
_this$ = -4						; size = 4
__Right$ = 8						; size = 4
?_Assign_rv@?$list@PAVRaven_Bot@@V?$allocator@PAVRaven_Bot@@@std@@@std@@QAEX$$QAV12@@Z PROC ; std::list<Raven_Bot *,std::allocator<Raven_Bot *> >::_Assign_rv, COMDAT
; _this$ = ecx

; 1010 : 		{	// swap with empty *this, same allocator

	push	ebp
	mov	ebp, esp
	push	ecx
	mov	DWORD PTR [ebp-4], -858993460		; ccccccccH
	mov	DWORD PTR _this$[ebp], ecx

; 1011 : 		this->_Swap_all(_Right);

	mov	eax, DWORD PTR __Right$[ebp]
	push	eax
	mov	ecx, DWORD PTR _this$[ebp]
	call	?_Swap_all@?$_List_alloc@U?$_List_base_types@PAVRaven_Bot@@V?$allocator@PAVRaven_Bot@@@std@@@std@@@std@@QAEXAAV12@@Z ; std::_List_alloc<std::_List_base_types<Raven_Bot *,std::allocator<Raven_Bot *> > >::_Swap_all

; 1012 : 		_Swap_adl(this->_Myhead(), _Right._Myhead());

	mov	ecx, DWORD PTR __Right$[ebp]
	call	?_Myhead@?$_List_alloc@U?$_List_base_types@PAVRaven_Bot@@V?$allocator@PAVRaven_Bot@@@std@@@std@@@std@@QAEAAPAU?$_List_node@PAVRaven_Bot@@PAX@2@XZ ; std::_List_alloc<std::_List_base_types<Raven_Bot *,std::allocator<Raven_Bot *> > >::_Myhead
	push	eax
	mov	ecx, DWORD PTR _this$[ebp]
	call	?_Myhead@?$_List_alloc@U?$_List_base_types@PAVRaven_Bot@@V?$allocator@PAVRaven_Bot@@@std@@@std@@@std@@QAEAAPAU?$_List_node@PAVRaven_Bot@@PAX@2@XZ ; std::_List_alloc<std::_List_base_types<Raven_Bot *,std::allocator<Raven_Bot *> > >::_Myhead
	push	eax
	call	??$_Swap_adl@PAU?$_List_node@PAVRaven_Bot@@PAX@std@@@std@@YAXAAPAU?$_List_node@PAVRaven_Bot@@PAX@0@0@Z ; std::_Swap_adl<std::_List_node<Raven_Bot *,void *> *>
	add	esp, 8

; 1013 : 		_STD swap(this->_Mysize(), _Right._Mysize());

	mov	ecx, DWORD PTR __Right$[ebp]
	call	?_Mysize@?$_List_alloc@U?$_List_base_types@PAVRaven_Bot@@V?$allocator@PAVRaven_Bot@@@std@@@std@@@std@@QAEAAIXZ ; std::_List_alloc<std::_List_base_types<Raven_Bot *,std::allocator<Raven_Bot *> > >::_Mysize
	push	eax
	mov	ecx, DWORD PTR _this$[ebp]
	call	?_Mysize@?$_List_alloc@U?$_List_base_types@PAVRaven_Bot@@V?$allocator@PAVRaven_Bot@@@std@@@std@@@std@@QAEAAIXZ ; std::_List_alloc<std::_List_base_types<Raven_Bot *,std::allocator<Raven_Bot *> > >::_Mysize
	push	eax
	call	??$swap@I@std@@YAXAAI0@Z		; std::swap<unsigned int>
	add	esp, 8

; 1014 : 		}

	add	esp, 4
	cmp	ebp, esp
	call	__RTC_CheckEsp
	mov	esp, ebp
	pop	ebp
	ret	4
?_Assign_rv@?$list@PAVRaven_Bot@@V?$allocator@PAVRaven_Bot@@@std@@@std@@QAEX$$QAV12@@Z ENDP ; std::list<Raven_Bot *,std::allocator<Raven_Bot *> >::_Assign_rv
_TEXT	ENDS
; Function compile flags: /Odtp /RTCsu
; File d:\microsoft visual studio 14.0\vc\include\list
;	COMDAT ??0?$list@PAVRaven_Bot@@V?$allocator@PAVRaven_Bot@@@std@@@std@@QAE@$$QAV01@@Z
_TEXT	SEGMENT
$T2 = -17						; size = 1
_this$ = -16						; size = 4
__$EHRec$ = -12						; size = 12
__Right$ = 8						; size = 4
??0?$list@PAVRaven_Bot@@V?$allocator@PAVRaven_Bot@@@std@@@std@@QAE@$$QAV01@@Z PROC ; std::list<Raven_Bot *,std::allocator<Raven_Bot *> >::list<Raven_Bot *,std::allocator<Raven_Bot *> >, COMDAT
; _this$ = ecx

; 983  : 		{	// construct list by moving _Right

	push	ebp
	mov	ebp, esp
	push	-1
	push	__ehhandler$??0?$list@PAVRaven_Bot@@V?$allocator@PAVRaven_Bot@@@std@@@std@@QAE@$$QAV01@@Z
	mov	eax, DWORD PTR fs:0
	push	eax
	sub	esp, 8
	mov	DWORD PTR [ebp-20], -858993460		; ccccccccH
	mov	DWORD PTR [ebp-16], -858993460		; ccccccccH
	mov	eax, DWORD PTR ___security_cookie
	xor	eax, ebp
	push	eax
	lea	eax, DWORD PTR __$EHRec$[ebp]
	mov	DWORD PTR fs:0, eax
	mov	DWORD PTR _this$[ebp], ecx

; 982  : 		: _Mybase(_STD move(_Right._Getal()))

	mov	ecx, DWORD PTR __Right$[ebp]
	call	?_Getal@?$_List_alloc@U?$_List_base_types@PAVRaven_Bot@@V?$allocator@PAVRaven_Bot@@@std@@@std@@@std@@QAEAAU?$_Wrap_alloc@V?$allocator@U?$_List_node@PAVRaven_Bot@@PAX@std@@@std@@@2@XZ ; std::_List_alloc<std::_List_base_types<Raven_Bot *,std::allocator<Raven_Bot *> > >::_Getal
	push	eax
	call	??$move@AAU?$_Wrap_alloc@V?$allocator@U?$_List_node@PAVRaven_Bot@@PAX@std@@@std@@@std@@@std@@YA$$QAU?$_Wrap_alloc@V?$allocator@U?$_List_node@PAVRaven_Bot@@PAX@std@@@std@@@0@AAU10@@Z ; std::move<std::_Wrap_alloc<std::allocator<std::_List_node<Raven_Bot *,void *> > > &>
	add	esp, 4
	push	eax
	lea	ecx, DWORD PTR $T2[ebp]
	call	??$?0U?$_List_node@PAVRaven_Bot@@PAX@std@@@?$allocator@PAVRaven_Bot@@@std@@QAE@ABV?$allocator@U?$_List_node@PAVRaven_Bot@@PAX@std@@@1@@Z ; std::allocator<Raven_Bot *>::allocator<Raven_Bot *><std::_List_node<Raven_Bot *,void *> >
	lea	eax, DWORD PTR $T2[ebp]
	push	eax
	mov	ecx, DWORD PTR _this$[ebp]
	call	??0?$_List_buy@PAVRaven_Bot@@V?$allocator@PAVRaven_Bot@@@std@@@std@@QAE@$$QAV?$allocator@PAVRaven_Bot@@@1@@Z ; std::_List_buy<Raven_Bot *,std::allocator<Raven_Bot *> >::_List_buy<Raven_Bot *,std::allocator<Raven_Bot *> >
	mov	DWORD PTR __$EHRec$[ebp+8], 0

; 984  : 		_Assign_rv(_STD forward<_Myt>(_Right));

	mov	ecx, DWORD PTR __Right$[ebp]
	push	ecx
	call	??$forward@V?$list@PAVRaven_Bot@@V?$allocator@PAVRaven_Bot@@@std@@@std@@@std@@YA$$QAV?$list@PAVRaven_Bot@@V?$allocator@PAVRaven_Bot@@@std@@@0@AAV10@@Z ; std::forward<std::list<Raven_Bot *,std::allocator<Raven_Bot *> > >
	add	esp, 4
	push	eax
	mov	ecx, DWORD PTR _this$[ebp]
	call	?_Assign_rv@?$list@PAVRaven_Bot@@V?$allocator@PAVRaven_Bot@@@std@@@std@@QAEX$$QAV12@@Z ; std::list<Raven_Bot *,std::allocator<Raven_Bot *> >::_Assign_rv

; 985  : 		}

	mov	DWORD PTR __$EHRec$[ebp+8], -1
	mov	eax, DWORD PTR _this$[ebp]
	mov	ecx, DWORD PTR __$EHRec$[ebp]
	mov	DWORD PTR fs:0, ecx
	pop	ecx
	add	esp, 20					; 00000014H
	cmp	ebp, esp
	call	__RTC_CheckEsp
	mov	esp, ebp
	pop	ebp
	ret	4
_TEXT	ENDS
;	COMDAT text$x
text$x	SEGMENT
__unwindfunclet$??0?$list@PAVRaven_Bot@@V?$allocator@PAVRaven_Bot@@@std@@@std@@QAE@$$QAV01@@Z$0:
	mov	ecx, DWORD PTR _this$[ebp]
	jmp	??1?$_List_buy@PAVRaven_Bot@@V?$allocator@PAVRaven_Bot@@@std@@@std@@QAE@XZ
__ehhandler$??0?$list@PAVRaven_Bot@@V?$allocator@PAVRaven_Bot@@@std@@@std@@QAE@$$QAV01@@Z:
	mov	edx, DWORD PTR [esp+8]
	lea	eax, DWORD PTR [edx+12]
	mov	ecx, DWORD PTR [edx-12]
	xor	ecx, eax
	call	@__security_check_cookie@4
	mov	eax, OFFSET __ehfuncinfo$??0?$list@PAVRaven_Bot@@V?$allocator@PAVRaven_Bot@@@std@@@std@@QAE@$$QAV01@@Z
	jmp	___CxxFrameHandler3
text$x	ENDS
??0?$list@PAVRaven_Bot@@V?$allocator@PAVRaven_Bot@@@std@@@std@@QAE@$$QAV01@@Z ENDP ; std::list<Raven_Bot *,std::allocator<Raven_Bot *> >::list<Raven_Bot *,std::allocator<Raven_Bot *> >
; Function compile flags: /Odtp /RTCsu
; File d:\microsoft visual studio 14.0\vc\include\list
;	COMDAT ??0?$list@PAVRaven_Bot@@V?$allocator@PAVRaven_Bot@@@std@@@std@@QAE@XZ
_TEXT	SEGMENT
$T1 = -5						; size = 1
_this$ = -4						; size = 4
??0?$list@PAVRaven_Bot@@V?$allocator@PAVRaven_Bot@@@std@@@std@@QAE@XZ PROC ; std::list<Raven_Bot *,std::allocator<Raven_Bot *> >::list<Raven_Bot *,std::allocator<Raven_Bot *> >, COMDAT
; _this$ = ecx

; 890  : 		{	// construct empty list

	push	ebp
	mov	ebp, esp
	sub	esp, 8
	mov	DWORD PTR [ebp-8], -858993460		; ccccccccH
	mov	DWORD PTR [ebp-4], -858993460		; ccccccccH
	mov	DWORD PTR _this$[ebp], ecx

; 889  : 		: _Mybase()

	lea	ecx, DWORD PTR $T1[ebp]
	call	??0?$allocator@PAVRaven_Bot@@@std@@QAE@XZ ; std::allocator<Raven_Bot *>::allocator<Raven_Bot *>
	push	eax
	mov	ecx, DWORD PTR _this$[ebp]
	call	??0?$_List_buy@PAVRaven_Bot@@V?$allocator@PAVRaven_Bot@@@std@@@std@@QAE@ABV?$allocator@PAVRaven_Bot@@@1@@Z ; std::_List_buy<Raven_Bot *,std::allocator<Raven_Bot *> >::_List_buy<Raven_Bot *,std::allocator<Raven_Bot *> >

; 891  : 		}

	mov	eax, DWORD PTR _this$[ebp]
	add	esp, 8
	cmp	ebp, esp
	call	__RTC_CheckEsp
	mov	esp, ebp
	pop	ebp
	ret	0
??0?$list@PAVRaven_Bot@@V?$allocator@PAVRaven_Bot@@@std@@@std@@QAE@XZ ENDP ; std::list<Raven_Bot *,std::allocator<Raven_Bot *> >::list<Raven_Bot *,std::allocator<Raven_Bot *> >
_TEXT	ENDS
; Function compile flags: /Odtp /RTCsu
;	COMDAT ??1?$_List_buy@PAVRaven_Bot@@V?$allocator@PAVRaven_Bot@@@std@@@std@@QAE@XZ
_TEXT	SEGMENT
_this$ = -4						; size = 4
??1?$_List_buy@PAVRaven_Bot@@V?$allocator@PAVRaven_Bot@@@std@@@std@@QAE@XZ PROC ; std::_List_buy<Raven_Bot *,std::allocator<Raven_Bot *> >::~_List_buy<Raven_Bot *,std::allocator<Raven_Bot *> >, COMDAT
; _this$ = ecx
	push	ebp
	mov	ebp, esp
	push	ecx
	mov	DWORD PTR [ebp-4], -858993460		; ccccccccH
	mov	DWORD PTR _this$[ebp], ecx
	mov	ecx, DWORD PTR _this$[ebp]
	call	??1?$_List_alloc@U?$_List_base_types@PAVRaven_Bot@@V?$allocator@PAVRaven_Bot@@@std@@@std@@@std@@QAE@XZ ; std::_List_alloc<std::_List_base_types<Raven_Bot *,std::allocator<Raven_Bot *> > >::~_List_alloc<std::_List_base_types<Raven_Bot *,std::allocator<Raven_Bot *> > >
	add	esp, 4
	cmp	ebp, esp
	call	__RTC_CheckEsp
	mov	esp, ebp
	pop	ebp
	ret	0
??1?$_List_buy@PAVRaven_Bot@@V?$allocator@PAVRaven_Bot@@@std@@@std@@QAE@XZ ENDP ; std::_List_buy<Raven_Bot *,std::allocator<Raven_Bot *> >::~_List_buy<Raven_Bot *,std::allocator<Raven_Bot *> >
_TEXT	ENDS
; Function compile flags: /Odtp /RTCsu
; File d:\microsoft visual studio 14.0\vc\include\list
;	COMDAT ?_Freenode@?$_List_buy@PAVRaven_Bot@@V?$allocator@PAVRaven_Bot@@@std@@@std@@QAEXPAU?$_List_node@PAVRaven_Bot@@PAX@2@@Z
_TEXT	SEGMENT
_this$ = -4						; size = 4
__Pnode$ = 8						; size = 4
?_Freenode@?$_List_buy@PAVRaven_Bot@@V?$allocator@PAVRaven_Bot@@@std@@@std@@QAEXPAU?$_List_node@PAVRaven_Bot@@PAX@2@@Z PROC ; std::_List_buy<Raven_Bot *,std::allocator<Raven_Bot *> >::_Freenode, COMDAT
; _this$ = ecx

; 845  : 		{	// give node back

	push	ebp
	mov	ebp, esp
	push	ecx
	mov	DWORD PTR [ebp-4], -858993460		; ccccccccH
	mov	DWORD PTR _this$[ebp], ecx

; 846  : 		this->_Getal().destroy(

	mov	eax, DWORD PTR __Pnode$[ebp]
	push	eax
	call	?_Nextnode@?$_List_alloc@U?$_List_base_types@PAVRaven_Bot@@V?$allocator@PAVRaven_Bot@@@std@@@std@@@std@@SAAAPAU?$_List_node@PAVRaven_Bot@@PAX@2@PAU32@@Z ; std::_List_alloc<std::_List_base_types<Raven_Bot *,std::allocator<Raven_Bot *> > >::_Nextnode
	add	esp, 4
	push	eax
	call	??$addressof@PAU?$_List_node@PAVRaven_Bot@@PAX@std@@@std@@YAPAPAU?$_List_node@PAVRaven_Bot@@PAX@0@AAPAU10@@Z ; std::addressof<std::_List_node<Raven_Bot *,void *> *>
	add	esp, 4
	push	eax
	mov	ecx, DWORD PTR _this$[ebp]
	call	?_Getal@?$_List_alloc@U?$_List_base_types@PAVRaven_Bot@@V?$allocator@PAVRaven_Bot@@@std@@@std@@@std@@QAEAAU?$_Wrap_alloc@V?$allocator@U?$_List_node@PAVRaven_Bot@@PAX@std@@@std@@@2@XZ ; std::_List_alloc<std::_List_base_types<Raven_Bot *,std::allocator<Raven_Bot *> > >::_Getal
	mov	ecx, eax
	call	??$destroy@PAU?$_List_node@PAVRaven_Bot@@PAX@std@@@?$_Wrap_alloc@V?$allocator@U?$_List_node@PAVRaven_Bot@@PAX@std@@@std@@@std@@QAEXPAPAU?$_List_node@PAVRaven_Bot@@PAX@1@@Z ; std::_Wrap_alloc<std::allocator<std::_List_node<Raven_Bot *,void *> > >::destroy<std::_List_node<Raven_Bot *,void *> *>

; 847  : 			_STD addressof(this->_Nextnode(_Pnode)));
; 848  : 		this->_Getal().destroy(

	mov	ecx, DWORD PTR __Pnode$[ebp]
	push	ecx
	call	?_Prevnode@?$_List_alloc@U?$_List_base_types@PAVRaven_Bot@@V?$allocator@PAVRaven_Bot@@@std@@@std@@@std@@SAAAPAU?$_List_node@PAVRaven_Bot@@PAX@2@PAU32@@Z ; std::_List_alloc<std::_List_base_types<Raven_Bot *,std::allocator<Raven_Bot *> > >::_Prevnode
	add	esp, 4
	push	eax
	call	??$addressof@PAU?$_List_node@PAVRaven_Bot@@PAX@std@@@std@@YAPAPAU?$_List_node@PAVRaven_Bot@@PAX@0@AAPAU10@@Z ; std::addressof<std::_List_node<Raven_Bot *,void *> *>
	add	esp, 4
	push	eax
	mov	ecx, DWORD PTR _this$[ebp]
	call	?_Getal@?$_List_alloc@U?$_List_base_types@PAVRaven_Bot@@V?$allocator@PAVRaven_Bot@@@std@@@std@@@std@@QAEAAU?$_Wrap_alloc@V?$allocator@U?$_List_node@PAVRaven_Bot@@PAX@std@@@std@@@2@XZ ; std::_List_alloc<std::_List_base_types<Raven_Bot *,std::allocator<Raven_Bot *> > >::_Getal
	mov	ecx, eax
	call	??$destroy@PAU?$_List_node@PAVRaven_Bot@@PAX@std@@@?$_Wrap_alloc@V?$allocator@U?$_List_node@PAVRaven_Bot@@PAX@std@@@std@@@std@@QAEXPAPAU?$_List_node@PAVRaven_Bot@@PAX@1@@Z ; std::_Wrap_alloc<std::allocator<std::_List_node<Raven_Bot *,void *> > >::destroy<std::_List_node<Raven_Bot *,void *> *>

; 849  : 			_STD addressof(this->_Prevnode(_Pnode)));
; 850  : 		this->_Getal().destroy(

	mov	edx, DWORD PTR __Pnode$[ebp]
	push	edx
	call	?_Myval@?$_List_alloc@U?$_List_base_types@PAVRaven_Bot@@V?$allocator@PAVRaven_Bot@@@std@@@std@@@std@@SAAAPAVRaven_Bot@@PAU?$_List_node@PAVRaven_Bot@@PAX@2@@Z ; std::_List_alloc<std::_List_base_types<Raven_Bot *,std::allocator<Raven_Bot *> > >::_Myval
	add	esp, 4
	push	eax
	call	??$addressof@PAVRaven_Bot@@@std@@YAPAPAVRaven_Bot@@AAPAV1@@Z ; std::addressof<Raven_Bot *>
	add	esp, 4
	push	eax
	mov	ecx, DWORD PTR _this$[ebp]
	call	?_Getal@?$_List_alloc@U?$_List_base_types@PAVRaven_Bot@@V?$allocator@PAVRaven_Bot@@@std@@@std@@@std@@QAEAAU?$_Wrap_alloc@V?$allocator@U?$_List_node@PAVRaven_Bot@@PAX@std@@@std@@@2@XZ ; std::_List_alloc<std::_List_base_types<Raven_Bot *,std::allocator<Raven_Bot *> > >::_Getal
	mov	ecx, eax
	call	??$destroy@PAVRaven_Bot@@@?$_Wrap_alloc@V?$allocator@U?$_List_node@PAVRaven_Bot@@PAX@std@@@std@@@std@@QAEXPAPAVRaven_Bot@@@Z ; std::_Wrap_alloc<std::allocator<std::_List_node<Raven_Bot *,void *> > >::destroy<Raven_Bot *>

; 851  : 			_STD addressof(this->_Myval(_Pnode)));
; 852  : 		this->_Getal().deallocate(_Pnode, 1);

	push	1
	mov	eax, DWORD PTR __Pnode$[ebp]
	push	eax
	mov	ecx, DWORD PTR _this$[ebp]
	call	?_Getal@?$_List_alloc@U?$_List_base_types@PAVRaven_Bot@@V?$allocator@PAVRaven_Bot@@@std@@@std@@@std@@QAEAAU?$_Wrap_alloc@V?$allocator@U?$_List_node@PAVRaven_Bot@@PAX@std@@@std@@@2@XZ ; std::_List_alloc<std::_List_base_types<Raven_Bot *,std::allocator<Raven_Bot *> > >::_Getal
	mov	ecx, eax
	call	?deallocate@?$_Wrap_alloc@V?$allocator@U?$_List_node@PAVRaven_Bot@@PAX@std@@@std@@@std@@QAEXPAU?$_List_node@PAVRaven_Bot@@PAX@2@I@Z ; std::_Wrap_alloc<std::allocator<std::_List_node<Raven_Bot *,void *> > >::deallocate

; 853  : 		}

	add	esp, 4
	cmp	ebp, esp
	call	__RTC_CheckEsp
	mov	esp, ebp
	pop	ebp
	ret	4
?_Freenode@?$_List_buy@PAVRaven_Bot@@V?$allocator@PAVRaven_Bot@@@std@@@std@@QAEXPAU?$_List_node@PAVRaven_Bot@@PAX@2@@Z ENDP ; std::_List_buy<Raven_Bot *,std::allocator<Raven_Bot *> >::_Freenode
_TEXT	ENDS
; Function compile flags: /Odtp /RTCsu
; File d:\microsoft visual studio 14.0\vc\include\list
;	COMDAT ??0?$_List_buy@PAVRaven_Bot@@V?$allocator@PAVRaven_Bot@@@std@@@std@@QAE@$$QAV?$allocator@PAVRaven_Bot@@@1@@Z
_TEXT	SEGMENT
_this$ = -4						; size = 4
__Al$ = 8						; size = 4
??0?$_List_buy@PAVRaven_Bot@@V?$allocator@PAVRaven_Bot@@@std@@@std@@QAE@$$QAV?$allocator@PAVRaven_Bot@@@1@@Z PROC ; std::_List_buy<Raven_Bot *,std::allocator<Raven_Bot *> >::_List_buy<Raven_Bot *,std::allocator<Raven_Bot *> >, COMDAT
; _this$ = ecx

; 822  : 		{	// construct from allocator

	push	ebp
	mov	ebp, esp
	push	ecx
	mov	DWORD PTR [ebp-4], -858993460		; ccccccccH
	mov	DWORD PTR _this$[ebp], ecx

; 821  : 		: _Mybase(_STD move(_Al))

	mov	eax, DWORD PTR __Al$[ebp]
	push	eax
	call	??$move@AAV?$allocator@PAVRaven_Bot@@@std@@@std@@YA$$QAV?$allocator@PAVRaven_Bot@@@0@AAV10@@Z ; std::move<std::allocator<Raven_Bot *> &>
	add	esp, 4
	push	eax
	mov	ecx, DWORD PTR _this$[ebp]
	call	??0?$_List_alloc@U?$_List_base_types@PAVRaven_Bot@@V?$allocator@PAVRaven_Bot@@@std@@@std@@@std@@QAE@$$QAV?$allocator@PAVRaven_Bot@@@1@@Z ; std::_List_alloc<std::_List_base_types<Raven_Bot *,std::allocator<Raven_Bot *> > >::_List_alloc<std::_List_base_types<Raven_Bot *,std::allocator<Raven_Bot *> > >

; 823  : 		}

	mov	eax, DWORD PTR _this$[ebp]
	add	esp, 4
	cmp	ebp, esp
	call	__RTC_CheckEsp
	mov	esp, ebp
	pop	ebp
	ret	4
??0?$_List_buy@PAVRaven_Bot@@V?$allocator@PAVRaven_Bot@@@std@@@std@@QAE@$$QAV?$allocator@PAVRaven_Bot@@@1@@Z ENDP ; std::_List_buy<Raven_Bot *,std::allocator<Raven_Bot *> >::_List_buy<Raven_Bot *,std::allocator<Raven_Bot *> >
_TEXT	ENDS
; Function compile flags: /Odtp /RTCsu
; File d:\microsoft visual studio 14.0\vc\include\list
;	COMDAT ??0?$_List_buy@PAVRaven_Bot@@V?$allocator@PAVRaven_Bot@@@std@@@std@@QAE@ABV?$allocator@PAVRaven_Bot@@@1@@Z
_TEXT	SEGMENT
_this$ = -4						; size = 4
__Al$ = 8						; size = 4
??0?$_List_buy@PAVRaven_Bot@@V?$allocator@PAVRaven_Bot@@@std@@@std@@QAE@ABV?$allocator@PAVRaven_Bot@@@1@@Z PROC ; std::_List_buy<Raven_Bot *,std::allocator<Raven_Bot *> >::_List_buy<Raven_Bot *,std::allocator<Raven_Bot *> >, COMDAT
; _this$ = ecx

; 817  : 		{	// construct from allocator

	push	ebp
	mov	ebp, esp
	push	ecx
	mov	DWORD PTR [ebp-4], -858993460		; ccccccccH
	mov	DWORD PTR _this$[ebp], ecx

; 816  : 		: _Mybase(_Al)

	mov	eax, DWORD PTR __Al$[ebp]
	push	eax
	mov	ecx, DWORD PTR _this$[ebp]
	call	??0?$_List_alloc@U?$_List_base_types@PAVRaven_Bot@@V?$allocator@PAVRaven_Bot@@@std@@@std@@@std@@QAE@ABV?$allocator@PAVRaven_Bot@@@1@@Z ; std::_List_alloc<std::_List_base_types<Raven_Bot *,std::allocator<Raven_Bot *> > >::_List_alloc<std::_List_base_types<Raven_Bot *,std::allocator<Raven_Bot *> > >

; 818  : 		}

	mov	eax, DWORD PTR _this$[ebp]
	add	esp, 4
	cmp	ebp, esp
	call	__RTC_CheckEsp
	mov	esp, ebp
	pop	ebp
	ret	4
??0?$_List_buy@PAVRaven_Bot@@V?$allocator@PAVRaven_Bot@@@std@@@std@@QAE@ABV?$allocator@PAVRaven_Bot@@@1@@Z ENDP ; std::_List_buy<Raven_Bot *,std::allocator<Raven_Bot *> >::_List_buy<Raven_Bot *,std::allocator<Raven_Bot *> >
_TEXT	ENDS
; Function compile flags: /Odtp /RTCsu
;	COMDAT ??1?$_Compressed_pair@U?$_Wrap_alloc@V?$allocator@U?$_List_node@PAVRaven_Bot@@PAX@std@@@std@@@std@@V?$_List_val@U?$_List_simple_types@PAVRaven_Bot@@@std@@@2@$00@std@@QAE@XZ
_TEXT	SEGMENT
_this$ = -4						; size = 4
??1?$_Compressed_pair@U?$_Wrap_alloc@V?$allocator@U?$_List_node@PAVRaven_Bot@@PAX@std@@@std@@@std@@V?$_List_val@U?$_List_simple_types@PAVRaven_Bot@@@std@@@2@$00@std@@QAE@XZ PROC ; std::_Compressed_pair<std::_Wrap_alloc<std::allocator<std::_List_node<Raven_Bot *,void *> > >,std::_List_val<std::_List_simple_types<Raven_Bot *> >,1>::~_Compressed_pair<std::_Wrap_alloc<std::allocator<std::_List_node<Raven_Bot *,void *> > >,std::_List_val<std::_List_simple_types<Raven_Bot *> >,1>, COMDAT
; _this$ = ecx
	push	ebp
	mov	ebp, esp
	push	ecx
	mov	DWORD PTR [ebp-4], -858993460		; ccccccccH
	mov	DWORD PTR _this$[ebp], ecx
	mov	ecx, DWORD PTR _this$[ebp]
	call	??1?$_List_val@U?$_List_simple_types@PAVRaven_Bot@@@std@@@std@@QAE@XZ
	add	esp, 4
	cmp	ebp, esp
	call	__RTC_CheckEsp
	mov	esp, ebp
	pop	ebp
	ret	0
??1?$_Compressed_pair@U?$_Wrap_alloc@V?$allocator@U?$_List_node@PAVRaven_Bot@@PAX@std@@@std@@@std@@V?$_List_val@U?$_List_simple_types@PAVRaven_Bot@@@std@@@2@$00@std@@QAE@XZ ENDP ; std::_Compressed_pair<std::_Wrap_alloc<std::allocator<std::_List_node<Raven_Bot *,void *> > >,std::_List_val<std::_List_simple_types<Raven_Bot *> >,1>::~_Compressed_pair<std::_Wrap_alloc<std::allocator<std::_List_node<Raven_Bot *,void *> > >,std::_List_val<std::_List_simple_types<Raven_Bot *> >,1>
_TEXT	ENDS
; Function compile flags: /Odtp /RTCsu
; File d:\microsoft visual studio 14.0\vc\include\xutility
;	COMDAT ?_Get_second@?$_Compressed_pair@U?$_Wrap_alloc@V?$allocator@U?$_List_node@PAVRaven_Bot@@PAX@std@@@std@@@std@@V?$_List_val@U?$_List_simple_types@PAVRaven_Bot@@@std@@@2@$00@std@@QBEABV?$_List_val@U?$_List_simple_types@PAVRaven_Bot@@@std@@@2@XZ
_TEXT	SEGMENT
_this$ = -4						; size = 4
?_Get_second@?$_Compressed_pair@U?$_Wrap_alloc@V?$allocator@U?$_List_node@PAVRaven_Bot@@PAX@std@@@std@@@std@@V?$_List_val@U?$_List_simple_types@PAVRaven_Bot@@@std@@@2@$00@std@@QBEABV?$_List_val@U?$_List_simple_types@PAVRaven_Bot@@@std@@@2@XZ PROC ; std::_Compressed_pair<std::_Wrap_alloc<std::allocator<std::_List_node<Raven_Bot *,void *> > >,std::_List_val<std::_List_simple_types<Raven_Bot *> >,1>::_Get_second, COMDAT
; _this$ = ecx

; 318  : 		{	// return const reference to second

	push	ebp
	mov	ebp, esp
	push	ecx
	mov	DWORD PTR [ebp-4], -858993460		; ccccccccH
	mov	DWORD PTR _this$[ebp], ecx

; 319  : 		return (_Myval2);

	mov	eax, DWORD PTR _this$[ebp]

; 320  : 		}

	mov	esp, ebp
	pop	ebp
	ret	0
?_Get_second@?$_Compressed_pair@U?$_Wrap_alloc@V?$allocator@U?$_List_node@PAVRaven_Bot@@PAX@std@@@std@@@std@@V?$_List_val@U?$_List_simple_types@PAVRaven_Bot@@@std@@@2@$00@std@@QBEABV?$_List_val@U?$_List_simple_types@PAVRaven_Bot@@@std@@@2@XZ ENDP ; std::_Compressed_pair<std::_Wrap_alloc<std::allocator<std::_List_node<Raven_Bot *,void *> > >,std::_List_val<std::_List_simple_types<Raven_Bot *> >,1>::_Get_second
_TEXT	ENDS
; Function compile flags: /Odtp /RTCsu
; File d:\microsoft visual studio 14.0\vc\include\xutility
;	COMDAT ?_Get_second@?$_Compressed_pair@U?$_Wrap_alloc@V?$allocator@U?$_List_node@PAVRaven_Bot@@PAX@std@@@std@@@std@@V?$_List_val@U?$_List_simple_types@PAVRaven_Bot@@@std@@@2@$00@std@@QAEAAV?$_List_val@U?$_List_simple_types@PAVRaven_Bot@@@std@@@2@XZ
_TEXT	SEGMENT
_this$ = -4						; size = 4
?_Get_second@?$_Compressed_pair@U?$_Wrap_alloc@V?$allocator@U?$_List_node@PAVRaven_Bot@@PAX@std@@@std@@@std@@V?$_List_val@U?$_List_simple_types@PAVRaven_Bot@@@std@@@2@$00@std@@QAEAAV?$_List_val@U?$_List_simple_types@PAVRaven_Bot@@@std@@@2@XZ PROC ; std::_Compressed_pair<std::_Wrap_alloc<std::allocator<std::_List_node<Raven_Bot *,void *> > >,std::_List_val<std::_List_simple_types<Raven_Bot *> >,1>::_Get_second, COMDAT
; _this$ = ecx

; 313  : 		{	// return reference to second

	push	ebp
	mov	ebp, esp
	push	ecx
	mov	DWORD PTR [ebp-4], -858993460		; ccccccccH
	mov	DWORD PTR _this$[ebp], ecx

; 314  : 		return (_Myval2);

	mov	eax, DWORD PTR _this$[ebp]

; 315  : 		}

	mov	esp, ebp
	pop	ebp
	ret	0
?_Get_second@?$_Compressed_pair@U?$_Wrap_alloc@V?$allocator@U?$_List_node@PAVRaven_Bot@@PAX@std@@@std@@@std@@V?$_List_val@U?$_List_simple_types@PAVRaven_Bot@@@std@@@2@$00@std@@QAEAAV?$_List_val@U?$_List_simple_types@PAVRaven_Bot@@@std@@@2@XZ ENDP ; std::_Compressed_pair<std::_Wrap_alloc<std::allocator<std::_List_node<Raven_Bot *,void *> > >,std::_List_val<std::_List_simple_types<Raven_Bot *> >,1>::_Get_second
_TEXT	ENDS
; Function compile flags: /Odtp /RTCsu
; File d:\microsoft visual studio 14.0\vc\include\xutility
;	COMDAT ?_Get_first@?$_Compressed_pair@U?$_Wrap_alloc@V?$allocator@U?$_List_node@PAVRaven_Bot@@PAX@std@@@std@@@std@@V?$_List_val@U?$_List_simple_types@PAVRaven_Bot@@@std@@@2@$00@std@@QBEABU?$_Wrap_alloc@V?$allocator@U?$_List_node@PAVRaven_Bot@@PAX@std@@@std@@@2@XZ
_TEXT	SEGMENT
_this$ = -4						; size = 4
?_Get_first@?$_Compressed_pair@U?$_Wrap_alloc@V?$allocator@U?$_List_node@PAVRaven_Bot@@PAX@std@@@std@@@std@@V?$_List_val@U?$_List_simple_types@PAVRaven_Bot@@@std@@@2@$00@std@@QBEABU?$_Wrap_alloc@V?$allocator@U?$_List_node@PAVRaven_Bot@@PAX@std@@@std@@@2@XZ PROC ; std::_Compressed_pair<std::_Wrap_alloc<std::allocator<std::_List_node<Raven_Bot *,void *> > >,std::_List_val<std::_List_simple_types<Raven_Bot *> >,1>::_Get_first, COMDAT
; _this$ = ecx

; 298  : 		{	// return const reference to first

	push	ebp
	mov	ebp, esp
	push	ecx
	mov	DWORD PTR [ebp-4], -858993460		; ccccccccH
	mov	DWORD PTR _this$[ebp], ecx

; 299  : 		return (*this);

	mov	eax, DWORD PTR _this$[ebp]

; 300  : 		}

	mov	esp, ebp
	pop	ebp
	ret	0
?_Get_first@?$_Compressed_pair@U?$_Wrap_alloc@V?$allocator@U?$_List_node@PAVRaven_Bot@@PAX@std@@@std@@@std@@V?$_List_val@U?$_List_simple_types@PAVRaven_Bot@@@std@@@2@$00@std@@QBEABU?$_Wrap_alloc@V?$allocator@U?$_List_node@PAVRaven_Bot@@PAX@std@@@std@@@2@XZ ENDP ; std::_Compressed_pair<std::_Wrap_alloc<std::allocator<std::_List_node<Raven_Bot *,void *> > >,std::_List_val<std::_List_simple_types<Raven_Bot *> >,1>::_Get_first
_TEXT	ENDS
; Function compile flags: /Odtp /RTCsu
; File d:\microsoft visual studio 14.0\vc\include\xutility
;	COMDAT ?_Get_first@?$_Compressed_pair@U?$_Wrap_alloc@V?$allocator@U?$_List_node@PAVRaven_Bot@@PAX@std@@@std@@@std@@V?$_List_val@U?$_List_simple_types@PAVRaven_Bot@@@std@@@2@$00@std@@QAEAAU?$_Wrap_alloc@V?$allocator@U?$_List_node@PAVRaven_Bot@@PAX@std@@@std@@@2@XZ
_TEXT	SEGMENT
_this$ = -4						; size = 4
?_Get_first@?$_Compressed_pair@U?$_Wrap_alloc@V?$allocator@U?$_List_node@PAVRaven_Bot@@PAX@std@@@std@@@std@@V?$_List_val@U?$_List_simple_types@PAVRaven_Bot@@@std@@@2@$00@std@@QAEAAU?$_Wrap_alloc@V?$allocator@U?$_List_node@PAVRaven_Bot@@PAX@std@@@std@@@2@XZ PROC ; std::_Compressed_pair<std::_Wrap_alloc<std::allocator<std::_List_node<Raven_Bot *,void *> > >,std::_List_val<std::_List_simple_types<Raven_Bot *> >,1>::_Get_first, COMDAT
; _this$ = ecx

; 293  : 		{	// return reference to first

	push	ebp
	mov	ebp, esp
	push	ecx
	mov	DWORD PTR [ebp-4], -858993460		; ccccccccH
	mov	DWORD PTR _this$[ebp], ecx

; 294  : 		return (*this);

	mov	eax, DWORD PTR _this$[ebp]

; 295  : 		}

	mov	esp, ebp
	pop	ebp
	ret	0
?_Get_first@?$_Compressed_pair@U?$_Wrap_alloc@V?$allocator@U?$_List_node@PAVRaven_Bot@@PAX@std@@@std@@@std@@V?$_List_val@U?$_List_simple_types@PAVRaven_Bot@@@std@@@2@$00@std@@QAEAAU?$_Wrap_alloc@V?$allocator@U?$_List_node@PAVRaven_Bot@@PAX@std@@@std@@@2@XZ ENDP ; std::_Compressed_pair<std::_Wrap_alloc<std::allocator<std::_List_node<Raven_Bot *,void *> > >,std::_List_val<std::_List_simple_types<Raven_Bot *> >,1>::_Get_first
_TEXT	ENDS
; Function compile flags: /Odtp /RTCsu
;	COMDAT ??1?$_List_val@U?$_List_simple_types@PAVRaven_Bot@@@std@@@std@@QAE@XZ
_TEXT	SEGMENT
_this$ = -4						; size = 4
??1?$_List_val@U?$_List_simple_types@PAVRaven_Bot@@@std@@@std@@QAE@XZ PROC ; std::_List_val<std::_List_simple_types<Raven_Bot *> >::~_List_val<std::_List_simple_types<Raven_Bot *> >, COMDAT
; _this$ = ecx
	push	ebp
	mov	ebp, esp
	push	ecx
	mov	DWORD PTR [ebp-4], -858993460		; ccccccccH
	mov	DWORD PTR _this$[ebp], ecx
	mov	ecx, DWORD PTR _this$[ebp]
	call	??1_Container_base12@std@@QAE@XZ	; std::_Container_base12::~_Container_base12
	add	esp, 4
	cmp	ebp, esp
	call	__RTC_CheckEsp
	mov	esp, ebp
	pop	ebp
	ret	0
??1?$_List_val@U?$_List_simple_types@PAVRaven_Bot@@@std@@@std@@QAE@XZ ENDP ; std::_List_val<std::_List_simple_types<Raven_Bot *> >::~_List_val<std::_List_simple_types<Raven_Bot *> >
_TEXT	ENDS
; Function compile flags: /Odtp /RTCsu
; File d:\microsoft visual studio 14.0\vc\include\list
;	COMDAT ?_Myval@?$_List_val@U?$_List_simple_types@PAVRaven_Bot@@@std@@@std@@SAAAPAVRaven_Bot@@PAU?$_List_node@PAVRaven_Bot@@PAX@2@@Z
_TEXT	SEGMENT
__Pnode$ = 8						; size = 4
?_Myval@?$_List_val@U?$_List_simple_types@PAVRaven_Bot@@@std@@@std@@SAAAPAVRaven_Bot@@PAU?$_List_node@PAVRaven_Bot@@PAX@2@@Z PROC ; std::_List_val<std::_List_simple_types<Raven_Bot *> >::_Myval, COMDAT

; 540  : 		{	// return reference to value in node

	push	ebp
	mov	ebp, esp

; 541  : 		return ((reference)_Pnode->_Myval);

	mov	eax, DWORD PTR __Pnode$[ebp]
	add	eax, 8

; 542  : 		}

	pop	ebp
	ret	0
?_Myval@?$_List_val@U?$_List_simple_types@PAVRaven_Bot@@@std@@@std@@SAAAPAVRaven_Bot@@PAU?$_List_node@PAVRaven_Bot@@PAX@2@@Z ENDP ; std::_List_val<std::_List_simple_types<Raven_Bot *> >::_Myval
_TEXT	ENDS
; Function compile flags: /Odtp /RTCsu
; File d:\microsoft visual studio 14.0\vc\include\list
;	COMDAT ?_Prevnode@?$_List_val@U?$_List_simple_types@PAVRaven_Bot@@@std@@@std@@SAAAPAU?$_List_node@PAVRaven_Bot@@PAX@2@PAU32@@Z
_TEXT	SEGMENT
__Pnode$ = 8						; size = 4
?_Prevnode@?$_List_val@U?$_List_simple_types@PAVRaven_Bot@@@std@@@std@@SAAAPAU?$_List_node@PAVRaven_Bot@@PAX@2@PAU32@@Z PROC ; std::_List_val<std::_List_simple_types<Raven_Bot *> >::_Prevnode, COMDAT

; 535  : 		{	// return reference to predecessor pointer in node

	push	ebp
	mov	ebp, esp

; 536  : 		return ((_Nodepref)_Pnode->_Prev);

	mov	eax, DWORD PTR __Pnode$[ebp]
	add	eax, 4

; 537  : 		}

	pop	ebp
	ret	0
?_Prevnode@?$_List_val@U?$_List_simple_types@PAVRaven_Bot@@@std@@@std@@SAAAPAU?$_List_node@PAVRaven_Bot@@PAX@2@PAU32@@Z ENDP ; std::_List_val<std::_List_simple_types<Raven_Bot *> >::_Prevnode
_TEXT	ENDS
; Function compile flags: /Odtp /RTCsu
; File d:\microsoft visual studio 14.0\vc\include\list
;	COMDAT ?_Nextnode@?$_List_val@U?$_List_simple_types@PAVRaven_Bot@@@std@@@std@@SAAAPAU?$_List_node@PAVRaven_Bot@@PAX@2@PAU32@@Z
_TEXT	SEGMENT
__Pnode$ = 8						; size = 4
?_Nextnode@?$_List_val@U?$_List_simple_types@PAVRaven_Bot@@@std@@@std@@SAAAPAU?$_List_node@PAVRaven_Bot@@PAX@2@PAU32@@Z PROC ; std::_List_val<std::_List_simple_types<Raven_Bot *> >::_Nextnode, COMDAT

; 530  : 		{	// return reference to successor pointer in node

	push	ebp
	mov	ebp, esp

; 531  : 		return ((_Nodepref)_Pnode->_Next);

	mov	eax, DWORD PTR __Pnode$[ebp]

; 532  : 		}

	pop	ebp
	ret	0
?_Nextnode@?$_List_val@U?$_List_simple_types@PAVRaven_Bot@@@std@@@std@@SAAAPAU?$_List_node@PAVRaven_Bot@@PAX@2@PAU32@@Z ENDP ; std::_List_val<std::_List_simple_types<Raven_Bot *> >::_Nextnode
_TEXT	ENDS
; Function compile flags: /Odtp /RTCsu
; File d:\microsoft visual studio 14.0\vc\include\list
;	COMDAT ??0?$_List_val@U?$_List_simple_types@PAVRaven_Bot@@@std@@@std@@QAE@XZ
_TEXT	SEGMENT
_this$ = -4						; size = 4
??0?$_List_val@U?$_List_simple_types@PAVRaven_Bot@@@std@@@std@@QAE@XZ PROC ; std::_List_val<std::_List_simple_types<Raven_Bot *> >::_List_val<std::_List_simple_types<Raven_Bot *> >, COMDAT
; _this$ = ecx

; 523  : 	_List_val()

	push	ebp
	mov	ebp, esp
	push	ecx
	mov	DWORD PTR [ebp-4], -858993460		; ccccccccH
	mov	DWORD PTR _this$[ebp], ecx

; 524  : 		{	// initialize data

	mov	ecx, DWORD PTR _this$[ebp]
	call	??0_Container_base12@std@@QAE@XZ	; std::_Container_base12::_Container_base12

; 525  : 		this->_Myhead = 0;

	mov	eax, DWORD PTR _this$[ebp]
	mov	DWORD PTR [eax+4], 0

; 526  : 		this->_Mysize = 0;

	mov	ecx, DWORD PTR _this$[ebp]
	mov	DWORD PTR [ecx+8], 0

; 527  : 		}

	mov	eax, DWORD PTR _this$[ebp]
	add	esp, 4
	cmp	ebp, esp
	call	__RTC_CheckEsp
	mov	esp, ebp
	pop	ebp
	ret	0
??0?$_List_val@U?$_List_simple_types@PAVRaven_Bot@@@std@@@std@@QAE@XZ ENDP ; std::_List_val<std::_List_simple_types<Raven_Bot *> >::_List_val<std::_List_simple_types<Raven_Bot *> >
_TEXT	ENDS
; Function compile flags: /Odtp /RTCsu
; File d:\microsoft visual studio 14.0\vc\include\list
;	COMDAT ?_Mysize@?$_List_alloc@U?$_List_base_types@PAVRaven_Bot@@V?$allocator@PAVRaven_Bot@@@std@@@std@@@std@@QAEAAIXZ
_TEXT	SEGMENT
_this$ = -4						; size = 4
?_Mysize@?$_List_alloc@U?$_List_base_types@PAVRaven_Bot@@V?$allocator@PAVRaven_Bot@@@std@@@std@@@std@@QAEAAIXZ PROC ; std::_List_alloc<std::_List_base_types<Raven_Bot *,std::allocator<Raven_Bot *> > >::_Mysize, COMDAT
; _this$ = ecx

; 791  : 		{	// return reference to _Mysize

	push	ebp
	mov	ebp, esp
	push	ecx
	mov	DWORD PTR [ebp-4], -858993460		; ccccccccH
	mov	DWORD PTR _this$[ebp], ecx

; 792  : 		return (_Get_data()._Mysize);

	mov	ecx, DWORD PTR _this$[ebp]
	call	?_Get_data@?$_List_alloc@U?$_List_base_types@PAVRaven_Bot@@V?$allocator@PAVRaven_Bot@@@std@@@std@@@std@@QAEAAV?$_List_val@U?$_List_simple_types@PAVRaven_Bot@@@std@@@2@XZ ; std::_List_alloc<std::_List_base_types<Raven_Bot *,std::allocator<Raven_Bot *> > >::_Get_data
	add	eax, 8

; 793  : 		}

	add	esp, 4
	cmp	ebp, esp
	call	__RTC_CheckEsp
	mov	esp, ebp
	pop	ebp
	ret	0
?_Mysize@?$_List_alloc@U?$_List_base_types@PAVRaven_Bot@@V?$allocator@PAVRaven_Bot@@@std@@@std@@@std@@QAEAAIXZ ENDP ; std::_List_alloc<std::_List_base_types<Raven_Bot *,std::allocator<Raven_Bot *> > >::_Mysize
_TEXT	ENDS
; Function compile flags: /Odtp /RTCsu
; File d:\microsoft visual studio 14.0\vc\include\list
;	COMDAT ?_Myhead@?$_List_alloc@U?$_List_base_types@PAVRaven_Bot@@V?$allocator@PAVRaven_Bot@@@std@@@std@@@std@@QBEABQAU?$_List_node@PAVRaven_Bot@@PAX@2@XZ
_TEXT	SEGMENT
_this$ = -4						; size = 4
?_Myhead@?$_List_alloc@U?$_List_base_types@PAVRaven_Bot@@V?$allocator@PAVRaven_Bot@@@std@@@std@@@std@@QBEABQAU?$_List_node@PAVRaven_Bot@@PAX@2@XZ PROC ; std::_List_alloc<std::_List_base_types<Raven_Bot *,std::allocator<Raven_Bot *> > >::_Myhead, COMDAT
; _this$ = ecx

; 786  : 		{	// return const reference to _Myhead

	push	ebp
	mov	ebp, esp
	push	ecx
	mov	DWORD PTR [ebp-4], -858993460		; ccccccccH
	mov	DWORD PTR _this$[ebp], ecx

; 787  : 		return (_Get_data()._Myhead);

	mov	ecx, DWORD PTR _this$[ebp]
	call	?_Get_data@?$_List_alloc@U?$_List_base_types@PAVRaven_Bot@@V?$allocator@PAVRaven_Bot@@@std@@@std@@@std@@QBEABV?$_List_val@U?$_List_simple_types@PAVRaven_Bot@@@std@@@2@XZ ; std::_List_alloc<std::_List_base_types<Raven_Bot *,std::allocator<Raven_Bot *> > >::_Get_data
	add	eax, 4

; 788  : 		}

	add	esp, 4
	cmp	ebp, esp
	call	__RTC_CheckEsp
	mov	esp, ebp
	pop	ebp
	ret	0
?_Myhead@?$_List_alloc@U?$_List_base_types@PAVRaven_Bot@@V?$allocator@PAVRaven_Bot@@@std@@@std@@@std@@QBEABQAU?$_List_node@PAVRaven_Bot@@PAX@2@XZ ENDP ; std::_List_alloc<std::_List_base_types<Raven_Bot *,std::allocator<Raven_Bot *> > >::_Myhead
_TEXT	ENDS
; Function compile flags: /Odtp /RTCsu
; File d:\microsoft visual studio 14.0\vc\include\list
;	COMDAT ?_Myhead@?$_List_alloc@U?$_List_base_types@PAVRaven_Bot@@V?$allocator@PAVRaven_Bot@@@std@@@std@@@std@@QAEAAPAU?$_List_node@PAVRaven_Bot@@PAX@2@XZ
_TEXT	SEGMENT
_this$ = -4						; size = 4
?_Myhead@?$_List_alloc@U?$_List_base_types@PAVRaven_Bot@@V?$allocator@PAVRaven_Bot@@@std@@@std@@@std@@QAEAAPAU?$_List_node@PAVRaven_Bot@@PAX@2@XZ PROC ; std::_List_alloc<std::_List_base_types<Raven_Bot *,std::allocator<Raven_Bot *> > >::_Myhead, COMDAT
; _this$ = ecx

; 781  : 		{	// return reference to _Myhead

	push	ebp
	mov	ebp, esp
	push	ecx
	mov	DWORD PTR [ebp-4], -858993460		; ccccccccH
	mov	DWORD PTR _this$[ebp], ecx

; 782  : 		return (_Get_data()._Myhead);

	mov	ecx, DWORD PTR _this$[ebp]
	call	?_Get_data@?$_List_alloc@U?$_List_base_types@PAVRaven_Bot@@V?$allocator@PAVRaven_Bot@@@std@@@std@@@std@@QAEAAV?$_List_val@U?$_List_simple_types@PAVRaven_Bot@@@std@@@2@XZ ; std::_List_alloc<std::_List_base_types<Raven_Bot *,std::allocator<Raven_Bot *> > >::_Get_data
	add	eax, 4

; 783  : 		}

	add	esp, 4
	cmp	ebp, esp
	call	__RTC_CheckEsp
	mov	esp, ebp
	pop	ebp
	ret	0
?_Myhead@?$_List_alloc@U?$_List_base_types@PAVRaven_Bot@@V?$allocator@PAVRaven_Bot@@@std@@@std@@@std@@QAEAAPAU?$_List_node@PAVRaven_Bot@@PAX@2@XZ ENDP ; std::_List_alloc<std::_List_base_types<Raven_Bot *,std::allocator<Raven_Bot *> > >::_Myhead
_TEXT	ENDS
; Function compile flags: /Odtp /RTCsu
; File d:\microsoft visual studio 14.0\vc\include\list
;	COMDAT ?_Get_data@?$_List_alloc@U?$_List_base_types@PAVRaven_Bot@@V?$allocator@PAVRaven_Bot@@@std@@@std@@@std@@QBEABV?$_List_val@U?$_List_simple_types@PAVRaven_Bot@@@std@@@2@XZ
_TEXT	SEGMENT
_this$ = -4						; size = 4
?_Get_data@?$_List_alloc@U?$_List_base_types@PAVRaven_Bot@@V?$allocator@PAVRaven_Bot@@@std@@@std@@@std@@QBEABV?$_List_val@U?$_List_simple_types@PAVRaven_Bot@@@std@@@2@XZ PROC ; std::_List_alloc<std::_List_base_types<Raven_Bot *,std::allocator<Raven_Bot *> > >::_Get_data, COMDAT
; _this$ = ecx

; 776  : 		{	// return const reference to _List_val

	push	ebp
	mov	ebp, esp
	push	ecx
	mov	DWORD PTR [ebp-4], -858993460		; ccccccccH
	mov	DWORD PTR _this$[ebp], ecx

; 777  : 		return (_Mypair._Get_second());

	mov	ecx, DWORD PTR _this$[ebp]
	call	?_Get_second@?$_Compressed_pair@U?$_Wrap_alloc@V?$allocator@U?$_List_node@PAVRaven_Bot@@PAX@std@@@std@@@std@@V?$_List_val@U?$_List_simple_types@PAVRaven_Bot@@@std@@@2@$00@std@@QBEABV?$_List_val@U?$_List_simple_types@PAVRaven_Bot@@@std@@@2@XZ ; std::_Compressed_pair<std::_Wrap_alloc<std::allocator<std::_List_node<Raven_Bot *,void *> > >,std::_List_val<std::_List_simple_types<Raven_Bot *> >,1>::_Get_second

; 778  : 		}

	add	esp, 4
	cmp	ebp, esp
	call	__RTC_CheckEsp
	mov	esp, ebp
	pop	ebp
	ret	0
?_Get_data@?$_List_alloc@U?$_List_base_types@PAVRaven_Bot@@V?$allocator@PAVRaven_Bot@@@std@@@std@@@std@@QBEABV?$_List_val@U?$_List_simple_types@PAVRaven_Bot@@@std@@@2@XZ ENDP ; std::_List_alloc<std::_List_base_types<Raven_Bot *,std::allocator<Raven_Bot *> > >::_Get_data
_TEXT	ENDS
; Function compile flags: /Odtp /RTCsu
; File d:\microsoft visual studio 14.0\vc\include\list
;	COMDAT ?_Get_data@?$_List_alloc@U?$_List_base_types@PAVRaven_Bot@@V?$allocator@PAVRaven_Bot@@@std@@@std@@@std@@QAEAAV?$_List_val@U?$_List_simple_types@PAVRaven_Bot@@@std@@@2@XZ
_TEXT	SEGMENT
_this$ = -4						; size = 4
?_Get_data@?$_List_alloc@U?$_List_base_types@PAVRaven_Bot@@V?$allocator@PAVRaven_Bot@@@std@@@std@@@std@@QAEAAV?$_List_val@U?$_List_simple_types@PAVRaven_Bot@@@std@@@2@XZ PROC ; std::_List_alloc<std::_List_base_types<Raven_Bot *,std::allocator<Raven_Bot *> > >::_Get_data, COMDAT
; _this$ = ecx

; 771  : 		{	// return reference to _List_val

	push	ebp
	mov	ebp, esp
	push	ecx
	mov	DWORD PTR [ebp-4], -858993460		; ccccccccH
	mov	DWORD PTR _this$[ebp], ecx

; 772  : 		return (_Mypair._Get_second());

	mov	ecx, DWORD PTR _this$[ebp]
	call	?_Get_second@?$_Compressed_pair@U?$_Wrap_alloc@V?$allocator@U?$_List_node@PAVRaven_Bot@@PAX@std@@@std@@@std@@V?$_List_val@U?$_List_simple_types@PAVRaven_Bot@@@std@@@2@$00@std@@QAEAAV?$_List_val@U?$_List_simple_types@PAVRaven_Bot@@@std@@@2@XZ ; std::_Compressed_pair<std::_Wrap_alloc<std::allocator<std::_List_node<Raven_Bot *,void *> > >,std::_List_val<std::_List_simple_types<Raven_Bot *> >,1>::_Get_second

; 773  : 		}

	add	esp, 4
	cmp	ebp, esp
	call	__RTC_CheckEsp
	mov	esp, ebp
	pop	ebp
	ret	0
?_Get_data@?$_List_alloc@U?$_List_base_types@PAVRaven_Bot@@V?$allocator@PAVRaven_Bot@@@std@@@std@@@std@@QAEAAV?$_List_val@U?$_List_simple_types@PAVRaven_Bot@@@std@@@2@XZ ENDP ; std::_List_alloc<std::_List_base_types<Raven_Bot *,std::allocator<Raven_Bot *> > >::_Get_data
_TEXT	ENDS
; Function compile flags: /Odtp /RTCsu
; File d:\microsoft visual studio 14.0\vc\include\list
;	COMDAT ?_Getal@?$_List_alloc@U?$_List_base_types@PAVRaven_Bot@@V?$allocator@PAVRaven_Bot@@@std@@@std@@@std@@QBEABU?$_Wrap_alloc@V?$allocator@U?$_List_node@PAVRaven_Bot@@PAX@std@@@std@@@2@XZ
_TEXT	SEGMENT
_this$ = -4						; size = 4
?_Getal@?$_List_alloc@U?$_List_base_types@PAVRaven_Bot@@V?$allocator@PAVRaven_Bot@@@std@@@std@@@std@@QBEABU?$_Wrap_alloc@V?$allocator@U?$_List_node@PAVRaven_Bot@@PAX@std@@@std@@@2@XZ PROC ; std::_List_alloc<std::_List_base_types<Raven_Bot *,std::allocator<Raven_Bot *> > >::_Getal, COMDAT
; _this$ = ecx

; 766  : 		{	// return const reference to allocator

	push	ebp
	mov	ebp, esp
	push	ecx
	mov	DWORD PTR [ebp-4], -858993460		; ccccccccH
	mov	DWORD PTR _this$[ebp], ecx

; 767  : 		return (_Mypair._Get_first());

	mov	ecx, DWORD PTR _this$[ebp]
	call	?_Get_first@?$_Compressed_pair@U?$_Wrap_alloc@V?$allocator@U?$_List_node@PAVRaven_Bot@@PAX@std@@@std@@@std@@V?$_List_val@U?$_List_simple_types@PAVRaven_Bot@@@std@@@2@$00@std@@QBEABU?$_Wrap_alloc@V?$allocator@U?$_List_node@PAVRaven_Bot@@PAX@std@@@std@@@2@XZ ; std::_Compressed_pair<std::_Wrap_alloc<std::allocator<std::_List_node<Raven_Bot *,void *> > >,std::_List_val<std::_List_simple_types<Raven_Bot *> >,1>::_Get_first

; 768  : 		}

	add	esp, 4
	cmp	ebp, esp
	call	__RTC_CheckEsp
	mov	esp, ebp
	pop	ebp
	ret	0
?_Getal@?$_List_alloc@U?$_List_base_types@PAVRaven_Bot@@V?$allocator@PAVRaven_Bot@@@std@@@std@@@std@@QBEABU?$_Wrap_alloc@V?$allocator@U?$_List_node@PAVRaven_Bot@@PAX@std@@@std@@@2@XZ ENDP ; std::_List_alloc<std::_List_base_types<Raven_Bot *,std::allocator<Raven_Bot *> > >::_Getal
_TEXT	ENDS
; Function compile flags: /Odtp /RTCsu
; File d:\microsoft visual studio 14.0\vc\include\list
;	COMDAT ?_Getal@?$_List_alloc@U?$_List_base_types@PAVRaven_Bot@@V?$allocator@PAVRaven_Bot@@@std@@@std@@@std@@QAEAAU?$_Wrap_alloc@V?$allocator@U?$_List_node@PAVRaven_Bot@@PAX@std@@@std@@@2@XZ
_TEXT	SEGMENT
_this$ = -4						; size = 4
?_Getal@?$_List_alloc@U?$_List_base_types@PAVRaven_Bot@@V?$allocator@PAVRaven_Bot@@@std@@@std@@@std@@QAEAAU?$_Wrap_alloc@V?$allocator@U?$_List_node@PAVRaven_Bot@@PAX@std@@@std@@@2@XZ PROC ; std::_List_alloc<std::_List_base_types<Raven_Bot *,std::allocator<Raven_Bot *> > >::_Getal, COMDAT
; _this$ = ecx

; 761  : 		{	// return reference to allocator

	push	ebp
	mov	ebp, esp
	push	ecx
	mov	DWORD PTR [ebp-4], -858993460		; ccccccccH
	mov	DWORD PTR _this$[ebp], ecx

; 762  : 		return (_Mypair._Get_first());

	mov	ecx, DWORD PTR _this$[ebp]
	call	?_Get_first@?$_Compressed_pair@U?$_Wrap_alloc@V?$allocator@U?$_List_node@PAVRaven_Bot@@PAX@std@@@std@@@std@@V?$_List_val@U?$_List_simple_types@PAVRaven_Bot@@@std@@@2@$00@std@@QAEAAU?$_Wrap_alloc@V?$allocator@U?$_List_node@PAVRaven_Bot@@PAX@std@@@std@@@2@XZ ; std::_Compressed_pair<std::_Wrap_alloc<std::allocator<std::_List_node<Raven_Bot *,void *> > >,std::_List_val<std::_List_simple_types<Raven_Bot *> >,1>::_Get_first

; 763  : 		}

	add	esp, 4
	cmp	ebp, esp
	call	__RTC_CheckEsp
	mov	esp, ebp
	pop	ebp
	ret	0
?_Getal@?$_List_alloc@U?$_List_base_types@PAVRaven_Bot@@V?$allocator@PAVRaven_Bot@@@std@@@std@@@std@@QAEAAU?$_Wrap_alloc@V?$allocator@U?$_List_node@PAVRaven_Bot@@PAX@std@@@std@@@2@XZ ENDP ; std::_List_alloc<std::_List_base_types<Raven_Bot *,std::allocator<Raven_Bot *> > >::_Getal
_TEXT	ENDS
; Function compile flags: /Odtp /RTCsu
; File d:\microsoft visual studio 14.0\vc\include\list
;	COMDAT ?_Swap_all@?$_List_alloc@U?$_List_base_types@PAVRaven_Bot@@V?$allocator@PAVRaven_Bot@@@std@@@std@@@std@@QAEXAAV12@@Z
_TEXT	SEGMENT
_this$ = -4						; size = 4
__Right$ = 8						; size = 4
?_Swap_all@?$_List_alloc@U?$_List_base_types@PAVRaven_Bot@@V?$allocator@PAVRaven_Bot@@@std@@@std@@@std@@QAEXAAV12@@Z PROC ; std::_List_alloc<std::_List_base_types<Raven_Bot *,std::allocator<Raven_Bot *> > >::_Swap_all, COMDAT
; _this$ = ecx

; 756  : 		{	// swap all iterators

	push	ebp
	mov	ebp, esp
	push	ecx
	mov	DWORD PTR [ebp-4], -858993460		; ccccccccH
	mov	DWORD PTR _this$[ebp], ecx

; 757  : 		_Get_data()._Swap_all(_Right._Get_data());

	mov	ecx, DWORD PTR __Right$[ebp]
	call	?_Get_data@?$_List_alloc@U?$_List_base_types@PAVRaven_Bot@@V?$allocator@PAVRaven_Bot@@@std@@@std@@@std@@QAEAAV?$_List_val@U?$_List_simple_types@PAVRaven_Bot@@@std@@@2@XZ ; std::_List_alloc<std::_List_base_types<Raven_Bot *,std::allocator<Raven_Bot *> > >::_Get_data
	push	eax
	mov	ecx, DWORD PTR _this$[ebp]
	call	?_Get_data@?$_List_alloc@U?$_List_base_types@PAVRaven_Bot@@V?$allocator@PAVRaven_Bot@@@std@@@std@@@std@@QAEAAV?$_List_val@U?$_List_simple_types@PAVRaven_Bot@@@std@@@2@XZ ; std::_List_alloc<std::_List_base_types<Raven_Bot *,std::allocator<Raven_Bot *> > >::_Get_data
	mov	ecx, eax
	call	?_Swap_all@_Container_base12@std@@QAEXAAU12@@Z ; std::_Container_base12::_Swap_all

; 758  : 		}

	add	esp, 4
	cmp	ebp, esp
	call	__RTC_CheckEsp
	mov	esp, ebp
	pop	ebp
	ret	4
?_Swap_all@?$_List_alloc@U?$_List_base_types@PAVRaven_Bot@@V?$allocator@PAVRaven_Bot@@@std@@@std@@@std@@QAEXAAV12@@Z ENDP ; std::_List_alloc<std::_List_base_types<Raven_Bot *,std::allocator<Raven_Bot *> > >::_Swap_all
_TEXT	ENDS
; Function compile flags: /Odtp /RTCsu
; File d:\microsoft visual studio 14.0\vc\include\list
;	COMDAT ?_Orphan_all@?$_List_alloc@U?$_List_base_types@PAVRaven_Bot@@V?$allocator@PAVRaven_Bot@@@std@@@std@@@std@@QAEXXZ
_TEXT	SEGMENT
_this$ = -4						; size = 4
?_Orphan_all@?$_List_alloc@U?$_List_base_types@PAVRaven_Bot@@V?$allocator@PAVRaven_Bot@@@std@@@std@@@std@@QAEXXZ PROC ; std::_List_alloc<std::_List_base_types<Raven_Bot *,std::allocator<Raven_Bot *> > >::_Orphan_all, COMDAT
; _this$ = ecx

; 751  : 		{	// orphan all iterators

	push	ebp
	mov	ebp, esp
	push	ecx
	mov	DWORD PTR [ebp-4], -858993460		; ccccccccH
	mov	DWORD PTR _this$[ebp], ecx

; 752  : 		_Get_data()._Orphan_all();

	mov	ecx, DWORD PTR _this$[ebp]
	call	?_Get_data@?$_List_alloc@U?$_List_base_types@PAVRaven_Bot@@V?$allocator@PAVRaven_Bot@@@std@@@std@@@std@@QAEAAV?$_List_val@U?$_List_simple_types@PAVRaven_Bot@@@std@@@2@XZ ; std::_List_alloc<std::_List_base_types<Raven_Bot *,std::allocator<Raven_Bot *> > >::_Get_data
	mov	ecx, eax
	call	?_Orphan_all@_Container_base12@std@@QAEXXZ ; std::_Container_base12::_Orphan_all

; 753  : 		}

	add	esp, 4
	cmp	ebp, esp
	call	__RTC_CheckEsp
	mov	esp, ebp
	pop	ebp
	ret	0
?_Orphan_all@?$_List_alloc@U?$_List_base_types@PAVRaven_Bot@@V?$allocator@PAVRaven_Bot@@@std@@@std@@@std@@QAEXXZ ENDP ; std::_List_alloc<std::_List_base_types<Raven_Bot *,std::allocator<Raven_Bot *> > >::_Orphan_all
_TEXT	ENDS
; Function compile flags: /Odtp /RTCsu
; File d:\microsoft visual studio 14.0\vc\include\list
;	COMDAT ?_Buynode0@?$_List_alloc@U?$_List_base_types@PAVRaven_Bot@@V?$allocator@PAVRaven_Bot@@@std@@@std@@@std@@QAEPAU?$_List_node@PAVRaven_Bot@@PAX@2@PAU32@0@Z
_TEXT	SEGMENT
tv132 = -32						; size = 4
tv131 = -28						; size = 4
__Pnode$ = -24						; size = 4
_this$ = -20						; size = 4
__$EHRec$ = -16						; size = 16
__Next$ = 8						; size = 4
__Prev$ = 12						; size = 4
?_Buynode0@?$_List_alloc@U?$_List_base_types@PAVRaven_Bot@@V?$allocator@PAVRaven_Bot@@@std@@@std@@@std@@QAEPAU?$_List_node@PAVRaven_Bot@@PAX@2@PAU32@0@Z PROC ; std::_List_alloc<std::_List_base_types<Raven_Bot *,std::allocator<Raven_Bot *> > >::_Buynode0, COMDAT
; _this$ = ecx

; 729  : 		{	// allocate a node and set links

	push	ebp
	mov	ebp, esp
	push	-1
	push	__ehhandler$?_Buynode0@?$_List_alloc@U?$_List_base_types@PAVRaven_Bot@@V?$allocator@PAVRaven_Bot@@@std@@@std@@@std@@QAEPAU?$_List_node@PAVRaven_Bot@@PAX@2@PAU32@0@Z
	mov	eax, DWORD PTR fs:0
	push	eax
	push	ecx
	sub	esp, 16					; 00000010H
	push	ebx
	push	esi
	push	edi
	mov	eax, -858993460				; ccccccccH
	mov	DWORD PTR [ebp-32], eax
	mov	DWORD PTR [ebp-28], eax
	mov	DWORD PTR [ebp-24], eax
	mov	DWORD PTR [ebp-20], eax
	mov	eax, DWORD PTR ___security_cookie
	xor	eax, ebp
	push	eax
	lea	eax, DWORD PTR __$EHRec$[ebp+4]
	mov	DWORD PTR fs:0, eax
	mov	DWORD PTR __$EHRec$[ebp], esp
	mov	DWORD PTR _this$[ebp], ecx

; 730  : 		_Nodeptr _Pnode = _Getal().allocate(1);

	push	1
	mov	ecx, DWORD PTR _this$[ebp]
	call	?_Getal@?$_List_alloc@U?$_List_base_types@PAVRaven_Bot@@V?$allocator@PAVRaven_Bot@@@std@@@std@@@std@@QAEAAU?$_Wrap_alloc@V?$allocator@U?$_List_node@PAVRaven_Bot@@PAX@std@@@std@@@2@XZ ; std::_List_alloc<std::_List_base_types<Raven_Bot *,std::allocator<Raven_Bot *> > >::_Getal
	mov	ecx, eax
	call	?allocate@?$_Wrap_alloc@V?$allocator@U?$_List_node@PAVRaven_Bot@@PAX@std@@@std@@@std@@QAEPAU?$_List_node@PAVRaven_Bot@@PAX@2@I@Z ; std::_Wrap_alloc<std::allocator<std::_List_node<Raven_Bot *,void *> > >::allocate
	mov	DWORD PTR __Pnode$[ebp], eax

; 731  : 
; 732  : 		if (_Next == _Nodeptr())

	cmp	DWORD PTR __Next$[ebp], 0
	jne	SHORT $LN2@Buynode0

; 733  : 			{	// point at self
; 734  : 			_Next = _Pnode;

	mov	eax, DWORD PTR __Pnode$[ebp]
	mov	DWORD PTR __Next$[ebp], eax

; 735  : 			_Prev = _Pnode;

	mov	ecx, DWORD PTR __Pnode$[ebp]
	mov	DWORD PTR __Prev$[ebp], ecx
$LN2@Buynode0:

; 736  : 			}
; 737  : 		_TRY_BEGIN

	mov	DWORD PTR __$EHRec$[ebp+12], 0

; 738  : 		_Getal().construct(

	mov	edx, DWORD PTR __Pnode$[ebp]
	push	edx
	call	?_Nextnode@?$_List_alloc@U?$_List_base_types@PAVRaven_Bot@@V?$allocator@PAVRaven_Bot@@@std@@@std@@@std@@SAAAPAU?$_List_node@PAVRaven_Bot@@PAX@2@PAU32@@Z ; std::_List_alloc<std::_List_base_types<Raven_Bot *,std::allocator<Raven_Bot *> > >::_Nextnode
	add	esp, 4
	mov	DWORD PTR tv131[ebp], eax
	lea	eax, DWORD PTR __Next$[ebp]
	push	eax
	mov	ecx, DWORD PTR tv131[ebp]
	push	ecx
	call	??$addressof@PAU?$_List_node@PAVRaven_Bot@@PAX@std@@@std@@YAPAPAU?$_List_node@PAVRaven_Bot@@PAX@0@AAPAU10@@Z ; std::addressof<std::_List_node<Raven_Bot *,void *> *>
	add	esp, 4
	push	eax
	mov	ecx, DWORD PTR _this$[ebp]
	call	?_Getal@?$_List_alloc@U?$_List_base_types@PAVRaven_Bot@@V?$allocator@PAVRaven_Bot@@@std@@@std@@@std@@QAEAAU?$_Wrap_alloc@V?$allocator@U?$_List_node@PAVRaven_Bot@@PAX@std@@@std@@@2@XZ ; std::_List_alloc<std::_List_base_types<Raven_Bot *,std::allocator<Raven_Bot *> > >::_Getal
	mov	ecx, eax
	call	??$construct@PAU?$_List_node@PAVRaven_Bot@@PAX@std@@AAPAU12@@?$_Wrap_alloc@V?$allocator@U?$_List_node@PAVRaven_Bot@@PAX@std@@@std@@@std@@QAEXPAPAU?$_List_node@PAVRaven_Bot@@PAX@1@AAPAU21@@Z ; std::_Wrap_alloc<std::allocator<std::_List_node<Raven_Bot *,void *> > >::construct<std::_List_node<Raven_Bot *,void *> *,std::_List_node<Raven_Bot *,void *> * &>

; 739  : 			_STD addressof(_Nextnode(_Pnode)), _Next);
; 740  : 		_Getal().construct(

	mov	edx, DWORD PTR __Pnode$[ebp]
	push	edx
	call	?_Prevnode@?$_List_alloc@U?$_List_base_types@PAVRaven_Bot@@V?$allocator@PAVRaven_Bot@@@std@@@std@@@std@@SAAAPAU?$_List_node@PAVRaven_Bot@@PAX@2@PAU32@@Z ; std::_List_alloc<std::_List_base_types<Raven_Bot *,std::allocator<Raven_Bot *> > >::_Prevnode
	add	esp, 4
	mov	DWORD PTR tv132[ebp], eax
	lea	eax, DWORD PTR __Prev$[ebp]
	push	eax
	mov	ecx, DWORD PTR tv132[ebp]
	push	ecx
	call	??$addressof@PAU?$_List_node@PAVRaven_Bot@@PAX@std@@@std@@YAPAPAU?$_List_node@PAVRaven_Bot@@PAX@0@AAPAU10@@Z ; std::addressof<std::_List_node<Raven_Bot *,void *> *>
	add	esp, 4
	push	eax
	mov	ecx, DWORD PTR _this$[ebp]
	call	?_Getal@?$_List_alloc@U?$_List_base_types@PAVRaven_Bot@@V?$allocator@PAVRaven_Bot@@@std@@@std@@@std@@QAEAAU?$_Wrap_alloc@V?$allocator@U?$_List_node@PAVRaven_Bot@@PAX@std@@@std@@@2@XZ ; std::_List_alloc<std::_List_base_types<Raven_Bot *,std::allocator<Raven_Bot *> > >::_Getal
	mov	ecx, eax
	call	??$construct@PAU?$_List_node@PAVRaven_Bot@@PAX@std@@AAPAU12@@?$_Wrap_alloc@V?$allocator@U?$_List_node@PAVRaven_Bot@@PAX@std@@@std@@@std@@QAEXPAPAU?$_List_node@PAVRaven_Bot@@PAX@1@AAPAU21@@Z ; std::_Wrap_alloc<std::allocator<std::_List_node<Raven_Bot *,void *> > >::construct<std::_List_node<Raven_Bot *,void *> *,std::_List_node<Raven_Bot *,void *> * &>
	jmp	SHORT $LN5@Buynode0
__catch$?_Buynode0@?$_List_alloc@U?$_List_base_types@PAVRaven_Bot@@V?$allocator@PAVRaven_Bot@@@std@@@std@@@std@@QAEPAU?$_List_node@PAVRaven_Bot@@PAX@2@PAU32@0@Z$0:

; 741  : 			_STD addressof(_Prevnode(_Pnode)), _Prev);
; 742  : 		_CATCH_ALL
; 743  : 		_Getal().deallocate(_Pnode, 1);

	push	1
	mov	edx, DWORD PTR __Pnode$[ebp]
	push	edx
	mov	ecx, DWORD PTR _this$[ebp]
	call	?_Getal@?$_List_alloc@U?$_List_base_types@PAVRaven_Bot@@V?$allocator@PAVRaven_Bot@@@std@@@std@@@std@@QAEAAU?$_Wrap_alloc@V?$allocator@U?$_List_node@PAVRaven_Bot@@PAX@std@@@std@@@2@XZ ; std::_List_alloc<std::_List_base_types<Raven_Bot *,std::allocator<Raven_Bot *> > >::_Getal
	mov	ecx, eax
	call	?deallocate@?$_Wrap_alloc@V?$allocator@U?$_List_node@PAVRaven_Bot@@PAX@std@@@std@@@std@@QAEXPAU?$_List_node@PAVRaven_Bot@@PAX@2@I@Z ; std::_Wrap_alloc<std::allocator<std::_List_node<Raven_Bot *,void *> > >::deallocate

; 744  : 		_RERAISE;

	push	0
	push	0
	call	__CxxThrowException@8

; 745  : 		_CATCH_END

	mov	eax, $LN8@Buynode0
	ret	0
$LN5@Buynode0:
	mov	DWORD PTR __$EHRec$[ebp+12], -1
	jmp	SHORT __tryend$?_Buynode0@?$_List_alloc@U?$_List_base_types@PAVRaven_Bot@@V?$allocator@PAVRaven_Bot@@@std@@@std@@@std@@QAEPAU?$_List_node@PAVRaven_Bot@@PAX@2@PAU32@0@Z$1
$LN8@Buynode0:
	mov	DWORD PTR __$EHRec$[ebp+12], -1
__tryend$?_Buynode0@?$_List_alloc@U?$_List_base_types@PAVRaven_Bot@@V?$allocator@PAVRaven_Bot@@@std@@@std@@@std@@QAEPAU?$_List_node@PAVRaven_Bot@@PAX@2@PAU32@0@Z$1:

; 746  : 
; 747  : 		return (_Pnode);

	mov	eax, DWORD PTR __Pnode$[ebp]
$LN4@Buynode0:

; 748  : 		}

	mov	ecx, DWORD PTR __$EHRec$[ebp+4]
	mov	DWORD PTR fs:0, ecx
	pop	ecx
	pop	edi
	pop	esi
	pop	ebx
	add	esp, 32					; 00000020H
	cmp	ebp, esp
	call	__RTC_CheckEsp
	mov	esp, ebp
	pop	ebp
	ret	8
_TEXT	ENDS
;	COMDAT text$x
text$x	SEGMENT
__ehhandler$?_Buynode0@?$_List_alloc@U?$_List_base_types@PAVRaven_Bot@@V?$allocator@PAVRaven_Bot@@@std@@@std@@@std@@QAEPAU?$_List_node@PAVRaven_Bot@@PAX@2@PAU32@0@Z:
	mov	edx, DWORD PTR [esp+8]
	lea	eax, DWORD PTR [edx+12]
	mov	ecx, DWORD PTR [edx-36]
	xor	ecx, eax
	call	@__security_check_cookie@4
	mov	eax, OFFSET __ehfuncinfo$?_Buynode0@?$_List_alloc@U?$_List_base_types@PAVRaven_Bot@@V?$allocator@PAVRaven_Bot@@@std@@@std@@@std@@QAEPAU?$_List_node@PAVRaven_Bot@@PAX@2@PAU32@0@Z
	jmp	___CxxFrameHandler3
text$x	ENDS
?_Buynode0@?$_List_alloc@U?$_List_base_types@PAVRaven_Bot@@V?$allocator@PAVRaven_Bot@@@std@@@std@@@std@@QAEPAU?$_List_node@PAVRaven_Bot@@PAX@2@PAU32@0@Z ENDP ; std::_List_alloc<std::_List_base_types<Raven_Bot *,std::allocator<Raven_Bot *> > >::_Buynode0
; Function compile flags: /Odtp /RTCsu
; File d:\microsoft visual studio 14.0\vc\include\list
;	COMDAT ?_Freeheadnode@?$_List_alloc@U?$_List_base_types@PAVRaven_Bot@@V?$allocator@PAVRaven_Bot@@@std@@@std@@@std@@QAEXPAU?$_List_node@PAVRaven_Bot@@PAX@2@@Z
_TEXT	SEGMENT
_this$ = -4						; size = 4
__Pnode$ = 8						; size = 4
?_Freeheadnode@?$_List_alloc@U?$_List_base_types@PAVRaven_Bot@@V?$allocator@PAVRaven_Bot@@@std@@@std@@@std@@QAEXPAU?$_List_node@PAVRaven_Bot@@PAX@2@@Z PROC ; std::_List_alloc<std::_List_base_types<Raven_Bot *,std::allocator<Raven_Bot *> > >::_Freeheadnode, COMDAT
; _this$ = ecx

; 719  : 		{	// free head node using current allocator

	push	ebp
	mov	ebp, esp
	push	ecx
	mov	DWORD PTR [ebp-4], -858993460		; ccccccccH
	mov	DWORD PTR _this$[ebp], ecx

; 720  : 		_Getal().destroy(

	mov	eax, DWORD PTR __Pnode$[ebp]
	push	eax
	call	?_Nextnode@?$_List_alloc@U?$_List_base_types@PAVRaven_Bot@@V?$allocator@PAVRaven_Bot@@@std@@@std@@@std@@SAAAPAU?$_List_node@PAVRaven_Bot@@PAX@2@PAU32@@Z ; std::_List_alloc<std::_List_base_types<Raven_Bot *,std::allocator<Raven_Bot *> > >::_Nextnode
	add	esp, 4
	push	eax
	call	??$addressof@PAU?$_List_node@PAVRaven_Bot@@PAX@std@@@std@@YAPAPAU?$_List_node@PAVRaven_Bot@@PAX@0@AAPAU10@@Z ; std::addressof<std::_List_node<Raven_Bot *,void *> *>
	add	esp, 4
	push	eax
	mov	ecx, DWORD PTR _this$[ebp]
	call	?_Getal@?$_List_alloc@U?$_List_base_types@PAVRaven_Bot@@V?$allocator@PAVRaven_Bot@@@std@@@std@@@std@@QAEAAU?$_Wrap_alloc@V?$allocator@U?$_List_node@PAVRaven_Bot@@PAX@std@@@std@@@2@XZ ; std::_List_alloc<std::_List_base_types<Raven_Bot *,std::allocator<Raven_Bot *> > >::_Getal
	mov	ecx, eax
	call	??$destroy@PAU?$_List_node@PAVRaven_Bot@@PAX@std@@@?$_Wrap_alloc@V?$allocator@U?$_List_node@PAVRaven_Bot@@PAX@std@@@std@@@std@@QAEXPAPAU?$_List_node@PAVRaven_Bot@@PAX@1@@Z ; std::_Wrap_alloc<std::allocator<std::_List_node<Raven_Bot *,void *> > >::destroy<std::_List_node<Raven_Bot *,void *> *>

; 721  : 			_STD addressof(_Nextnode(_Pnode)));
; 722  : 		_Getal().destroy(

	mov	ecx, DWORD PTR __Pnode$[ebp]
	push	ecx
	call	?_Prevnode@?$_List_alloc@U?$_List_base_types@PAVRaven_Bot@@V?$allocator@PAVRaven_Bot@@@std@@@std@@@std@@SAAAPAU?$_List_node@PAVRaven_Bot@@PAX@2@PAU32@@Z ; std::_List_alloc<std::_List_base_types<Raven_Bot *,std::allocator<Raven_Bot *> > >::_Prevnode
	add	esp, 4
	push	eax
	call	??$addressof@PAU?$_List_node@PAVRaven_Bot@@PAX@std@@@std@@YAPAPAU?$_List_node@PAVRaven_Bot@@PAX@0@AAPAU10@@Z ; std::addressof<std::_List_node<Raven_Bot *,void *> *>
	add	esp, 4
	push	eax
	mov	ecx, DWORD PTR _this$[ebp]
	call	?_Getal@?$_List_alloc@U?$_List_base_types@PAVRaven_Bot@@V?$allocator@PAVRaven_Bot@@@std@@@std@@@std@@QAEAAU?$_Wrap_alloc@V?$allocator@U?$_List_node@PAVRaven_Bot@@PAX@std@@@std@@@2@XZ ; std::_List_alloc<std::_List_base_types<Raven_Bot *,std::allocator<Raven_Bot *> > >::_Getal
	mov	ecx, eax
	call	??$destroy@PAU?$_List_node@PAVRaven_Bot@@PAX@std@@@?$_Wrap_alloc@V?$allocator@U?$_List_node@PAVRaven_Bot@@PAX@std@@@std@@@std@@QAEXPAPAU?$_List_node@PAVRaven_Bot@@PAX@1@@Z ; std::_Wrap_alloc<std::allocator<std::_List_node<Raven_Bot *,void *> > >::destroy<std::_List_node<Raven_Bot *,void *> *>

; 723  : 			_STD addressof(_Prevnode(_Pnode)));
; 724  : 		_Getal().deallocate(_Pnode, 1);

	push	1
	mov	edx, DWORD PTR __Pnode$[ebp]
	push	edx
	mov	ecx, DWORD PTR _this$[ebp]
	call	?_Getal@?$_List_alloc@U?$_List_base_types@PAVRaven_Bot@@V?$allocator@PAVRaven_Bot@@@std@@@std@@@std@@QAEAAU?$_Wrap_alloc@V?$allocator@U?$_List_node@PAVRaven_Bot@@PAX@std@@@std@@@2@XZ ; std::_List_alloc<std::_List_base_types<Raven_Bot *,std::allocator<Raven_Bot *> > >::_Getal
	mov	ecx, eax
	call	?deallocate@?$_Wrap_alloc@V?$allocator@U?$_List_node@PAVRaven_Bot@@PAX@std@@@std@@@std@@QAEXPAU?$_List_node@PAVRaven_Bot@@PAX@2@I@Z ; std::_Wrap_alloc<std::allocator<std::_List_node<Raven_Bot *,void *> > >::deallocate

; 725  : 		}

	add	esp, 4
	cmp	ebp, esp
	call	__RTC_CheckEsp
	mov	esp, ebp
	pop	ebp
	ret	4
?_Freeheadnode@?$_List_alloc@U?$_List_base_types@PAVRaven_Bot@@V?$allocator@PAVRaven_Bot@@@std@@@std@@@std@@QAEXPAU?$_List_node@PAVRaven_Bot@@PAX@2@@Z ENDP ; std::_List_alloc<std::_List_base_types<Raven_Bot *,std::allocator<Raven_Bot *> > >::_Freeheadnode
_TEXT	ENDS
; Function compile flags: /Odtp /RTCsu
; File d:\microsoft visual studio 14.0\vc\include\list
;	COMDAT ?_Buyheadnode@?$_List_alloc@U?$_List_base_types@PAVRaven_Bot@@V?$allocator@PAVRaven_Bot@@@std@@@std@@@std@@QAEPAU?$_List_node@PAVRaven_Bot@@PAX@2@XZ
_TEXT	SEGMENT
_this$ = -4						; size = 4
?_Buyheadnode@?$_List_alloc@U?$_List_base_types@PAVRaven_Bot@@V?$allocator@PAVRaven_Bot@@@std@@@std@@@std@@QAEPAU?$_List_node@PAVRaven_Bot@@PAX@2@XZ PROC ; std::_List_alloc<std::_List_base_types<Raven_Bot *,std::allocator<Raven_Bot *> > >::_Buyheadnode, COMDAT
; _this$ = ecx

; 714  : 		{	// get head node using current allocator

	push	ebp
	mov	ebp, esp
	push	ecx
	mov	DWORD PTR [ebp-4], -858993460		; ccccccccH
	mov	DWORD PTR _this$[ebp], ecx

; 715  : 		return (_Buynode0(_Nodeptr(), _Nodeptr()));

	push	0
	push	0
	mov	ecx, DWORD PTR _this$[ebp]
	call	?_Buynode0@?$_List_alloc@U?$_List_base_types@PAVRaven_Bot@@V?$allocator@PAVRaven_Bot@@@std@@@std@@@std@@QAEPAU?$_List_node@PAVRaven_Bot@@PAX@2@PAU32@0@Z ; std::_List_alloc<std::_List_base_types<Raven_Bot *,std::allocator<Raven_Bot *> > >::_Buynode0

; 716  : 		}

	add	esp, 4
	cmp	ebp, esp
	call	__RTC_CheckEsp
	mov	esp, ebp
	pop	ebp
	ret	0
?_Buyheadnode@?$_List_alloc@U?$_List_base_types@PAVRaven_Bot@@V?$allocator@PAVRaven_Bot@@@std@@@std@@@std@@QAEPAU?$_List_node@PAVRaven_Bot@@PAX@2@XZ ENDP ; std::_List_alloc<std::_List_base_types<Raven_Bot *,std::allocator<Raven_Bot *> > >::_Buyheadnode
_TEXT	ENDS
; Function compile flags: /Odtp /RTCsu
; File d:\microsoft visual studio 14.0\vc\include\list
;	COMDAT ?_Myproxy@?$_List_alloc@U?$_List_base_types@PAVRaven_Bot@@V?$allocator@PAVRaven_Bot@@@std@@@std@@@std@@QAEAAPAU_Container_proxy@2@XZ
_TEXT	SEGMENT
_this$ = -4						; size = 4
?_Myproxy@?$_List_alloc@U?$_List_base_types@PAVRaven_Bot@@V?$allocator@PAVRaven_Bot@@@std@@@std@@@std@@QAEAAPAU_Container_proxy@2@XZ PROC ; std::_List_alloc<std::_List_base_types<Raven_Bot *,std::allocator<Raven_Bot *> > >::_Myproxy, COMDAT
; _this$ = ecx

; 703  : 		{	// return reference to _Myproxy

	push	ebp
	mov	ebp, esp
	push	ecx
	mov	DWORD PTR [ebp-4], -858993460		; ccccccccH
	mov	DWORD PTR _this$[ebp], ecx

; 704  : 		return (_Get_data()._Myproxy);

	mov	ecx, DWORD PTR _this$[ebp]
	call	?_Get_data@?$_List_alloc@U?$_List_base_types@PAVRaven_Bot@@V?$allocator@PAVRaven_Bot@@@std@@@std@@@std@@QAEAAV?$_List_val@U?$_List_simple_types@PAVRaven_Bot@@@std@@@2@XZ ; std::_List_alloc<std::_List_base_types<Raven_Bot *,std::allocator<Raven_Bot *> > >::_Get_data

; 705  : 		}

	add	esp, 4
	cmp	ebp, esp
	call	__RTC_CheckEsp
	mov	esp, ebp
	pop	ebp
	ret	0
?_Myproxy@?$_List_alloc@U?$_List_base_types@PAVRaven_Bot@@V?$allocator@PAVRaven_Bot@@@std@@@std@@@std@@QAEAAPAU_Container_proxy@2@XZ ENDP ; std::_List_alloc<std::_List_base_types<Raven_Bot *,std::allocator<Raven_Bot *> > >::_Myproxy
_TEXT	ENDS
; Function compile flags: /Odtp /RTCsu
; File d:\microsoft visual studio 14.0\vc\include\list
;	COMDAT ?_Getpfirst@?$_List_alloc@U?$_List_base_types@PAVRaven_Bot@@V?$allocator@PAVRaven_Bot@@@std@@@std@@@std@@QBEPAPAU_Iterator_base12@2@XZ
_TEXT	SEGMENT
_this$ = -4						; size = 4
?_Getpfirst@?$_List_alloc@U?$_List_base_types@PAVRaven_Bot@@V?$allocator@PAVRaven_Bot@@@std@@@std@@@std@@QBEPAPAU_Iterator_base12@2@XZ PROC ; std::_List_alloc<std::_List_base_types<Raven_Bot *,std::allocator<Raven_Bot *> > >::_Getpfirst, COMDAT
; _this$ = ecx

; 698  : 		{	// get address of iterator chain

	push	ebp
	mov	ebp, esp
	push	ecx
	mov	DWORD PTR [ebp-4], -858993460		; ccccccccH
	mov	DWORD PTR _this$[ebp], ecx

; 699  : 		return (_Get_data()._Getpfirst());

	mov	ecx, DWORD PTR _this$[ebp]
	call	?_Get_data@?$_List_alloc@U?$_List_base_types@PAVRaven_Bot@@V?$allocator@PAVRaven_Bot@@@std@@@std@@@std@@QBEABV?$_List_val@U?$_List_simple_types@PAVRaven_Bot@@@std@@@2@XZ ; std::_List_alloc<std::_List_base_types<Raven_Bot *,std::allocator<Raven_Bot *> > >::_Get_data
	mov	ecx, eax
	call	?_Getpfirst@_Container_base12@std@@QBEPAPAU_Iterator_base12@2@XZ ; std::_Container_base12::_Getpfirst

; 700  : 		}

	add	esp, 4
	cmp	ebp, esp
	call	__RTC_CheckEsp
	mov	esp, ebp
	pop	ebp
	ret	0
?_Getpfirst@?$_List_alloc@U?$_List_base_types@PAVRaven_Bot@@V?$allocator@PAVRaven_Bot@@@std@@@std@@@std@@QBEPAPAU_Iterator_base12@2@XZ ENDP ; std::_List_alloc<std::_List_base_types<Raven_Bot *,std::allocator<Raven_Bot *> > >::_Getpfirst
_TEXT	ENDS
; Function compile flags: /Odtp /RTCsu
; File d:\microsoft visual studio 14.0\vc\include\list
;	COMDAT ?_Free_proxy@?$_List_alloc@U?$_List_base_types@PAVRaven_Bot@@V?$allocator@PAVRaven_Bot@@@std@@@std@@@std@@QAEXXZ
_TEXT	SEGMENT
__Alproxy$ = -9						; size = 1
_this$ = -4						; size = 4
?_Free_proxy@?$_List_alloc@U?$_List_base_types@PAVRaven_Bot@@V?$allocator@PAVRaven_Bot@@@std@@@std@@@std@@QAEXXZ PROC ; std::_List_alloc<std::_List_base_types<Raven_Bot *,std::allocator<Raven_Bot *> > >::_Free_proxy, COMDAT
; _this$ = ecx

; 688  : 		{	// destroy proxy

	push	ebp
	mov	ebp, esp
	sub	esp, 16					; 00000010H
	mov	eax, -858993460				; ccccccccH
	mov	DWORD PTR [ebp-16], eax
	mov	DWORD PTR [ebp-12], eax
	mov	DWORD PTR [ebp-8], eax
	mov	DWORD PTR [ebp-4], eax
	mov	DWORD PTR _this$[ebp], ecx

; 689  : 		typename _Alty::template rebind<_Container_proxy>::other
; 690  : 			_Alproxy(_Getal());

	mov	ecx, DWORD PTR _this$[ebp]
	call	?_Getal@?$_List_alloc@U?$_List_base_types@PAVRaven_Bot@@V?$allocator@PAVRaven_Bot@@@std@@@std@@@std@@QAEAAU?$_Wrap_alloc@V?$allocator@U?$_List_node@PAVRaven_Bot@@PAX@std@@@std@@@2@XZ ; std::_List_alloc<std::_List_base_types<Raven_Bot *,std::allocator<Raven_Bot *> > >::_Getal
	push	eax
	lea	ecx, DWORD PTR __Alproxy$[ebp]
	call	??$?0U?$_Wrap_alloc@V?$allocator@U?$_List_node@PAVRaven_Bot@@PAX@std@@@std@@@std@@@?$_Wrap_alloc@V?$allocator@U_Container_proxy@std@@@std@@@std@@QAE@AAU?$_Wrap_alloc@V?$allocator@U?$_List_node@PAVRaven_Bot@@PAX@std@@@std@@@1@@Z ; std::_Wrap_alloc<std::allocator<std::_Container_proxy> >::_Wrap_alloc<std::allocator<std::_Container_proxy> ><std::_Wrap_alloc<std::allocator<std::_List_node<Raven_Bot *,void *> > > >

; 691  : 		_Orphan_all();

	mov	ecx, DWORD PTR _this$[ebp]
	call	?_Orphan_all@?$_List_alloc@U?$_List_base_types@PAVRaven_Bot@@V?$allocator@PAVRaven_Bot@@@std@@@std@@@std@@QAEXXZ ; std::_List_alloc<std::_List_base_types<Raven_Bot *,std::allocator<Raven_Bot *> > >::_Orphan_all

; 692  : 		_Alproxy.destroy(_Myproxy());

	mov	ecx, DWORD PTR _this$[ebp]
	call	?_Myproxy@?$_List_alloc@U?$_List_base_types@PAVRaven_Bot@@V?$allocator@PAVRaven_Bot@@@std@@@std@@@std@@QAEAAPAU_Container_proxy@2@XZ ; std::_List_alloc<std::_List_base_types<Raven_Bot *,std::allocator<Raven_Bot *> > >::_Myproxy
	mov	eax, DWORD PTR [eax]
	push	eax
	lea	ecx, DWORD PTR __Alproxy$[ebp]
	call	??$destroy@U_Container_proxy@std@@@?$_Wrap_alloc@V?$allocator@U_Container_proxy@std@@@std@@@std@@QAEXPAU_Container_proxy@1@@Z ; std::_Wrap_alloc<std::allocator<std::_Container_proxy> >::destroy<std::_Container_proxy>

; 693  : 		_Alproxy.deallocate(_Myproxy(), 1);

	push	1
	mov	ecx, DWORD PTR _this$[ebp]
	call	?_Myproxy@?$_List_alloc@U?$_List_base_types@PAVRaven_Bot@@V?$allocator@PAVRaven_Bot@@@std@@@std@@@std@@QAEAAPAU_Container_proxy@2@XZ ; std::_List_alloc<std::_List_base_types<Raven_Bot *,std::allocator<Raven_Bot *> > >::_Myproxy
	mov	ecx, DWORD PTR [eax]
	push	ecx
	lea	ecx, DWORD PTR __Alproxy$[ebp]
	call	?deallocate@?$_Wrap_alloc@V?$allocator@U_Container_proxy@std@@@std@@@std@@QAEXPAU_Container_proxy@2@I@Z ; std::_Wrap_alloc<std::allocator<std::_Container_proxy> >::deallocate

; 694  : 		_Myproxy() = 0;

	mov	ecx, DWORD PTR _this$[ebp]
	call	?_Myproxy@?$_List_alloc@U?$_List_base_types@PAVRaven_Bot@@V?$allocator@PAVRaven_Bot@@@std@@@std@@@std@@QAEAAPAU_Container_proxy@2@XZ ; std::_List_alloc<std::_List_base_types<Raven_Bot *,std::allocator<Raven_Bot *> > >::_Myproxy
	mov	DWORD PTR [eax], 0

; 695  : 		}

	push	edx
	mov	ecx, ebp
	push	eax
	lea	edx, DWORD PTR $LN5@Free_proxy
	call	@_RTC_CheckStackVars@8
	pop	eax
	pop	edx
	add	esp, 16					; 00000010H
	cmp	ebp, esp
	call	__RTC_CheckEsp
	mov	esp, ebp
	pop	ebp
	ret	0
$LN5@Free_proxy:
	DD	1
	DD	$LN4@Free_proxy
$LN4@Free_proxy:
	DD	-9					; fffffff7H
	DD	1
	DD	$LN3@Free_proxy
$LN3@Free_proxy:
	DB	95					; 0000005fH
	DB	65					; 00000041H
	DB	108					; 0000006cH
	DB	112					; 00000070H
	DB	114					; 00000072H
	DB	111					; 0000006fH
	DB	120					; 00000078H
	DB	121					; 00000079H
	DB	0
?_Free_proxy@?$_List_alloc@U?$_List_base_types@PAVRaven_Bot@@V?$allocator@PAVRaven_Bot@@@std@@@std@@@std@@QAEXXZ ENDP ; std::_List_alloc<std::_List_base_types<Raven_Bot *,std::allocator<Raven_Bot *> > >::_Free_proxy
_TEXT	ENDS
; Function compile flags: /Odtp /RTCsu
; File d:\microsoft visual studio 14.0\vc\include\list
;	COMDAT ?_Alloc_proxy@?$_List_alloc@U?$_List_base_types@PAVRaven_Bot@@V?$allocator@PAVRaven_Bot@@@std@@@std@@@std@@QAEXXZ
_TEXT	SEGMENT
$T1 = -24						; size = 8
__Alproxy$ = -9						; size = 1
_this$ = -4						; size = 4
?_Alloc_proxy@?$_List_alloc@U?$_List_base_types@PAVRaven_Bot@@V?$allocator@PAVRaven_Bot@@@std@@@std@@@std@@QAEXXZ PROC ; std::_List_alloc<std::_List_base_types<Raven_Bot *,std::allocator<Raven_Bot *> > >::_Alloc_proxy, COMDAT
; _this$ = ecx

; 679  : 		{	// construct proxy

	push	ebp
	mov	ebp, esp
	sub	esp, 24					; 00000018H
	push	esi
	mov	eax, -858993460				; ccccccccH
	mov	DWORD PTR [ebp-24], eax
	mov	DWORD PTR [ebp-20], eax
	mov	DWORD PTR [ebp-16], eax
	mov	DWORD PTR [ebp-12], eax
	mov	DWORD PTR [ebp-8], eax
	mov	DWORD PTR [ebp-4], eax
	mov	DWORD PTR _this$[ebp], ecx

; 680  : 		typename _Alty::template rebind<_Container_proxy>::other
; 681  : 			_Alproxy(_Getal());

	mov	ecx, DWORD PTR _this$[ebp]
	call	?_Getal@?$_List_alloc@U?$_List_base_types@PAVRaven_Bot@@V?$allocator@PAVRaven_Bot@@@std@@@std@@@std@@QAEAAU?$_Wrap_alloc@V?$allocator@U?$_List_node@PAVRaven_Bot@@PAX@std@@@std@@@2@XZ ; std::_List_alloc<std::_List_base_types<Raven_Bot *,std::allocator<Raven_Bot *> > >::_Getal
	push	eax
	lea	ecx, DWORD PTR __Alproxy$[ebp]
	call	??$?0U?$_Wrap_alloc@V?$allocator@U?$_List_node@PAVRaven_Bot@@PAX@std@@@std@@@std@@@?$_Wrap_alloc@V?$allocator@U_Container_proxy@std@@@std@@@std@@QAE@AAU?$_Wrap_alloc@V?$allocator@U?$_List_node@PAVRaven_Bot@@PAX@std@@@std@@@1@@Z ; std::_Wrap_alloc<std::allocator<std::_Container_proxy> >::_Wrap_alloc<std::allocator<std::_Container_proxy> ><std::_Wrap_alloc<std::allocator<std::_List_node<Raven_Bot *,void *> > > >

; 682  : 		_Myproxy() = _Alproxy.allocate(1);

	push	1
	lea	ecx, DWORD PTR __Alproxy$[ebp]
	call	?allocate@?$_Wrap_alloc@V?$allocator@U_Container_proxy@std@@@std@@@std@@QAEPAU_Container_proxy@2@I@Z ; std::_Wrap_alloc<std::allocator<std::_Container_proxy> >::allocate
	mov	esi, eax
	mov	ecx, DWORD PTR _this$[ebp]
	call	?_Myproxy@?$_List_alloc@U?$_List_base_types@PAVRaven_Bot@@V?$allocator@PAVRaven_Bot@@@std@@@std@@@std@@QAEAAPAU_Container_proxy@2@XZ ; std::_List_alloc<std::_List_base_types<Raven_Bot *,std::allocator<Raven_Bot *> > >::_Myproxy
	mov	DWORD PTR [eax], esi

; 683  : 		_Alproxy.construct(_Myproxy(), _Container_proxy());

	lea	ecx, DWORD PTR $T1[ebp]
	call	??0_Container_proxy@std@@QAE@XZ		; std::_Container_proxy::_Container_proxy
	push	eax
	mov	ecx, DWORD PTR _this$[ebp]
	call	?_Myproxy@?$_List_alloc@U?$_List_base_types@PAVRaven_Bot@@V?$allocator@PAVRaven_Bot@@@std@@@std@@@std@@QAEAAPAU_Container_proxy@2@XZ ; std::_List_alloc<std::_List_base_types<Raven_Bot *,std::allocator<Raven_Bot *> > >::_Myproxy
	mov	eax, DWORD PTR [eax]
	push	eax
	lea	ecx, DWORD PTR __Alproxy$[ebp]
	call	??$construct@U_Container_proxy@std@@U12@@?$_Wrap_alloc@V?$allocator@U_Container_proxy@std@@@std@@@std@@QAEXPAU_Container_proxy@1@$$QAU21@@Z ; std::_Wrap_alloc<std::allocator<std::_Container_proxy> >::construct<std::_Container_proxy,std::_Container_proxy>

; 684  : 		_Myproxy()->_Mycont = &_Get_data();

	mov	ecx, DWORD PTR _this$[ebp]
	call	?_Get_data@?$_List_alloc@U?$_List_base_types@PAVRaven_Bot@@V?$allocator@PAVRaven_Bot@@@std@@@std@@@std@@QAEAAV?$_List_val@U?$_List_simple_types@PAVRaven_Bot@@@std@@@2@XZ ; std::_List_alloc<std::_List_base_types<Raven_Bot *,std::allocator<Raven_Bot *> > >::_Get_data
	mov	esi, eax
	mov	ecx, DWORD PTR _this$[ebp]
	call	?_Myproxy@?$_List_alloc@U?$_List_base_types@PAVRaven_Bot@@V?$allocator@PAVRaven_Bot@@@std@@@std@@@std@@QAEAAPAU_Container_proxy@2@XZ ; std::_List_alloc<std::_List_base_types<Raven_Bot *,std::allocator<Raven_Bot *> > >::_Myproxy
	mov	ecx, DWORD PTR [eax]
	mov	DWORD PTR [ecx], esi

; 685  : 		}

	push	edx
	mov	ecx, ebp
	push	eax
	lea	edx, DWORD PTR $LN5@Alloc_prox
	call	@_RTC_CheckStackVars@8
	pop	eax
	pop	edx
	pop	esi
	add	esp, 24					; 00000018H
	cmp	ebp, esp
	call	__RTC_CheckEsp
	mov	esp, ebp
	pop	ebp
	ret	0
	npad	2
$LN5@Alloc_prox:
	DD	1
	DD	$LN4@Alloc_prox
$LN4@Alloc_prox:
	DD	-9					; fffffff7H
	DD	1
	DD	$LN3@Alloc_prox
$LN3@Alloc_prox:
	DB	95					; 0000005fH
	DB	65					; 00000041H
	DB	108					; 0000006cH
	DB	112					; 00000070H
	DB	114					; 00000072H
	DB	111					; 0000006fH
	DB	120					; 00000078H
	DB	121					; 00000079H
	DB	0
?_Alloc_proxy@?$_List_alloc@U?$_List_base_types@PAVRaven_Bot@@V?$allocator@PAVRaven_Bot@@@std@@@std@@@std@@QAEXXZ ENDP ; std::_List_alloc<std::_List_base_types<Raven_Bot *,std::allocator<Raven_Bot *> > >::_Alloc_proxy
_TEXT	ENDS
; Function compile flags: /Odtp /RTCsu
; File d:\microsoft visual studio 14.0\vc\include\list
;	COMDAT ??1?$_List_alloc@U?$_List_base_types@PAVRaven_Bot@@V?$allocator@PAVRaven_Bot@@@std@@@std@@@std@@QAE@XZ
_TEXT	SEGMENT
_this$ = -16						; size = 4
__$EHRec$ = -12						; size = 12
??1?$_List_alloc@U?$_List_base_types@PAVRaven_Bot@@V?$allocator@PAVRaven_Bot@@@std@@@std@@@std@@QAE@XZ PROC ; std::_List_alloc<std::_List_base_types<Raven_Bot *,std::allocator<Raven_Bot *> > >::~_List_alloc<std::_List_base_types<Raven_Bot *,std::allocator<Raven_Bot *> > >, COMDAT
; _this$ = ecx

; 653  : 		{	// destroy proxy

	push	ebp
	mov	ebp, esp
	push	-1
	push	__ehhandler$??1?$_List_alloc@U?$_List_base_types@PAVRaven_Bot@@V?$allocator@PAVRaven_Bot@@@std@@@std@@@std@@QAE@XZ
	mov	eax, DWORD PTR fs:0
	push	eax
	push	ecx
	mov	DWORD PTR [ebp-16], -858993460		; ccccccccH
	mov	eax, DWORD PTR ___security_cookie
	xor	eax, ebp
	push	eax
	lea	eax, DWORD PTR __$EHRec$[ebp]
	mov	DWORD PTR fs:0, eax
	mov	DWORD PTR _this$[ebp], ecx

; 654  : 		_Freeheadnode(_Myhead());

	mov	ecx, DWORD PTR _this$[ebp]
	call	?_Myhead@?$_List_alloc@U?$_List_base_types@PAVRaven_Bot@@V?$allocator@PAVRaven_Bot@@@std@@@std@@@std@@QAEAAPAU?$_List_node@PAVRaven_Bot@@PAX@2@XZ ; std::_List_alloc<std::_List_base_types<Raven_Bot *,std::allocator<Raven_Bot *> > >::_Myhead
	mov	eax, DWORD PTR [eax]
	push	eax
	mov	ecx, DWORD PTR _this$[ebp]
	call	?_Freeheadnode@?$_List_alloc@U?$_List_base_types@PAVRaven_Bot@@V?$allocator@PAVRaven_Bot@@@std@@@std@@@std@@QAEXPAU?$_List_node@PAVRaven_Bot@@PAX@2@@Z ; std::_List_alloc<std::_List_base_types<Raven_Bot *,std::allocator<Raven_Bot *> > >::_Freeheadnode

; 655  : 		_Free_proxy();

	mov	ecx, DWORD PTR _this$[ebp]
	call	?_Free_proxy@?$_List_alloc@U?$_List_base_types@PAVRaven_Bot@@V?$allocator@PAVRaven_Bot@@@std@@@std@@@std@@QAEXXZ ; std::_List_alloc<std::_List_base_types<Raven_Bot *,std::allocator<Raven_Bot *> > >::_Free_proxy

; 656  : 		}

	mov	ecx, DWORD PTR _this$[ebp]
	call	??1?$_Compressed_pair@U?$_Wrap_alloc@V?$allocator@U?$_List_node@PAVRaven_Bot@@PAX@std@@@std@@@std@@V?$_List_val@U?$_List_simple_types@PAVRaven_Bot@@@std@@@2@$00@std@@QAE@XZ
	mov	ecx, DWORD PTR __$EHRec$[ebp]
	mov	DWORD PTR fs:0, ecx
	pop	ecx
	add	esp, 16					; 00000010H
	cmp	ebp, esp
	call	__RTC_CheckEsp
	mov	esp, ebp
	pop	ebp
	ret	0
_TEXT	ENDS
;	COMDAT text$x
text$x	SEGMENT
__ehhandler$??1?$_List_alloc@U?$_List_base_types@PAVRaven_Bot@@V?$allocator@PAVRaven_Bot@@@std@@@std@@@std@@QAE@XZ:
	mov	edx, DWORD PTR [esp+8]
	lea	eax, DWORD PTR [edx+12]
	mov	ecx, DWORD PTR [edx-8]
	xor	ecx, eax
	call	@__security_check_cookie@4
	mov	eax, OFFSET __ehfuncinfo$??1?$_List_alloc@U?$_List_base_types@PAVRaven_Bot@@V?$allocator@PAVRaven_Bot@@@std@@@std@@@std@@QAE@XZ
	jmp	___CxxFrameHandler3
text$x	ENDS
??1?$_List_alloc@U?$_List_base_types@PAVRaven_Bot@@V?$allocator@PAVRaven_Bot@@@std@@@std@@@std@@QAE@XZ ENDP ; std::_List_alloc<std::_List_base_types<Raven_Bot *,std::allocator<Raven_Bot *> > >::~_List_alloc<std::_List_base_types<Raven_Bot *,std::allocator<Raven_Bot *> > >
; Function compile flags: /Odtp /RTCsu
; File d:\microsoft visual studio 14.0\vc\include\list
;	COMDAT ??0?$_List_alloc@U?$_List_base_types@PAVRaven_Bot@@V?$allocator@PAVRaven_Bot@@@std@@@std@@@std@@QAE@$$QAV?$allocator@PAVRaven_Bot@@@1@@Z
_TEXT	SEGMENT
$T2 = -21						; size = 1
_this$ = -20						; size = 4
__$EHRec$ = -16						; size = 16
__Al$ = 8						; size = 4
??0?$_List_alloc@U?$_List_base_types@PAVRaven_Bot@@V?$allocator@PAVRaven_Bot@@@std@@@std@@@std@@QAE@$$QAV?$allocator@PAVRaven_Bot@@@1@@Z PROC ; std::_List_alloc<std::_List_base_types<Raven_Bot *,std::allocator<Raven_Bot *> > >::_List_alloc<std::_List_base_types<Raven_Bot *,std::allocator<Raven_Bot *> > >, COMDAT
; _this$ = ecx

; 642  : 		{	// construct head node, allocator from _Al

	push	ebp
	mov	ebp, esp
	push	-1
	push	__ehhandler$??0?$_List_alloc@U?$_List_base_types@PAVRaven_Bot@@V?$allocator@PAVRaven_Bot@@@std@@@std@@@std@@QAE@$$QAV?$allocator@PAVRaven_Bot@@@1@@Z
	mov	eax, DWORD PTR fs:0
	push	eax
	push	ecx
	sub	esp, 8
	push	ebx
	push	esi
	push	edi
	mov	DWORD PTR [ebp-24], -858993460		; ccccccccH
	mov	DWORD PTR [ebp-20], -858993460		; ccccccccH
	mov	eax, DWORD PTR ___security_cookie
	xor	eax, ebp
	push	eax
	lea	eax, DWORD PTR __$EHRec$[ebp+4]
	mov	DWORD PTR fs:0, eax
	mov	DWORD PTR __$EHRec$[ebp], esp
	mov	DWORD PTR _this$[ebp], ecx

; 641  : 		: _Mypair(_One_then_variadic_args_t(), _STD move(_Al))

	mov	eax, DWORD PTR __Al$[ebp]
	push	eax
	call	??$move@AAV?$allocator@PAVRaven_Bot@@@std@@@std@@YA$$QAV?$allocator@PAVRaven_Bot@@@0@AAV10@@Z ; std::move<std::allocator<Raven_Bot *> &>
	add	esp, 4
	push	eax
	movzx	ecx, BYTE PTR $T2[ebp]
	push	ecx
	mov	ecx, DWORD PTR _this$[ebp]
	call	??$?0V?$allocator@PAVRaven_Bot@@@std@@$$V@?$_Compressed_pair@U?$_Wrap_alloc@V?$allocator@U?$_List_node@PAVRaven_Bot@@PAX@std@@@std@@@std@@V?$_List_val@U?$_List_simple_types@PAVRaven_Bot@@@std@@@2@$00@std@@QAE@U_One_then_variadic_args_t@1@$$QAV?$allocator@PAVRaven_Bot@@@1@@Z ; std::_Compressed_pair<std::_Wrap_alloc<std::allocator<std::_List_node<Raven_Bot *,void *> > >,std::_List_val<std::_List_simple_types<Raven_Bot *> >,1>::_Compressed_pair<std::_Wrap_alloc<std::allocator<std::_List_node<Raven_Bot *,void *> > >,std::_List_val<std::_List_simple_types<Raven_Bot *> >,1><std::allocator<Raven_Bot *> >
	mov	DWORD PTR __$EHRec$[ebp+12], 0

; 643  : 		_Myhead() = _Buyheadnode();

	mov	ecx, DWORD PTR _this$[ebp]
	call	?_Buyheadnode@?$_List_alloc@U?$_List_base_types@PAVRaven_Bot@@V?$allocator@PAVRaven_Bot@@@std@@@std@@@std@@QAEPAU?$_List_node@PAVRaven_Bot@@PAX@2@XZ ; std::_List_alloc<std::_List_base_types<Raven_Bot *,std::allocator<Raven_Bot *> > >::_Buyheadnode
	mov	esi, eax
	mov	ecx, DWORD PTR _this$[ebp]
	call	?_Myhead@?$_List_alloc@U?$_List_base_types@PAVRaven_Bot@@V?$allocator@PAVRaven_Bot@@@std@@@std@@@std@@QAEAAPAU?$_List_node@PAVRaven_Bot@@PAX@2@XZ ; std::_List_alloc<std::_List_base_types<Raven_Bot *,std::allocator<Raven_Bot *> > >::_Myhead
	mov	DWORD PTR [eax], esi

; 644  : 		_TRY_BEGIN

	mov	BYTE PTR __$EHRec$[ebp+12], 1

; 645  : 		_Alloc_proxy();

	mov	ecx, DWORD PTR _this$[ebp]
	call	?_Alloc_proxy@?$_List_alloc@U?$_List_base_types@PAVRaven_Bot@@V?$allocator@PAVRaven_Bot@@@std@@@std@@@std@@QAEXXZ ; std::_List_alloc<std::_List_base_types<Raven_Bot *,std::allocator<Raven_Bot *> > >::_Alloc_proxy
	jmp	SHORT $LN4@List_alloc
__catch$??0?$_List_alloc@U?$_List_base_types@PAVRaven_Bot@@V?$allocator@PAVRaven_Bot@@@std@@@std@@@std@@QAE@$$QAV?$allocator@PAVRaven_Bot@@@1@@Z$0:

; 646  : 		_CATCH_ALL
; 647  : 		_Freeheadnode(_Myhead());

	mov	ecx, DWORD PTR _this$[ebp]
	call	?_Myhead@?$_List_alloc@U?$_List_base_types@PAVRaven_Bot@@V?$allocator@PAVRaven_Bot@@@std@@@std@@@std@@QAEAAPAU?$_List_node@PAVRaven_Bot@@PAX@2@XZ ; std::_List_alloc<std::_List_base_types<Raven_Bot *,std::allocator<Raven_Bot *> > >::_Myhead
	mov	edx, DWORD PTR [eax]
	push	edx
	mov	ecx, DWORD PTR _this$[ebp]
	call	?_Freeheadnode@?$_List_alloc@U?$_List_base_types@PAVRaven_Bot@@V?$allocator@PAVRaven_Bot@@@std@@@std@@@std@@QAEXPAU?$_List_node@PAVRaven_Bot@@PAX@2@@Z ; std::_List_alloc<std::_List_base_types<Raven_Bot *,std::allocator<Raven_Bot *> > >::_Freeheadnode

; 648  : 		_RERAISE;

	push	0
	push	0
	call	__CxxThrowException@8

; 649  : 		_CATCH_END

	mov	eax, $LN8@List_alloc
	ret	0
$LN4@List_alloc:
	mov	DWORD PTR __$EHRec$[ebp+12], 0
	jmp	SHORT $LN1@List_alloc
$LN8@List_alloc:
	mov	DWORD PTR __$EHRec$[ebp+12], 0
$LN1@List_alloc:

; 650  : 		}

	mov	DWORD PTR __$EHRec$[ebp+12], -1
	mov	eax, DWORD PTR _this$[ebp]
$LN3@List_alloc:
	mov	ecx, DWORD PTR __$EHRec$[ebp+4]
	mov	DWORD PTR fs:0, ecx
	pop	ecx
	pop	edi
	pop	esi
	pop	ebx
	add	esp, 24					; 00000018H
	cmp	ebp, esp
	call	__RTC_CheckEsp
	mov	esp, ebp
	pop	ebp
	ret	4
_TEXT	ENDS
;	COMDAT text$x
text$x	SEGMENT
__unwindfunclet$??0?$_List_alloc@U?$_List_base_types@PAVRaven_Bot@@V?$allocator@PAVRaven_Bot@@@std@@@std@@@std@@QAE@$$QAV?$allocator@PAVRaven_Bot@@@1@@Z$2:
	mov	ecx, DWORD PTR _this$[ebp]
	jmp	??1?$_Compressed_pair@U?$_Wrap_alloc@V?$allocator@U?$_List_node@PAVRaven_Bot@@PAX@std@@@std@@@std@@V?$_List_val@U?$_List_simple_types@PAVRaven_Bot@@@std@@@2@$00@std@@QAE@XZ
__ehhandler$??0?$_List_alloc@U?$_List_base_types@PAVRaven_Bot@@V?$allocator@PAVRaven_Bot@@@std@@@std@@@std@@QAE@$$QAV?$allocator@PAVRaven_Bot@@@1@@Z:
	mov	edx, DWORD PTR [esp+8]
	lea	eax, DWORD PTR [edx+12]
	mov	ecx, DWORD PTR [edx-28]
	xor	ecx, eax
	call	@__security_check_cookie@4
	mov	eax, OFFSET __ehfuncinfo$??0?$_List_alloc@U?$_List_base_types@PAVRaven_Bot@@V?$allocator@PAVRaven_Bot@@@std@@@std@@@std@@QAE@$$QAV?$allocator@PAVRaven_Bot@@@1@@Z
	jmp	___CxxFrameHandler3
text$x	ENDS
??0?$_List_alloc@U?$_List_base_types@PAVRaven_Bot@@V?$allocator@PAVRaven_Bot@@@std@@@std@@@std@@QAE@$$QAV?$allocator@PAVRaven_Bot@@@1@@Z ENDP ; std::_List_alloc<std::_List_base_types<Raven_Bot *,std::allocator<Raven_Bot *> > >::_List_alloc<std::_List_base_types<Raven_Bot *,std::allocator<Raven_Bot *> > >
; Function compile flags: /Odtp /RTCsu
; File d:\microsoft visual studio 14.0\vc\include\list
;	COMDAT ??0?$_List_alloc@U?$_List_base_types@PAVRaven_Bot@@V?$allocator@PAVRaven_Bot@@@std@@@std@@@std@@QAE@ABV?$allocator@PAVRaven_Bot@@@1@@Z
_TEXT	SEGMENT
$T2 = -21						; size = 1
_this$ = -20						; size = 4
__$EHRec$ = -16						; size = 16
__Al$ = 8						; size = 4
??0?$_List_alloc@U?$_List_base_types@PAVRaven_Bot@@V?$allocator@PAVRaven_Bot@@@std@@@std@@@std@@QAE@ABV?$allocator@PAVRaven_Bot@@@1@@Z PROC ; std::_List_alloc<std::_List_base_types<Raven_Bot *,std::allocator<Raven_Bot *> > >::_List_alloc<std::_List_base_types<Raven_Bot *,std::allocator<Raven_Bot *> > >, COMDAT
; _this$ = ecx

; 630  : 		{	// construct head node, allocator from _Al

	push	ebp
	mov	ebp, esp
	push	-1
	push	__ehhandler$??0?$_List_alloc@U?$_List_base_types@PAVRaven_Bot@@V?$allocator@PAVRaven_Bot@@@std@@@std@@@std@@QAE@ABV?$allocator@PAVRaven_Bot@@@1@@Z
	mov	eax, DWORD PTR fs:0
	push	eax
	push	ecx
	sub	esp, 8
	push	ebx
	push	esi
	push	edi
	mov	DWORD PTR [ebp-24], -858993460		; ccccccccH
	mov	DWORD PTR [ebp-20], -858993460		; ccccccccH
	mov	eax, DWORD PTR ___security_cookie
	xor	eax, ebp
	push	eax
	lea	eax, DWORD PTR __$EHRec$[ebp+4]
	mov	DWORD PTR fs:0, eax
	mov	DWORD PTR __$EHRec$[ebp], esp
	mov	DWORD PTR _this$[ebp], ecx

; 629  : 		: _Mypair(_One_then_variadic_args_t(), _Al)

	mov	eax, DWORD PTR __Al$[ebp]
	push	eax
	movzx	ecx, BYTE PTR $T2[ebp]
	push	ecx
	mov	ecx, DWORD PTR _this$[ebp]
	call	??$?0ABV?$allocator@PAVRaven_Bot@@@std@@$$V@?$_Compressed_pair@U?$_Wrap_alloc@V?$allocator@U?$_List_node@PAVRaven_Bot@@PAX@std@@@std@@@std@@V?$_List_val@U?$_List_simple_types@PAVRaven_Bot@@@std@@@2@$00@std@@QAE@U_One_then_variadic_args_t@1@ABV?$allocator@PAVRaven_Bot@@@1@@Z ; std::_Compressed_pair<std::_Wrap_alloc<std::allocator<std::_List_node<Raven_Bot *,void *> > >,std::_List_val<std::_List_simple_types<Raven_Bot *> >,1>::_Compressed_pair<std::_Wrap_alloc<std::allocator<std::_List_node<Raven_Bot *,void *> > >,std::_List_val<std::_List_simple_types<Raven_Bot *> >,1><std::allocator<Raven_Bot *> const &>
	mov	DWORD PTR __$EHRec$[ebp+12], 0

; 631  : 		_Myhead() = _Buyheadnode();

	mov	ecx, DWORD PTR _this$[ebp]
	call	?_Buyheadnode@?$_List_alloc@U?$_List_base_types@PAVRaven_Bot@@V?$allocator@PAVRaven_Bot@@@std@@@std@@@std@@QAEPAU?$_List_node@PAVRaven_Bot@@PAX@2@XZ ; std::_List_alloc<std::_List_base_types<Raven_Bot *,std::allocator<Raven_Bot *> > >::_Buyheadnode
	mov	esi, eax
	mov	ecx, DWORD PTR _this$[ebp]
	call	?_Myhead@?$_List_alloc@U?$_List_base_types@PAVRaven_Bot@@V?$allocator@PAVRaven_Bot@@@std@@@std@@@std@@QAEAAPAU?$_List_node@PAVRaven_Bot@@PAX@2@XZ ; std::_List_alloc<std::_List_base_types<Raven_Bot *,std::allocator<Raven_Bot *> > >::_Myhead
	mov	DWORD PTR [eax], esi

; 632  : 		_TRY_BEGIN

	mov	BYTE PTR __$EHRec$[ebp+12], 1

; 633  : 		_Alloc_proxy();

	mov	ecx, DWORD PTR _this$[ebp]
	call	?_Alloc_proxy@?$_List_alloc@U?$_List_base_types@PAVRaven_Bot@@V?$allocator@PAVRaven_Bot@@@std@@@std@@@std@@QAEXXZ ; std::_List_alloc<std::_List_base_types<Raven_Bot *,std::allocator<Raven_Bot *> > >::_Alloc_proxy
	jmp	SHORT $LN4@List_alloc
__catch$??0?$_List_alloc@U?$_List_base_types@PAVRaven_Bot@@V?$allocator@PAVRaven_Bot@@@std@@@std@@@std@@QAE@ABV?$allocator@PAVRaven_Bot@@@1@@Z$0:

; 634  : 		_CATCH_ALL
; 635  : 		_Freeheadnode(_Myhead());

	mov	ecx, DWORD PTR _this$[ebp]
	call	?_Myhead@?$_List_alloc@U?$_List_base_types@PAVRaven_Bot@@V?$allocator@PAVRaven_Bot@@@std@@@std@@@std@@QAEAAPAU?$_List_node@PAVRaven_Bot@@PAX@2@XZ ; std::_List_alloc<std::_List_base_types<Raven_Bot *,std::allocator<Raven_Bot *> > >::_Myhead
	mov	edx, DWORD PTR [eax]
	push	edx
	mov	ecx, DWORD PTR _this$[ebp]
	call	?_Freeheadnode@?$_List_alloc@U?$_List_base_types@PAVRaven_Bot@@V?$allocator@PAVRaven_Bot@@@std@@@std@@@std@@QAEXPAU?$_List_node@PAVRaven_Bot@@PAX@2@@Z ; std::_List_alloc<std::_List_base_types<Raven_Bot *,std::allocator<Raven_Bot *> > >::_Freeheadnode

; 636  : 		_RERAISE;

	push	0
	push	0
	call	__CxxThrowException@8

; 637  : 		_CATCH_END

	mov	eax, $LN8@List_alloc
	ret	0
$LN4@List_alloc:
	mov	DWORD PTR __$EHRec$[ebp+12], 0
	jmp	SHORT $LN1@List_alloc
$LN8@List_alloc:
	mov	DWORD PTR __$EHRec$[ebp+12], 0
$LN1@List_alloc:

; 638  : 		}

	mov	DWORD PTR __$EHRec$[ebp+12], -1
	mov	eax, DWORD PTR _this$[ebp]
$LN3@List_alloc:
	mov	ecx, DWORD PTR __$EHRec$[ebp+4]
	mov	DWORD PTR fs:0, ecx
	pop	ecx
	pop	edi
	pop	esi
	pop	ebx
	add	esp, 24					; 00000018H
	cmp	ebp, esp
	call	__RTC_CheckEsp
	mov	esp, ebp
	pop	ebp
	ret	4
_TEXT	ENDS
;	COMDAT text$x
text$x	SEGMENT
__unwindfunclet$??0?$_List_alloc@U?$_List_base_types@PAVRaven_Bot@@V?$allocator@PAVRaven_Bot@@@std@@@std@@@std@@QAE@ABV?$allocator@PAVRaven_Bot@@@1@@Z$2:
	mov	ecx, DWORD PTR _this$[ebp]
	jmp	??1?$_Compressed_pair@U?$_Wrap_alloc@V?$allocator@U?$_List_node@PAVRaven_Bot@@PAX@std@@@std@@@std@@V?$_List_val@U?$_List_simple_types@PAVRaven_Bot@@@std@@@2@$00@std@@QAE@XZ
__ehhandler$??0?$_List_alloc@U?$_List_base_types@PAVRaven_Bot@@V?$allocator@PAVRaven_Bot@@@std@@@std@@@std@@QAE@ABV?$allocator@PAVRaven_Bot@@@1@@Z:
	mov	edx, DWORD PTR [esp+8]
	lea	eax, DWORD PTR [edx+12]
	mov	ecx, DWORD PTR [edx-28]
	xor	ecx, eax
	call	@__security_check_cookie@4
	mov	eax, OFFSET __ehfuncinfo$??0?$_List_alloc@U?$_List_base_types@PAVRaven_Bot@@V?$allocator@PAVRaven_Bot@@@std@@@std@@@std@@QAE@ABV?$allocator@PAVRaven_Bot@@@1@@Z
	jmp	___CxxFrameHandler3
text$x	ENDS
??0?$_List_alloc@U?$_List_base_types@PAVRaven_Bot@@V?$allocator@PAVRaven_Bot@@@std@@@std@@@std@@QAE@ABV?$allocator@PAVRaven_Bot@@@1@@Z ENDP ; std::_List_alloc<std::_List_base_types<Raven_Bot *,std::allocator<Raven_Bot *> > >::_List_alloc<std::_List_base_types<Raven_Bot *,std::allocator<Raven_Bot *> > >
; Function compile flags: /Odtp /RTCsu
; File d:\microsoft visual studio 14.0\vc\include\list
;	COMDAT ?_Myval@?$_List_alloc@U?$_List_base_types@PAVRaven_Bot@@V?$allocator@PAVRaven_Bot@@@std@@@std@@@std@@SAAAPAVRaven_Bot@@PAU?$_List_node@PAVRaven_Bot@@PAX@2@@Z
_TEXT	SEGMENT
__Pnode$ = 8						; size = 4
?_Myval@?$_List_alloc@U?$_List_base_types@PAVRaven_Bot@@V?$allocator@PAVRaven_Bot@@@std@@@std@@@std@@SAAAPAVRaven_Bot@@PAU?$_List_node@PAVRaven_Bot@@PAX@2@@Z PROC ; std::_List_alloc<std::_List_base_types<Raven_Bot *,std::allocator<Raven_Bot *> > >::_Myval, COMDAT

; 590  : 		{	// return reference to value in node

	push	ebp
	mov	ebp, esp

; 591  : 		return (_List_val<_Val_types>::_Myval(_Pnode));

	mov	eax, DWORD PTR __Pnode$[ebp]
	push	eax
	call	?_Myval@?$_List_val@U?$_List_simple_types@PAVRaven_Bot@@@std@@@std@@SAAAPAVRaven_Bot@@PAU?$_List_node@PAVRaven_Bot@@PAX@2@@Z ; std::_List_val<std::_List_simple_types<Raven_Bot *> >::_Myval
	add	esp, 4

; 592  : 		}

	cmp	ebp, esp
	call	__RTC_CheckEsp
	pop	ebp
	ret	0
?_Myval@?$_List_alloc@U?$_List_base_types@PAVRaven_Bot@@V?$allocator@PAVRaven_Bot@@@std@@@std@@@std@@SAAAPAVRaven_Bot@@PAU?$_List_node@PAVRaven_Bot@@PAX@2@@Z ENDP ; std::_List_alloc<std::_List_base_types<Raven_Bot *,std::allocator<Raven_Bot *> > >::_Myval
_TEXT	ENDS
; Function compile flags: /Odtp /RTCsu
; File d:\microsoft visual studio 14.0\vc\include\list
;	COMDAT ?_Prevnode@?$_List_alloc@U?$_List_base_types@PAVRaven_Bot@@V?$allocator@PAVRaven_Bot@@@std@@@std@@@std@@SAAAPAU?$_List_node@PAVRaven_Bot@@PAX@2@PAU32@@Z
_TEXT	SEGMENT
__Pnode$ = 8						; size = 4
?_Prevnode@?$_List_alloc@U?$_List_base_types@PAVRaven_Bot@@V?$allocator@PAVRaven_Bot@@@std@@@std@@@std@@SAAAPAU?$_List_node@PAVRaven_Bot@@PAX@2@PAU32@@Z PROC ; std::_List_alloc<std::_List_base_types<Raven_Bot *,std::allocator<Raven_Bot *> > >::_Prevnode, COMDAT

; 585  : 		{	// return reference to predecessor pointer in node

	push	ebp
	mov	ebp, esp

; 586  : 		return (_List_val<_Val_types>::_Prevnode(_Pnode));

	mov	eax, DWORD PTR __Pnode$[ebp]
	push	eax
	call	?_Prevnode@?$_List_val@U?$_List_simple_types@PAVRaven_Bot@@@std@@@std@@SAAAPAU?$_List_node@PAVRaven_Bot@@PAX@2@PAU32@@Z ; std::_List_val<std::_List_simple_types<Raven_Bot *> >::_Prevnode
	add	esp, 4

; 587  : 		}

	cmp	ebp, esp
	call	__RTC_CheckEsp
	pop	ebp
	ret	0
?_Prevnode@?$_List_alloc@U?$_List_base_types@PAVRaven_Bot@@V?$allocator@PAVRaven_Bot@@@std@@@std@@@std@@SAAAPAU?$_List_node@PAVRaven_Bot@@PAX@2@PAU32@@Z ENDP ; std::_List_alloc<std::_List_base_types<Raven_Bot *,std::allocator<Raven_Bot *> > >::_Prevnode
_TEXT	ENDS
; Function compile flags: /Odtp /RTCsu
; File d:\microsoft visual studio 14.0\vc\include\list
;	COMDAT ?_Nextnode@?$_List_alloc@U?$_List_base_types@PAVRaven_Bot@@V?$allocator@PAVRaven_Bot@@@std@@@std@@@std@@SAAAPAU?$_List_node@PAVRaven_Bot@@PAX@2@PAU32@@Z
_TEXT	SEGMENT
__Pnode$ = 8						; size = 4
?_Nextnode@?$_List_alloc@U?$_List_base_types@PAVRaven_Bot@@V?$allocator@PAVRaven_Bot@@@std@@@std@@@std@@SAAAPAU?$_List_node@PAVRaven_Bot@@PAX@2@PAU32@@Z PROC ; std::_List_alloc<std::_List_base_types<Raven_Bot *,std::allocator<Raven_Bot *> > >::_Nextnode, COMDAT

; 580  : 		{	// return reference to successor pointer in node

	push	ebp
	mov	ebp, esp

; 581  : 		return (_List_val<_Val_types>::_Nextnode(_Pnode));

	mov	eax, DWORD PTR __Pnode$[ebp]
	push	eax
	call	?_Nextnode@?$_List_val@U?$_List_simple_types@PAVRaven_Bot@@@std@@@std@@SAAAPAU?$_List_node@PAVRaven_Bot@@PAX@2@PAU32@@Z ; std::_List_val<std::_List_simple_types<Raven_Bot *> >::_Nextnode
	add	esp, 4

; 582  : 		}

	cmp	ebp, esp
	call	__RTC_CheckEsp
	pop	ebp
	ret	0
?_Nextnode@?$_List_alloc@U?$_List_base_types@PAVRaven_Bot@@V?$allocator@PAVRaven_Bot@@@std@@@std@@@std@@SAAAPAU?$_List_node@PAVRaven_Bot@@PAX@2@PAU32@@Z ENDP ; std::_List_alloc<std::_List_base_types<Raven_Bot *,std::allocator<Raven_Bot *> > >::_Nextnode
_TEXT	ENDS
; Function compile flags: /Odtp /RTCsu
; File d:\microsoft visual studio 14.0\vc\include\xmemory0
;	COMDAT ?max_size@?$_Wrap_alloc@V?$allocator@U?$_List_node@PAVRaven_Bot@@PAX@std@@@std@@@std@@QBEIU_Nil@2@@Z
_TEXT	SEGMENT
_this$ = -4						; size = 4
___formal$ = 8						; size = 1
?max_size@?$_Wrap_alloc@V?$allocator@U?$_List_node@PAVRaven_Bot@@PAX@std@@@std@@@std@@QBEIU_Nil@2@@Z PROC ; std::_Wrap_alloc<std::allocator<std::_List_node<Raven_Bot *,void *> > >::max_size, COMDAT
; _this$ = ecx

; 931  : 		{	// get maximum size

	push	ebp
	mov	ebp, esp
	push	ecx
	mov	DWORD PTR [ebp-4], -858993460		; ccccccccH
	mov	DWORD PTR _this$[ebp], ecx

; 932  : 		return (_Mytraits::max_size(*this));

	mov	eax, DWORD PTR _this$[ebp]
	push	eax
	call	?max_size@?$allocator_traits@V?$allocator@U?$_List_node@PAVRaven_Bot@@PAX@std@@@std@@@std@@SAIABV?$allocator@U?$_List_node@PAVRaven_Bot@@PAX@std@@@2@@Z ; std::allocator_traits<std::allocator<std::_List_node<Raven_Bot *,void *> > >::max_size
	add	esp, 4

; 933  : 		}

	add	esp, 4
	cmp	ebp, esp
	call	__RTC_CheckEsp
	mov	esp, ebp
	pop	ebp
	ret	4
?max_size@?$_Wrap_alloc@V?$allocator@U?$_List_node@PAVRaven_Bot@@PAX@std@@@std@@@std@@QBEIU_Nil@2@@Z ENDP ; std::_Wrap_alloc<std::allocator<std::_List_node<Raven_Bot *,void *> > >::max_size
_TEXT	ENDS
; Function compile flags: /Odtp /RTCsu
; File d:\microsoft visual studio 14.0\vc\include\xmemory0
;	COMDAT ?deallocate@?$_Wrap_alloc@V?$allocator@U?$_List_node@PAVRaven_Bot@@PAX@std@@@std@@@std@@QAEXPAU?$_List_node@PAVRaven_Bot@@PAX@2@I@Z
_TEXT	SEGMENT
_this$ = -4						; size = 4
__Ptr$ = 8						; size = 4
__Count$ = 12						; size = 4
?deallocate@?$_Wrap_alloc@V?$allocator@U?$_List_node@PAVRaven_Bot@@PAX@std@@@std@@@std@@QAEXPAU?$_List_node@PAVRaven_Bot@@PAX@2@I@Z PROC ; std::_Wrap_alloc<std::allocator<std::_List_node<Raven_Bot *,void *> > >::deallocate, COMDAT
; _this$ = ecx

; 910  : 		{	// deallocate object at _Ptr, ignore size

	push	ebp
	mov	ebp, esp
	push	ecx
	mov	DWORD PTR [ebp-4], -858993460		; ccccccccH
	mov	DWORD PTR _this$[ebp], ecx

; 911  : 		_Mybase::deallocate(_Ptr, _Count);

	mov	eax, DWORD PTR __Count$[ebp]
	push	eax
	mov	ecx, DWORD PTR __Ptr$[ebp]
	push	ecx
	mov	ecx, DWORD PTR _this$[ebp]
	call	?deallocate@?$allocator@U?$_List_node@PAVRaven_Bot@@PAX@std@@@std@@QAEXPAU?$_List_node@PAVRaven_Bot@@PAX@2@I@Z ; std::allocator<std::_List_node<Raven_Bot *,void *> >::deallocate

; 912  : 		}

	add	esp, 4
	cmp	ebp, esp
	call	__RTC_CheckEsp
	mov	esp, ebp
	pop	ebp
	ret	8
?deallocate@?$_Wrap_alloc@V?$allocator@U?$_List_node@PAVRaven_Bot@@PAX@std@@@std@@@std@@QAEXPAU?$_List_node@PAVRaven_Bot@@PAX@2@I@Z ENDP ; std::_Wrap_alloc<std::allocator<std::_List_node<Raven_Bot *,void *> > >::deallocate
_TEXT	ENDS
; Function compile flags: /Odtp /RTCsu
; File d:\microsoft visual studio 14.0\vc\include\xmemory0
;	COMDAT ?allocate@?$_Wrap_alloc@V?$allocator@U?$_List_node@PAVRaven_Bot@@PAX@std@@@std@@@std@@QAEPAU?$_List_node@PAVRaven_Bot@@PAX@2@I@Z
_TEXT	SEGMENT
_this$ = -4						; size = 4
__Count$ = 8						; size = 4
?allocate@?$_Wrap_alloc@V?$allocator@U?$_List_node@PAVRaven_Bot@@PAX@std@@@std@@@std@@QAEPAU?$_List_node@PAVRaven_Bot@@PAX@2@I@Z PROC ; std::_Wrap_alloc<std::allocator<std::_List_node<Raven_Bot *,void *> > >::allocate, COMDAT
; _this$ = ecx

; 899  : 		{	// allocate array of _Count elements

	push	ebp
	mov	ebp, esp
	push	ecx
	mov	DWORD PTR [ebp-4], -858993460		; ccccccccH
	mov	DWORD PTR _this$[ebp], ecx

; 900  : 		return (_Mybase::allocate(_Count));

	mov	eax, DWORD PTR __Count$[ebp]
	push	eax
	mov	ecx, DWORD PTR _this$[ebp]
	call	?allocate@?$allocator@U?$_List_node@PAVRaven_Bot@@PAX@std@@@std@@QAEPAU?$_List_node@PAVRaven_Bot@@PAX@2@I@Z ; std::allocator<std::_List_node<Raven_Bot *,void *> >::allocate

; 901  : 		}

	add	esp, 4
	cmp	ebp, esp
	call	__RTC_CheckEsp
	mov	esp, ebp
	pop	ebp
	ret	4
?allocate@?$_Wrap_alloc@V?$allocator@U?$_List_node@PAVRaven_Bot@@PAX@std@@@std@@@std@@QAEPAU?$_List_node@PAVRaven_Bot@@PAX@2@I@Z ENDP ; std::_Wrap_alloc<std::allocator<std::_List_node<Raven_Bot *,void *> > >::allocate
_TEXT	ENDS
; Function compile flags: /Odtp /RTCsu
; File d:\microsoft visual studio 14.0\vc\include\xmemory0
;	COMDAT ?max_size@?$allocator_traits@V?$allocator@U?$_List_node@PAVRaven_Bot@@PAX@std@@@std@@@std@@SAIABV?$allocator@U?$_List_node@PAVRaven_Bot@@PAX@std@@@2@@Z
_TEXT	SEGMENT
__Al$ = 8						; size = 4
?max_size@?$allocator_traits@V?$allocator@U?$_List_node@PAVRaven_Bot@@PAX@std@@@std@@@std@@SAIABV?$allocator@U?$_List_node@PAVRaven_Bot@@PAX@std@@@2@@Z PROC ; std::allocator_traits<std::allocator<std::_List_node<Raven_Bot *,void *> > >::max_size, COMDAT

; 786  : 		{	// get maximum size

	push	ebp
	mov	ebp, esp

; 787  : 		return (_Al.max_size());

	mov	ecx, DWORD PTR __Al$[ebp]
	call	?max_size@?$allocator@U?$_List_node@PAVRaven_Bot@@PAX@std@@@std@@QBEIXZ ; std::allocator<std::_List_node<Raven_Bot *,void *> >::max_size

; 788  : 		}

	cmp	ebp, esp
	call	__RTC_CheckEsp
	pop	ebp
	ret	0
?max_size@?$allocator_traits@V?$allocator@U?$_List_node@PAVRaven_Bot@@PAX@std@@@std@@@std@@SAIABV?$allocator@U?$_List_node@PAVRaven_Bot@@PAX@std@@@2@@Z ENDP ; std::allocator_traits<std::allocator<std::_List_node<Raven_Bot *,void *> > >::max_size
_TEXT	ENDS
; Function compile flags: /Odtp /RTCsu
; File d:\microsoft visual studio 14.0\vc\include\xmemory0
;	COMDAT ?max_size@?$allocator@U?$_List_node@PAVRaven_Bot@@PAX@std@@@std@@QBEIXZ
_TEXT	SEGMENT
_this$ = -4						; size = 4
?max_size@?$allocator@U?$_List_node@PAVRaven_Bot@@PAX@std@@@std@@QBEIXZ PROC ; std::allocator<std::_List_node<Raven_Bot *,void *> >::max_size, COMDAT
; _this$ = ecx

; 668  : 		{	// estimate maximum array size

	push	ebp
	mov	ebp, esp
	push	ecx
	mov	DWORD PTR [ebp-4], -858993460		; ccccccccH
	mov	DWORD PTR _this$[ebp], ecx

; 669  : 		return ((size_t)(-1) / sizeof (_Ty));

	mov	eax, 357913941				; 15555555H

; 670  : 		}

	mov	esp, ebp
	pop	ebp
	ret	0
?max_size@?$allocator@U?$_List_node@PAVRaven_Bot@@PAX@std@@@std@@QBEIXZ ENDP ; std::allocator<std::_List_node<Raven_Bot *,void *> >::max_size
_TEXT	ENDS
; Function compile flags: /Odtp /RTCsu
; File d:\microsoft visual studio 14.0\vc\include\xmemory0
;	COMDAT ?allocate@?$allocator@U?$_List_node@PAVRaven_Bot@@PAX@std@@@std@@QAEPAU?$_List_node@PAVRaven_Bot@@PAX@2@I@Z
_TEXT	SEGMENT
_this$ = -4						; size = 4
__Count$ = 8						; size = 4
?allocate@?$allocator@U?$_List_node@PAVRaven_Bot@@PAX@std@@@std@@QAEPAU?$_List_node@PAVRaven_Bot@@PAX@2@I@Z PROC ; std::allocator<std::_List_node<Raven_Bot *,void *> >::allocate, COMDAT
; _this$ = ecx

; 644  : 		{	// allocate array of _Count elements

	push	ebp
	mov	ebp, esp
	push	ecx
	mov	DWORD PTR [ebp-4], -858993460		; ccccccccH
	mov	DWORD PTR _this$[ebp], ecx

; 645  : 		return (_Allocate(_Count, (pointer)0));

	push	1
	push	0
	mov	eax, DWORD PTR __Count$[ebp]
	push	eax
	call	??$_Allocate@U?$_List_node@PAVRaven_Bot@@PAX@std@@@std@@YAPAU?$_List_node@PAVRaven_Bot@@PAX@0@IPAU10@_N@Z ; std::_Allocate<std::_List_node<Raven_Bot *,void *> >
	add	esp, 12					; 0000000cH

; 646  : 		}

	add	esp, 4
	cmp	ebp, esp
	call	__RTC_CheckEsp
	mov	esp, ebp
	pop	ebp
	ret	4
?allocate@?$allocator@U?$_List_node@PAVRaven_Bot@@PAX@std@@@std@@QAEPAU?$_List_node@PAVRaven_Bot@@PAX@2@I@Z ENDP ; std::allocator<std::_List_node<Raven_Bot *,void *> >::allocate
_TEXT	ENDS
; Function compile flags: /Odtp /RTCsu
; File d:\microsoft visual studio 14.0\vc\include\xmemory0
;	COMDAT ?deallocate@?$allocator@U?$_List_node@PAVRaven_Bot@@PAX@std@@@std@@QAEXPAU?$_List_node@PAVRaven_Bot@@PAX@2@I@Z
_TEXT	SEGMENT
_this$ = -4						; size = 4
__Ptr$ = 8						; size = 4
__Count$ = 12						; size = 4
?deallocate@?$allocator@U?$_List_node@PAVRaven_Bot@@PAX@std@@@std@@QAEXPAU?$_List_node@PAVRaven_Bot@@PAX@2@I@Z PROC ; std::allocator<std::_List_node<Raven_Bot *,void *> >::deallocate, COMDAT
; _this$ = ecx

; 639  : 		{	// deallocate object at _Ptr

	push	ebp
	mov	ebp, esp
	push	ecx
	mov	DWORD PTR [ebp-4], -858993460		; ccccccccH
	mov	DWORD PTR _this$[ebp], ecx

; 640  : 		_Deallocate(_Ptr, _Count);

	mov	eax, DWORD PTR __Count$[ebp]
	push	eax
	mov	ecx, DWORD PTR __Ptr$[ebp]
	push	ecx
	call	??$_Deallocate@U?$_List_node@PAVRaven_Bot@@PAX@std@@@std@@YAXPAU?$_List_node@PAVRaven_Bot@@PAX@0@I@Z ; std::_Deallocate<std::_List_node<Raven_Bot *,void *> >
	add	esp, 8

; 641  : 		}

	add	esp, 4
	cmp	ebp, esp
	call	__RTC_CheckEsp
	mov	esp, ebp
	pop	ebp
	ret	8
?deallocate@?$allocator@U?$_List_node@PAVRaven_Bot@@PAX@std@@@std@@QAEXPAU?$_List_node@PAVRaven_Bot@@PAX@2@I@Z ENDP ; std::allocator<std::_List_node<Raven_Bot *,void *> >::deallocate
_TEXT	ENDS
; Function compile flags: /Odtp /RTCsu
; File d:\microsoft visual studio 14.0\vc\include\xmemory0
;	COMDAT ??0?$allocator@PAVRaven_Bot@@@std@@QAE@XZ
_TEXT	SEGMENT
_this$ = -4						; size = 4
??0?$allocator@PAVRaven_Bot@@@std@@QAE@XZ PROC		; std::allocator<Raven_Bot *>::allocator<Raven_Bot *>, COMDAT
; _this$ = ecx

; 619  : 	allocator() _THROW0()

	push	ebp
	mov	ebp, esp
	push	ecx
	mov	DWORD PTR [ebp-4], -858993460		; ccccccccH
	mov	DWORD PTR _this$[ebp], ecx

; 620  : 		{	// construct default allocator (do nothing)
; 621  : 		}

	mov	eax, DWORD PTR _this$[ebp]
	mov	esp, ebp
	pop	ebp
	ret	0
??0?$allocator@PAVRaven_Bot@@@std@@QAE@XZ ENDP		; std::allocator<Raven_Bot *>::allocator<Raven_Bot *>
_TEXT	ENDS
; Function compile flags: /Odtp /RTCsu
; File d:\cours\uqac\intelligence artificielle - jeux vidéos\buckland_aisource\mini_projet_raven\armory\raven_projectile.cpp
_TEXT	SEGMENT
tv243 = -144						; size = 8
tv250 = -136						; size = 8
tv238 = -128						; size = 8
tv171 = -120						; size = 4
tv65 = -116						; size = 4
tv169 = -112						; size = 4
tv68 = -108						; size = 4
$T2 = -104						; size = 4
$T3 = -100						; size = 16
$T4 = -84						; size = 12
$T5 = -69						; size = 1
$T6 = -68						; size = 12
_curBot$ = -52						; size = 12
_hits$ = -32						; size = 12
_this$ = -16						; size = 4
__$EHRec$ = -12						; size = 12
___$ReturnUdt$ = 8					; size = 4
_From$ = 12						; size = 16
_To$ = 28						; size = 16
?GetListOfIntersectingBots@Raven_Projectile@@IBE?AV?$list@PAVRaven_Bot@@V?$allocator@PAVRaven_Bot@@@std@@@std@@UVector2D@@0@Z PROC ; Raven_Projectile::GetListOfIntersectingBots
; _this$ = ecx

; 46   : {

	push	ebp
	mov	ebp, esp
	push	-1
	push	__ehhandler$?GetListOfIntersectingBots@Raven_Projectile@@IBE?AV?$list@PAVRaven_Bot@@V?$allocator@PAVRaven_Bot@@@std@@@std@@UVector2D@@0@Z
	mov	eax, DWORD PTR fs:0
	push	eax
	sub	esp, 132				; 00000084H
	push	edi
	push	ecx
	lea	edi, DWORD PTR [ebp-144]
	mov	ecx, 33					; 00000021H
	mov	eax, -858993460				; ccccccccH
	rep stosd
	pop	ecx
	mov	eax, DWORD PTR ___security_cookie
	xor	eax, ebp
	push	eax
	lea	eax, DWORD PTR __$EHRec$[ebp]
	mov	DWORD PTR fs:0, eax
	mov	DWORD PTR _this$[ebp], ecx
	mov	DWORD PTR $T2[ebp], 0

; 47   :   //this will hold any bots that are intersecting with the line segment
; 48   :   std::list<Raven_Bot*> hits;

	lea	ecx, DWORD PTR _hits$[ebp]
	call	??0?$list@PAVRaven_Bot@@V?$allocator@PAVRaven_Bot@@@std@@@std@@QAE@XZ ; std::list<Raven_Bot *,std::allocator<Raven_Bot *> >::list<Raven_Bot *,std::allocator<Raven_Bot *> >
	mov	DWORD PTR __$EHRec$[ebp+8], 0

; 49   : 
; 50   :   //iterate through all entities checking against the line segment FromTo
; 51   :   std::list<Raven_Bot*>::const_iterator curBot;

	lea	ecx, DWORD PTR _curBot$[ebp]
	call	??0?$_List_const_iterator@V?$_List_val@U?$_List_simple_types@PAVRaven_Bot@@@std@@@std@@@std@@QAE@XZ ; std::_List_const_iterator<std::_List_val<std::_List_simple_types<Raven_Bot *> > >::_List_const_iterator<std::_List_val<std::_List_simple_types<Raven_Bot *> > >
	mov	BYTE PTR __$EHRec$[ebp+8], 1

; 52   :   for (curBot =  m_pWorld->GetAllBots().begin();

	lea	eax, DWORD PTR $T6[ebp]
	push	eax
	mov	ecx, DWORD PTR _this$[ebp]
	mov	ecx, DWORD PTR [ecx+168]
	call	?GetAllBots@Raven_Game@@QBEABV?$list@PAVRaven_Bot@@V?$allocator@PAVRaven_Bot@@@std@@@std@@XZ ; Raven_Game::GetAllBots
	mov	ecx, eax
	call	?begin@?$list@PAVRaven_Bot@@V?$allocator@PAVRaven_Bot@@@std@@@std@@QBE?AV?$_List_const_iterator@V?$_List_val@U?$_List_simple_types@PAVRaven_Bot@@@std@@@std@@@2@XZ ; std::list<Raven_Bot *,std::allocator<Raven_Bot *> >::begin
	mov	DWORD PTR tv68[ebp], eax
	mov	edx, DWORD PTR tv68[ebp]
	mov	DWORD PTR tv169[ebp], edx
	mov	BYTE PTR __$EHRec$[ebp+8], 2
	mov	eax, DWORD PTR tv169[ebp]
	push	eax
	lea	ecx, DWORD PTR _curBot$[ebp]
	call	??4?$_List_const_iterator@V?$_List_val@U?$_List_simple_types@PAVRaven_Bot@@@std@@@std@@@std@@QAEAAV01@$$QAV01@@Z
	mov	BYTE PTR __$EHRec$[ebp+8], 1
	lea	ecx, DWORD PTR $T6[ebp]
	call	??1?$_List_const_iterator@V?$_List_val@U?$_List_simple_types@PAVRaven_Bot@@@std@@@std@@@std@@QAE@XZ
	jmp	SHORT $LN4@GetListOfI
$LN2@GetListOfI:

; 54   :        ++curBot)

	lea	ecx, DWORD PTR _curBot$[ebp]
	call	??E?$_List_const_iterator@V?$_List_val@U?$_List_simple_types@PAVRaven_Bot@@@std@@@std@@@std@@QAEAAV01@XZ ; std::_List_const_iterator<std::_List_val<std::_List_simple_types<Raven_Bot *> > >::operator++
$LN4@GetListOfI:

; 53   :        curBot != m_pWorld->GetAllBots().end();

	lea	ecx, DWORD PTR $T4[ebp]
	push	ecx
	mov	edx, DWORD PTR _this$[ebp]
	mov	ecx, DWORD PTR [edx+168]
	call	?GetAllBots@Raven_Game@@QBEABV?$list@PAVRaven_Bot@@V?$allocator@PAVRaven_Bot@@@std@@@std@@XZ ; Raven_Game::GetAllBots
	mov	ecx, eax
	call	?end@?$list@PAVRaven_Bot@@V?$allocator@PAVRaven_Bot@@@std@@@std@@QBE?AV?$_List_const_iterator@V?$_List_val@U?$_List_simple_types@PAVRaven_Bot@@@std@@@std@@@2@XZ ; std::list<Raven_Bot *,std::allocator<Raven_Bot *> >::end
	mov	DWORD PTR tv65[ebp], eax
	mov	eax, DWORD PTR tv65[ebp]
	mov	DWORD PTR tv171[ebp], eax
	mov	BYTE PTR __$EHRec$[ebp+8], 3
	mov	ecx, DWORD PTR tv171[ebp]
	push	ecx
	lea	ecx, DWORD PTR _curBot$[ebp]
	call	??9?$_List_const_iterator@V?$_List_val@U?$_List_simple_types@PAVRaven_Bot@@@std@@@std@@@std@@QBE_NABV01@@Z ; std::_List_const_iterator<std::_List_val<std::_List_simple_types<Raven_Bot *> > >::operator!=
	mov	BYTE PTR $T5[ebp], al
	mov	BYTE PTR __$EHRec$[ebp+8], 1
	lea	ecx, DWORD PTR $T4[ebp]
	call	??1?$_List_const_iterator@V?$_List_val@U?$_List_simple_types@PAVRaven_Bot@@@std@@@std@@@std@@QAE@XZ
	movzx	edx, BYTE PTR $T5[ebp]
	test	edx, edx
	je	$LN3@GetListOfI

; 55   :   {
; 56   :     //make sure we don't check against the shooter of the projectile
; 57   :     if ( ((*curBot)->ID() != m_iShooterID))

	lea	ecx, DWORD PTR _curBot$[ebp]
	call	??D?$_List_const_iterator@V?$_List_val@U?$_List_simple_types@PAVRaven_Bot@@@std@@@std@@@std@@QBEABQAVRaven_Bot@@XZ ; std::_List_const_iterator<std::_List_val<std::_List_simple_types<Raven_Bot *> > >::operator*
	mov	ecx, DWORD PTR [eax]
	call	?ID@BaseGameEntity@@QBEHXZ		; BaseGameEntity::ID
	mov	ecx, DWORD PTR _this$[ebp]
	cmp	eax, DWORD PTR [ecx+144]
	je	$LN6@GetListOfI

; 58   :     {
; 59   :       //if the distance to FromTo is less than the entities bounding radius then
; 60   :       //there is an intersection so add it to hits
; 61   :       if (DistToLineSegment(From, To, (*curBot)->Pos()) < (*curBot)->BRadius())

	lea	edx, DWORD PTR $T3[ebp]
	push	edx
	lea	ecx, DWORD PTR _curBot$[ebp]
	call	??D?$_List_const_iterator@V?$_List_val@U?$_List_simple_types@PAVRaven_Bot@@@std@@@std@@@std@@QBEABQAVRaven_Bot@@XZ ; std::_List_const_iterator<std::_List_val<std::_List_simple_types<Raven_Bot *> > >::operator*
	mov	ecx, DWORD PTR [eax]
	call	?Pos@BaseGameEntity@@QBE?AUVector2D@@XZ	; BaseGameEntity::Pos
	sub	esp, 16					; 00000010H
	mov	ecx, esp
	mov	edx, DWORD PTR [eax]
	mov	DWORD PTR [ecx], edx
	mov	edx, DWORD PTR [eax+4]
	mov	DWORD PTR [ecx+4], edx
	mov	edx, DWORD PTR [eax+8]
	mov	DWORD PTR [ecx+8], edx
	mov	eax, DWORD PTR [eax+12]
	mov	DWORD PTR [ecx+12], eax
	sub	esp, 16					; 00000010H
	mov	ecx, esp
	mov	edx, DWORD PTR _To$[ebp]
	mov	DWORD PTR [ecx], edx
	mov	eax, DWORD PTR _To$[ebp+4]
	mov	DWORD PTR [ecx+4], eax
	mov	edx, DWORD PTR _To$[ebp+8]
	mov	DWORD PTR [ecx+8], edx
	mov	eax, DWORD PTR _To$[ebp+12]
	mov	DWORD PTR [ecx+12], eax
	sub	esp, 16					; 00000010H
	mov	ecx, esp
	mov	edx, DWORD PTR _From$[ebp]
	mov	DWORD PTR [ecx], edx
	mov	eax, DWORD PTR _From$[ebp+4]
	mov	DWORD PTR [ecx+4], eax
	mov	edx, DWORD PTR _From$[ebp+8]
	mov	DWORD PTR [ecx+8], edx
	mov	eax, DWORD PTR _From$[ebp+12]
	mov	DWORD PTR [ecx+12], eax
	call	?DistToLineSegment@@YANUVector2D@@00@Z	; DistToLineSegment
	add	esp, 48					; 00000030H
	fstp	QWORD PTR tv238[ebp]
	movsd	xmm0, QWORD PTR tv238[ebp]
	lea	ecx, DWORD PTR _curBot$[ebp]
	movsd	QWORD PTR tv250[ebp], xmm0
	call	??D?$_List_const_iterator@V?$_List_val@U?$_List_simple_types@PAVRaven_Bot@@@std@@@std@@@std@@QBEABQAVRaven_Bot@@XZ ; std::_List_const_iterator<std::_List_val<std::_List_simple_types<Raven_Bot *> > >::operator*
	mov	ecx, DWORD PTR [eax]
	call	?BRadius@BaseGameEntity@@QBENXZ		; BaseGameEntity::BRadius
	fstp	QWORD PTR tv243[ebp]
	movsd	xmm0, QWORD PTR tv243[ebp]
	movsd	xmm1, QWORD PTR tv250[ebp]
	comisd	xmm0, xmm1
	jbe	SHORT $LN6@GetListOfI

; 62   :       {
; 63   :         hits.push_back(*curBot);

	lea	ecx, DWORD PTR _curBot$[ebp]
	call	??D?$_List_const_iterator@V?$_List_val@U?$_List_simple_types@PAVRaven_Bot@@@std@@@std@@@std@@QBEABQAVRaven_Bot@@XZ ; std::_List_const_iterator<std::_List_val<std::_List_simple_types<Raven_Bot *> > >::operator*
	push	eax
	lea	ecx, DWORD PTR _hits$[ebp]
	call	?push_back@?$list@PAVRaven_Bot@@V?$allocator@PAVRaven_Bot@@@std@@@std@@QAEXABQAVRaven_Bot@@@Z ; std::list<Raven_Bot *,std::allocator<Raven_Bot *> >::push_back
$LN6@GetListOfI:

; 64   :       }
; 65   :     }
; 66   : 
; 67   :   }

	jmp	$LN2@GetListOfI
$LN3@GetListOfI:

; 68   : 
; 69   :   return hits;

	lea	ecx, DWORD PTR _hits$[ebp]
	push	ecx
	mov	ecx, DWORD PTR ___$ReturnUdt$[ebp]
	call	??0?$list@PAVRaven_Bot@@V?$allocator@PAVRaven_Bot@@@std@@@std@@QAE@$$QAV01@@Z ; std::list<Raven_Bot *,std::allocator<Raven_Bot *> >::list<Raven_Bot *,std::allocator<Raven_Bot *> >
	mov	edx, DWORD PTR $T2[ebp]
	or	edx, 1
	mov	DWORD PTR $T2[ebp], edx
	mov	BYTE PTR __$EHRec$[ebp+8], 0
	lea	ecx, DWORD PTR _curBot$[ebp]
	call	??1?$_List_const_iterator@V?$_List_val@U?$_List_simple_types@PAVRaven_Bot@@@std@@@std@@@std@@QAE@XZ
	mov	DWORD PTR __$EHRec$[ebp+8], -1
	lea	ecx, DWORD PTR _hits$[ebp]
	call	??1?$list@PAVRaven_Bot@@V?$allocator@PAVRaven_Bot@@@std@@@std@@QAE@XZ ; std::list<Raven_Bot *,std::allocator<Raven_Bot *> >::~list<Raven_Bot *,std::allocator<Raven_Bot *> >
	mov	eax, DWORD PTR ___$ReturnUdt$[ebp]

; 70   : }

	push	edx
	mov	ecx, ebp
	push	eax
	lea	edx, DWORD PTR $LN18@GetListOfI
	call	@_RTC_CheckStackVars@8
	pop	eax
	pop	edx
	mov	ecx, DWORD PTR __$EHRec$[ebp]
	mov	DWORD PTR fs:0, ecx
	pop	ecx
	pop	edi
	add	esp, 144				; 00000090H
	cmp	ebp, esp
	call	__RTC_CheckEsp
	mov	esp, ebp
	pop	ebp
	ret	36					; 00000024H
	npad	1
$LN18@GetListOfI:
	DD	2
	DD	$LN17@GetListOfI
$LN17@GetListOfI:
	DD	-32					; ffffffe0H
	DD	12					; 0000000cH
	DD	$LN14@GetListOfI
	DD	-52					; ffffffccH
	DD	12					; 0000000cH
	DD	$LN15@GetListOfI
$LN15@GetListOfI:
	DB	99					; 00000063H
	DB	117					; 00000075H
	DB	114					; 00000072H
	DB	66					; 00000042H
	DB	111					; 0000006fH
	DB	116					; 00000074H
	DB	0
$LN14@GetListOfI:
	DB	104					; 00000068H
	DB	105					; 00000069H
	DB	116					; 00000074H
	DB	115					; 00000073H
	DB	0
_TEXT	ENDS
text$x	SEGMENT
__unwindfunclet$?GetListOfIntersectingBots@Raven_Projectile@@IBE?AV?$list@PAVRaven_Bot@@V?$allocator@PAVRaven_Bot@@@std@@@std@@UVector2D@@0@Z$0:
	lea	ecx, DWORD PTR _hits$[ebp]
	jmp	??1?$list@PAVRaven_Bot@@V?$allocator@PAVRaven_Bot@@@std@@@std@@QAE@XZ ; std::list<Raven_Bot *,std::allocator<Raven_Bot *> >::~list<Raven_Bot *,std::allocator<Raven_Bot *> >
__unwindfunclet$?GetListOfIntersectingBots@Raven_Projectile@@IBE?AV?$list@PAVRaven_Bot@@V?$allocator@PAVRaven_Bot@@@std@@@std@@UVector2D@@0@Z$1:
	lea	ecx, DWORD PTR _curBot$[ebp]
	jmp	??1?$_List_const_iterator@V?$_List_val@U?$_List_simple_types@PAVRaven_Bot@@@std@@@std@@@std@@QAE@XZ
__unwindfunclet$?GetListOfIntersectingBots@Raven_Projectile@@IBE?AV?$list@PAVRaven_Bot@@V?$allocator@PAVRaven_Bot@@@std@@@std@@UVector2D@@0@Z$2:
	lea	ecx, DWORD PTR $T6[ebp]
	jmp	??1?$_List_const_iterator@V?$_List_val@U?$_List_simple_types@PAVRaven_Bot@@@std@@@std@@@std@@QAE@XZ
__unwindfunclet$?GetListOfIntersectingBots@Raven_Projectile@@IBE?AV?$list@PAVRaven_Bot@@V?$allocator@PAVRaven_Bot@@@std@@@std@@UVector2D@@0@Z$3:
	lea	ecx, DWORD PTR $T4[ebp]
	jmp	??1?$_List_const_iterator@V?$_List_val@U?$_List_simple_types@PAVRaven_Bot@@@std@@@std@@@std@@QAE@XZ
__ehhandler$?GetListOfIntersectingBots@Raven_Projectile@@IBE?AV?$list@PAVRaven_Bot@@V?$allocator@PAVRaven_Bot@@@std@@@std@@UVector2D@@0@Z:
	mov	edx, DWORD PTR [esp+8]
	lea	eax, DWORD PTR [edx+12]
	mov	ecx, DWORD PTR [edx-140]
	xor	ecx, eax
	call	@__security_check_cookie@4
	mov	eax, OFFSET __ehfuncinfo$?GetListOfIntersectingBots@Raven_Projectile@@IBE?AV?$list@PAVRaven_Bot@@V?$allocator@PAVRaven_Bot@@@std@@@std@@UVector2D@@0@Z
	jmp	___CxxFrameHandler3
text$x	ENDS
?GetListOfIntersectingBots@Raven_Projectile@@IBE?AV?$list@PAVRaven_Bot@@V?$allocator@PAVRaven_Bot@@@std@@@std@@UVector2D@@0@Z ENDP ; Raven_Projectile::GetListOfIntersectingBots
; Function compile flags: /Odtp /RTCsu
; File d:\cours\uqac\intelligence artificielle - jeux vidéos\buckland_aisource\mini_projet_raven\armory\raven_projectile.cpp
_TEXT	SEGMENT
tv245 = -160						; size = 8
tv260 = -152						; size = 8
tv240 = -144						; size = 8
tv175 = -136						; size = 4
tv177 = -132						; size = 4
tv173 = -128						; size = 4
tv65 = -124						; size = 4
$T2 = -120						; size = 4
$T3 = -116						; size = 16
$T4 = -100						; size = 16
$T5 = -84						; size = 12
$T6 = -69						; size = 1
$T7 = -68						; size = 12
_Dist$8 = -56						; size = 8
_curBot$ = -44						; size = 12
_ClosestSoFar$ = -28					; size = 8
_ClosestIntersectingBot$ = -20				; size = 4
_this$ = -16						; size = 4
__$EHRec$ = -12						; size = 12
_From$ = 8						; size = 16
_To$ = 24						; size = 16
?GetClosestIntersectingBot@Raven_Projectile@@IBEPAVRaven_Bot@@UVector2D@@0@Z PROC ; Raven_Projectile::GetClosestIntersectingBot
; _this$ = ecx

; 9    : {

	push	ebp
	mov	ebp, esp
	push	-1
	push	__ehhandler$?GetClosestIntersectingBot@Raven_Projectile@@IBEPAVRaven_Bot@@UVector2D@@0@Z
	mov	eax, DWORD PTR fs:0
	push	eax
	sub	esp, 148				; 00000094H
	push	edi
	push	ecx
	lea	edi, DWORD PTR [ebp-160]
	mov	ecx, 37					; 00000025H
	mov	eax, -858993460				; ccccccccH
	rep stosd
	pop	ecx
	mov	eax, DWORD PTR ___security_cookie
	xor	eax, ebp
	push	eax
	lea	eax, DWORD PTR __$EHRec$[ebp]
	mov	DWORD PTR fs:0, eax
	mov	DWORD PTR _this$[ebp], ecx

; 10   :   Raven_Bot* ClosestIntersectingBot = 0;

	mov	DWORD PTR _ClosestIntersectingBot$[ebp], 0

; 11   :   double ClosestSoFar = MaxDouble;

	movsd	xmm0, QWORD PTR __real@7fefffffffffffff
	movsd	QWORD PTR _ClosestSoFar$[ebp], xmm0

; 12   : 
; 13   :   //iterate through all entities checking against the line segment FromTo
; 14   :   std::list<Raven_Bot*>::const_iterator curBot;

	lea	ecx, DWORD PTR _curBot$[ebp]
	call	??0?$_List_const_iterator@V?$_List_val@U?$_List_simple_types@PAVRaven_Bot@@@std@@@std@@@std@@QAE@XZ ; std::_List_const_iterator<std::_List_val<std::_List_simple_types<Raven_Bot *> > >::_List_const_iterator<std::_List_val<std::_List_simple_types<Raven_Bot *> > >
	mov	DWORD PTR __$EHRec$[ebp+8], 0

; 15   :   for (curBot =  m_pWorld->GetAllBots().begin();

	lea	eax, DWORD PTR $T7[ebp]
	push	eax
	mov	ecx, DWORD PTR _this$[ebp]
	mov	ecx, DWORD PTR [ecx+168]
	call	?GetAllBots@Raven_Game@@QBEABV?$list@PAVRaven_Bot@@V?$allocator@PAVRaven_Bot@@@std@@@std@@XZ ; Raven_Game::GetAllBots
	mov	ecx, eax
	call	?begin@?$list@PAVRaven_Bot@@V?$allocator@PAVRaven_Bot@@@std@@@std@@QBE?AV?$_List_const_iterator@V?$_List_val@U?$_List_simple_types@PAVRaven_Bot@@@std@@@std@@@2@XZ ; std::list<Raven_Bot *,std::allocator<Raven_Bot *> >::begin
	mov	DWORD PTR tv65[ebp], eax
	mov	edx, DWORD PTR tv65[ebp]
	mov	DWORD PTR tv173[ebp], edx
	mov	BYTE PTR __$EHRec$[ebp+8], 1
	mov	eax, DWORD PTR tv173[ebp]
	push	eax
	lea	ecx, DWORD PTR _curBot$[ebp]
	call	??4?$_List_const_iterator@V?$_List_val@U?$_List_simple_types@PAVRaven_Bot@@@std@@@std@@@std@@QAEAAV01@$$QAV01@@Z
	mov	BYTE PTR __$EHRec$[ebp+8], 0
	lea	ecx, DWORD PTR $T7[ebp]
	call	??1?$_List_const_iterator@V?$_List_val@U?$_List_simple_types@PAVRaven_Bot@@@std@@@std@@@std@@QAE@XZ
	jmp	SHORT $LN4@GetClosest
$LN2@GetClosest:

; 17   :        ++curBot)

	lea	ecx, DWORD PTR _curBot$[ebp]
	call	??E?$_List_const_iterator@V?$_List_val@U?$_List_simple_types@PAVRaven_Bot@@@std@@@std@@@std@@QAEAAV01@XZ ; std::_List_const_iterator<std::_List_val<std::_List_simple_types<Raven_Bot *> > >::operator++
$LN4@GetClosest:

; 16   :        curBot != m_pWorld->GetAllBots().end();

	lea	ecx, DWORD PTR $T5[ebp]
	push	ecx
	mov	edx, DWORD PTR _this$[ebp]
	mov	ecx, DWORD PTR [edx+168]
	call	?GetAllBots@Raven_Game@@QBEABV?$list@PAVRaven_Bot@@V?$allocator@PAVRaven_Bot@@@std@@@std@@XZ ; Raven_Game::GetAllBots
	mov	ecx, eax
	call	?end@?$list@PAVRaven_Bot@@V?$allocator@PAVRaven_Bot@@@std@@@std@@QBE?AV?$_List_const_iterator@V?$_List_val@U?$_List_simple_types@PAVRaven_Bot@@@std@@@std@@@2@XZ ; std::list<Raven_Bot *,std::allocator<Raven_Bot *> >::end
	mov	DWORD PTR tv177[ebp], eax
	mov	eax, DWORD PTR tv177[ebp]
	mov	DWORD PTR tv175[ebp], eax
	mov	BYTE PTR __$EHRec$[ebp+8], 2
	mov	ecx, DWORD PTR tv175[ebp]
	push	ecx
	lea	ecx, DWORD PTR _curBot$[ebp]
	call	??9?$_List_const_iterator@V?$_List_val@U?$_List_simple_types@PAVRaven_Bot@@@std@@@std@@@std@@QBE_NABV01@@Z ; std::_List_const_iterator<std::_List_val<std::_List_simple_types<Raven_Bot *> > >::operator!=
	mov	BYTE PTR $T6[ebp], al
	mov	BYTE PTR __$EHRec$[ebp+8], 0
	lea	ecx, DWORD PTR $T5[ebp]
	call	??1?$_List_const_iterator@V?$_List_val@U?$_List_simple_types@PAVRaven_Bot@@@std@@@std@@@std@@QAE@XZ
	movzx	edx, BYTE PTR $T6[ebp]
	test	edx, edx
	je	$LN3@GetClosest

; 18   :   {
; 19   :     //make sure we don't check against the shooter of the projectile
; 20   :     if ( ((*curBot)->ID() != m_iShooterID))

	lea	ecx, DWORD PTR _curBot$[ebp]
	call	??D?$_List_const_iterator@V?$_List_val@U?$_List_simple_types@PAVRaven_Bot@@@std@@@std@@@std@@QBEABQAVRaven_Bot@@XZ ; std::_List_const_iterator<std::_List_val<std::_List_simple_types<Raven_Bot *> > >::operator*
	mov	ecx, DWORD PTR [eax]
	call	?ID@BaseGameEntity@@QBEHXZ		; BaseGameEntity::ID
	mov	ecx, DWORD PTR _this$[ebp]
	cmp	eax, DWORD PTR [ecx+144]
	je	$LN7@GetClosest

; 21   :     {
; 22   :       //if the distance to FromTo is less than the entity's bounding radius then
; 23   :       //there is an intersection
; 24   :       if (DistToLineSegment(From, To, (*curBot)->Pos()) < (*curBot)->BRadius())

	lea	edx, DWORD PTR $T4[ebp]
	push	edx
	lea	ecx, DWORD PTR _curBot$[ebp]
	call	??D?$_List_const_iterator@V?$_List_val@U?$_List_simple_types@PAVRaven_Bot@@@std@@@std@@@std@@QBEABQAVRaven_Bot@@XZ ; std::_List_const_iterator<std::_List_val<std::_List_simple_types<Raven_Bot *> > >::operator*
	mov	ecx, DWORD PTR [eax]
	call	?Pos@BaseGameEntity@@QBE?AUVector2D@@XZ	; BaseGameEntity::Pos
	sub	esp, 16					; 00000010H
	mov	ecx, esp
	mov	edx, DWORD PTR [eax]
	mov	DWORD PTR [ecx], edx
	mov	edx, DWORD PTR [eax+4]
	mov	DWORD PTR [ecx+4], edx
	mov	edx, DWORD PTR [eax+8]
	mov	DWORD PTR [ecx+8], edx
	mov	eax, DWORD PTR [eax+12]
	mov	DWORD PTR [ecx+12], eax
	sub	esp, 16					; 00000010H
	mov	ecx, esp
	mov	edx, DWORD PTR _To$[ebp]
	mov	DWORD PTR [ecx], edx
	mov	eax, DWORD PTR _To$[ebp+4]
	mov	DWORD PTR [ecx+4], eax
	mov	edx, DWORD PTR _To$[ebp+8]
	mov	DWORD PTR [ecx+8], edx
	mov	eax, DWORD PTR _To$[ebp+12]
	mov	DWORD PTR [ecx+12], eax
	sub	esp, 16					; 00000010H
	mov	ecx, esp
	mov	edx, DWORD PTR _From$[ebp]
	mov	DWORD PTR [ecx], edx
	mov	eax, DWORD PTR _From$[ebp+4]
	mov	DWORD PTR [ecx+4], eax
	mov	edx, DWORD PTR _From$[ebp+8]
	mov	DWORD PTR [ecx+8], edx
	mov	eax, DWORD PTR _From$[ebp+12]
	mov	DWORD PTR [ecx+12], eax
	call	?DistToLineSegment@@YANUVector2D@@00@Z	; DistToLineSegment
	add	esp, 48					; 00000030H
	fstp	QWORD PTR tv240[ebp]
	movsd	xmm0, QWORD PTR tv240[ebp]
	lea	ecx, DWORD PTR _curBot$[ebp]
	movsd	QWORD PTR tv260[ebp], xmm0
	call	??D?$_List_const_iterator@V?$_List_val@U?$_List_simple_types@PAVRaven_Bot@@@std@@@std@@@std@@QBEABQAVRaven_Bot@@XZ ; std::_List_const_iterator<std::_List_val<std::_List_simple_types<Raven_Bot *> > >::operator*
	mov	ecx, DWORD PTR [eax]
	call	?BRadius@BaseGameEntity@@QBENXZ		; BaseGameEntity::BRadius
	fstp	QWORD PTR tv245[ebp]
	movsd	xmm0, QWORD PTR tv245[ebp]
	movsd	xmm1, QWORD PTR tv260[ebp]
	comisd	xmm0, xmm1
	jbe	SHORT $LN7@GetClosest

; 25   :       {
; 26   :         //test to see if this is the closest so far
; 27   :         double Dist = Vec2DDistanceSq((*curBot)->Pos(), m_vOrigin);

	mov	ecx, DWORD PTR _this$[ebp]
	add	ecx, 176				; 000000b0H
	push	ecx
	lea	edx, DWORD PTR $T3[ebp]
	push	edx
	lea	ecx, DWORD PTR _curBot$[ebp]
	call	??D?$_List_const_iterator@V?$_List_val@U?$_List_simple_types@PAVRaven_Bot@@@std@@@std@@@std@@QBEABQAVRaven_Bot@@XZ ; std::_List_const_iterator<std::_List_val<std::_List_simple_types<Raven_Bot *> > >::operator*
	mov	ecx, DWORD PTR [eax]
	call	?Pos@BaseGameEntity@@QBE?AUVector2D@@XZ	; BaseGameEntity::Pos
	push	eax
	call	?Vec2DDistanceSq@@YANABUVector2D@@0@Z	; Vec2DDistanceSq
	add	esp, 8
	fstp	QWORD PTR _Dist$8[ebp]

; 28   : 
; 29   :         if (Dist < ClosestSoFar)

	movsd	xmm0, QWORD PTR _ClosestSoFar$[ebp]
	comisd	xmm0, QWORD PTR _Dist$8[ebp]
	jbe	SHORT $LN7@GetClosest

; 30   :         {
; 31   :           Dist = ClosestSoFar;

	movsd	xmm0, QWORD PTR _ClosestSoFar$[ebp]
	movsd	QWORD PTR _Dist$8[ebp], xmm0

; 32   :           ClosestIntersectingBot = *curBot;

	lea	ecx, DWORD PTR _curBot$[ebp]
	call	??D?$_List_const_iterator@V?$_List_val@U?$_List_simple_types@PAVRaven_Bot@@@std@@@std@@@std@@QBEABQAVRaven_Bot@@XZ ; std::_List_const_iterator<std::_List_val<std::_List_simple_types<Raven_Bot *> > >::operator*
	mov	eax, DWORD PTR [eax]
	mov	DWORD PTR _ClosestIntersectingBot$[ebp], eax
$LN7@GetClosest:

; 33   :         }
; 34   :       }
; 35   :     }
; 36   : 
; 37   :   }

	jmp	$LN2@GetClosest
$LN3@GetClosest:

; 38   : 
; 39   :   return ClosestIntersectingBot;

	mov	ecx, DWORD PTR _ClosestIntersectingBot$[ebp]
	mov	DWORD PTR $T2[ebp], ecx
	mov	DWORD PTR __$EHRec$[ebp+8], -1
	lea	ecx, DWORD PTR _curBot$[ebp]
	call	??1?$_List_const_iterator@V?$_List_val@U?$_List_simple_types@PAVRaven_Bot@@@std@@@std@@@std@@QAE@XZ
	mov	eax, DWORD PTR $T2[ebp]

; 40   : }

	push	edx
	mov	ecx, ebp
	push	eax
	lea	edx, DWORD PTR $LN15@GetClosest
	call	@_RTC_CheckStackVars@8
	pop	eax
	pop	edx
	mov	ecx, DWORD PTR __$EHRec$[ebp]
	mov	DWORD PTR fs:0, ecx
	pop	ecx
	pop	edi
	add	esp, 160				; 000000a0H
	cmp	ebp, esp
	call	__RTC_CheckEsp
	mov	esp, ebp
	pop	ebp
	ret	32					; 00000020H
	npad	2
$LN15@GetClosest:
	DD	1
	DD	$LN14@GetClosest
$LN14@GetClosest:
	DD	-44					; ffffffd4H
	DD	12					; 0000000cH
	DD	$LN12@GetClosest
$LN12@GetClosest:
	DB	99					; 00000063H
	DB	117					; 00000075H
	DB	114					; 00000072H
	DB	66					; 00000042H
	DB	111					; 0000006fH
	DB	116					; 00000074H
	DB	0
_TEXT	ENDS
text$x	SEGMENT
__unwindfunclet$?GetClosestIntersectingBot@Raven_Projectile@@IBEPAVRaven_Bot@@UVector2D@@0@Z$0:
	lea	ecx, DWORD PTR _curBot$[ebp]
	jmp	??1?$_List_const_iterator@V?$_List_val@U?$_List_simple_types@PAVRaven_Bot@@@std@@@std@@@std@@QAE@XZ
__unwindfunclet$?GetClosestIntersectingBot@Raven_Projectile@@IBEPAVRaven_Bot@@UVector2D@@0@Z$1:
	lea	ecx, DWORD PTR $T7[ebp]
	jmp	??1?$_List_const_iterator@V?$_List_val@U?$_List_simple_types@PAVRaven_Bot@@@std@@@std@@@std@@QAE@XZ
__unwindfunclet$?GetClosestIntersectingBot@Raven_Projectile@@IBEPAVRaven_Bot@@UVector2D@@0@Z$2:
	lea	ecx, DWORD PTR $T5[ebp]
	jmp	??1?$_List_const_iterator@V?$_List_val@U?$_List_simple_types@PAVRaven_Bot@@@std@@@std@@@std@@QAE@XZ
__ehhandler$?GetClosestIntersectingBot@Raven_Projectile@@IBEPAVRaven_Bot@@UVector2D@@0@Z:
	mov	edx, DWORD PTR [esp+8]
	lea	eax, DWORD PTR [edx+12]
	mov	ecx, DWORD PTR [edx-156]
	xor	ecx, eax
	call	@__security_check_cookie@4
	mov	eax, OFFSET __ehfuncinfo$?GetClosestIntersectingBot@Raven_Projectile@@IBEPAVRaven_Bot@@UVector2D@@0@Z
	jmp	___CxxFrameHandler3
text$x	ENDS
?GetClosestIntersectingBot@Raven_Projectile@@IBEPAVRaven_Bot@@UVector2D@@0@Z ENDP ; Raven_Projectile::GetClosestIntersectingBot
; Function compile flags: /Odtp /RTCsu
; File d:\cours\uqac\intelligence artificielle - jeux vidéos\buckland_aisource\mini_projet_raven\common\game\basegameentity.h
;	COMDAT ?ID@BaseGameEntity@@QBEHXZ
_TEXT	SEGMENT
_this$ = -4						; size = 4
?ID@BaseGameEntity@@QBEHXZ PROC				; BaseGameEntity::ID, COMDAT
; _this$ = ecx

; 94   :   int          ID()const{return m_ID;}

	push	ebp
	mov	ebp, esp
	push	ecx
	mov	DWORD PTR [ebp-4], -858993460		; ccccccccH
	mov	DWORD PTR _this$[ebp], ecx
	mov	eax, DWORD PTR _this$[ebp]
	mov	eax, DWORD PTR [eax+8]
	mov	esp, ebp
	pop	ebp
	ret	0
?ID@BaseGameEntity@@QBEHXZ ENDP				; BaseGameEntity::ID
_TEXT	ENDS
; Function compile flags: /Odtp /RTCsu
; File d:\cours\uqac\intelligence artificielle - jeux vidéos\buckland_aisource\mini_projet_raven\common\game\basegameentity.h
;	COMDAT ?BRadius@BaseGameEntity@@QBENXZ
_TEXT	SEGMENT
_this$ = -4						; size = 4
?BRadius@BaseGameEntity@@QBENXZ PROC			; BaseGameEntity::BRadius, COMDAT
; _this$ = ecx

; 92   :   double       BRadius()const{return m_dBoundingRadius;}

	push	ebp
	mov	ebp, esp
	push	ecx
	mov	DWORD PTR [ebp-4], -858993460		; ccccccccH
	mov	DWORD PTR _this$[ebp], ecx
	mov	eax, DWORD PTR _this$[ebp]
	fld	QWORD PTR [eax+56]
	mov	esp, ebp
	pop	ebp
	ret	0
?BRadius@BaseGameEntity@@QBENXZ ENDP			; BaseGameEntity::BRadius
_TEXT	ENDS
; Function compile flags: /Odtp /RTCsu
; File d:\cours\uqac\intelligence artificielle - jeux vidéos\buckland_aisource\mini_projet_raven\common\game\basegameentity.h
;	COMDAT ?Pos@BaseGameEntity@@QBE?AUVector2D@@XZ
_TEXT	SEGMENT
_this$ = -4						; size = 4
___$ReturnUdt$ = 8					; size = 4
?Pos@BaseGameEntity@@QBE?AUVector2D@@XZ PROC		; BaseGameEntity::Pos, COMDAT
; _this$ = ecx

; 89   :   Vector2D     Pos()const{return m_vPosition;}

	push	ebp
	mov	ebp, esp
	push	ecx
	mov	DWORD PTR [ebp-4], -858993460		; ccccccccH
	mov	DWORD PTR _this$[ebp], ecx
	mov	eax, DWORD PTR _this$[ebp]
	add	eax, 24					; 00000018H
	mov	ecx, DWORD PTR ___$ReturnUdt$[ebp]
	mov	edx, DWORD PTR [eax]
	mov	DWORD PTR [ecx], edx
	mov	edx, DWORD PTR [eax+4]
	mov	DWORD PTR [ecx+4], edx
	mov	edx, DWORD PTR [eax+8]
	mov	DWORD PTR [ecx+8], edx
	mov	eax, DWORD PTR [eax+12]
	mov	DWORD PTR [ecx+12], eax
	mov	eax, DWORD PTR ___$ReturnUdt$[ebp]
	mov	esp, ebp
	pop	ebp
	ret	4
?Pos@BaseGameEntity@@QBE?AUVector2D@@XZ ENDP		; BaseGameEntity::Pos
_TEXT	ENDS
; Function compile flags: /Odtp /RTCsu
; File d:\cours\uqac\intelligence artificielle - jeux vidéos\buckland_aisource\mini_projet_raven\common\2d\geometry.h
;	COMDAT ?DistToLineSegment@@YANUVector2D@@00@Z
_TEXT	SEGMENT
$T1 = -88						; size = 16
$T2 = -72						; size = 16
$T3 = -56						; size = 16
_Point$ = -36						; size = 16
_dotB$ = -16						; size = 8
_dotA$ = -8						; size = 8
_A$ = 8							; size = 16
_B$ = 24						; size = 16
_P$ = 40						; size = 16
?DistToLineSegment@@YANUVector2D@@00@Z PROC		; DistToLineSegment, COMDAT

; 145  : {

	push	ebp
	mov	ebp, esp
	sub	esp, 88					; 00000058H
	push	edi
	lea	edi, DWORD PTR [ebp-88]
	mov	ecx, 22					; 00000016H
	mov	eax, -858993460				; ccccccccH
	rep stosd

; 146  :   //if the angle is obtuse between PA and AB is obtuse then the closest
; 147  :   //vertex must be A
; 148  :   double dotA = (P.x - A.x)*(B.x - A.x) + (P.y - A.y)*(B.y - A.y);

	movsd	xmm0, QWORD PTR _P$[ebp]
	subsd	xmm0, QWORD PTR _A$[ebp]
	movsd	xmm1, QWORD PTR _B$[ebp]
	subsd	xmm1, QWORD PTR _A$[ebp]
	mulsd	xmm0, xmm1
	movsd	xmm1, QWORD PTR _P$[ebp+8]
	subsd	xmm1, QWORD PTR _A$[ebp+8]
	movsd	xmm2, QWORD PTR _B$[ebp+8]
	subsd	xmm2, QWORD PTR _A$[ebp+8]
	mulsd	xmm1, xmm2
	addsd	xmm0, xmm1
	movsd	QWORD PTR _dotA$[ebp], xmm0

; 149  : 
; 150  :   if (dotA <= 0) return Vec2DDistance(A, P);

	movsd	xmm0, QWORD PTR __real@0000000000000000
	comisd	xmm0, QWORD PTR _dotA$[ebp]
	jb	SHORT $LN2@DistToLine
	lea	eax, DWORD PTR _P$[ebp]
	push	eax
	lea	ecx, DWORD PTR _A$[ebp]
	push	ecx
	call	?Vec2DDistance@@YANABUVector2D@@0@Z	; Vec2DDistance
	add	esp, 8
	jmp	$LN1@DistToLine
$LN2@DistToLine:

; 151  : 
; 152  :   //if the angle is obtuse between PB and AB is obtuse then the closest
; 153  :   //vertex must be B
; 154  :   double dotB = (P.x - B.x)*(A.x - B.x) + (P.y - B.y)*(A.y - B.y);

	movsd	xmm0, QWORD PTR _P$[ebp]
	subsd	xmm0, QWORD PTR _B$[ebp]
	movsd	xmm1, QWORD PTR _A$[ebp]
	subsd	xmm1, QWORD PTR _B$[ebp]
	mulsd	xmm0, xmm1
	movsd	xmm1, QWORD PTR _P$[ebp+8]
	subsd	xmm1, QWORD PTR _B$[ebp+8]
	movsd	xmm2, QWORD PTR _A$[ebp+8]
	subsd	xmm2, QWORD PTR _B$[ebp+8]
	mulsd	xmm1, xmm2
	addsd	xmm0, xmm1
	movsd	QWORD PTR _dotB$[ebp], xmm0

; 155  :  
; 156  :   if (dotB <= 0) return Vec2DDistance(B, P);

	movsd	xmm0, QWORD PTR __real@0000000000000000
	comisd	xmm0, QWORD PTR _dotB$[ebp]
	jb	SHORT $LN3@DistToLine
	lea	edx, DWORD PTR _P$[ebp]
	push	edx
	lea	eax, DWORD PTR _B$[ebp]
	push	eax
	call	?Vec2DDistance@@YANABUVector2D@@0@Z	; Vec2DDistance
	add	esp, 8
	jmp	SHORT $LN1@DistToLine
$LN3@DistToLine:

; 157  :     
; 158  :   //calculate the point along AB that is the closest to P
; 159  :   Vector2D Point = A + ((B - A) * dotA)/(dotA + dotB);

	movsd	xmm0, QWORD PTR _dotA$[ebp]
	addsd	xmm0, QWORD PTR _dotB$[ebp]
	sub	esp, 8
	movsd	QWORD PTR [esp], xmm0
	sub	esp, 8
	movsd	xmm0, QWORD PTR _dotA$[ebp]
	movsd	QWORD PTR [esp], xmm0
	lea	ecx, DWORD PTR _A$[ebp]
	push	ecx
	lea	edx, DWORD PTR _B$[ebp]
	push	edx
	lea	eax, DWORD PTR $T3[ebp]
	push	eax
	call	??G@YA?AUVector2D@@ABU0@0@Z		; operator-
	add	esp, 12					; 0000000cH
	push	eax
	lea	ecx, DWORD PTR $T2[ebp]
	push	ecx
	call	??D@YA?AUVector2D@@ABU0@N@Z		; operator*
	add	esp, 16					; 00000010H
	push	eax
	lea	edx, DWORD PTR $T1[ebp]
	push	edx
	call	??K@YA?AUVector2D@@ABU0@N@Z		; operator/
	add	esp, 16					; 00000010H
	push	eax
	lea	eax, DWORD PTR _A$[ebp]
	push	eax
	lea	ecx, DWORD PTR _Point$[ebp]
	push	ecx
	call	??H@YA?AUVector2D@@ABU0@0@Z		; operator+
	add	esp, 12					; 0000000cH

; 160  : 
; 161  :   //calculate the distance P-Point
; 162  :   return Vec2DDistance(P,Point);

	lea	edx, DWORD PTR _Point$[ebp]
	push	edx
	lea	eax, DWORD PTR _P$[ebp]
	push	eax
	call	?Vec2DDistance@@YANABUVector2D@@0@Z	; Vec2DDistance
	add	esp, 8
$LN1@DistToLine:

; 163  : }

	push	edx
	mov	ecx, ebp
	push	eax
	lea	edx, DWORD PTR $LN7@DistToLine
	call	@_RTC_CheckStackVars@8
	pop	eax
	pop	edx
	pop	edi
	add	esp, 88					; 00000058H
	cmp	ebp, esp
	call	__RTC_CheckEsp
	mov	esp, ebp
	pop	ebp
	ret	0
	npad	1
$LN7@DistToLine:
	DD	1
	DD	$LN6@DistToLine
$LN6@DistToLine:
	DD	-36					; ffffffdcH
	DD	16					; 00000010H
	DD	$LN5@DistToLine
$LN5@DistToLine:
	DB	80					; 00000050H
	DB	111					; 0000006fH
	DB	105					; 00000069H
	DB	110					; 0000006eH
	DB	116					; 00000074H
	DB	0
?DistToLineSegment@@YANUVector2D@@00@Z ENDP		; DistToLineSegment
_TEXT	ENDS
; Function compile flags: /Odtp /RTCsu
; File d:\cours\uqac\intelligence artificielle - jeux vidéos\buckland_aisource\mini_projet_raven\common\2d\vector2d.h
;	COMDAT ?Vec2DDistanceSq@@YANABUVector2D@@0@Z
_TEXT	SEGMENT
tv82 = -24						; size = 8
_xSeparation$ = -16					; size = 8
_ySeparation$ = -8					; size = 8
_v1$ = 8						; size = 4
_v2$ = 12						; size = 4
?Vec2DDistanceSq@@YANABUVector2D@@0@Z PROC		; Vec2DDistanceSq, COMDAT

; 283  : {

	push	ebp
	mov	ebp, esp
	sub	esp, 24					; 00000018H
	mov	eax, -858993460				; ccccccccH
	mov	DWORD PTR [ebp-24], eax
	mov	DWORD PTR [ebp-20], eax
	mov	DWORD PTR [ebp-16], eax
	mov	DWORD PTR [ebp-12], eax
	mov	DWORD PTR [ebp-8], eax
	mov	DWORD PTR [ebp-4], eax

; 284  : 
; 285  :   double ySeparation = v2.y - v1.y;

	mov	eax, DWORD PTR _v2$[ebp]
	mov	ecx, DWORD PTR _v1$[ebp]
	movsd	xmm0, QWORD PTR [eax+8]
	subsd	xmm0, QWORD PTR [ecx+8]
	movsd	QWORD PTR _ySeparation$[ebp], xmm0

; 286  :   double xSeparation = v2.x - v1.x;

	mov	edx, DWORD PTR _v2$[ebp]
	mov	eax, DWORD PTR _v1$[ebp]
	movsd	xmm0, QWORD PTR [edx]
	subsd	xmm0, QWORD PTR [eax]
	movsd	QWORD PTR _xSeparation$[ebp], xmm0

; 287  : 
; 288  :   return ySeparation*ySeparation + xSeparation*xSeparation;

	movsd	xmm0, QWORD PTR _ySeparation$[ebp]
	mulsd	xmm0, QWORD PTR _ySeparation$[ebp]
	movsd	xmm1, QWORD PTR _xSeparation$[ebp]
	mulsd	xmm1, QWORD PTR _xSeparation$[ebp]
	addsd	xmm0, xmm1
	movsd	QWORD PTR tv82[ebp], xmm0
	fld	QWORD PTR tv82[ebp]

; 289  : }

	mov	esp, ebp
	pop	ebp
	ret	0
?Vec2DDistanceSq@@YANABUVector2D@@0@Z ENDP		; Vec2DDistanceSq
_TEXT	ENDS
; Function compile flags: /Odtp /RTCsu
; File d:\cours\uqac\intelligence artificielle - jeux vidéos\buckland_aisource\mini_projet_raven\common\2d\vector2d.h
;	COMDAT ?Vec2DDistance@@YANABUVector2D@@0@Z
_TEXT	SEGMENT
_xSeparation$ = -16					; size = 8
_ySeparation$ = -8					; size = 8
_v1$ = 8						; size = 4
_v2$ = 12						; size = 4
?Vec2DDistance@@YANABUVector2D@@0@Z PROC		; Vec2DDistance, COMDAT

; 274  : {

	push	ebp
	mov	ebp, esp
	sub	esp, 16					; 00000010H
	mov	eax, -858993460				; ccccccccH
	mov	DWORD PTR [ebp-16], eax
	mov	DWORD PTR [ebp-12], eax
	mov	DWORD PTR [ebp-8], eax
	mov	DWORD PTR [ebp-4], eax

; 275  : 
; 276  :   double ySeparation = v2.y - v1.y;

	mov	eax, DWORD PTR _v2$[ebp]
	mov	ecx, DWORD PTR _v1$[ebp]
	movsd	xmm0, QWORD PTR [eax+8]
	subsd	xmm0, QWORD PTR [ecx+8]
	movsd	QWORD PTR _ySeparation$[ebp], xmm0

; 277  :   double xSeparation = v2.x - v1.x;

	mov	edx, DWORD PTR _v2$[ebp]
	mov	eax, DWORD PTR _v1$[ebp]
	movsd	xmm0, QWORD PTR [edx]
	subsd	xmm0, QWORD PTR [eax]
	movsd	QWORD PTR _xSeparation$[ebp], xmm0

; 278  : 
; 279  :   return sqrt(ySeparation*ySeparation + xSeparation*xSeparation);

	movsd	xmm0, QWORD PTR _ySeparation$[ebp]
	mulsd	xmm0, QWORD PTR _ySeparation$[ebp]
	movsd	xmm1, QWORD PTR _xSeparation$[ebp]
	mulsd	xmm1, QWORD PTR _xSeparation$[ebp]
	addsd	xmm0, xmm1
	sub	esp, 8
	movsd	QWORD PTR [esp], xmm0
	call	_sqrt
	add	esp, 8

; 280  : }

	add	esp, 16					; 00000010H
	cmp	ebp, esp
	call	__RTC_CheckEsp
	mov	esp, ebp
	pop	ebp
	ret	0
?Vec2DDistance@@YANABUVector2D@@0@Z ENDP		; Vec2DDistance
_TEXT	ENDS
; Function compile flags: /Odtp /RTCsu
; File d:\cours\uqac\intelligence artificielle - jeux vidéos\buckland_aisource\mini_projet_raven\common\2d\vector2d.h
;	COMDAT ??K@YA?AUVector2D@@ABU0@N@Z
_TEXT	SEGMENT
_result$ = -20						; size = 16
___$ReturnUdt$ = 8					; size = 4
_lhs$ = 12						; size = 4
_val$ = 16						; size = 8
??K@YA?AUVector2D@@ABU0@N@Z PROC			; operator/, COMDAT

; 369  : {

	push	ebp
	mov	ebp, esp
	sub	esp, 24					; 00000018H
	mov	eax, -858993460				; ccccccccH
	mov	DWORD PTR [ebp-24], eax
	mov	DWORD PTR [ebp-20], eax
	mov	DWORD PTR [ebp-16], eax
	mov	DWORD PTR [ebp-12], eax
	mov	DWORD PTR [ebp-8], eax
	mov	DWORD PTR [ebp-4], eax

; 370  :   Vector2D result(lhs);

	mov	eax, DWORD PTR _lhs$[ebp]
	mov	ecx, DWORD PTR [eax]
	mov	DWORD PTR _result$[ebp], ecx
	mov	edx, DWORD PTR [eax+4]
	mov	DWORD PTR _result$[ebp+4], edx
	mov	ecx, DWORD PTR [eax+8]
	mov	DWORD PTR _result$[ebp+8], ecx
	mov	edx, DWORD PTR [eax+12]
	mov	DWORD PTR _result$[ebp+12], edx

; 371  :   result.x /= val;

	movsd	xmm0, QWORD PTR _result$[ebp]
	divsd	xmm0, QWORD PTR _val$[ebp]
	movsd	QWORD PTR _result$[ebp], xmm0

; 372  :   result.y /= val;

	movsd	xmm0, QWORD PTR _result$[ebp+8]
	divsd	xmm0, QWORD PTR _val$[ebp]
	movsd	QWORD PTR _result$[ebp+8], xmm0

; 373  : 
; 374  :   return result;

	mov	eax, DWORD PTR ___$ReturnUdt$[ebp]
	mov	ecx, DWORD PTR _result$[ebp]
	mov	DWORD PTR [eax], ecx
	mov	edx, DWORD PTR _result$[ebp+4]
	mov	DWORD PTR [eax+4], edx
	mov	ecx, DWORD PTR _result$[ebp+8]
	mov	DWORD PTR [eax+8], ecx
	mov	edx, DWORD PTR _result$[ebp+12]
	mov	DWORD PTR [eax+12], edx
	mov	eax, DWORD PTR ___$ReturnUdt$[ebp]

; 375  : }

	push	edx
	mov	ecx, ebp
	push	eax
	lea	edx, DWORD PTR $LN5@operator
	call	@_RTC_CheckStackVars@8
	pop	eax
	pop	edx
	mov	esp, ebp
	pop	ebp
	ret	0
	npad	1
$LN5@operator:
	DD	1
	DD	$LN4@operator
$LN4@operator:
	DD	-20					; ffffffecH
	DD	16					; 00000010H
	DD	$LN3@operator
$LN3@operator:
	DB	114					; 00000072H
	DB	101					; 00000065H
	DB	115					; 00000073H
	DB	117					; 00000075H
	DB	108					; 0000006cH
	DB	116					; 00000074H
	DB	0
??K@YA?AUVector2D@@ABU0@N@Z ENDP			; operator/
_TEXT	ENDS
; Function compile flags: /Odtp /RTCsu
; File d:\cours\uqac\intelligence artificielle - jeux vidéos\buckland_aisource\mini_projet_raven\common\2d\vector2d.h
;	COMDAT ??H@YA?AUVector2D@@ABU0@0@Z
_TEXT	SEGMENT
_result$ = -20						; size = 16
___$ReturnUdt$ = 8					; size = 4
_lhs$ = 12						; size = 4
_rhs$ = 16						; size = 4
??H@YA?AUVector2D@@ABU0@0@Z PROC			; operator+, COMDAT

; 359  : {

	push	ebp
	mov	ebp, esp
	sub	esp, 24					; 00000018H
	mov	eax, -858993460				; ccccccccH
	mov	DWORD PTR [ebp-24], eax
	mov	DWORD PTR [ebp-20], eax
	mov	DWORD PTR [ebp-16], eax
	mov	DWORD PTR [ebp-12], eax
	mov	DWORD PTR [ebp-8], eax
	mov	DWORD PTR [ebp-4], eax

; 360  :   Vector2D result(lhs);

	mov	eax, DWORD PTR _lhs$[ebp]
	mov	ecx, DWORD PTR [eax]
	mov	DWORD PTR _result$[ebp], ecx
	mov	edx, DWORD PTR [eax+4]
	mov	DWORD PTR _result$[ebp+4], edx
	mov	ecx, DWORD PTR [eax+8]
	mov	DWORD PTR _result$[ebp+8], ecx
	mov	edx, DWORD PTR [eax+12]
	mov	DWORD PTR _result$[ebp+12], edx

; 361  :   result.x += rhs.x;

	mov	eax, DWORD PTR _rhs$[ebp]
	movsd	xmm0, QWORD PTR _result$[ebp]
	addsd	xmm0, QWORD PTR [eax]
	movsd	QWORD PTR _result$[ebp], xmm0

; 362  :   result.y += rhs.y;

	mov	ecx, DWORD PTR _rhs$[ebp]
	movsd	xmm0, QWORD PTR _result$[ebp+8]
	addsd	xmm0, QWORD PTR [ecx+8]
	movsd	QWORD PTR _result$[ebp+8], xmm0

; 363  :   
; 364  :   return result;

	mov	edx, DWORD PTR ___$ReturnUdt$[ebp]
	mov	eax, DWORD PTR _result$[ebp]
	mov	DWORD PTR [edx], eax
	mov	ecx, DWORD PTR _result$[ebp+4]
	mov	DWORD PTR [edx+4], ecx
	mov	eax, DWORD PTR _result$[ebp+8]
	mov	DWORD PTR [edx+8], eax
	mov	ecx, DWORD PTR _result$[ebp+12]
	mov	DWORD PTR [edx+12], ecx
	mov	eax, DWORD PTR ___$ReturnUdt$[ebp]

; 365  : }

	push	edx
	mov	ecx, ebp
	push	eax
	lea	edx, DWORD PTR $LN5@operator
	call	@_RTC_CheckStackVars@8
	pop	eax
	pop	edx
	mov	esp, ebp
	pop	ebp
	ret	0
$LN5@operator:
	DD	1
	DD	$LN4@operator
$LN4@operator:
	DD	-20					; ffffffecH
	DD	16					; 00000010H
	DD	$LN3@operator
$LN3@operator:
	DB	114					; 00000072H
	DB	101					; 00000065H
	DB	115					; 00000073H
	DB	117					; 00000075H
	DB	108					; 0000006cH
	DB	116					; 00000074H
	DB	0
??H@YA?AUVector2D@@ABU0@0@Z ENDP			; operator+
_TEXT	ENDS
; Function compile flags: /Odtp /RTCsu
; File d:\cours\uqac\intelligence artificielle - jeux vidéos\buckland_aisource\mini_projet_raven\common\2d\vector2d.h
;	COMDAT ??G@YA?AUVector2D@@ABU0@0@Z
_TEXT	SEGMENT
_result$ = -20						; size = 16
___$ReturnUdt$ = 8					; size = 4
_lhs$ = 12						; size = 4
_rhs$ = 16						; size = 4
??G@YA?AUVector2D@@ABU0@0@Z PROC			; operator-, COMDAT

; 349  : {

	push	ebp
	mov	ebp, esp
	sub	esp, 24					; 00000018H
	mov	eax, -858993460				; ccccccccH
	mov	DWORD PTR [ebp-24], eax
	mov	DWORD PTR [ebp-20], eax
	mov	DWORD PTR [ebp-16], eax
	mov	DWORD PTR [ebp-12], eax
	mov	DWORD PTR [ebp-8], eax
	mov	DWORD PTR [ebp-4], eax

; 350  :   Vector2D result(lhs);

	mov	eax, DWORD PTR _lhs$[ebp]
	mov	ecx, DWORD PTR [eax]
	mov	DWORD PTR _result$[ebp], ecx
	mov	edx, DWORD PTR [eax+4]
	mov	DWORD PTR _result$[ebp+4], edx
	mov	ecx, DWORD PTR [eax+8]
	mov	DWORD PTR _result$[ebp+8], ecx
	mov	edx, DWORD PTR [eax+12]
	mov	DWORD PTR _result$[ebp+12], edx

; 351  :   result.x -= rhs.x;

	mov	eax, DWORD PTR _rhs$[ebp]
	movsd	xmm0, QWORD PTR _result$[ebp]
	subsd	xmm0, QWORD PTR [eax]
	movsd	QWORD PTR _result$[ebp], xmm0

; 352  :   result.y -= rhs.y;

	mov	ecx, DWORD PTR _rhs$[ebp]
	movsd	xmm0, QWORD PTR _result$[ebp+8]
	subsd	xmm0, QWORD PTR [ecx+8]
	movsd	QWORD PTR _result$[ebp+8], xmm0

; 353  :   
; 354  :   return result;

	mov	edx, DWORD PTR ___$ReturnUdt$[ebp]
	mov	eax, DWORD PTR _result$[ebp]
	mov	DWORD PTR [edx], eax
	mov	ecx, DWORD PTR _result$[ebp+4]
	mov	DWORD PTR [edx+4], ecx
	mov	eax, DWORD PTR _result$[ebp+8]
	mov	DWORD PTR [edx+8], eax
	mov	ecx, DWORD PTR _result$[ebp+12]
	mov	DWORD PTR [edx+12], ecx
	mov	eax, DWORD PTR ___$ReturnUdt$[ebp]

; 355  : }

	push	edx
	mov	ecx, ebp
	push	eax
	lea	edx, DWORD PTR $LN5@operator
	call	@_RTC_CheckStackVars@8
	pop	eax
	pop	edx
	mov	esp, ebp
	pop	ebp
	ret	0
$LN5@operator:
	DD	1
	DD	$LN4@operator
$LN4@operator:
	DD	-20					; ffffffecH
	DD	16					; 00000010H
	DD	$LN3@operator
$LN3@operator:
	DB	114					; 00000072H
	DB	101					; 00000065H
	DB	115					; 00000073H
	DB	117					; 00000075H
	DB	108					; 0000006cH
	DB	116					; 00000074H
	DB	0
??G@YA?AUVector2D@@ABU0@0@Z ENDP			; operator-
_TEXT	ENDS
; Function compile flags: /Odtp /RTCsu
; File d:\cours\uqac\intelligence artificielle - jeux vidéos\buckland_aisource\mini_projet_raven\common\2d\vector2d.h
;	COMDAT ??D@YA?AUVector2D@@ABU0@N@Z
_TEXT	SEGMENT
_result$ = -20						; size = 16
___$ReturnUdt$ = 8					; size = 4
_lhs$ = 12						; size = 4
_rhs$ = 16						; size = 8
??D@YA?AUVector2D@@ABU0@N@Z PROC			; operator*, COMDAT

; 334  : {

	push	ebp
	mov	ebp, esp
	sub	esp, 24					; 00000018H
	mov	eax, -858993460				; ccccccccH
	mov	DWORD PTR [ebp-24], eax
	mov	DWORD PTR [ebp-20], eax
	mov	DWORD PTR [ebp-16], eax
	mov	DWORD PTR [ebp-12], eax
	mov	DWORD PTR [ebp-8], eax
	mov	DWORD PTR [ebp-4], eax

; 335  :   Vector2D result(lhs);

	mov	eax, DWORD PTR _lhs$[ebp]
	mov	ecx, DWORD PTR [eax]
	mov	DWORD PTR _result$[ebp], ecx
	mov	edx, DWORD PTR [eax+4]
	mov	DWORD PTR _result$[ebp+4], edx
	mov	ecx, DWORD PTR [eax+8]
	mov	DWORD PTR _result$[ebp+8], ecx
	mov	edx, DWORD PTR [eax+12]
	mov	DWORD PTR _result$[ebp+12], edx

; 336  :   result *= rhs;

	lea	eax, DWORD PTR _rhs$[ebp]
	push	eax
	lea	ecx, DWORD PTR _result$[ebp]
	call	??XVector2D@@QAEABU0@ABN@Z		; Vector2D::operator*=

; 337  :   return result;

	mov	ecx, DWORD PTR ___$ReturnUdt$[ebp]
	mov	edx, DWORD PTR _result$[ebp]
	mov	DWORD PTR [ecx], edx
	mov	eax, DWORD PTR _result$[ebp+4]
	mov	DWORD PTR [ecx+4], eax
	mov	edx, DWORD PTR _result$[ebp+8]
	mov	DWORD PTR [ecx+8], edx
	mov	eax, DWORD PTR _result$[ebp+12]
	mov	DWORD PTR [ecx+12], eax
	mov	eax, DWORD PTR ___$ReturnUdt$[ebp]

; 338  : }

	push	edx
	mov	ecx, ebp
	push	eax
	lea	edx, DWORD PTR $LN5@operator
	call	@_RTC_CheckStackVars@8
	pop	eax
	pop	edx
	add	esp, 24					; 00000018H
	cmp	ebp, esp
	call	__RTC_CheckEsp
	mov	esp, ebp
	pop	ebp
	ret	0
	npad	1
$LN5@operator:
	DD	1
	DD	$LN4@operator
$LN4@operator:
	DD	-20					; ffffffecH
	DD	16					; 00000010H
	DD	$LN3@operator
$LN3@operator:
	DB	114					; 00000072H
	DB	101					; 00000065H
	DB	115					; 00000073H
	DB	117					; 00000075H
	DB	108					; 0000006cH
	DB	116					; 00000074H
	DB	0
??D@YA?AUVector2D@@ABU0@N@Z ENDP			; operator*
_TEXT	ENDS
; Function compile flags: /Odtp /RTCsu
; File d:\cours\uqac\intelligence artificielle - jeux vidéos\buckland_aisource\mini_projet_raven\common\2d\vector2d.h
;	COMDAT ??XVector2D@@QAEABU0@ABN@Z
_TEXT	SEGMENT
_this$ = -4						; size = 4
_rhs$ = 8						; size = 4
??XVector2D@@QAEABU0@ABN@Z PROC				; Vector2D::operator*=, COMDAT
; _this$ = ecx

; 84   :   {

	push	ebp
	mov	ebp, esp
	push	ecx
	mov	DWORD PTR [ebp-4], -858993460		; ccccccccH
	mov	DWORD PTR _this$[ebp], ecx

; 85   :     x *= rhs;

	mov	eax, DWORD PTR _this$[ebp]
	mov	ecx, DWORD PTR _rhs$[ebp]
	movsd	xmm0, QWORD PTR [eax]
	mulsd	xmm0, QWORD PTR [ecx]
	mov	edx, DWORD PTR _this$[ebp]
	movsd	QWORD PTR [edx], xmm0

; 86   :     y *= rhs;

	mov	eax, DWORD PTR _this$[ebp]
	mov	ecx, DWORD PTR _rhs$[ebp]
	movsd	xmm0, QWORD PTR [eax+8]
	mulsd	xmm0, QWORD PTR [ecx]
	mov	edx, DWORD PTR _this$[ebp]
	movsd	QWORD PTR [edx+8], xmm0

; 87   : 
; 88   :     return *this;

	mov	eax, DWORD PTR _this$[ebp]

; 89   :   }

	mov	esp, ebp
	pop	ebp
	ret	4
??XVector2D@@QAEABU0@ABN@Z ENDP				; Vector2D::operator*=
_TEXT	ENDS
; Function compile flags: /Odtp /RTCsu
; File d:\cours\uqac\intelligence artificielle - jeux vidéos\buckland_aisource\mini_projet_raven\common\misc\utils.h
;	COMDAT ??__EMinFloat@@YAXXZ
text$di	SEGMENT
??__EMinFloat@@YAXXZ PROC				; `dynamic initializer for 'MinFloat'', COMDAT

; 27   : const float   MinFloat  = (std::numeric_limits<float>::min)();

	push	ebp
	mov	ebp, esp
	call	?min@?$numeric_limits@M@std@@SAMXZ	; std::numeric_limits<float>::min
	fstp	DWORD PTR ?MinFloat@@3MB
	cmp	ebp, esp
	call	__RTC_CheckEsp
	pop	ebp
	ret	0
??__EMinFloat@@YAXXZ ENDP				; `dynamic initializer for 'MinFloat''
text$di	ENDS
; Function compile flags: /Odtp /RTCsu
; File d:\cours\uqac\intelligence artificielle - jeux vidéos\buckland_aisource\mini_projet_raven\common\misc\utils.h
;	COMDAT ??__EMaxFloat@@YAXXZ
text$di	SEGMENT
??__EMaxFloat@@YAXXZ PROC				; `dynamic initializer for 'MaxFloat'', COMDAT

; 26   : const float   MaxFloat  = (std::numeric_limits<float>::max)();

	push	ebp
	mov	ebp, esp
	call	?max@?$numeric_limits@M@std@@SAMXZ	; std::numeric_limits<float>::max
	fstp	DWORD PTR ?MaxFloat@@3MB
	cmp	ebp, esp
	call	__RTC_CheckEsp
	pop	ebp
	ret	0
??__EMaxFloat@@YAXXZ ENDP				; `dynamic initializer for 'MaxFloat''
text$di	ENDS
; Function compile flags: /Odtp /RTCsu
; File d:\cours\uqac\intelligence artificielle - jeux vidéos\buckland_aisource\mini_projet_raven\common\misc\utils.h
;	COMDAT ??__EMinDouble@@YAXXZ
text$di	SEGMENT
??__EMinDouble@@YAXXZ PROC				; `dynamic initializer for 'MinDouble'', COMDAT

; 25   : const double  MinDouble = (std::numeric_limits<double>::min)();

	push	ebp
	mov	ebp, esp
	call	?min@?$numeric_limits@N@std@@SANXZ	; std::numeric_limits<double>::min
	fstp	QWORD PTR ?MinDouble@@3NB
	cmp	ebp, esp
	call	__RTC_CheckEsp
	pop	ebp
	ret	0
??__EMinDouble@@YAXXZ ENDP				; `dynamic initializer for 'MinDouble''
text$di	ENDS
; Function compile flags: /Odtp /RTCsu
; File d:\cours\uqac\intelligence artificielle - jeux vidéos\buckland_aisource\mini_projet_raven\common\misc\utils.h
;	COMDAT ??__EMaxDouble@@YAXXZ
text$di	SEGMENT
??__EMaxDouble@@YAXXZ PROC				; `dynamic initializer for 'MaxDouble'', COMDAT

; 24   : const double  MaxDouble = (std::numeric_limits<double>::max)();

	push	ebp
	mov	ebp, esp
	call	?max@?$numeric_limits@N@std@@SANXZ	; std::numeric_limits<double>::max
	fstp	QWORD PTR ?MaxDouble@@3NB
	cmp	ebp, esp
	call	__RTC_CheckEsp
	pop	ebp
	ret	0
??__EMaxDouble@@YAXXZ ENDP				; `dynamic initializer for 'MaxDouble''
text$di	ENDS
; Function compile flags: /Odtp /RTCsu
; File d:\cours\uqac\intelligence artificielle - jeux vidéos\buckland_aisource\mini_projet_raven\common\misc\utils.h
;	COMDAT ??__EMaxInt@@YAXXZ
text$di	SEGMENT
??__EMaxInt@@YAXXZ PROC					; `dynamic initializer for 'MaxInt'', COMDAT

; 23   : const int     MaxInt    = (std::numeric_limits<int>::max)();

	push	ebp
	mov	ebp, esp
	call	?max@?$numeric_limits@H@std@@SAHXZ	; std::numeric_limits<int>::max
	mov	DWORD PTR ?MaxInt@@3HB, eax
	cmp	ebp, esp
	call	__RTC_CheckEsp
	pop	ebp
	ret	0
??__EMaxInt@@YAXXZ ENDP					; `dynamic initializer for 'MaxInt''
text$di	ENDS
; Function compile flags: /Odtp /RTCsu
; File d:\microsoft visual studio 14.0\vc\include\xlocale
;	COMDAT ??0id@locale@std@@QAE@I@Z
_TEXT	SEGMENT
_this$ = -4						; size = 4
__Val$ = 8						; size = 4
??0id@locale@std@@QAE@I@Z PROC				; std::locale::id::id, COMDAT
; _this$ = ecx

; 110  : 			{	// construct with specified stamp value

	push	ebp
	mov	ebp, esp
	push	ecx
	mov	DWORD PTR [ebp-4], -858993460		; ccccccccH
	mov	DWORD PTR _this$[ebp], ecx

; 109  : 			: _Id(_Val)

	mov	eax, DWORD PTR _this$[ebp]
	mov	ecx, DWORD PTR __Val$[ebp]
	mov	DWORD PTR [eax], ecx

; 111  : 			}

	mov	eax, DWORD PTR _this$[ebp]
	mov	esp, ebp
	pop	ebp
	ret	4
??0id@locale@std@@QAE@I@Z ENDP				; std::locale::id::id
_TEXT	ENDS
; Function compile flags: /Odtp /RTCsu
; File d:\microsoft visual studio 14.0\vc\include\xutility
;	COMDAT ?_Orphan_me@_Iterator_base12@std@@QAEXXZ
_TEXT	SEGMENT
__Pnext$1 = -8						; size = 4
_this$ = -4						; size = 4
?_Orphan_me@_Iterator_base12@std@@QAEXXZ PROC		; std::_Iterator_base12::_Orphan_me, COMDAT
; _this$ = ecx

; 192  : 		{	// cut ties with parent

	push	ebp
	mov	ebp, esp
	sub	esp, 8
	mov	DWORD PTR [ebp-8], -858993460		; ccccccccH
	mov	DWORD PTR [ebp-4], -858993460		; ccccccccH
	mov	DWORD PTR _this$[ebp], ecx

; 193  :  #if _ITERATOR_DEBUG_LEVEL == 2
; 194  : 		if (_Myproxy != 0)

	mov	eax, DWORD PTR _this$[ebp]
	cmp	DWORD PTR [eax], 0
	je	SHORT $LN1@Orphan_me

; 195  : 			{	// adopted, remove self from list
; 196  : 			_Iterator_base12 **_Pnext = &_Myproxy->_Myfirstiter;

	mov	ecx, DWORD PTR _this$[ebp]
	mov	edx, DWORD PTR [ecx]
	add	edx, 4
	mov	DWORD PTR __Pnext$1[ebp], edx
$LN2@Orphan_me:

; 197  : 			while (*_Pnext != 0 && *_Pnext != this)

	mov	eax, DWORD PTR __Pnext$1[ebp]
	cmp	DWORD PTR [eax], 0
	je	SHORT $LN3@Orphan_me
	mov	ecx, DWORD PTR __Pnext$1[ebp]
	mov	edx, DWORD PTR [ecx]
	cmp	edx, DWORD PTR _this$[ebp]
	je	SHORT $LN3@Orphan_me

; 198  : 				_Pnext = &(*_Pnext)->_Mynextiter;

	mov	eax, DWORD PTR __Pnext$1[ebp]
	mov	ecx, DWORD PTR [eax]
	add	ecx, 4
	mov	DWORD PTR __Pnext$1[ebp], ecx
	jmp	SHORT $LN2@Orphan_me
$LN3@Orphan_me:

; 199  : 
; 200  : 			if (*_Pnext == 0)

	mov	edx, DWORD PTR __Pnext$1[ebp]
	cmp	DWORD PTR [edx], 0
	jne	SHORT $LN5@Orphan_me

; 201  : 				_DEBUG_ERROR("ITERATOR LIST CORRUPTED!");

	push	201					; 000000c9H
	push	OFFSET ??_C@_1GI@DDIAPGKN@?$AAD?$AA?3?$AA?2?$AAM?$AAi?$AAc?$AAr?$AAo?$AAs?$AAo?$AAf?$AAt?$AA?5?$AAV?$AAi?$AAs?$AAu?$AAa?$AAl?$AA?5?$AAS?$AAt?$AAu?$AAd?$AAi?$AAo?$AA?5?$AA1?$AA4?$AA?4?$AA0?$AA?2@
	push	OFFSET ??_C@_1DC@POOIKBAO@?$AAI?$AAT?$AAE?$AAR?$AAA?$AAT?$AAO?$AAR?$AA?5?$AAL?$AAI?$AAS?$AAT?$AA?5?$AAC?$AAO?$AAR?$AAR?$AAU?$AAP?$AAT?$AAE?$AAD?$AA?$CB?$AA?$AA@
	call	?_Debug_message@std@@YAXPB_W0I@Z	; std::_Debug_message
	add	esp, 12					; 0000000cH
$LN5@Orphan_me:

; 202  : 			*_Pnext = _Mynextiter;

	mov	eax, DWORD PTR __Pnext$1[ebp]
	mov	ecx, DWORD PTR _this$[ebp]
	mov	edx, DWORD PTR [ecx+4]
	mov	DWORD PTR [eax], edx

; 203  : 			_Myproxy = 0;

	mov	eax, DWORD PTR _this$[ebp]
	mov	DWORD PTR [eax], 0
$LN1@Orphan_me:

; 204  : 			}
; 205  :  #endif /* _ITERATOR_DEBUG_LEVEL == 2 */
; 206  : 		}

	add	esp, 8
	cmp	ebp, esp
	call	__RTC_CheckEsp
	mov	esp, ebp
	pop	ebp
	ret	0
?_Orphan_me@_Iterator_base12@std@@QAEXXZ ENDP		; std::_Iterator_base12::_Orphan_me
_TEXT	ENDS
; Function compile flags: /Odtp /RTCsu
; File d:\microsoft visual studio 14.0\vc\include\xutility
;	COMDAT ?_Getpnext@_Iterator_base12@std@@QAEPAPAU12@XZ
_TEXT	SEGMENT
_this$ = -4						; size = 4
?_Getpnext@_Iterator_base12@std@@QAEPAPAU12@XZ PROC	; std::_Iterator_base12::_Getpnext, COMDAT
; _this$ = ecx

; 187  : 		{	// get address of remaining iterator chain

	push	ebp
	mov	ebp, esp
	push	ecx
	mov	DWORD PTR [ebp-4], -858993460		; ccccccccH
	mov	DWORD PTR _this$[ebp], ecx

; 188  : 		return (&_Mynextiter);

	mov	eax, DWORD PTR _this$[ebp]
	add	eax, 4

; 189  : 		}

	mov	esp, ebp
	pop	ebp
	ret	0
?_Getpnext@_Iterator_base12@std@@QAEPAPAU12@XZ ENDP	; std::_Iterator_base12::_Getpnext
_TEXT	ENDS
; Function compile flags: /Odtp /RTCsu
; File d:\microsoft visual studio 14.0\vc\include\xutility
;	COMDAT ?_Getcont@_Iterator_base12@std@@QBEPBU_Container_base12@2@XZ
_TEXT	SEGMENT
tv68 = -8						; size = 4
_this$ = -4						; size = 4
?_Getcont@_Iterator_base12@std@@QBEPBU_Container_base12@2@XZ PROC ; std::_Iterator_base12::_Getcont, COMDAT
; _this$ = ecx

; 182  : 		{	// get owning container

	push	ebp
	mov	ebp, esp
	sub	esp, 8
	mov	DWORD PTR [ebp-8], -858993460		; ccccccccH
	mov	DWORD PTR [ebp-4], -858993460		; ccccccccH
	mov	DWORD PTR _this$[ebp], ecx

; 183  : 		return (_Myproxy == 0 ? 0 : _Myproxy->_Mycont);

	mov	eax, DWORD PTR _this$[ebp]
	cmp	DWORD PTR [eax], 0
	jne	SHORT $LN3@Getcont
	mov	DWORD PTR tv68[ebp], 0
	jmp	SHORT $LN4@Getcont
$LN3@Getcont:
	mov	ecx, DWORD PTR _this$[ebp]
	mov	edx, DWORD PTR [ecx]
	mov	eax, DWORD PTR [edx]
	mov	DWORD PTR tv68[ebp], eax
$LN4@Getcont:
	mov	eax, DWORD PTR tv68[ebp]

; 184  : 		}

	mov	esp, ebp
	pop	ebp
	ret	0
?_Getcont@_Iterator_base12@std@@QBEPBU_Container_base12@2@XZ ENDP ; std::_Iterator_base12::_Getcont
_TEXT	ENDS
; Function compile flags: /Odtp /RTCsu
; File d:\microsoft visual studio 14.0\vc\include\xutility
;	COMDAT ?_Clrcont@_Iterator_base12@std@@QAEXXZ
_TEXT	SEGMENT
_this$ = -4						; size = 4
?_Clrcont@_Iterator_base12@std@@QAEXXZ PROC		; std::_Iterator_base12::_Clrcont, COMDAT
; _this$ = ecx

; 177  : 		{	// disown owning container

	push	ebp
	mov	ebp, esp
	push	ecx
	mov	DWORD PTR [ebp-4], -858993460		; ccccccccH
	mov	DWORD PTR _this$[ebp], ecx

; 178  : 		_Myproxy = 0;

	mov	eax, DWORD PTR _this$[ebp]
	mov	DWORD PTR [eax], 0

; 179  : 		}

	mov	esp, ebp
	pop	ebp
	ret	0
?_Clrcont@_Iterator_base12@std@@QAEXXZ ENDP		; std::_Iterator_base12::_Clrcont
_TEXT	ENDS
; Function compile flags: /Odtp /RTCsu
; File d:\microsoft visual studio 14.0\vc\include\xutility
;	COMDAT ?_Adopt@_Iterator_base12@std@@QAEXPBU_Container_base12@2@@Z
_TEXT	SEGMENT
__Lock$2 = -40						; size = 4
__Parent_proxy$3 = -32					; size = 4
__Lock$4 = -24						; size = 4
_this$ = -16						; size = 4
__$EHRec$ = -12						; size = 12
__Parent$ = 8						; size = 4
?_Adopt@_Iterator_base12@std@@QAEXPBU_Container_base12@2@@Z PROC ; std::_Iterator_base12::_Adopt, COMDAT
; _this$ = ecx

; 148  : 		{	// adopt this iterator by parent

	push	ebp
	mov	ebp, esp
	push	-1
	push	__ehhandler$?_Adopt@_Iterator_base12@std@@QAEXPBU_Container_base12@2@@Z
	mov	eax, DWORD PTR fs:0
	push	eax
	sub	esp, 32					; 00000020H
	mov	eax, -858993460				; ccccccccH
	mov	DWORD PTR [ebp-44], eax
	mov	DWORD PTR [ebp-40], eax
	mov	DWORD PTR [ebp-36], eax
	mov	DWORD PTR [ebp-32], eax
	mov	DWORD PTR [ebp-28], eax
	mov	DWORD PTR [ebp-24], eax
	mov	DWORD PTR [ebp-20], eax
	mov	DWORD PTR [ebp-16], eax
	mov	eax, DWORD PTR ___security_cookie
	xor	eax, ebp
	push	eax
	lea	eax, DWORD PTR __$EHRec$[ebp]
	mov	DWORD PTR fs:0, eax
	mov	DWORD PTR _this$[ebp], ecx

; 149  : 		if (_Parent == 0)

	cmp	DWORD PTR __Parent$[ebp], 0
	jne	SHORT $LN2@Adopt

; 150  : 			{	// no future parent, just disown current parent
; 151  :  #if _ITERATOR_DEBUG_LEVEL == 2
; 152  : 			_Lockit _Lock(_LOCK_DEBUG);

	push	3
	lea	ecx, DWORD PTR __Lock$4[ebp]
	call	??0_Lockit@std@@QAE@H@Z			; std::_Lockit::_Lockit
	mov	DWORD PTR __$EHRec$[ebp+8], 0

; 153  : 			_Orphan_me();

	mov	ecx, DWORD PTR _this$[ebp]
	call	?_Orphan_me@_Iterator_base12@std@@QAEXXZ ; std::_Iterator_base12::_Orphan_me

; 154  :  #endif /* _ITERATOR_DEBUG_LEVEL == 2 */
; 155  : 			}

	mov	DWORD PTR __$EHRec$[ebp+8], -1
	lea	ecx, DWORD PTR __Lock$4[ebp]
	call	??1_Lockit@std@@QAE@XZ			; std::_Lockit::~_Lockit

; 156  : 		else

	jmp	SHORT $LN1@Adopt
$LN2@Adopt:

; 157  : 			{	// have a parent, do adoption
; 158  : 			_Container_proxy *_Parent_proxy = _Parent->_Myproxy;

	mov	eax, DWORD PTR __Parent$[ebp]
	mov	ecx, DWORD PTR [eax]
	mov	DWORD PTR __Parent_proxy$3[ebp], ecx

; 159  : 
; 160  :  #if _ITERATOR_DEBUG_LEVEL == 2
; 161  : 			if (_Myproxy != _Parent_proxy)

	mov	edx, DWORD PTR _this$[ebp]
	mov	eax, DWORD PTR [edx]
	cmp	eax, DWORD PTR __Parent_proxy$3[ebp]
	je	SHORT $LN1@Adopt

; 162  : 				{	// change parentage
; 163  : 				_Lockit _Lock(_LOCK_DEBUG);

	push	3
	lea	ecx, DWORD PTR __Lock$2[ebp]
	call	??0_Lockit@std@@QAE@H@Z			; std::_Lockit::_Lockit
	mov	DWORD PTR __$EHRec$[ebp+8], 1

; 164  : 				_Orphan_me();

	mov	ecx, DWORD PTR _this$[ebp]
	call	?_Orphan_me@_Iterator_base12@std@@QAEXXZ ; std::_Iterator_base12::_Orphan_me

; 165  : 				_Mynextiter = _Parent_proxy->_Myfirstiter;

	mov	ecx, DWORD PTR _this$[ebp]
	mov	edx, DWORD PTR __Parent_proxy$3[ebp]
	mov	eax, DWORD PTR [edx+4]
	mov	DWORD PTR [ecx+4], eax

; 166  : 				_Parent_proxy->_Myfirstiter = this;

	mov	ecx, DWORD PTR __Parent_proxy$3[ebp]
	mov	edx, DWORD PTR _this$[ebp]
	mov	DWORD PTR [ecx+4], edx

; 167  : 				_Myproxy = _Parent_proxy;

	mov	eax, DWORD PTR _this$[ebp]
	mov	ecx, DWORD PTR __Parent_proxy$3[ebp]
	mov	DWORD PTR [eax], ecx

; 168  : 				}

	mov	DWORD PTR __$EHRec$[ebp+8], -1
	lea	ecx, DWORD PTR __Lock$2[ebp]
	call	??1_Lockit@std@@QAE@XZ			; std::_Lockit::~_Lockit
$LN1@Adopt:

; 169  : 
; 170  :  #else /* _ITERATOR_DEBUG_LEVEL == 2 */
; 171  : 			_Myproxy = _Parent_proxy;
; 172  :  #endif /* _ITERATOR_DEBUG_LEVEL == 2 */
; 173  : 			}
; 174  : 		}

	push	edx
	mov	ecx, ebp
	push	eax
	lea	edx, DWORD PTR $LN12@Adopt
	call	@_RTC_CheckStackVars@8
	pop	eax
	pop	edx
	mov	ecx, DWORD PTR __$EHRec$[ebp]
	mov	DWORD PTR fs:0, ecx
	pop	ecx
	add	esp, 44					; 0000002cH
	cmp	ebp, esp
	call	__RTC_CheckEsp
	mov	esp, ebp
	pop	ebp
	ret	4
$LN12@Adopt:
	DD	2
	DD	$LN11@Adopt
$LN11@Adopt:
	DD	-24					; ffffffe8H
	DD	4
	DD	$LN8@Adopt
	DD	-40					; ffffffd8H
	DD	4
	DD	$LN9@Adopt
$LN9@Adopt:
	DB	95					; 0000005fH
	DB	76					; 0000004cH
	DB	111					; 0000006fH
	DB	99					; 00000063H
	DB	107					; 0000006bH
	DB	0
$LN8@Adopt:
	DB	95					; 0000005fH
	DB	76					; 0000004cH
	DB	111					; 0000006fH
	DB	99					; 00000063H
	DB	107					; 0000006bH
	DB	0
_TEXT	ENDS
;	COMDAT text$x
text$x	SEGMENT
__unwindfunclet$?_Adopt@_Iterator_base12@std@@QAEXPBU_Container_base12@2@@Z$0:
	lea	ecx, DWORD PTR __Lock$4[ebp]
	jmp	??1_Lockit@std@@QAE@XZ			; std::_Lockit::~_Lockit
__unwindfunclet$?_Adopt@_Iterator_base12@std@@QAEXPBU_Container_base12@2@@Z$1:
	lea	ecx, DWORD PTR __Lock$2[ebp]
	jmp	??1_Lockit@std@@QAE@XZ			; std::_Lockit::~_Lockit
__ehhandler$?_Adopt@_Iterator_base12@std@@QAEXPBU_Container_base12@2@@Z:
	mov	edx, DWORD PTR [esp+8]
	lea	eax, DWORD PTR [edx+12]
	mov	ecx, DWORD PTR [edx-36]
	xor	ecx, eax
	call	@__security_check_cookie@4
	mov	eax, OFFSET __ehfuncinfo$?_Adopt@_Iterator_base12@std@@QAEXPBU_Container_base12@2@@Z
	jmp	___CxxFrameHandler3
text$x	ENDS
?_Adopt@_Iterator_base12@std@@QAEXPBU_Container_base12@2@@Z ENDP ; std::_Iterator_base12::_Adopt
; Function compile flags: /Odtp /RTCsu
; File d:\microsoft visual studio 14.0\vc\include\xutility
;	COMDAT ??1_Iterator_base12@std@@QAE@XZ
_TEXT	SEGMENT
__Lock$ = -24						; size = 4
_this$ = -16						; size = 4
__$EHRec$ = -12						; size = 12
??1_Iterator_base12@std@@QAE@XZ PROC			; std::_Iterator_base12::~_Iterator_base12, COMDAT
; _this$ = ecx

; 140  : 		{	// destroy the iterator

	push	ebp
	mov	ebp, esp
	push	-1
	push	__ehhandler$??1_Iterator_base12@std@@QAE@XZ
	mov	eax, DWORD PTR fs:0
	push	eax
	sub	esp, 16					; 00000010H
	mov	eax, -858993460				; ccccccccH
	mov	DWORD PTR [ebp-28], eax
	mov	DWORD PTR [ebp-24], eax
	mov	DWORD PTR [ebp-20], eax
	mov	DWORD PTR [ebp-16], eax
	mov	eax, DWORD PTR ___security_cookie
	xor	eax, ebp
	push	eax
	lea	eax, DWORD PTR __$EHRec$[ebp]
	mov	DWORD PTR fs:0, eax
	mov	DWORD PTR _this$[ebp], ecx

; 141  :  #if _ITERATOR_DEBUG_LEVEL == 2
; 142  : 		_Lockit _Lock(_LOCK_DEBUG);

	push	3
	lea	ecx, DWORD PTR __Lock$[ebp]
	call	??0_Lockit@std@@QAE@H@Z			; std::_Lockit::_Lockit

; 143  : 		_Orphan_me();

	mov	ecx, DWORD PTR _this$[ebp]
	call	?_Orphan_me@_Iterator_base12@std@@QAEXXZ ; std::_Iterator_base12::_Orphan_me

; 144  :  #endif /* _ITERATOR_DEBUG_LEVEL == 2 */
; 145  : 		}

	lea	ecx, DWORD PTR __Lock$[ebp]
	call	??1_Lockit@std@@QAE@XZ			; std::_Lockit::~_Lockit
	push	edx
	mov	ecx, ebp
	push	eax
	lea	edx, DWORD PTR $LN6@Iterator_b
	call	@_RTC_CheckStackVars@8
	pop	eax
	pop	edx
	mov	ecx, DWORD PTR __$EHRec$[ebp]
	mov	DWORD PTR fs:0, ecx
	pop	ecx
	add	esp, 28					; 0000001cH
	cmp	ebp, esp
	call	__RTC_CheckEsp
	mov	esp, ebp
	pop	ebp
	ret	0
	npad	3
$LN6@Iterator_b:
	DD	1
	DD	$LN5@Iterator_b
$LN5@Iterator_b:
	DD	-24					; ffffffe8H
	DD	4
	DD	$LN3@Iterator_b
$LN3@Iterator_b:
	DB	95					; 0000005fH
	DB	76					; 0000004cH
	DB	111					; 0000006fH
	DB	99					; 00000063H
	DB	107					; 0000006bH
	DB	0
_TEXT	ENDS
;	COMDAT text$x
text$x	SEGMENT
__ehhandler$??1_Iterator_base12@std@@QAE@XZ:
	mov	edx, DWORD PTR [esp+8]
	lea	eax, DWORD PTR [edx+12]
	mov	ecx, DWORD PTR [edx-20]
	xor	ecx, eax
	call	@__security_check_cookie@4
	mov	eax, OFFSET __ehfuncinfo$??1_Iterator_base12@std@@QAE@XZ
	jmp	___CxxFrameHandler3
text$x	ENDS
??1_Iterator_base12@std@@QAE@XZ ENDP			; std::_Iterator_base12::~_Iterator_base12
; Function compile flags: /Odtp /RTCsu
; File d:\microsoft visual studio 14.0\vc\include\xutility
;	COMDAT ??4_Iterator_base12@std@@QAEAAU01@ABU01@@Z
_TEXT	SEGMENT
__Lock$2 = -24						; size = 4
_this$ = -16						; size = 4
__$EHRec$ = -12						; size = 12
__Right$ = 8						; size = 4
??4_Iterator_base12@std@@QAEAAU01@ABU01@@Z PROC		; std::_Iterator_base12::operator=, COMDAT
; _this$ = ecx

; 124  : 		{	// assign an iterator

	push	ebp
	mov	ebp, esp
	push	-1
	push	__ehhandler$??4_Iterator_base12@std@@QAEAAU01@ABU01@@Z
	mov	eax, DWORD PTR fs:0
	push	eax
	sub	esp, 16					; 00000010H
	mov	eax, -858993460				; ccccccccH
	mov	DWORD PTR [ebp-28], eax
	mov	DWORD PTR [ebp-24], eax
	mov	DWORD PTR [ebp-20], eax
	mov	DWORD PTR [ebp-16], eax
	mov	eax, DWORD PTR ___security_cookie
	xor	eax, ebp
	push	eax
	lea	eax, DWORD PTR __$EHRec$[ebp]
	mov	DWORD PTR fs:0, eax
	mov	DWORD PTR _this$[ebp], ecx

; 125  : 		if (_Myproxy == _Right._Myproxy)

	mov	eax, DWORD PTR _this$[ebp]
	mov	ecx, DWORD PTR __Right$[ebp]
	mov	edx, DWORD PTR [eax]
	cmp	edx, DWORD PTR [ecx]
	jne	SHORT $LN2@operator
	jmp	SHORT $LN3@operator
$LN2@operator:

; 126  : 			;
; 127  : 		else if (_Right._Myproxy != 0)

	mov	eax, DWORD PTR __Right$[ebp]
	cmp	DWORD PTR [eax], 0
	je	SHORT $LN4@operator

; 128  : 			_Adopt(_Right._Myproxy->_Mycont);

	mov	ecx, DWORD PTR __Right$[ebp]
	mov	edx, DWORD PTR [ecx]
	mov	eax, DWORD PTR [edx]
	push	eax
	mov	ecx, DWORD PTR _this$[ebp]
	call	?_Adopt@_Iterator_base12@std@@QAEXPBU_Container_base12@2@@Z ; std::_Iterator_base12::_Adopt

; 129  : 		else

	jmp	SHORT $LN3@operator
$LN4@operator:

; 130  : 			{	// becoming invalid, disown current parent
; 131  :  #if _ITERATOR_DEBUG_LEVEL == 2
; 132  : 			_Lockit _Lock(_LOCK_DEBUG);

	push	3
	lea	ecx, DWORD PTR __Lock$2[ebp]
	call	??0_Lockit@std@@QAE@H@Z			; std::_Lockit::_Lockit
	mov	DWORD PTR __$EHRec$[ebp+8], 0

; 133  : 			_Orphan_me();

	mov	ecx, DWORD PTR _this$[ebp]
	call	?_Orphan_me@_Iterator_base12@std@@QAEXXZ ; std::_Iterator_base12::_Orphan_me

; 134  :  #endif /* _ITERATOR_DEBUG_LEVEL == 2 */
; 135  : 			}

	mov	DWORD PTR __$EHRec$[ebp+8], -1
	lea	ecx, DWORD PTR __Lock$2[ebp]
	call	??1_Lockit@std@@QAE@XZ			; std::_Lockit::~_Lockit
$LN3@operator:

; 136  : 		return (*this);

	mov	eax, DWORD PTR _this$[ebp]

; 137  : 		}

	push	edx
	mov	ecx, ebp
	push	eax
	lea	edx, DWORD PTR $LN11@operator
	call	@_RTC_CheckStackVars@8
	pop	eax
	pop	edx
	mov	ecx, DWORD PTR __$EHRec$[ebp]
	mov	DWORD PTR fs:0, ecx
	pop	ecx
	add	esp, 28					; 0000001cH
	cmp	ebp, esp
	call	__RTC_CheckEsp
	mov	esp, ebp
	pop	ebp
	ret	4
$LN11@operator:
	DD	1
	DD	$LN10@operator
$LN10@operator:
	DD	-24					; ffffffe8H
	DD	4
	DD	$LN8@operator
$LN8@operator:
	DB	95					; 0000005fH
	DB	76					; 0000004cH
	DB	111					; 0000006fH
	DB	99					; 00000063H
	DB	107					; 0000006bH
	DB	0
_TEXT	ENDS
;	COMDAT text$x
text$x	SEGMENT
__unwindfunclet$??4_Iterator_base12@std@@QAEAAU01@ABU01@@Z$0:
	lea	ecx, DWORD PTR __Lock$2[ebp]
	jmp	??1_Lockit@std@@QAE@XZ			; std::_Lockit::~_Lockit
__ehhandler$??4_Iterator_base12@std@@QAEAAU01@ABU01@@Z:
	mov	edx, DWORD PTR [esp+8]
	lea	eax, DWORD PTR [edx+12]
	mov	ecx, DWORD PTR [edx-20]
	xor	ecx, eax
	call	@__security_check_cookie@4
	mov	eax, OFFSET __ehfuncinfo$??4_Iterator_base12@std@@QAEAAU01@ABU01@@Z
	jmp	___CxxFrameHandler3
text$x	ENDS
??4_Iterator_base12@std@@QAEAAU01@ABU01@@Z ENDP		; std::_Iterator_base12::operator=
; Function compile flags: /Odtp /RTCsu
; File d:\microsoft visual studio 14.0\vc\include\xutility
;	COMDAT ??0_Iterator_base12@std@@QAE@XZ
_TEXT	SEGMENT
_this$ = -4						; size = 4
??0_Iterator_base12@std@@QAE@XZ PROC			; std::_Iterator_base12::_Iterator_base12, COMDAT
; _this$ = ecx

; 114  : 		{	// construct orphaned iterator

	push	ebp
	mov	ebp, esp
	push	ecx
	mov	DWORD PTR [ebp-4], -858993460		; ccccccccH
	mov	DWORD PTR _this$[ebp], ecx

; 113  : 		: _Myproxy(0), _Mynextiter(0)

	mov	eax, DWORD PTR _this$[ebp]
	mov	DWORD PTR [eax], 0
	mov	ecx, DWORD PTR _this$[ebp]
	mov	DWORD PTR [ecx+4], 0

; 115  : 		}

	mov	eax, DWORD PTR _this$[ebp]
	mov	esp, ebp
	pop	ebp
	ret	0
??0_Iterator_base12@std@@QAE@XZ ENDP			; std::_Iterator_base12::_Iterator_base12
_TEXT	ENDS
; Function compile flags: /Odtp /RTCsu
; File d:\microsoft visual studio 14.0\vc\include\xutility
;	COMDAT ?_Swap_all@_Container_base12@std@@QAEXAAU12@@Z
_TEXT	SEGMENT
__Temp$ = -20						; size = 4
__Lock$ = -12						; size = 4
_this$ = -4						; size = 4
__Right$ = 8						; size = 4
?_Swap_all@_Container_base12@std@@QAEXAAU12@@Z PROC	; std::_Container_base12::_Swap_all, COMDAT
; _this$ = ecx

; 229  : 	{	// swap all iterators

	push	ebp
	mov	ebp, esp
	sub	esp, 20					; 00000014H
	mov	eax, -858993460				; ccccccccH
	mov	DWORD PTR [ebp-20], eax
	mov	DWORD PTR [ebp-16], eax
	mov	DWORD PTR [ebp-12], eax
	mov	DWORD PTR [ebp-8], eax
	mov	DWORD PTR [ebp-4], eax
	mov	DWORD PTR _this$[ebp], ecx

; 230  :  #if _ITERATOR_DEBUG_LEVEL == 2
; 231  : 	_Lockit _Lock(_LOCK_DEBUG);

	push	3
	lea	ecx, DWORD PTR __Lock$[ebp]
	call	??0_Lockit@std@@QAE@H@Z			; std::_Lockit::_Lockit

; 232  :  #endif /* _ITERATOR_DEBUG_LEVEL == 2 */
; 233  : 
; 234  : 	_Container_proxy *_Temp = _Myproxy;

	mov	eax, DWORD PTR _this$[ebp]
	mov	ecx, DWORD PTR [eax]
	mov	DWORD PTR __Temp$[ebp], ecx

; 235  : 	_Myproxy = _Right._Myproxy;

	mov	edx, DWORD PTR _this$[ebp]
	mov	eax, DWORD PTR __Right$[ebp]
	mov	ecx, DWORD PTR [eax]
	mov	DWORD PTR [edx], ecx

; 236  : 	_Right._Myproxy = _Temp;

	mov	edx, DWORD PTR __Right$[ebp]
	mov	eax, DWORD PTR __Temp$[ebp]
	mov	DWORD PTR [edx], eax

; 237  : 
; 238  : 	if (_Myproxy != 0)

	mov	ecx, DWORD PTR _this$[ebp]
	cmp	DWORD PTR [ecx], 0
	je	SHORT $LN2@Swap_all

; 239  : 		_Myproxy->_Mycont = (_Container_base12 *)this;

	mov	edx, DWORD PTR _this$[ebp]
	mov	eax, DWORD PTR [edx]
	mov	ecx, DWORD PTR _this$[ebp]
	mov	DWORD PTR [eax], ecx
$LN2@Swap_all:

; 240  : 	if (_Right._Myproxy != 0)

	mov	edx, DWORD PTR __Right$[ebp]
	cmp	DWORD PTR [edx], 0
	je	SHORT $LN3@Swap_all

; 241  : 		_Right._Myproxy->_Mycont = (_Container_base12 *)&_Right;

	mov	eax, DWORD PTR __Right$[ebp]
	mov	ecx, DWORD PTR [eax]
	mov	edx, DWORD PTR __Right$[ebp]
	mov	DWORD PTR [ecx], edx
$LN3@Swap_all:

; 242  : 	}

	lea	ecx, DWORD PTR __Lock$[ebp]
	call	??1_Lockit@std@@QAE@XZ			; std::_Lockit::~_Lockit
	push	edx
	mov	ecx, ebp
	push	eax
	lea	edx, DWORD PTR $LN8@Swap_all
	call	@_RTC_CheckStackVars@8
	pop	eax
	pop	edx
	add	esp, 20					; 00000014H
	cmp	ebp, esp
	call	__RTC_CheckEsp
	mov	esp, ebp
	pop	ebp
	ret	4
	npad	2
$LN8@Swap_all:
	DD	1
	DD	$LN7@Swap_all
$LN7@Swap_all:
	DD	-12					; fffffff4H
	DD	4
	DD	$LN6@Swap_all
$LN6@Swap_all:
	DB	95					; 0000005fH
	DB	76					; 0000004cH
	DB	111					; 0000006fH
	DB	99					; 00000063H
	DB	107					; 0000006bH
	DB	0
?_Swap_all@_Container_base12@std@@QAEXAAU12@@Z ENDP	; std::_Container_base12::_Swap_all
_TEXT	ENDS
; Function compile flags: /Odtp /RTCsu
; File d:\microsoft visual studio 14.0\vc\include\xutility
;	COMDAT ?_Orphan_all@_Container_base12@std@@QAEXXZ
_TEXT	SEGMENT
__Pnext$1 = -20						; size = 4
__Lock$2 = -12						; size = 4
_this$ = -4						; size = 4
?_Orphan_all@_Container_base12@std@@QAEXXZ PROC		; std::_Container_base12::_Orphan_all, COMDAT
; _this$ = ecx

; 214  : 	{	// orphan all iterators

	push	ebp
	mov	ebp, esp
	sub	esp, 20					; 00000014H
	mov	eax, -858993460				; ccccccccH
	mov	DWORD PTR [ebp-20], eax
	mov	DWORD PTR [ebp-16], eax
	mov	DWORD PTR [ebp-12], eax
	mov	DWORD PTR [ebp-8], eax
	mov	DWORD PTR [ebp-4], eax
	mov	DWORD PTR _this$[ebp], ecx

; 215  :  #if _ITERATOR_DEBUG_LEVEL == 2
; 216  : 	if (_Myproxy != 0)

	mov	eax, DWORD PTR _this$[ebp]
	cmp	DWORD PTR [eax], 0
	je	SHORT $LN1@Orphan_all

; 217  : 		{	// proxy allocated, drain it
; 218  : 		_Lockit _Lock(_LOCK_DEBUG);

	push	3
	lea	ecx, DWORD PTR __Lock$2[ebp]
	call	??0_Lockit@std@@QAE@H@Z			; std::_Lockit::_Lockit

; 219  : 
; 220  : 		for (_Iterator_base12 **_Pnext = &_Myproxy->_Myfirstiter;

	mov	ecx, DWORD PTR _this$[ebp]
	mov	edx, DWORD PTR [ecx]
	add	edx, 4
	mov	DWORD PTR __Pnext$1[ebp], edx
	jmp	SHORT $LN4@Orphan_all
$LN2@Orphan_all:

; 221  : 			*_Pnext != 0; *_Pnext = (*_Pnext)->_Mynextiter)

	mov	eax, DWORD PTR __Pnext$1[ebp]
	mov	ecx, DWORD PTR [eax]
	mov	edx, DWORD PTR __Pnext$1[ebp]
	mov	eax, DWORD PTR [ecx+4]
	mov	DWORD PTR [edx], eax
$LN4@Orphan_all:
	mov	ecx, DWORD PTR __Pnext$1[ebp]
	cmp	DWORD PTR [ecx], 0
	je	SHORT $LN3@Orphan_all

; 222  : 			(*_Pnext)->_Myproxy = 0;

	mov	edx, DWORD PTR __Pnext$1[ebp]
	mov	eax, DWORD PTR [edx]
	mov	DWORD PTR [eax], 0
	jmp	SHORT $LN2@Orphan_all
$LN3@Orphan_all:

; 223  : 		_Myproxy->_Myfirstiter = 0;

	mov	ecx, DWORD PTR _this$[ebp]
	mov	edx, DWORD PTR [ecx]
	mov	DWORD PTR [edx+4], 0

; 224  : 		}

	lea	ecx, DWORD PTR __Lock$2[ebp]
	call	??1_Lockit@std@@QAE@XZ			; std::_Lockit::~_Lockit
$LN1@Orphan_all:

; 225  :  #endif /* _ITERATOR_DEBUG_LEVEL == 2 */
; 226  : 	}

	push	edx
	mov	ecx, ebp
	push	eax
	lea	edx, DWORD PTR $LN10@Orphan_all
	call	@_RTC_CheckStackVars@8
	pop	eax
	pop	edx
	add	esp, 20					; 00000014H
	cmp	ebp, esp
	call	__RTC_CheckEsp
	mov	esp, ebp
	pop	ebp
	ret	0
	npad	3
$LN10@Orphan_all:
	DD	1
	DD	$LN9@Orphan_all
$LN9@Orphan_all:
	DD	-12					; fffffff4H
	DD	4
	DD	$LN8@Orphan_all
$LN8@Orphan_all:
	DB	95					; 0000005fH
	DB	76					; 0000004cH
	DB	111					; 0000006fH
	DB	99					; 00000063H
	DB	107					; 0000006bH
	DB	0
?_Orphan_all@_Container_base12@std@@QAEXXZ ENDP		; std::_Container_base12::_Orphan_all
_TEXT	ENDS
; Function compile flags: /Odtp /RTCsu
; File d:\microsoft visual studio 14.0\vc\include\xutility
;	COMDAT ?_Getpfirst@_Container_base12@std@@QBEPAPAU_Iterator_base12@2@XZ
_TEXT	SEGMENT
tv68 = -8						; size = 4
_this$ = -4						; size = 4
?_Getpfirst@_Container_base12@std@@QBEPAPAU_Iterator_base12@2@XZ PROC ; std::_Container_base12::_Getpfirst, COMDAT
; _this$ = ecx

; 99   : 		{	// get address of iterator chain

	push	ebp
	mov	ebp, esp
	sub	esp, 8
	mov	DWORD PTR [ebp-8], -858993460		; ccccccccH
	mov	DWORD PTR [ebp-4], -858993460		; ccccccccH
	mov	DWORD PTR _this$[ebp], ecx

; 100  : 		return (_Myproxy == 0 ? 0 : &_Myproxy->_Myfirstiter);

	mov	eax, DWORD PTR _this$[ebp]
	cmp	DWORD PTR [eax], 0
	jne	SHORT $LN3@Getpfirst
	mov	DWORD PTR tv68[ebp], 0
	jmp	SHORT $LN4@Getpfirst
$LN3@Getpfirst:
	mov	ecx, DWORD PTR _this$[ebp]
	mov	edx, DWORD PTR [ecx]
	add	edx, 4
	mov	DWORD PTR tv68[ebp], edx
$LN4@Getpfirst:
	mov	eax, DWORD PTR tv68[ebp]

; 101  : 		}

	mov	esp, ebp
	pop	ebp
	ret	0
?_Getpfirst@_Container_base12@std@@QBEPAPAU_Iterator_base12@2@XZ ENDP ; std::_Container_base12::_Getpfirst
_TEXT	ENDS
; Function compile flags: /Odtp /RTCsu
; File d:\microsoft visual studio 14.0\vc\include\xutility
;	COMDAT ??1_Container_base12@std@@QAE@XZ
_TEXT	SEGMENT
_this$ = -16						; size = 4
__$EHRec$ = -12						; size = 12
??1_Container_base12@std@@QAE@XZ PROC			; std::_Container_base12::~_Container_base12, COMDAT
; _this$ = ecx

; 94   : 		{	// destroy the container

	push	ebp
	mov	ebp, esp
	push	-1
	push	__ehhandler$??1_Container_base12@std@@QAE@XZ
	mov	eax, DWORD PTR fs:0
	push	eax
	push	ecx
	mov	DWORD PTR [ebp-16], -858993460		; ccccccccH
	mov	eax, DWORD PTR ___security_cookie
	xor	eax, ebp
	push	eax
	lea	eax, DWORD PTR __$EHRec$[ebp]
	mov	DWORD PTR fs:0, eax
	mov	DWORD PTR _this$[ebp], ecx

; 95   : 		_Orphan_all();

	mov	ecx, DWORD PTR _this$[ebp]
	call	?_Orphan_all@_Container_base12@std@@QAEXXZ ; std::_Container_base12::_Orphan_all

; 96   : 		}

	mov	ecx, DWORD PTR __$EHRec$[ebp]
	mov	DWORD PTR fs:0, ecx
	pop	ecx
	add	esp, 16					; 00000010H
	cmp	ebp, esp
	call	__RTC_CheckEsp
	mov	esp, ebp
	pop	ebp
	ret	0
_TEXT	ENDS
;	COMDAT text$x
text$x	SEGMENT
__ehhandler$??1_Container_base12@std@@QAE@XZ:
	mov	edx, DWORD PTR [esp+8]
	lea	eax, DWORD PTR [edx+12]
	mov	ecx, DWORD PTR [edx-8]
	xor	ecx, eax
	call	@__security_check_cookie@4
	mov	eax, OFFSET __ehfuncinfo$??1_Container_base12@std@@QAE@XZ
	jmp	___CxxFrameHandler3
text$x	ENDS
??1_Container_base12@std@@QAE@XZ ENDP			; std::_Container_base12::~_Container_base12
; Function compile flags: /Odtp /RTCsu
; File d:\microsoft visual studio 14.0\vc\include\xutility
;	COMDAT ??0_Container_base12@std@@QAE@XZ
_TEXT	SEGMENT
_this$ = -4						; size = 4
??0_Container_base12@std@@QAE@XZ PROC			; std::_Container_base12::_Container_base12, COMDAT
; _this$ = ecx

; 80   : 		{	// construct childless container

	push	ebp
	mov	ebp, esp
	push	ecx
	mov	DWORD PTR [ebp-4], -858993460		; ccccccccH
	mov	DWORD PTR _this$[ebp], ecx

; 79   : 		: _Myproxy(0)

	mov	eax, DWORD PTR _this$[ebp]
	mov	DWORD PTR [eax], 0

; 81   : 		}

	mov	eax, DWORD PTR _this$[ebp]
	mov	esp, ebp
	pop	ebp
	ret	0
??0_Container_base12@std@@QAE@XZ ENDP			; std::_Container_base12::_Container_base12
_TEXT	ENDS
; Function compile flags: /Odtp /RTCsu
; File d:\microsoft visual studio 14.0\vc\include\xutility
;	COMDAT ??0_Container_proxy@std@@QAE@XZ
_TEXT	SEGMENT
_this$ = -4						; size = 4
??0_Container_proxy@std@@QAE@XZ PROC			; std::_Container_proxy::_Container_proxy, COMDAT
; _this$ = ecx

; 68   : 		{	// construct from pointers

	push	ebp
	mov	ebp, esp
	push	ecx
	mov	DWORD PTR [ebp-4], -858993460		; ccccccccH
	mov	DWORD PTR _this$[ebp], ecx

; 67   : 		: _Mycont(0), _Myfirstiter(0)

	mov	eax, DWORD PTR _this$[ebp]
	mov	DWORD PTR [eax], 0
	mov	ecx, DWORD PTR _this$[ebp]
	mov	DWORD PTR [ecx+4], 0

; 69   : 		}

	mov	eax, DWORD PTR _this$[ebp]
	mov	esp, ebp
	pop	ebp
	ret	0
??0_Container_proxy@std@@QAE@XZ ENDP			; std::_Container_proxy::_Container_proxy
_TEXT	ENDS
; Function compile flags: /Odtp /RTCsu
; File d:\microsoft visual studio 14.0\vc\include\xutility
;	COMDAT ?_Adopt@_Iterator_base0@std@@QAEXPBX@Z
_TEXT	SEGMENT
_this$ = -4						; size = 4
___formal$ = 8						; size = 4
?_Adopt@_Iterator_base0@std@@QAEXPBX@Z PROC		; std::_Iterator_base0::_Adopt, COMDAT
; _this$ = ecx

; 54   : 		{	// adopt this iterator by parent

	push	ebp
	mov	ebp, esp
	push	ecx
	mov	DWORD PTR [ebp-4], -858993460		; ccccccccH
	mov	DWORD PTR _this$[ebp], ecx

; 55   : 		}

	mov	esp, ebp
	pop	ebp
	ret	4
?_Adopt@_Iterator_base0@std@@QAEXPBX@Z ENDP		; std::_Iterator_base0::_Adopt
_TEXT	ENDS
; Function compile flags: /Odtp /RTCsu
; File d:\microsoft visual studio 14.0\vc\include\limits
;	COMDAT ?max@?$numeric_limits@N@std@@SANXZ
_TEXT	SEGMENT
?max@?$numeric_limits@N@std@@SANXZ PROC			; std::numeric_limits<double>::max, COMDAT

; 1156 : 		{	// return maximum value

	push	ebp
	mov	ebp, esp

; 1157 : 		return (_DBL_MAX);

	fld	QWORD PTR __real@7fefffffffffffff

; 1158 : 		}

	pop	ebp
	ret	0
?max@?$numeric_limits@N@std@@SANXZ ENDP			; std::numeric_limits<double>::max
_TEXT	ENDS
; Function compile flags: /Odtp /RTCsu
; File d:\microsoft visual studio 14.0\vc\include\limits
;	COMDAT ?min@?$numeric_limits@N@std@@SANXZ
_TEXT	SEGMENT
?min@?$numeric_limits@N@std@@SANXZ PROC			; std::numeric_limits<double>::min, COMDAT

; 1151 : 		{	// return minimum value

	push	ebp
	mov	ebp, esp

; 1152 : 		return (_DBL_MIN);

	fld	QWORD PTR __real@0010000000000000

; 1153 : 		}

	pop	ebp
	ret	0
?min@?$numeric_limits@N@std@@SANXZ ENDP			; std::numeric_limits<double>::min
_TEXT	ENDS
; Function compile flags: /Odtp /RTCsu
; File d:\microsoft visual studio 14.0\vc\include\limits
;	COMDAT ?max@?$numeric_limits@M@std@@SAMXZ
_TEXT	SEGMENT
?max@?$numeric_limits@M@std@@SAMXZ PROC			; std::numeric_limits<float>::max, COMDAT

; 1093 : 		{	// return maximum value

	push	ebp
	mov	ebp, esp

; 1094 : 		return (_FLT_MAX);

	fld	DWORD PTR __real@7f7fffff

; 1095 : 		}

	pop	ebp
	ret	0
?max@?$numeric_limits@M@std@@SAMXZ ENDP			; std::numeric_limits<float>::max
_TEXT	ENDS
; Function compile flags: /Odtp /RTCsu
; File d:\microsoft visual studio 14.0\vc\include\limits
;	COMDAT ?min@?$numeric_limits@M@std@@SAMXZ
_TEXT	SEGMENT
?min@?$numeric_limits@M@std@@SAMXZ PROC			; std::numeric_limits<float>::min, COMDAT

; 1088 : 		{	// return minimum value

	push	ebp
	mov	ebp, esp

; 1089 : 		return (_FLT_MIN);

	fld	DWORD PTR __real@00800000

; 1090 : 		}

	pop	ebp
	ret	0
?min@?$numeric_limits@M@std@@SAMXZ ENDP			; std::numeric_limits<float>::min
_TEXT	ENDS
; Function compile flags: /Odtp /RTCsu
; File d:\microsoft visual studio 14.0\vc\include\limits
;	COMDAT ?max@?$numeric_limits@H@std@@SAHXZ
_TEXT	SEGMENT
?max@?$numeric_limits@H@std@@SAHXZ PROC			; std::numeric_limits<int>::max, COMDAT

; 685  : 		{	// return maximum value

	push	ebp
	mov	ebp, esp

; 686  : 		return (INT_MAX);

	mov	eax, 2147483647				; 7fffffffH

; 687  : 		}

	pop	ebp
	ret	0
?max@?$numeric_limits@H@std@@SAHXZ ENDP			; std::numeric_limits<int>::max
_TEXT	ENDS
; Function compile flags: /Odtp /RTCsu
; File d:\microsoft visual studio 14.0\vc\include\vcruntime_new.h
;	COMDAT ??2@YAPAXIPAX@Z
_TEXT	SEGMENT
__Size$ = 8						; size = 4
__Where$ = 12						; size = 4
??2@YAPAXIPAX@Z PROC					; operator new, COMDAT

; 87   :     {

	push	ebp
	mov	ebp, esp

; 88   :         (void)_Size;
; 89   :         return _Where;

	mov	eax, DWORD PTR __Where$[ebp]

; 90   :     }

	pop	ebp
	ret	0
??2@YAPAXIPAX@Z ENDP					; operator new
_TEXT	ENDS
; Function compile flags: /Odtp /RTCsu
; File d:\cours\uqac\intelligence artificielle - jeux vidéos\buckland_aisource\mini_projet_raven\armory\raven_projectile.cpp
;	COMDAT ?__empty_global_delete@@YAXPAXI@Z
_TEXT	SEGMENT
___formal$ = 8						; size = 4
___formal$ = 12						; size = 4
?__empty_global_delete@@YAXPAXI@Z PROC			; __empty_global_delete, COMDAT

	push	ebp
	mov	ebp, esp
	pop	ebp
	ret	0
?__empty_global_delete@@YAXPAXI@Z ENDP			; __empty_global_delete
_TEXT	ENDS
; Function compile flags: /Odtp /RTCsu
; File d:\cours\uqac\intelligence artificielle - jeux vidéos\buckland_aisource\mini_projet_raven\armory\raven_projectile.cpp
;	COMDAT ?__empty_global_delete@@YAXPAX@Z
_TEXT	SEGMENT
___formal$ = 8						; size = 4
?__empty_global_delete@@YAXPAX@Z PROC			; __empty_global_delete, COMDAT

	push	ebp
	mov	ebp, esp
	pop	ebp
	ret	0
?__empty_global_delete@@YAXPAX@Z ENDP			; __empty_global_delete
_TEXT	ENDS
END
