; Listing generated by Microsoft (R) Optimizing Compiler Version 19.00.23026.0 

	TITLE	D:\cours\UQAC\Intelligence artificielle - jeux vidéos\Buckland_AISource\Mini_Projet_Raven\Raven_SteeringBehaviors.cpp
	.686P
	.XMM
	include listing.inc
	.model	flat

INCLUDELIB LIBCMTD
INCLUDELIB OLDNAMES

CONST	SEGMENT
$SG171106 DB	'WallDetectionFeelerLength', 00H
	ORG $+2
$SG171107 DB	'SeparationWeight', 00H
	ORG $+3
$SG171108 DB	'WanderWeight', 00H
	ORG $+3
$SG171109 DB	'WallAvoidanceWeight', 00H
$SG171110 DB	'SeekWeight', 00H
	ORG $+1
$SG171111 DB	'ArriveWeight', 00H
	ORG $+3
$SG171112 DB	'ViewDistance', 00H
	ORG $+3
?colors@@3QBKB DD 0ffH					; colors
	DD	0ff0000H
	DD	0ff00H
	DD	00H
	DD	0c8c8ffH
	DD	0c8c8c8H
	DD	0ffffH
	DD	0aaffH
	DD	0aa00ffH
	DD	05a85H
	DD	0ffffffH
	DD	06400H
	DD	0ffff00H
	DD	0c8c8c8H
	DD	0e6e6ffH
CONST	ENDS
PUBLIC	?__empty_global_delete@@YAXPAX@Z		; __empty_global_delete
PUBLIC	?__empty_global_delete@@YAXPAXI@Z		; __empty_global_delete
PUBLIC	?max@?$numeric_limits@H@std@@SAHXZ		; std::numeric_limits<int>::max
PUBLIC	?min@?$numeric_limits@M@std@@SAMXZ		; std::numeric_limits<float>::min
PUBLIC	?max@?$numeric_limits@M@std@@SAMXZ		; std::numeric_limits<float>::max
PUBLIC	?min@?$numeric_limits@N@std@@SANXZ		; std::numeric_limits<double>::min
PUBLIC	?max@?$numeric_limits@N@std@@SANXZ		; std::numeric_limits<double>::max
PUBLIC	?epsilon@?$numeric_limits@N@std@@SANXZ		; std::numeric_limits<double>::epsilon
PUBLIC	??0exception@std@@QAE@QBD@Z			; std::exception::exception
PUBLIC	??0exception@std@@QAE@ABV01@@Z			; std::exception::exception
PUBLIC	??1exception@std@@UAE@XZ			; std::exception::~exception
PUBLIC	?what@exception@std@@UBEPBDXZ			; std::exception::what
PUBLIC	??_Gexception@std@@UAEPAXI@Z			; std::exception::`scalar deleting destructor'
PUBLIC	??2@YAPAXIPAX@Z					; operator new
PUBLIC	??3@YAXPAX0@Z					; operator delete
PUBLIC	?length@?$char_traits@D@std@@SAIPBD@Z		; std::char_traits<char>::length
PUBLIC	?copy@?$char_traits@D@std@@SAPADPADPBDI@Z	; std::char_traits<char>::copy
PUBLIC	?move@?$char_traits@D@std@@SAPADPADPBDI@Z	; std::char_traits<char>::move
PUBLIC	?assign@?$char_traits@D@std@@SAXAADABD@Z	; std::char_traits<char>::assign
PUBLIC	??0_Container_proxy@std@@QAE@XZ			; std::_Container_proxy::_Container_proxy
PUBLIC	??0_Container_base12@std@@QAE@XZ		; std::_Container_base12::_Container_base12
PUBLIC	??1_Container_base12@std@@QAE@XZ		; std::_Container_base12::~_Container_base12
PUBLIC	?_Orphan_all@_Container_base12@std@@QAEXXZ	; std::_Container_base12::_Orphan_all
PUBLIC	??0_Iterator_base12@std@@QAE@XZ			; std::_Iterator_base12::_Iterator_base12
PUBLIC	??4_Iterator_base12@std@@QAEAAU01@ABU01@@Z	; std::_Iterator_base12::operator=
PUBLIC	??1_Iterator_base12@std@@QAE@XZ			; std::_Iterator_base12::~_Iterator_base12
PUBLIC	?_Adopt@_Iterator_base12@std@@QAEXPBU_Container_base12@2@@Z ; std::_Iterator_base12::_Adopt
PUBLIC	?_Getcont@_Iterator_base12@std@@QBEPBU_Container_base12@2@XZ ; std::_Iterator_base12::_Getcont
PUBLIC	?_Orphan_me@_Iterator_base12@std@@QAEXXZ	; std::_Iterator_base12::_Orphan_me
PUBLIC	??0?$allocator@D@std@@QAE@XZ			; std::allocator<char>::allocator<char>
PUBLIC	??0?$allocator@D@std@@QAE@ABV01@@Z		; std::allocator<char>::allocator<char>
PUBLIC	?deallocate@?$allocator@D@std@@QAEXPADI@Z	; std::allocator<char>::deallocate
PUBLIC	?allocate@?$allocator@D@std@@QAEPADI@Z		; std::allocator<char>::allocate
PUBLIC	?max_size@?$allocator@D@std@@QBEIXZ		; std::allocator<char>::max_size
PUBLIC	?max_size@?$allocator_traits@V?$allocator@D@std@@@std@@SAIABV?$allocator@D@2@@Z ; std::allocator_traits<std::allocator<char> >::max_size
PUBLIC	??0?$_Wrap_alloc@V?$allocator@D@std@@@std@@QAE@ABV?$allocator@D@1@@Z ; std::_Wrap_alloc<std::allocator<char> >::_Wrap_alloc<std::allocator<char> >
PUBLIC	?allocate@?$_Wrap_alloc@V?$allocator@D@std@@@std@@QAEPADI@Z ; std::_Wrap_alloc<std::allocator<char> >::allocate
PUBLIC	?deallocate@?$_Wrap_alloc@V?$allocator@D@std@@@std@@QAEXPADI@Z ; std::_Wrap_alloc<std::allocator<char> >::deallocate
PUBLIC	?max_size@?$_Wrap_alloc@V?$allocator@D@std@@@std@@QBEIU_Nil@2@@Z ; std::_Wrap_alloc<std::allocator<char> >::max_size
PUBLIC	??0?$_String_val@U?$_Simple_types@D@std@@@std@@QAE@XZ ; std::_String_val<std::_Simple_types<char> >::_String_val<std::_Simple_types<char> >
PUBLIC	?_Myptr@?$_String_val@U?$_Simple_types@D@std@@@std@@QAEPADXZ ; std::_String_val<std::_Simple_types<char> >::_Myptr
PUBLIC	?_Myptr@?$_String_val@U?$_Simple_types@D@std@@@std@@QBEPBDXZ ; std::_String_val<std::_Simple_types<char> >::_Myptr
PUBLIC	??1?$_String_val@U?$_Simple_types@D@std@@@std@@QAE@XZ ; std::_String_val<std::_Simple_types<char> >::~_String_val<std::_Simple_types<char> >
PUBLIC	?_Myptr@?$_String_alloc@U?$_String_base_types@DV?$allocator@D@std@@@std@@@std@@QAEPADXZ ; std::_String_alloc<std::_String_base_types<char,std::allocator<char> > >::_Myptr
PUBLIC	?_Myptr@?$_String_alloc@U?$_String_base_types@DV?$allocator@D@std@@@std@@@std@@QBEPBDXZ ; std::_String_alloc<std::_String_base_types<char,std::allocator<char> > >::_Myptr
PUBLIC	??0?$_String_alloc@U?$_String_base_types@DV?$allocator@D@std@@@std@@@std@@QAE@ABV?$allocator@D@1@@Z ; std::_String_alloc<std::_String_base_types<char,std::allocator<char> > >::_String_alloc<std::_String_base_types<char,std::allocator<char> > >
PUBLIC	??0?$_String_alloc@U?$_String_base_types@DV?$allocator@D@std@@@std@@@std@@QAE@$$QAV?$allocator@D@1@@Z ; std::_String_alloc<std::_String_base_types<char,std::allocator<char> > >::_String_alloc<std::_String_base_types<char,std::allocator<char> > >
PUBLIC	??1?$_String_alloc@U?$_String_base_types@DV?$allocator@D@std@@@std@@@std@@QAE@XZ ; std::_String_alloc<std::_String_base_types<char,std::allocator<char> > >::~_String_alloc<std::_String_base_types<char,std::allocator<char> > >
PUBLIC	?_Alloc_proxy@?$_String_alloc@U?$_String_base_types@DV?$allocator@D@std@@@std@@@std@@QAEXXZ ; std::_String_alloc<std::_String_base_types<char,std::allocator<char> > >::_Alloc_proxy
PUBLIC	?_Free_proxy@?$_String_alloc@U?$_String_base_types@DV?$allocator@D@std@@@std@@@std@@QAEXXZ ; std::_String_alloc<std::_String_base_types<char,std::allocator<char> > >::_Free_proxy
PUBLIC	?_Myproxy@?$_String_alloc@U?$_String_base_types@DV?$allocator@D@std@@@std@@@std@@QAEAAPAU_Container_proxy@2@XZ ; std::_String_alloc<std::_String_base_types<char,std::allocator<char> > >::_Myproxy
PUBLIC	?_Orphan_all@?$_String_alloc@U?$_String_base_types@DV?$allocator@D@std@@@std@@@std@@QAEXXZ ; std::_String_alloc<std::_String_base_types<char,std::allocator<char> > >::_Orphan_all
PUBLIC	?_Getal@?$_String_alloc@U?$_String_base_types@DV?$allocator@D@std@@@std@@@std@@QAEAAU?$_Wrap_alloc@V?$allocator@D@std@@@2@XZ ; std::_String_alloc<std::_String_base_types<char,std::allocator<char> > >::_Getal
PUBLIC	?_Getal@?$_String_alloc@U?$_String_base_types@DV?$allocator@D@std@@@std@@@std@@QBEABU?$_Wrap_alloc@V?$allocator@D@std@@@2@XZ ; std::_String_alloc<std::_String_base_types<char,std::allocator<char> > >::_Getal
PUBLIC	?_Get_data@?$_String_alloc@U?$_String_base_types@DV?$allocator@D@std@@@std@@@std@@QAEAAV?$_String_val@U?$_Simple_types@D@std@@@2@XZ ; std::_String_alloc<std::_String_base_types<char,std::allocator<char> > >::_Get_data
PUBLIC	?_Get_data@?$_String_alloc@U?$_String_base_types@DV?$allocator@D@std@@@std@@@std@@QBEABV?$_String_val@U?$_Simple_types@D@std@@@2@XZ ; std::_String_alloc<std::_String_base_types<char,std::allocator<char> > >::_Get_data
PUBLIC	?_Bx@?$_String_alloc@U?$_String_base_types@DV?$allocator@D@std@@@std@@@std@@QAEAAT_Bxty@?$_String_val@U?$_Simple_types@D@std@@@2@XZ ; std::_String_alloc<std::_String_base_types<char,std::allocator<char> > >::_Bx
PUBLIC	?_Mysize@?$_String_alloc@U?$_String_base_types@DV?$allocator@D@std@@@std@@@std@@QAEAAIXZ ; std::_String_alloc<std::_String_base_types<char,std::allocator<char> > >::_Mysize
PUBLIC	?_Mysize@?$_String_alloc@U?$_String_base_types@DV?$allocator@D@std@@@std@@@std@@QBEABIXZ ; std::_String_alloc<std::_String_base_types<char,std::allocator<char> > >::_Mysize
PUBLIC	?_Myres@?$_String_alloc@U?$_String_base_types@DV?$allocator@D@std@@@std@@@std@@QAEAAIXZ ; std::_String_alloc<std::_String_base_types<char,std::allocator<char> > >::_Myres
PUBLIC	?_Get_first@?$_Compressed_pair@U?$_Wrap_alloc@V?$allocator@D@std@@@std@@V?$_String_val@U?$_Simple_types@D@std@@@2@$00@std@@QAEAAU?$_Wrap_alloc@V?$allocator@D@std@@@2@XZ ; std::_Compressed_pair<std::_Wrap_alloc<std::allocator<char> >,std::_String_val<std::_Simple_types<char> >,1>::_Get_first
PUBLIC	?_Get_first@?$_Compressed_pair@U?$_Wrap_alloc@V?$allocator@D@std@@@std@@V?$_String_val@U?$_Simple_types@D@std@@@2@$00@std@@QBEABU?$_Wrap_alloc@V?$allocator@D@std@@@2@XZ ; std::_Compressed_pair<std::_Wrap_alloc<std::allocator<char> >,std::_String_val<std::_Simple_types<char> >,1>::_Get_first
PUBLIC	?_Get_second@?$_Compressed_pair@U?$_Wrap_alloc@V?$allocator@D@std@@@std@@V?$_String_val@U?$_Simple_types@D@std@@@2@$00@std@@QAEAAV?$_String_val@U?$_Simple_types@D@std@@@2@XZ ; std::_Compressed_pair<std::_Wrap_alloc<std::allocator<char> >,std::_String_val<std::_Simple_types<char> >,1>::_Get_second
PUBLIC	?_Get_second@?$_Compressed_pair@U?$_Wrap_alloc@V?$allocator@D@std@@@std@@V?$_String_val@U?$_Simple_types@D@std@@@2@$00@std@@QBEABV?$_String_val@U?$_Simple_types@D@std@@@2@XZ ; std::_Compressed_pair<std::_Wrap_alloc<std::allocator<char> >,std::_String_val<std::_Simple_types<char> >,1>::_Get_second
PUBLIC	??1?$_Compressed_pair@U?$_Wrap_alloc@V?$allocator@D@std@@@std@@V?$_String_val@U?$_Simple_types@D@std@@@2@$00@std@@QAE@XZ ; std::_Compressed_pair<std::_Wrap_alloc<std::allocator<char> >,std::_String_val<std::_Simple_types<char> >,1>::~_Compressed_pair<std::_Wrap_alloc<std::allocator<char> >,std::_String_val<std::_Simple_types<char> >,1>
PUBLIC	??0?$basic_string@DU?$char_traits@D@std@@V?$allocator@D@2@@std@@QAE@XZ ; std::basic_string<char,std::char_traits<char>,std::allocator<char> >::basic_string<char,std::char_traits<char>,std::allocator<char> >
PUBLIC	??0?$basic_string@DU?$char_traits@D@std@@V?$allocator@D@2@@std@@QAE@PBD@Z ; std::basic_string<char,std::char_traits<char>,std::allocator<char> >::basic_string<char,std::char_traits<char>,std::allocator<char> >
PUBLIC	??0?$basic_string@DU?$char_traits@D@std@@V?$allocator@D@2@@std@@QAE@$$QAV01@@Z ; std::basic_string<char,std::char_traits<char>,std::allocator<char> >::basic_string<char,std::char_traits<char>,std::allocator<char> >
PUBLIC	?_Assign_rv@?$basic_string@DU?$char_traits@D@std@@V?$allocator@D@2@@std@@QAEX$$QAV12@@Z ; std::basic_string<char,std::char_traits<char>,std::allocator<char> >::_Assign_rv
PUBLIC	??1?$basic_string@DU?$char_traits@D@std@@V?$allocator@D@2@@std@@QAE@XZ ; std::basic_string<char,std::char_traits<char>,std::allocator<char> >::~basic_string<char,std::char_traits<char>,std::allocator<char> >
PUBLIC	??Y?$basic_string@DU?$char_traits@D@std@@V?$allocator@D@2@@std@@QAEAAV01@ABV01@@Z ; std::basic_string<char,std::char_traits<char>,std::allocator<char> >::operator+=
PUBLIC	??Y?$basic_string@DU?$char_traits@D@std@@V?$allocator@D@2@@std@@QAEAAV01@PBD@Z ; std::basic_string<char,std::char_traits<char>,std::allocator<char> >::operator+=
PUBLIC	?append@?$basic_string@DU?$char_traits@D@std@@V?$allocator@D@2@@std@@QAEAAV12@ABV12@@Z ; std::basic_string<char,std::char_traits<char>,std::allocator<char> >::append
PUBLIC	?append@?$basic_string@DU?$char_traits@D@std@@V?$allocator@D@2@@std@@QAEAAV12@ABV12@II@Z ; std::basic_string<char,std::char_traits<char>,std::allocator<char> >::append
PUBLIC	?append@?$basic_string@DU?$char_traits@D@std@@V?$allocator@D@2@@std@@QAEAAV12@PBDI@Z ; std::basic_string<char,std::char_traits<char>,std::allocator<char> >::append
PUBLIC	?append@?$basic_string@DU?$char_traits@D@std@@V?$allocator@D@2@@std@@QAEAAV12@PBD@Z ; std::basic_string<char,std::char_traits<char>,std::allocator<char> >::append
PUBLIC	?assign@?$basic_string@DU?$char_traits@D@std@@V?$allocator@D@2@@std@@QAEAAV12@ABV12@II@Z ; std::basic_string<char,std::char_traits<char>,std::allocator<char> >::assign
PUBLIC	?assign@?$basic_string@DU?$char_traits@D@std@@V?$allocator@D@2@@std@@QAEAAV12@PBDI@Z ; std::basic_string<char,std::char_traits<char>,std::allocator<char> >::assign
PUBLIC	?assign@?$basic_string@DU?$char_traits@D@std@@V?$allocator@D@2@@std@@QAEAAV12@PBD@Z ; std::basic_string<char,std::char_traits<char>,std::allocator<char> >::assign
PUBLIC	?erase@?$basic_string@DU?$char_traits@D@std@@V?$allocator@D@2@@std@@QAEAAV12@I@Z ; std::basic_string<char,std::char_traits<char>,std::allocator<char> >::erase
PUBLIC	?erase@?$basic_string@DU?$char_traits@D@std@@V?$allocator@D@2@@std@@QAEAAV12@II@Z ; std::basic_string<char,std::char_traits<char>,std::allocator<char> >::erase
PUBLIC	?c_str@?$basic_string@DU?$char_traits@D@std@@V?$allocator@D@2@@std@@QBEPBDXZ ; std::basic_string<char,std::char_traits<char>,std::allocator<char> >::c_str
PUBLIC	?size@?$basic_string@DU?$char_traits@D@std@@V?$allocator@D@2@@std@@QBEIXZ ; std::basic_string<char,std::char_traits<char>,std::allocator<char> >::size
PUBLIC	?max_size@?$basic_string@DU?$char_traits@D@std@@V?$allocator@D@2@@std@@QBEIXZ ; std::basic_string<char,std::char_traits<char>,std::allocator<char> >::max_size
PUBLIC	?reserve@?$basic_string@DU?$char_traits@D@std@@V?$allocator@D@2@@std@@QAEXI@Z ; std::basic_string<char,std::char_traits<char>,std::allocator<char> >::reserve
PUBLIC	?_Copy@?$basic_string@DU?$char_traits@D@std@@V?$allocator@D@2@@std@@QAEXII@Z ; std::basic_string<char,std::char_traits<char>,std::allocator<char> >::_Copy
PUBLIC	?_Eos@?$basic_string@DU?$char_traits@D@std@@V?$allocator@D@2@@std@@QAEXI@Z ; std::basic_string<char,std::char_traits<char>,std::allocator<char> >::_Eos
PUBLIC	?_Grow@?$basic_string@DU?$char_traits@D@std@@V?$allocator@D@2@@std@@QAE_NI_N@Z ; std::basic_string<char,std::char_traits<char>,std::allocator<char> >::_Grow
PUBLIC	?_Inside@?$basic_string@DU?$char_traits@D@std@@V?$allocator@D@2@@std@@QAE_NPBD@Z ; std::basic_string<char,std::char_traits<char>,std::allocator<char> >::_Inside
PUBLIC	?_Tidy@?$basic_string@DU?$char_traits@D@std@@V?$allocator@D@2@@std@@QAEX_NI@Z ; std::basic_string<char,std::char_traits<char>,std::allocator<char> >::_Tidy
PUBLIC	?_Xlen@?$basic_string@DU?$char_traits@D@std@@V?$allocator@D@2@@std@@QBEXXZ ; std::basic_string<char,std::char_traits<char>,std::allocator<char> >::_Xlen
PUBLIC	?_Xran@?$basic_string@DU?$char_traits@D@std@@V?$allocator@D@2@@std@@QBEXXZ ; std::basic_string<char,std::char_traits<char>,std::allocator<char> >::_Xran
PUBLIC	??0runtime_error@std@@QAE@ABV?$basic_string@DU?$char_traits@D@std@@V?$allocator@D@2@@1@@Z ; std::runtime_error::runtime_error
PUBLIC	??1runtime_error@std@@UAE@XZ			; std::runtime_error::~runtime_error
PUBLIC	??0runtime_error@std@@QAE@ABV01@@Z		; std::runtime_error::runtime_error
PUBLIC	??_Gruntime_error@std@@UAEPAXI@Z		; std::runtime_error::`scalar deleting destructor'
PUBLIC	??0id@locale@std@@QAE@I@Z			; std::locale::id::id
PUBLIC	?RandFloat@@YANXZ				; RandFloat
PUBLIC	?RandomClamped@@YANXZ				; RandomClamped
PUBLIC	??0Vector2D@@QAE@XZ				; Vector2D::Vector2D
PUBLIC	??0Vector2D@@QAE@NN@Z				; Vector2D::Vector2D
PUBLIC	?Zero@Vector2D@@QAEXXZ				; Vector2D::Zero
PUBLIC	?Length@Vector2D@@QBENXZ			; Vector2D::Length
PUBLIC	?LengthSq@Vector2D@@QBENXZ			; Vector2D::LengthSq
PUBLIC	?Normalize@Vector2D@@QAEXXZ			; Vector2D::Normalize
PUBLIC	?Dot@Vector2D@@QBENABU1@@Z			; Vector2D::Dot
PUBLIC	??YVector2D@@QAEABU0@ABU0@@Z			; Vector2D::operator+=
PUBLIC	??XVector2D@@QAEABU0@ABN@Z			; Vector2D::operator*=
PUBLIC	??D@YA?AUVector2D@@ABU0@N@Z			; operator*
PUBLIC	??D@YA?AUVector2D@@NABU0@@Z			; operator*
PUBLIC	??G@YA?AUVector2D@@ABU0@0@Z			; operator-
PUBLIC	??H@YA?AUVector2D@@ABU0@0@Z			; operator+
PUBLIC	??K@YA?AUVector2D@@ABU0@N@Z			; operator/
PUBLIC	?Vec2DNormalize@@YA?AUVector2D@@ABU1@@Z		; Vec2DNormalize
PUBLIC	?Vec2DDistance@@YANABUVector2D@@0@Z		; Vec2DDistance
PUBLIC	??0?$allocator@UVector2D@@@std@@QAE@XZ		; std::allocator<Vector2D>::allocator<Vector2D>
PUBLIC	??0?$allocator@UVector2D@@@std@@QAE@ABV01@@Z	; std::allocator<Vector2D>::allocator<Vector2D>
PUBLIC	?deallocate@?$allocator@UVector2D@@@std@@QAEXPAUVector2D@@I@Z ; std::allocator<Vector2D>::deallocate
PUBLIC	?allocate@?$allocator@UVector2D@@@std@@QAEPAUVector2D@@I@Z ; std::allocator<Vector2D>::allocate
PUBLIC	?max_size@?$allocator@UVector2D@@@std@@QBEIXZ	; std::allocator<Vector2D>::max_size
PUBLIC	?max_size@?$allocator_traits@V?$allocator@UVector2D@@@std@@@std@@SAIABV?$allocator@UVector2D@@@2@@Z ; std::allocator_traits<std::allocator<Vector2D> >::max_size
PUBLIC	??0?$_Wrap_alloc@V?$allocator@UVector2D@@@std@@@std@@QAE@ABV?$allocator@UVector2D@@@1@@Z ; std::_Wrap_alloc<std::allocator<Vector2D> >::_Wrap_alloc<std::allocator<Vector2D> >
PUBLIC	?allocate@?$_Wrap_alloc@V?$allocator@UVector2D@@@std@@@std@@QAEPAUVector2D@@I@Z ; std::_Wrap_alloc<std::allocator<Vector2D> >::allocate
PUBLIC	?deallocate@?$_Wrap_alloc@V?$allocator@UVector2D@@@std@@@std@@QAEXPAUVector2D@@I@Z ; std::_Wrap_alloc<std::allocator<Vector2D> >::deallocate
PUBLIC	?max_size@?$_Wrap_alloc@V?$allocator@UVector2D@@@std@@@std@@QBEIU_Nil@2@@Z ; std::_Wrap_alloc<std::allocator<Vector2D> >::max_size
PUBLIC	??0?$_Vector_alloc@U?$_Vec_base_types@UVector2D@@V?$allocator@UVector2D@@@std@@@std@@@std@@QAE@ABV?$allocator@UVector2D@@@1@@Z ; std::_Vector_alloc<std::_Vec_base_types<Vector2D,std::allocator<Vector2D> > >::_Vector_alloc<std::_Vec_base_types<Vector2D,std::allocator<Vector2D> > >
PUBLIC	??1?$_Vector_alloc@U?$_Vec_base_types@UVector2D@@V?$allocator@UVector2D@@@std@@@std@@@std@@QAE@XZ ; std::_Vector_alloc<std::_Vec_base_types<Vector2D,std::allocator<Vector2D> > >::~_Vector_alloc<std::_Vec_base_types<Vector2D,std::allocator<Vector2D> > >
PUBLIC	?_Alloc_proxy@?$_Vector_alloc@U?$_Vec_base_types@UVector2D@@V?$allocator@UVector2D@@@std@@@std@@@std@@QAEXXZ ; std::_Vector_alloc<std::_Vec_base_types<Vector2D,std::allocator<Vector2D> > >::_Alloc_proxy
PUBLIC	?_Free_proxy@?$_Vector_alloc@U?$_Vec_base_types@UVector2D@@V?$allocator@UVector2D@@@std@@@std@@@std@@QAEXXZ ; std::_Vector_alloc<std::_Vec_base_types<Vector2D,std::allocator<Vector2D> > >::_Free_proxy
PUBLIC	?_Myproxy@?$_Vector_alloc@U?$_Vec_base_types@UVector2D@@V?$allocator@UVector2D@@@std@@@std@@@std@@QAEAAPAU_Container_proxy@2@XZ ; std::_Vector_alloc<std::_Vec_base_types<Vector2D,std::allocator<Vector2D> > >::_Myproxy
PUBLIC	?_Orphan_all@?$_Vector_alloc@U?$_Vec_base_types@UVector2D@@V?$allocator@UVector2D@@@std@@@std@@@std@@QAEXXZ ; std::_Vector_alloc<std::_Vec_base_types<Vector2D,std::allocator<Vector2D> > >::_Orphan_all
PUBLIC	?_Getal@?$_Vector_alloc@U?$_Vec_base_types@UVector2D@@V?$allocator@UVector2D@@@std@@@std@@@std@@QAEAAU?$_Wrap_alloc@V?$allocator@UVector2D@@@std@@@2@XZ ; std::_Vector_alloc<std::_Vec_base_types<Vector2D,std::allocator<Vector2D> > >::_Getal
PUBLIC	?_Getal@?$_Vector_alloc@U?$_Vec_base_types@UVector2D@@V?$allocator@UVector2D@@@std@@@std@@@std@@QBEABU?$_Wrap_alloc@V?$allocator@UVector2D@@@std@@@2@XZ ; std::_Vector_alloc<std::_Vec_base_types<Vector2D,std::allocator<Vector2D> > >::_Getal
PUBLIC	?_Get_data@?$_Vector_alloc@U?$_Vec_base_types@UVector2D@@V?$allocator@UVector2D@@@std@@@std@@@std@@QAEAAV?$_Vector_val@U?$_Simple_types@UVector2D@@@std@@@2@XZ ; std::_Vector_alloc<std::_Vec_base_types<Vector2D,std::allocator<Vector2D> > >::_Get_data
PUBLIC	?_Get_data@?$_Vector_alloc@U?$_Vec_base_types@UVector2D@@V?$allocator@UVector2D@@@std@@@std@@@std@@QBEABV?$_Vector_val@U?$_Simple_types@UVector2D@@@std@@@2@XZ ; std::_Vector_alloc<std::_Vec_base_types<Vector2D,std::allocator<Vector2D> > >::_Get_data
PUBLIC	?_Myfirst@?$_Vector_alloc@U?$_Vec_base_types@UVector2D@@V?$allocator@UVector2D@@@std@@@std@@@std@@QAEAAPAUVector2D@@XZ ; std::_Vector_alloc<std::_Vec_base_types<Vector2D,std::allocator<Vector2D> > >::_Myfirst
PUBLIC	?_Myfirst@?$_Vector_alloc@U?$_Vec_base_types@UVector2D@@V?$allocator@UVector2D@@@std@@@std@@@std@@QBEABQAUVector2D@@XZ ; std::_Vector_alloc<std::_Vec_base_types<Vector2D,std::allocator<Vector2D> > >::_Myfirst
PUBLIC	?_Mylast@?$_Vector_alloc@U?$_Vec_base_types@UVector2D@@V?$allocator@UVector2D@@@std@@@std@@@std@@QAEAAPAUVector2D@@XZ ; std::_Vector_alloc<std::_Vec_base_types<Vector2D,std::allocator<Vector2D> > >::_Mylast
PUBLIC	?_Mylast@?$_Vector_alloc@U?$_Vec_base_types@UVector2D@@V?$allocator@UVector2D@@@std@@@std@@@std@@QBEABQAUVector2D@@XZ ; std::_Vector_alloc<std::_Vec_base_types<Vector2D,std::allocator<Vector2D> > >::_Mylast
PUBLIC	?_Myend@?$_Vector_alloc@U?$_Vec_base_types@UVector2D@@V?$allocator@UVector2D@@@std@@@std@@@std@@QAEAAPAUVector2D@@XZ ; std::_Vector_alloc<std::_Vec_base_types<Vector2D,std::allocator<Vector2D> > >::_Myend
PUBLIC	??0?$_Vector_val@U?$_Simple_types@UVector2D@@@std@@@std@@QAE@XZ ; std::_Vector_val<std::_Simple_types<Vector2D> >::_Vector_val<std::_Simple_types<Vector2D> >
PUBLIC	??1?$_Vector_val@U?$_Simple_types@UVector2D@@@std@@@std@@QAE@XZ ; std::_Vector_val<std::_Simple_types<Vector2D> >::~_Vector_val<std::_Simple_types<Vector2D> >
PUBLIC	?_Get_first@?$_Compressed_pair@U?$_Wrap_alloc@V?$allocator@UVector2D@@@std@@@std@@V?$_Vector_val@U?$_Simple_types@UVector2D@@@std@@@2@$00@std@@QAEAAU?$_Wrap_alloc@V?$allocator@UVector2D@@@std@@@2@XZ ; std::_Compressed_pair<std::_Wrap_alloc<std::allocator<Vector2D> >,std::_Vector_val<std::_Simple_types<Vector2D> >,1>::_Get_first
PUBLIC	?_Get_first@?$_Compressed_pair@U?$_Wrap_alloc@V?$allocator@UVector2D@@@std@@@std@@V?$_Vector_val@U?$_Simple_types@UVector2D@@@std@@@2@$00@std@@QBEABU?$_Wrap_alloc@V?$allocator@UVector2D@@@std@@@2@XZ ; std::_Compressed_pair<std::_Wrap_alloc<std::allocator<Vector2D> >,std::_Vector_val<std::_Simple_types<Vector2D> >,1>::_Get_first
PUBLIC	?_Get_second@?$_Compressed_pair@U?$_Wrap_alloc@V?$allocator@UVector2D@@@std@@@std@@V?$_Vector_val@U?$_Simple_types@UVector2D@@@std@@@2@$00@std@@QAEAAV?$_Vector_val@U?$_Simple_types@UVector2D@@@std@@@2@XZ ; std::_Compressed_pair<std::_Wrap_alloc<std::allocator<Vector2D> >,std::_Vector_val<std::_Simple_types<Vector2D> >,1>::_Get_second
PUBLIC	?_Get_second@?$_Compressed_pair@U?$_Wrap_alloc@V?$allocator@UVector2D@@@std@@@std@@V?$_Vector_val@U?$_Simple_types@UVector2D@@@std@@@2@$00@std@@QBEABV?$_Vector_val@U?$_Simple_types@UVector2D@@@std@@@2@XZ ; std::_Compressed_pair<std::_Wrap_alloc<std::allocator<Vector2D> >,std::_Vector_val<std::_Simple_types<Vector2D> >,1>::_Get_second
PUBLIC	??1?$_Compressed_pair@U?$_Wrap_alloc@V?$allocator@UVector2D@@@std@@@std@@V?$_Vector_val@U?$_Simple_types@UVector2D@@@std@@@2@$00@std@@QAE@XZ ; std::_Compressed_pair<std::_Wrap_alloc<std::allocator<Vector2D> >,std::_Vector_val<std::_Simple_types<Vector2D> >,1>::~_Compressed_pair<std::_Wrap_alloc<std::allocator<Vector2D> >,std::_Vector_val<std::_Simple_types<Vector2D> >,1>
PUBLIC	??0?$vector@UVector2D@@V?$allocator@UVector2D@@@std@@@std@@QAE@I@Z ; std::vector<Vector2D,std::allocator<Vector2D> >::vector<Vector2D,std::allocator<Vector2D> >
PUBLIC	??1?$vector@UVector2D@@V?$allocator@UVector2D@@@std@@@std@@QAE@XZ ; std::vector<Vector2D,std::allocator<Vector2D> >::~vector<Vector2D,std::allocator<Vector2D> >
PUBLIC	?size@?$vector@UVector2D@@V?$allocator@UVector2D@@@std@@@std@@QBEIXZ ; std::vector<Vector2D,std::allocator<Vector2D> >::size
PUBLIC	?max_size@?$vector@UVector2D@@V?$allocator@UVector2D@@@std@@@std@@QBEIXZ ; std::vector<Vector2D,std::allocator<Vector2D> >::max_size
PUBLIC	??A?$vector@UVector2D@@V?$allocator@UVector2D@@@std@@@std@@QAEAAUVector2D@@I@Z ; std::vector<Vector2D,std::allocator<Vector2D> >::operator[]
PUBLIC	?_Buy@?$vector@UVector2D@@V?$allocator@UVector2D@@@std@@@std@@IAE_NI@Z ; std::vector<Vector2D,std::allocator<Vector2D> >::_Buy
PUBLIC	?_Destroy@?$vector@UVector2D@@V?$allocator@UVector2D@@@std@@@std@@IAEXPAUVector2D@@0@Z ; std::vector<Vector2D,std::allocator<Vector2D> >::_Destroy
PUBLIC	?_Tidy@?$vector@UVector2D@@V?$allocator@UVector2D@@@std@@@std@@IAEXXZ ; std::vector<Vector2D,std::allocator<Vector2D> >::_Tidy
PUBLIC	?_Xlen@?$vector@UVector2D@@V?$allocator@UVector2D@@@std@@@std@@IBEXXZ ; std::vector<Vector2D,std::allocator<Vector2D> >::_Xlen
PUBLIC	?On@Raven_Steering@@AAE_NW4behavior_type@1@@Z	; Raven_Steering::On
PUBLIC	?AccumulateForce@Raven_Steering@@AAE_NAAUVector2D@@U2@@Z ; Raven_Steering::AccumulateForce
PUBLIC	?CreateFeelers@Raven_Steering@@AAEXXZ		; Raven_Steering::CreateFeelers
PUBLIC	?Seek@Raven_Steering@@AAE?AUVector2D@@ABU2@@Z	; Raven_Steering::Seek
PUBLIC	?Arrive@Raven_Steering@@AAE?AUVector2D@@ABU2@W4Deceleration@1@@Z ; Raven_Steering::Arrive
PUBLIC	?Wander@Raven_Steering@@AAE?AUVector2D@@XZ	; Raven_Steering::Wander
PUBLIC	?WallAvoidance@Raven_Steering@@AAE?AUVector2D@@ABV?$vector@PAVWall2D@@V?$allocator@PAVWall2D@@@std@@@std@@@Z ; Raven_Steering::WallAvoidance
PUBLIC	?Separation@Raven_Steering@@AAE?AUVector2D@@ABV?$list@PAVRaven_Bot@@V?$allocator@PAVRaven_Bot@@@std@@@std@@@Z ; Raven_Steering::Separation
PUBLIC	?CalculatePrioritized@Raven_Steering@@AAE?AUVector2D@@XZ ; Raven_Steering::CalculatePrioritized
PUBLIC	??0Raven_Steering@@QAE@PAVRaven_Game@@PAVRaven_Bot@@@Z ; Raven_Steering::Raven_Steering
PUBLIC	??1Raven_Steering@@UAE@XZ			; Raven_Steering::~Raven_Steering
PUBLIC	?Calculate@Raven_Steering@@QAE?AUVector2D@@XZ	; Raven_Steering::Calculate
PUBLIC	?ForwardComponent@Raven_Steering@@QAENXZ	; Raven_Steering::ForwardComponent
PUBLIC	?SideComponent@Raven_Steering@@QAENXZ		; Raven_Steering::SideComponent
PUBLIC	??_GRaven_Steering@@UAEPAXI@Z			; Raven_Steering::`scalar deleting destructor'
PUBLIC	??0Matrix@C2DMatrix@@QAE@XZ			; C2DMatrix::Matrix::Matrix
PUBLIC	?MatrixMultiply@C2DMatrix@@AAEXAAUMatrix@1@@Z	; C2DMatrix::MatrixMultiply
PUBLIC	??0C2DMatrix@@QAE@XZ				; C2DMatrix::C2DMatrix
PUBLIC	?Identity@C2DMatrix@@QAEXXZ			; C2DMatrix::Identity
PUBLIC	?Translate@C2DMatrix@@QAEXNN@Z			; C2DMatrix::Translate
PUBLIC	?Rotate@C2DMatrix@@QAEXN@Z			; C2DMatrix::Rotate
PUBLIC	?Rotate@C2DMatrix@@QAEXABUVector2D@@0@Z		; C2DMatrix::Rotate
PUBLIC	?TransformVector2Ds@C2DMatrix@@QAEXAAUVector2D@@@Z ; C2DMatrix::TransformVector2Ds
PUBLIC	?PointToWorldSpace@@YA?AUVector2D@@ABU1@000@Z	; PointToWorldSpace
PUBLIC	?Vec2DRotateAroundOrigin@@YAXAAUVector2D@@N@Z	; Vec2DRotateAroundOrigin
PUBLIC	?LineIntersection2D@@YA_NUVector2D@@000AANAAU1@@Z ; LineIntersection2D
PUBLIC	?Pos@BaseGameEntity@@QBE?AUVector2D@@XZ		; BaseGameEntity::Pos
PUBLIC	?BRadius@BaseGameEntity@@QBENXZ			; BaseGameEntity::BRadius
PUBLIC	?IsTagged@BaseGameEntity@@QBE_NXZ		; BaseGameEntity::IsTagged
PUBLIC	?Tag@BaseGameEntity@@QAEXXZ			; BaseGameEntity::Tag
PUBLIC	?UnTag@BaseGameEntity@@QAEXXZ			; BaseGameEntity::UnTag
PUBLIC	?Velocity@MovingEntity@@QBE?AUVector2D@@XZ	; MovingEntity::Velocity
PUBLIC	?Side@MovingEntity@@QBE?AUVector2D@@XZ		; MovingEntity::Side
PUBLIC	?MaxSpeed@MovingEntity@@QBENXZ			; MovingEntity::MaxSpeed
PUBLIC	?MaxForce@MovingEntity@@QBENXZ			; MovingEntity::MaxForce
PUBLIC	?Speed@MovingEntity@@QBENXZ			; MovingEntity::Speed
PUBLIC	?Heading@MovingEntity@@QBE?AUVector2D@@XZ	; MovingEntity::Heading
PUBLIC	?From@Wall2D@@QBE?AUVector2D@@XZ		; Wall2D::From
PUBLIC	?To@Wall2D@@QBE?AUVector2D@@XZ			; Wall2D::To
PUBLIC	?Normal@Wall2D@@QBE?AUVector2D@@XZ		; Wall2D::Normal
PUBLIC	?_Nextnode@?$_List_alloc@U?$_List_base_types@PAVRaven_Bot@@V?$allocator@PAVRaven_Bot@@@std@@@std@@@std@@SAAAPAU?$_List_node@PAVRaven_Bot@@PAX@2@PAU32@@Z ; std::_List_alloc<std::_List_base_types<Raven_Bot *,std::allocator<Raven_Bot *> > >::_Nextnode
PUBLIC	?_Get_data@?$_List_alloc@U?$_List_base_types@PAVRaven_Bot@@V?$allocator@PAVRaven_Bot@@@std@@@std@@@std@@QAEAAV?$_List_val@U?$_List_simple_types@PAVRaven_Bot@@@std@@@2@XZ ; std::_List_alloc<std::_List_base_types<Raven_Bot *,std::allocator<Raven_Bot *> > >::_Get_data
PUBLIC	?_Get_data@?$_List_alloc@U?$_List_base_types@PAVRaven_Bot@@V?$allocator@PAVRaven_Bot@@@std@@@std@@@std@@QBEABV?$_List_val@U?$_List_simple_types@PAVRaven_Bot@@@std@@@2@XZ ; std::_List_alloc<std::_List_base_types<Raven_Bot *,std::allocator<Raven_Bot *> > >::_Get_data
PUBLIC	?_Myhead@?$_List_alloc@U?$_List_base_types@PAVRaven_Bot@@V?$allocator@PAVRaven_Bot@@@std@@@std@@@std@@QAEAAPAU?$_List_node@PAVRaven_Bot@@PAX@2@XZ ; std::_List_alloc<std::_List_base_types<Raven_Bot *,std::allocator<Raven_Bot *> > >::_Myhead
PUBLIC	?_Myhead@?$_List_alloc@U?$_List_base_types@PAVRaven_Bot@@V?$allocator@PAVRaven_Bot@@@std@@@std@@@std@@QBEABQAU?$_List_node@PAVRaven_Bot@@PAX@2@XZ ; std::_List_alloc<std::_List_base_types<Raven_Bot *,std::allocator<Raven_Bot *> > >::_Myhead
PUBLIC	?_Nextnode@?$_List_val@U?$_List_simple_types@PAVRaven_Bot@@@std@@@std@@SAAAPAU?$_List_node@PAVRaven_Bot@@PAX@2@PAU32@@Z ; std::_List_val<std::_List_simple_types<Raven_Bot *> >::_Nextnode
PUBLIC	?_Myval@?$_List_val@U?$_List_simple_types@PAVRaven_Bot@@@std@@@std@@SAAAPAVRaven_Bot@@PAU?$_List_node@PAVRaven_Bot@@PAX@2@@Z ; std::_List_val<std::_List_simple_types<Raven_Bot *> >::_Myval
PUBLIC	?_Get_second@?$_Compressed_pair@U?$_Wrap_alloc@V?$allocator@U?$_List_node@PAVRaven_Bot@@PAX@std@@@std@@@std@@V?$_List_val@U?$_List_simple_types@PAVRaven_Bot@@@std@@@2@$00@std@@QAEAAV?$_List_val@U?$_List_simple_types@PAVRaven_Bot@@@std@@@2@XZ ; std::_Compressed_pair<std::_Wrap_alloc<std::allocator<std::_List_node<Raven_Bot *,void *> > >,std::_List_val<std::_List_simple_types<Raven_Bot *> >,1>::_Get_second
PUBLIC	?_Get_second@?$_Compressed_pair@U?$_Wrap_alloc@V?$allocator@U?$_List_node@PAVRaven_Bot@@PAX@std@@@std@@@std@@V?$_List_val@U?$_List_simple_types@PAVRaven_Bot@@@std@@@2@$00@std@@QBEABV?$_List_val@U?$_List_simple_types@PAVRaven_Bot@@@std@@@2@XZ ; std::_Compressed_pair<std::_Wrap_alloc<std::allocator<std::_List_node<Raven_Bot *,void *> > >,std::_List_val<std::_List_simple_types<Raven_Bot *> >,1>::_Get_second
PUBLIC	?begin@?$list@PAVRaven_Bot@@V?$allocator@PAVRaven_Bot@@@std@@@std@@QAE?AV?$_List_iterator@V?$_List_val@U?$_List_simple_types@PAVRaven_Bot@@@std@@@std@@@2@XZ ; std::list<Raven_Bot *,std::allocator<Raven_Bot *> >::begin
PUBLIC	?begin@?$list@PAVRaven_Bot@@V?$allocator@PAVRaven_Bot@@@std@@@std@@QBE?AV?$_List_const_iterator@V?$_List_val@U?$_List_simple_types@PAVRaven_Bot@@@std@@@std@@@2@XZ ; std::list<Raven_Bot *,std::allocator<Raven_Bot *> >::begin
PUBLIC	?end@?$list@PAVRaven_Bot@@V?$allocator@PAVRaven_Bot@@@std@@@std@@QAE?AV?$_List_iterator@V?$_List_val@U?$_List_simple_types@PAVRaven_Bot@@@std@@@std@@@2@XZ ; std::list<Raven_Bot *,std::allocator<Raven_Bot *> >::end
PUBLIC	?end@?$list@PAVRaven_Bot@@V?$allocator@PAVRaven_Bot@@@std@@@std@@QBE?AV?$_List_const_iterator@V?$_List_val@U?$_List_simple_types@PAVRaven_Bot@@@std@@@std@@@2@XZ ; std::list<Raven_Bot *,std::allocator<Raven_Bot *> >::end
PUBLIC	?GetMap@Raven_Game@@QAEQAVRaven_Map@@XZ		; Raven_Game::GetMap
PUBLIC	?GetAllBots@Raven_Game@@QBEABV?$list@PAVRaven_Bot@@V?$allocator@PAVRaven_Bot@@@std@@@std@@XZ ; Raven_Game::GetAllBots
PUBLIC	?TagRaven_BotsWithinViewRange@Raven_Game@@QAEXPAVBaseGameEntity@@N@Z ; Raven_Game::TagRaven_BotsWithinViewRange
PUBLIC	??$TagNeighbors@VBaseGameEntity@@V?$list@PAVRaven_Bot@@V?$allocator@PAVRaven_Bot@@@std@@@std@@@@YAXPAVBaseGameEntity@@AAV?$list@PAVRaven_Bot@@V?$allocator@PAVRaven_Bot@@@std@@@std@@N@Z ; TagNeighbors<BaseGameEntity,std::list<Raven_Bot *,std::allocator<Raven_Bot *> > >
PUBLIC	??$?HDU?$char_traits@D@std@@V?$allocator@D@1@@std@@YA?AV?$basic_string@DU?$char_traits@D@std@@V?$allocator@D@2@@0@ABV10@PBD@Z ; std::operator+<char,std::char_traits<char>,std::allocator<char> >
PUBLIC	?GetDouble@Scriptor@@QAENPAD@Z			; Scriptor::GetDouble
PUBLIC	??$PopLuaNumber@N@@YANPAUlua_State@@PBD@Z	; PopLuaNumber<double>
PUBLIC	?_Get_data@?$_Vector_alloc@U?$_Vec_base_types@PAVWall2D@@V?$allocator@PAVWall2D@@@std@@@std@@@std@@QBEABV?$_Vector_val@U?$_Simple_types@PAVWall2D@@@std@@@2@XZ ; std::_Vector_alloc<std::_Vec_base_types<Wall2D *,std::allocator<Wall2D *> > >::_Get_data
PUBLIC	?_Myfirst@?$_Vector_alloc@U?$_Vec_base_types@PAVWall2D@@V?$allocator@PAVWall2D@@@std@@@std@@@std@@QBEABQAPAVWall2D@@XZ ; std::_Vector_alloc<std::_Vec_base_types<Wall2D *,std::allocator<Wall2D *> > >::_Myfirst
PUBLIC	?_Mylast@?$_Vector_alloc@U?$_Vec_base_types@PAVWall2D@@V?$allocator@PAVWall2D@@@std@@@std@@@std@@QBEABQAPAVWall2D@@XZ ; std::_Vector_alloc<std::_Vec_base_types<Wall2D *,std::allocator<Wall2D *> > >::_Mylast
PUBLIC	?_Get_second@?$_Compressed_pair@U?$_Wrap_alloc@V?$allocator@PAVWall2D@@@std@@@std@@V?$_Vector_val@U?$_Simple_types@PAVWall2D@@@std@@@2@$00@std@@QBEABV?$_Vector_val@U?$_Simple_types@PAVWall2D@@@std@@@2@XZ ; std::_Compressed_pair<std::_Wrap_alloc<std::allocator<Wall2D *> >,std::_Vector_val<std::_Simple_types<Wall2D *> >,1>::_Get_second
PUBLIC	?size@?$vector@PAVWall2D@@V?$allocator@PAVWall2D@@@std@@@std@@QBEIXZ ; std::vector<Wall2D *,std::allocator<Wall2D *> >::size
PUBLIC	??A?$vector@PAVWall2D@@V?$allocator@PAVWall2D@@@std@@@std@@QBEABQAVWall2D@@I@Z ; std::vector<Wall2D *,std::allocator<Wall2D *> >::operator[]
PUBLIC	?GetWalls@Raven_Map@@QBEABV?$vector@PAVWall2D@@V?$allocator@PAVWall2D@@@std@@@std@@XZ ; Raven_Map::GetWalls
PUBLIC	??$MinOf@N@@YANABN0@Z				; MinOf<double>
PUBLIC	??0?$_Iterator012@Ubidirectional_iterator_tag@std@@PAVRaven_Bot@@HPBQAV3@ABQAV3@U_Iterator_base12@2@@std@@QAE@XZ ; std::_Iterator012<std::bidirectional_iterator_tag,Raven_Bot *,int,Raven_Bot * const *,Raven_Bot * const &,std::_Iterator_base12>::_Iterator012<std::bidirectional_iterator_tag,Raven_Bot *,int,Raven_Bot * const *,Raven_Bot * const &,std::_Iterator_base12>
PUBLIC	??1?$_Iterator012@Ubidirectional_iterator_tag@std@@PAVRaven_Bot@@HPBQAV3@ABQAV3@U_Iterator_base12@2@@std@@QAE@XZ ; std::_Iterator012<std::bidirectional_iterator_tag,Raven_Bot *,int,Raven_Bot * const *,Raven_Bot * const &,std::_Iterator_base12>::~_Iterator012<std::bidirectional_iterator_tag,Raven_Bot *,int,Raven_Bot * const *,Raven_Bot * const &,std::_Iterator_base12>
PUBLIC	??4?$_Iterator012@Ubidirectional_iterator_tag@std@@PAVRaven_Bot@@HPBQAV3@ABQAV3@U_Iterator_base12@2@@std@@QAEAAU01@$$QAU01@@Z ; std::_Iterator012<std::bidirectional_iterator_tag,Raven_Bot *,int,Raven_Bot * const *,Raven_Bot * const &,std::_Iterator_base12>::operator=
PUBLIC	??0?$_List_unchecked_const_iterator@V?$_List_val@U?$_List_simple_types@PAVRaven_Bot@@@std@@@std@@U_Iterator_base12@2@@std@@QAE@XZ ; std::_List_unchecked_const_iterator<std::_List_val<std::_List_simple_types<Raven_Bot *> >,std::_Iterator_base12>::_List_unchecked_const_iterator<std::_List_val<std::_List_simple_types<Raven_Bot *> >,std::_Iterator_base12>
PUBLIC	??0?$_List_unchecked_const_iterator@V?$_List_val@U?$_List_simple_types@PAVRaven_Bot@@@std@@@std@@U_Iterator_base12@2@@std@@QAE@PAU?$_List_node@PAVRaven_Bot@@PAX@1@PBV?$_List_val@U?$_List_simple_types@PAVRaven_Bot@@@std@@@1@@Z ; std::_List_unchecked_const_iterator<std::_List_val<std::_List_simple_types<Raven_Bot *> >,std::_Iterator_base12>::_List_unchecked_const_iterator<std::_List_val<std::_List_simple_types<Raven_Bot *> >,std::_Iterator_base12>
PUBLIC	??1?$_List_unchecked_const_iterator@V?$_List_val@U?$_List_simple_types@PAVRaven_Bot@@@std@@@std@@U_Iterator_base12@2@@std@@QAE@XZ ; std::_List_unchecked_const_iterator<std::_List_val<std::_List_simple_types<Raven_Bot *> >,std::_Iterator_base12>::~_List_unchecked_const_iterator<std::_List_val<std::_List_simple_types<Raven_Bot *> >,std::_Iterator_base12>
PUBLIC	??4?$_List_unchecked_const_iterator@V?$_List_val@U?$_List_simple_types@PAVRaven_Bot@@@std@@@std@@U_Iterator_base12@2@@std@@QAEAAV01@$$QAV01@@Z ; std::_List_unchecked_const_iterator<std::_List_val<std::_List_simple_types<Raven_Bot *> >,std::_Iterator_base12>::operator=
PUBLIC	??0?$_List_const_iterator@V?$_List_val@U?$_List_simple_types@PAVRaven_Bot@@@std@@@std@@@std@@QAE@XZ ; std::_List_const_iterator<std::_List_val<std::_List_simple_types<Raven_Bot *> > >::_List_const_iterator<std::_List_val<std::_List_simple_types<Raven_Bot *> > >
PUBLIC	??0?$_List_const_iterator@V?$_List_val@U?$_List_simple_types@PAVRaven_Bot@@@std@@@std@@@std@@QAE@PAU?$_List_node@PAVRaven_Bot@@PAX@1@PBV?$_List_val@U?$_List_simple_types@PAVRaven_Bot@@@std@@@1@@Z ; std::_List_const_iterator<std::_List_val<std::_List_simple_types<Raven_Bot *> > >::_List_const_iterator<std::_List_val<std::_List_simple_types<Raven_Bot *> > >
PUBLIC	??D?$_List_const_iterator@V?$_List_val@U?$_List_simple_types@PAVRaven_Bot@@@std@@@std@@@std@@QBEABQAVRaven_Bot@@XZ ; std::_List_const_iterator<std::_List_val<std::_List_simple_types<Raven_Bot *> > >::operator*
PUBLIC	??E?$_List_const_iterator@V?$_List_val@U?$_List_simple_types@PAVRaven_Bot@@@std@@@std@@@std@@QAEAAV01@XZ ; std::_List_const_iterator<std::_List_val<std::_List_simple_types<Raven_Bot *> > >::operator++
PUBLIC	??8?$_List_const_iterator@V?$_List_val@U?$_List_simple_types@PAVRaven_Bot@@@std@@@std@@@std@@QBE_NABV01@@Z ; std::_List_const_iterator<std::_List_val<std::_List_simple_types<Raven_Bot *> > >::operator==
PUBLIC	??9?$_List_const_iterator@V?$_List_val@U?$_List_simple_types@PAVRaven_Bot@@@std@@@std@@@std@@QBE_NABV01@@Z ; std::_List_const_iterator<std::_List_val<std::_List_simple_types<Raven_Bot *> > >::operator!=
PUBLIC	??1?$_List_const_iterator@V?$_List_val@U?$_List_simple_types@PAVRaven_Bot@@@std@@@std@@@std@@QAE@XZ ; std::_List_const_iterator<std::_List_val<std::_List_simple_types<Raven_Bot *> > >::~_List_const_iterator<std::_List_val<std::_List_simple_types<Raven_Bot *> > >
PUBLIC	??4?$_List_const_iterator@V?$_List_val@U?$_List_simple_types@PAVRaven_Bot@@@std@@@std@@@std@@QAEAAV01@$$QAV01@@Z ; std::_List_const_iterator<std::_List_val<std::_List_simple_types<Raven_Bot *> > >::operator=
PUBLIC	??$addressof@UVector2D@@@std@@YAPAUVector2D@@AAU1@@Z ; std::addressof<Vector2D>
PUBLIC	??$_Uninitialized_default_fill_n@PAUVector2D@@IU?$_Wrap_alloc@V?$allocator@UVector2D@@@std@@@std@@@std@@YAXPAUVector2D@@IAAU?$_Wrap_alloc@V?$allocator@UVector2D@@@std@@@0@@Z ; std::_Uninitialized_default_fill_n<Vector2D *,unsigned int,std::_Wrap_alloc<std::allocator<Vector2D> > >
PUBLIC	??$_Debug_pointer@$$CBD@std@@YAXPBDPB_WI@Z	; std::_Debug_pointer<char const >
PUBLIC	??$move@AAU?$_Wrap_alloc@V?$allocator@D@std@@@std@@@std@@YA$$QAU?$_Wrap_alloc@V?$allocator@D@std@@@0@AAU10@@Z ; std::move<std::_Wrap_alloc<std::allocator<char> > &>
PUBLIC	??$forward@V?$basic_string@DU?$char_traits@D@std@@V?$allocator@D@2@@std@@@std@@YA$$QAV?$basic_string@DU?$char_traits@D@std@@V?$allocator@D@2@@0@AAV10@@Z ; std::forward<std::basic_string<char,std::char_traits<char>,std::allocator<char> > >
PUBLIC	??$?0ABV?$allocator@UVector2D@@@std@@$$V@?$_Compressed_pair@U?$_Wrap_alloc@V?$allocator@UVector2D@@@std@@@std@@V?$_Vector_val@U?$_Simple_types@UVector2D@@@std@@@2@$00@std@@QAE@U_One_then_variadic_args_t@1@ABV?$allocator@UVector2D@@@1@@Z ; std::_Compressed_pair<std::_Wrap_alloc<std::allocator<Vector2D> >,std::_Vector_val<std::_Simple_types<Vector2D> >,1>::_Compressed_pair<std::_Wrap_alloc<std::allocator<Vector2D> >,std::_Vector_val<std::_Simple_types<Vector2D> >,1><std::allocator<Vector2D> const &>
PUBLIC	??$move@AAV?$allocator@D@std@@@std@@YA$$QAV?$allocator@D@0@AAV10@@Z ; std::move<std::allocator<char> &>
PUBLIC	??$?0V?$allocator@D@std@@$$V@?$_Compressed_pair@U?$_Wrap_alloc@V?$allocator@D@std@@@std@@V?$_String_val@U?$_Simple_types@D@std@@@2@$00@std@@QAE@U_One_then_variadic_args_t@1@$$QAV?$allocator@D@1@@Z ; std::_Compressed_pair<std::_Wrap_alloc<std::allocator<char> >,std::_String_val<std::_Simple_types<char> >,1>::_Compressed_pair<std::_Wrap_alloc<std::allocator<char> >,std::_String_val<std::_Simple_types<char> >,1><std::allocator<char> >
PUBLIC	??$?0ABV?$allocator@D@std@@$$V@?$_Compressed_pair@U?$_Wrap_alloc@V?$allocator@D@std@@@std@@V?$_String_val@U?$_Simple_types@D@std@@@2@$00@std@@QAE@U_One_then_variadic_args_t@1@ABV?$allocator@D@1@@Z ; std::_Compressed_pair<std::_Wrap_alloc<std::allocator<char> >,std::_String_val<std::_Simple_types<char> >,1>::_Compressed_pair<std::_Wrap_alloc<std::allocator<char> >,std::_String_val<std::_Simple_types<char> >,1><std::allocator<char> const &>
PUBLIC	??$destroy@PAD@?$_Wrap_alloc@V?$allocator@D@std@@@std@@QAEXPAPAD@Z ; std::_Wrap_alloc<std::allocator<char> >::destroy<char *>
PUBLIC	??$addressof@D@std@@YAPADAAD@Z			; std::addressof<char>
PUBLIC	??$_Debug_pointer_if@$$CBD@std@@YAX_NPBDPB_WI@Z	; std::_Debug_pointer_if<char const >
PUBLIC	??$construct@PADAAPAD@?$_Wrap_alloc@V?$allocator@D@std@@@std@@QAEXPAPADAAPAD@Z ; std::_Wrap_alloc<std::allocator<char> >::construct<char *,char * &>
PUBLIC	?deallocate@?$allocator@U_Container_proxy@std@@@std@@QAEXPAU_Container_proxy@2@I@Z ; std::allocator<std::_Container_proxy>::deallocate
PUBLIC	?allocate@?$allocator@U_Container_proxy@std@@@std@@QAEPAU_Container_proxy@2@I@Z ; std::allocator<std::_Container_proxy>::allocate
PUBLIC	?allocate@?$_Wrap_alloc@V?$allocator@U_Container_proxy@std@@@std@@@std@@QAEPAU_Container_proxy@2@I@Z ; std::_Wrap_alloc<std::allocator<std::_Container_proxy> >::allocate
PUBLIC	?deallocate@?$_Wrap_alloc@V?$allocator@U_Container_proxy@std@@@std@@@std@@QAEXPAU_Container_proxy@2@I@Z ; std::_Wrap_alloc<std::allocator<std::_Container_proxy> >::deallocate
PUBLIC	??$?0U?$_Wrap_alloc@V?$allocator@UVector2D@@@std@@@std@@@?$_Wrap_alloc@V?$allocator@U_Container_proxy@std@@@std@@@std@@QAE@AAU?$_Wrap_alloc@V?$allocator@UVector2D@@@std@@@1@@Z ; std::_Wrap_alloc<std::allocator<std::_Container_proxy> >::_Wrap_alloc<std::allocator<std::_Container_proxy> ><std::_Wrap_alloc<std::allocator<Vector2D> > >
PUBLIC	??$?0UVector2D@@@?$allocator@U_Container_proxy@std@@@std@@QAE@ABV?$allocator@UVector2D@@@1@@Z ; std::allocator<std::_Container_proxy>::allocator<std::_Container_proxy><Vector2D>
PUBLIC	??$destroy@U_Container_proxy@std@@@?$_Wrap_alloc@V?$allocator@U_Container_proxy@std@@@std@@@std@@QAEXPAU_Container_proxy@1@@Z ; std::_Wrap_alloc<std::allocator<std::_Container_proxy> >::destroy<std::_Container_proxy>
PUBLIC	??$construct@U_Container_proxy@std@@U12@@?$_Wrap_alloc@V?$allocator@U_Container_proxy@std@@@std@@@std@@QAEXPAU_Container_proxy@1@$$QAU21@@Z ; std::_Wrap_alloc<std::allocator<std::_Container_proxy> >::construct<std::_Container_proxy,std::_Container_proxy>
PUBLIC	??$_Destroy_range@U?$_Wrap_alloc@V?$allocator@UVector2D@@@std@@@std@@@std@@YAXPAUVector2D@@0AAU?$_Wrap_alloc@V?$allocator@UVector2D@@@std@@@0@@Z ; std::_Destroy_range<std::_Wrap_alloc<std::allocator<Vector2D> > >
PUBLIC	??$?0U?$_Wrap_alloc@V?$allocator@D@std@@@std@@@?$_Wrap_alloc@V?$allocator@U_Container_proxy@std@@@std@@@std@@QAE@AAU?$_Wrap_alloc@V?$allocator@D@std@@@1@@Z ; std::_Wrap_alloc<std::allocator<std::_Container_proxy> >::_Wrap_alloc<std::allocator<std::_Container_proxy> ><std::_Wrap_alloc<std::allocator<char> > >
PUBLIC	??$?0D@?$allocator@U_Container_proxy@std@@@std@@QAE@ABV?$allocator@D@1@@Z ; std::allocator<std::_Container_proxy>::allocator<std::_Container_proxy><char>
PUBLIC	??$_Allocate@UVector2D@@@std@@YAPAUVector2D@@IPAU1@_N@Z ; std::_Allocate<Vector2D>
PUBLIC	??$_Deallocate@UVector2D@@@std@@YAXPAUVector2D@@I@Z ; std::_Deallocate<Vector2D>
PUBLIC	??$_Deallocate@D@std@@YAXPADI@Z			; std::_Deallocate<char>
PUBLIC	??$_Allocate@U_Container_proxy@std@@@std@@YAPAU_Container_proxy@0@IPAU10@_N@Z ; std::_Allocate<std::_Container_proxy>
PUBLIC	??$_Deallocate@U_Container_proxy@std@@@std@@YAXPAU_Container_proxy@0@I@Z ; std::_Deallocate<std::_Container_proxy>
PUBLIC	??$_Allocate@D@std@@YAPADIPAD_N@Z		; std::_Allocate<char>
PUBLIC	??0?$_List_iterator@V?$_List_val@U?$_List_simple_types@PAVRaven_Bot@@@std@@@std@@@std@@QAE@XZ ; std::_List_iterator<std::_List_val<std::_List_simple_types<Raven_Bot *> > >::_List_iterator<std::_List_val<std::_List_simple_types<Raven_Bot *> > >
PUBLIC	??0?$_List_iterator@V?$_List_val@U?$_List_simple_types@PAVRaven_Bot@@@std@@@std@@@std@@QAE@PAU?$_List_node@PAVRaven_Bot@@PAX@1@PBV?$_List_val@U?$_List_simple_types@PAVRaven_Bot@@@std@@@1@@Z ; std::_List_iterator<std::_List_val<std::_List_simple_types<Raven_Bot *> > >::_List_iterator<std::_List_val<std::_List_simple_types<Raven_Bot *> > >
PUBLIC	??D?$_List_iterator@V?$_List_val@U?$_List_simple_types@PAVRaven_Bot@@@std@@@std@@@std@@QBEAAPAVRaven_Bot@@XZ ; std::_List_iterator<std::_List_val<std::_List_simple_types<Raven_Bot *> > >::operator*
PUBLIC	??E?$_List_iterator@V?$_List_val@U?$_List_simple_types@PAVRaven_Bot@@@std@@@std@@@std@@QAEAAV01@XZ ; std::_List_iterator<std::_List_val<std::_List_simple_types<Raven_Bot *> > >::operator++
PUBLIC	??1?$_List_iterator@V?$_List_val@U?$_List_simple_types@PAVRaven_Bot@@@std@@@std@@@std@@QAE@XZ ; std::_List_iterator<std::_List_val<std::_List_simple_types<Raven_Bot *> > >::~_List_iterator<std::_List_val<std::_List_simple_types<Raven_Bot *> > >
PUBLIC	??4?$_List_iterator@V?$_List_val@U?$_List_simple_types@PAVRaven_Bot@@@std@@@std@@@std@@QAEAAV01@$$QAV01@@Z ; std::_List_iterator<std::_List_val<std::_List_simple_types<Raven_Bot *> > >::operator=
PUBLIC	??$_Addressof@UVector2D@@@std@@YAPAUVector2D@@AAU1@U?$integral_constant@_N$0A@@0@@Z ; std::_Addressof<Vector2D>
PUBLIC	??$_Val_type@PAUVector2D@@@std@@YAPAUVector2D@@PAU1@@Z ; std::_Val_type<Vector2D *>
PUBLIC	??$_Ptr_cat@UVector2D@@U1@@std@@YA?AU_Nonscalar_ptr_iterator_tag@0@PAUVector2D@@0@Z ; std::_Ptr_cat<Vector2D,Vector2D>
PUBLIC	??$_Uninit_def_fill_n@PAUVector2D@@IV?$allocator@UVector2D@@@std@@U1@@std@@YAXPAUVector2D@@IAAU?$_Wrap_alloc@V?$allocator@UVector2D@@@std@@@0@0U_Nonscalar_ptr_iterator_tag@0@@Z ; std::_Uninit_def_fill_n<Vector2D *,unsigned int,std::allocator<Vector2D>,Vector2D>
PUBLIC	??$forward@ABV?$allocator@UVector2D@@@std@@@std@@YAABV?$allocator@UVector2D@@@0@ABV10@@Z ; std::forward<std::allocator<Vector2D> const &>
PUBLIC	??$forward@V?$allocator@D@std@@@std@@YA$$QAV?$allocator@D@0@AAV10@@Z ; std::forward<std::allocator<char> >
PUBLIC	??$forward@ABV?$allocator@D@std@@@std@@YAABV?$allocator@D@0@ABV10@@Z ; std::forward<std::allocator<char> const &>
PUBLIC	??$destroy@PAD@?$allocator_traits@V?$allocator@D@std@@@std@@SAXAAV?$allocator@D@1@PAPAD@Z ; std::allocator_traits<std::allocator<char> >::destroy<char *>
PUBLIC	??$_Addressof@D@std@@YAPADAADU?$integral_constant@_N$0A@@0@@Z ; std::_Addressof<char>
PUBLIC	??$forward@AAPAD@std@@YAAAPADAAPAD@Z		; std::forward<char * &>
PUBLIC	??$construct@PADAAPAD@?$allocator_traits@V?$allocator@D@std@@@std@@SAXAAV?$allocator@D@1@PAPADAAPAD@Z ; std::allocator_traits<std::allocator<char> >::construct<char *,char * &>
PUBLIC	??$destroy@U_Container_proxy@std@@@?$allocator_traits@V?$allocator@U_Container_proxy@std@@@std@@@std@@SAXAAV?$allocator@U_Container_proxy@std@@@1@PAU_Container_proxy@1@@Z ; std::allocator_traits<std::allocator<std::_Container_proxy> >::destroy<std::_Container_proxy>
PUBLIC	??$forward@U_Container_proxy@std@@@std@@YA$$QAU_Container_proxy@0@AAU10@@Z ; std::forward<std::_Container_proxy>
PUBLIC	??$construct@U_Container_proxy@std@@U12@@?$allocator_traits@V?$allocator@U_Container_proxy@std@@@std@@@std@@SAXAAV?$allocator@U_Container_proxy@std@@@1@PAU_Container_proxy@1@$$QAU31@@Z ; std::allocator_traits<std::allocator<std::_Container_proxy> >::construct<std::_Container_proxy,std::_Container_proxy>
PUBLIC	??$_Destroy_range@U?$_Wrap_alloc@V?$allocator@UVector2D@@@std@@@std@@@std@@YAXPAUVector2D@@0AAU?$_Wrap_alloc@V?$allocator@UVector2D@@@std@@@0@U_Nonscalar_ptr_iterator_tag@0@@Z ; std::_Destroy_range<std::_Wrap_alloc<std::allocator<Vector2D> > >
PUBLIC	??$construct@UVector2D@@$$V@?$_Wrap_alloc@V?$allocator@UVector2D@@@std@@@std@@QAEXPAUVector2D@@@Z ; std::_Wrap_alloc<std::allocator<Vector2D> >::construct<Vector2D>
PUBLIC	??$destroy@UVector2D@@@?$_Wrap_alloc@V?$allocator@UVector2D@@@std@@@std@@QAEXPAUVector2D@@@Z ; std::_Wrap_alloc<std::allocator<Vector2D> >::destroy<Vector2D>
PUBLIC	??$destroy@PAD@?$allocator@D@std@@QAEXPAPAD@Z	; std::allocator<char>::destroy<char *>
PUBLIC	??$construct@PADAAPAD@?$allocator@D@std@@QAEXPAPADAAPAD@Z ; std::allocator<char>::construct<char *,char * &>
PUBLIC	??$destroy@U_Container_proxy@std@@@?$allocator@U_Container_proxy@std@@@std@@QAEXPAU_Container_proxy@1@@Z ; std::allocator<std::_Container_proxy>::destroy<std::_Container_proxy>
PUBLIC	??$construct@U_Container_proxy@std@@U12@@?$allocator@U_Container_proxy@std@@@std@@QAEXPAU_Container_proxy@1@$$QAU21@@Z ; std::allocator<std::_Container_proxy>::construct<std::_Container_proxy,std::_Container_proxy>
PUBLIC	??$construct@UVector2D@@$$V@?$allocator_traits@V?$allocator@UVector2D@@@std@@@std@@SAXAAV?$allocator@UVector2D@@@1@PAUVector2D@@@Z ; std::allocator_traits<std::allocator<Vector2D> >::construct<Vector2D>
PUBLIC	??$destroy@UVector2D@@@?$allocator_traits@V?$allocator@UVector2D@@@std@@@std@@SAXAAV?$allocator@UVector2D@@@1@PAUVector2D@@@Z ; std::allocator_traits<std::allocator<Vector2D> >::destroy<Vector2D>
PUBLIC	??$construct@UVector2D@@$$V@?$allocator@UVector2D@@@std@@QAEXPAUVector2D@@@Z ; std::allocator<Vector2D>::construct<Vector2D>
PUBLIC	??$destroy@UVector2D@@@?$allocator@UVector2D@@@std@@QAEXPAUVector2D@@@Z ; std::allocator<Vector2D>::destroy<Vector2D>
PUBLIC	??_7exception@std@@6B@				; std::exception::`vftable'
PUBLIC	??_C@_0BC@EOODALEL@Unknown?5exception?$AA@	; `string'
PUBLIC	??_C@_1GI@DDIAPGKN@?$AAD?$AA?3?$AA?2?$AAM?$AAi?$AAc?$AAr?$AAo?$AAs?$AAo?$AAf?$AAt?$AA?5?$AAV?$AAi?$AAs?$AAu?$AAa?$AAl?$AA?5?$AAS?$AAt?$AAu?$AAd?$AAi?$AAo?$AA?5?$AA1?$AA4?$AA?4?$AA0?$AA?2@ ; `string'
PUBLIC	??_C@_1DC@POOIKBAO@?$AAI?$AAT?$AAE?$AAR?$AAA?$AAT?$AAO?$AAR?$AA?5?$AAL?$AAI?$AAS?$AAT?$AA?5?$AAC?$AAO?$AAR?$AAR?$AAU?$AAP?$AAT?$AAE?$AAD?$AA?$CB?$AA?$AA@ ; `string'
PUBLIC	?npos@?$basic_string@DU?$char_traits@D@std@@V?$allocator@D@2@@std@@2IB ; std::basic_string<char,std::char_traits<char>,std::allocator<char> >::npos
PUBLIC	??_7runtime_error@std@@6B@			; std::runtime_error::`vftable'
PUBLIC	__TI2?AVruntime_error@std@@
PUBLIC	__CTA2?AVruntime_error@std@@
PUBLIC	??_R0?AVruntime_error@std@@@8			; std::runtime_error `RTTI Type Descriptor'
PUBLIC	__CT??_R0?AVruntime_error@std@@@8??0runtime_error@std@@QAE@ABV01@@Z12
PUBLIC	??_R0?AVexception@std@@@8			; std::exception `RTTI Type Descriptor'
PUBLIC	__CT??_R0?AVexception@std@@@8??0exception@std@@QAE@ABV01@@Z12
PUBLIC	??_7Raven_Steering@@6B@				; Raven_Steering::`vftable'
PUBLIC	??_C@_1GA@IINJPBGE@?$AAD?$AA?3?$AA?2?$AAM?$AAi?$AAc?$AAr?$AAo?$AAs?$AAo?$AAf?$AAt?$AA?5?$AAV?$AAi?$AAs?$AAu?$AAa?$AAl?$AA?5?$AAS?$AAt?$AAu?$AAd?$AAi?$AAo?$AA?5?$AA1?$AA4?$AA?4?$AA0?$AA?2@ ; `string'
PUBLIC	??_C@_1EA@DOGAGKDH@?$AAl?$AAi?$AAs?$AAt?$AA?5?$AAi?$AAt?$AAe?$AAr?$AAa?$AAt?$AAo?$AAr?$AA?5?$AAn?$AAo?$AAt?$AA?5?$AAi?$AAn?$AAc?$AAr?$AAe?$AAm?$AAe?$AAn?$AAt?$AAa?$AAb?$AAl?$AAe?$AA?$AA@ ; `string'
PUBLIC	??_C@_0CE@OFMIGAMM@Standard?5C?$CL?$CL?5Libraries?5Out?5of?5Ra@ ; `string'
PUBLIC	??_C@_1FG@IBPIFFN@?$AA?$CC?$AAS?$AAt?$AAa?$AAn?$AAd?$AAa?$AAr?$AAd?$AA?5?$AAC?$AA?$CL?$AA?$CL?$AA?5?$AAL?$AAi?$AAb?$AAr?$AAa?$AAr?$AAi?$AAe?$AAs?$AA?5?$AAO?$AAu?$AAt?$AA?5?$AAo?$AAf?$AA?5?$AAR@ ; `string'
PUBLIC	??_C@_17CNPHIMPH@?$AA?$CF?$AAl?$AAs?$AA?$AA@	; `string'
PUBLIC	??_C@_1OE@NJHNFAGK@?$AAs?$AAt?$AAd?$AA?3?$AA?3?$AA_?$AAL?$AAi?$AAs?$AAt?$AA_?$AAc?$AAo?$AAn?$AAs?$AAt?$AA_?$AAi?$AAt?$AAe?$AAr?$AAa?$AAt?$AAo?$AAr?$AA?$DM?$AAc?$AAl?$AAa?$AAs?$AAs?$AA?5@ ; `string'
PUBLIC	??_C@_1BO@MEPPHOO@?$AA?$CC?$AAo?$AAu?$AAt?$AA?5?$AAo?$AAf?$AA?5?$AAr?$AAa?$AAn?$AAg?$AAe?$AA?$CC?$AA?$AA@ ; `string'
PUBLIC	??_C@_1EC@HILJLMMC@?$AAl?$AAi?$AAs?$AAt?$AA?5?$AAi?$AAt?$AAe?$AAr?$AAa?$AAt?$AAo?$AAr?$AA?5?$AAn?$AAo?$AAt?$AA?5?$AAd?$AAe?$AAr?$AAe?$AAf?$AAe?$AAr?$AAe?$AAn?$AAc?$AAa?$AAb?$AAl?$AAe@ ; `string'
PUBLIC	??_C@_1OC@BFEHCKCD@?$AAs?$AAt?$AAd?$AA?3?$AA?3?$AA_?$AAL?$AAi?$AAs?$AAt?$AA_?$AAc?$AAo?$AAn?$AAs?$AAt?$AA_?$AAi?$AAt?$AAe?$AAr?$AAa?$AAt?$AAo?$AAr?$AA?$DM?$AAc?$AAl?$AAa?$AAs?$AAs?$AA?5@ ; `string'
PUBLIC	??_C@_1GE@BNGOPDPB@?$AAD?$AA?3?$AA?2?$AAM?$AAi?$AAc?$AAr?$AAo?$AAs?$AAo?$AAf?$AAt?$AA?5?$AAV?$AAi?$AAs?$AAu?$AAa?$AAl?$AA?5?$AAS?$AAt?$AAu?$AAd?$AAi?$AAo?$AA?5?$AA1?$AA4?$AA?4?$AA0?$AA?2@ ; `string'
PUBLIC	??_C@_1DM@LHGCHCBA@?$AAv?$AAe?$AAc?$AAt?$AAo?$AAr?$AA?5?$AAs?$AAu?$AAb?$AAs?$AAc?$AAr?$AAi?$AAp?$AAt?$AA?5?$AAo?$AAu?$AAt?$AA?5?$AAo?$AAf?$AA?5?$AAr?$AAa?$AAn?$AAg?$AAe?$AA?$AA@ ; `string'
PUBLIC	??_C@_1JO@KOMOHDBM@?$AAs?$AAt?$AAd?$AA?3?$AA?3?$AAv?$AAe?$AAc?$AAt?$AAo?$AAr?$AA?$DM?$AAc?$AAl?$AAa?$AAs?$AAs?$AA?5?$AAW?$AAa?$AAl?$AAl?$AA2?$AAD?$AA?5?$AA?$CK?$AA?0?$AAc?$AAl?$AAa?$AAs?$AAs@ ; `string'
PUBLIC	??_C@_1KC@ILGGEGM@?$AAs?$AAt?$AAd?$AA?3?$AA?3?$AAv?$AAe?$AAc?$AAt?$AAo?$AAr?$AA?$DM?$AAs?$AAt?$AAr?$AAu?$AAc?$AAt?$AA?5?$AAV?$AAe?$AAc?$AAt?$AAo?$AAr?$AA2?$AAD?$AA?0?$AAc?$AAl?$AAa?$AAs@ ; `string'
PUBLIC	??_C@_1GG@PGPFJPKM@?$AAD?$AA?3?$AA?2?$AAM?$AAi?$AAc?$AAr?$AAo?$AAs?$AAo?$AAf?$AAt?$AA?5?$AAV?$AAi?$AAs?$AAu?$AAa?$AAl?$AA?5?$AAS?$AAt?$AAu?$AAd?$AAi?$AAo?$AA?5?$AA1?$AA4?$AA?4?$AA0?$AA?2@ ; `string'
PUBLIC	?id@?$codecvt@DDU_Mbstatet@@@std@@2V0locale@2@A	; std::codecvt<char,char,_Mbstatet>::id
PUBLIC	?id@?$num_put@DV?$ostreambuf_iterator@DU?$char_traits@D@std@@@std@@@std@@2V0locale@2@A ; std::num_put<char,std::ostreambuf_iterator<char,std::char_traits<char> > >::id
PUBLIC	?id@?$num_get@DV?$istreambuf_iterator@DU?$char_traits@D@std@@@std@@@std@@2V0locale@2@A ; std::num_get<char,std::istreambuf_iterator<char,std::char_traits<char> > >::id
PUBLIC	??_C@_1DI@MDELDGPI@?$AAl?$AAi?$AAs?$AAt?$AA?5?$AAi?$AAt?$AAe?$AAr?$AAa?$AAt?$AAo?$AAr?$AAs?$AA?5?$AAi?$AAn?$AAc?$AAo?$AAm?$AAp?$AAa?$AAt?$AAi?$AAb?$AAl?$AAe?$AA?$AA@ ; `string'
PUBLIC	??_C@_0CI@FNPHFCCM@Standard?5C?$CL?$CL?5Libraries?5Invalid?5A@ ; `string'
PUBLIC	??_C@_1FO@GJIHNDLM@?$AA?$CC?$AAS?$AAt?$AAa?$AAn?$AAd?$AAa?$AAr?$AAd?$AA?5?$AAC?$AA?$CL?$AA?$CL?$AA?5?$AAL?$AAi?$AAb?$AAr?$AAa?$AAr?$AAi?$AAe?$AAs?$AA?5?$AAI?$AAn?$AAv?$AAa?$AAl?$AAi?$AAd?$AA?5@ ; `string'
PUBLIC	??_C@_1OE@HJIALJKP@?$AAs?$AAt?$AAd?$AA?3?$AA?3?$AA_?$AAL?$AAi?$AAs?$AAt?$AA_?$AAc?$AAo?$AAn?$AAs?$AAt?$AA_?$AAi?$AAt?$AAe?$AAr?$AAa?$AAt?$AAo?$AAr?$AA?$DM?$AAc?$AAl?$AAa?$AAs?$AAs?$AA?5@ ; `string'
PUBLIC	??_C@_1CG@JNLFBNGN@?$AA?$CC?$AAi?$AAn?$AAv?$AAa?$AAl?$AAi?$AAd?$AA?5?$AAa?$AAr?$AAg?$AAu?$AAm?$AAe?$AAn?$AAt?$AA?$CC?$AA?$AA@ ; `string'
PUBLIC	?id@?$numpunct@D@std@@2V0locale@2@A		; std::numpunct<char>::id
PUBLIC	??_C@_0BD@OLBABOEK@vector?$DMT?$DO?5too?5long?$AA@ ; `string'
PUBLIC	??_C@_0BI@CFPLBAOH@invalid?5string?5position?$AA@ ; `string'
PUBLIC	??_C@_0BA@JFNIOLAK@string?5too?5long?$AA@	; `string'
PUBLIC	??_C@_0CB@NOKEJIID@?$DMPopLuaNumber?$DO?5Cannot?5retrieve?3?5@ ; `string'
PUBLIC	??_C@_1CK@EOPGIILJ@?$AAi?$AAn?$AAv?$AAa?$AAl?$AAi?$AAd?$AA?5?$AAn?$AAu?$AAl?$AAl?$AA?5?$AAp?$AAo?$AAi?$AAn?$AAt?$AAe?$AAr?$AA?$AA@ ; `string'
PUBLIC	??_C@_0BE@LMNLACIC@_Ptr_container?5?$CB?$DN?50?$AA@ ; `string'
PUBLIC	??_C@_1DG@HGDKEBPG@?$AA?$CC?$AA_?$AAP?$AAt?$AAr?$AA_?$AAc?$AAo?$AAn?$AAt?$AAa?$AAi?$AAn?$AAe?$AAr?$AA?5?$AA?$CB?$AA?$DN?$AA?5?$AA0?$AA?$CC?$AA?5?$AA?$CG?$AA?$CG?$AA?5?$AA0?$AA?$AA@ ; `string'
PUBLIC	??_C@_1GI@MOGLCDAO@?$AAD?$AA?3?$AA?2?$AAM?$AAi?$AAc?$AAr?$AAo?$AAs?$AAo?$AAf?$AAt?$AA?5?$AAV?$AAi?$AAs?$AAu?$AAa?$AAl?$AA?5?$AAS?$AAt?$AAu?$AAd?$AAi?$AAo?$AA?5?$AA1?$AA4?$AA?4?$AA0?$AA?2@ ; `string'
PUBLIC	??_C@_1BO@NKFMJPA@?$AAs?$AAt?$AAd?$AA?3?$AA?3?$AA_?$AAA?$AAl?$AAl?$AAo?$AAc?$AAa?$AAt?$AAe?$AA?$AA@ ; `string'
PUBLIC	??_C@_09GLJCAGLP@_Ptr?5?$CB?$DN?50?$AA@		; `string'
PUBLIC	??_C@_1CC@GKJLLHIM@?$AA?$CC?$AA_?$AAP?$AAt?$AAr?$AA?5?$AA?$CB?$AA?$DN?$AA?5?$AA0?$AA?$CC?$AA?5?$AA?$CG?$AA?$CG?$AA?5?$AA0?$AA?$AA@ ; `string'
PUBLIC	??_C@_0CG@FHBDFCGK@_Count?5?$DM?$DN?5?$CIsize_t?$CJ?$CI?91?$CJ?5?1?5sizeof?5@ ; `string'
PUBLIC	??_C@_1FK@EJGLHMGC@?$AA?$CC?$AA_?$AAC?$AAo?$AAu?$AAn?$AAt?$AA?5?$AA?$DM?$AA?$DN?$AA?5?$AA?$CI?$AAs?$AAi?$AAz?$AAe?$AA_?$AAt?$AA?$CJ?$AA?$CI?$AA?9?$AA1?$AA?$CJ?$AA?5?$AA?1?$AA?5?$AAs?$AAi?$AAz?$AAe?$AAo?$AAf@ ; `string'
PUBLIC	??_C@_1CC@LOFJFFDB@?$AAs?$AAt?$AAd?$AA?3?$AA?3?$AA_?$AAD?$AAe?$AAa?$AAl?$AAl?$AAo?$AAc?$AAa?$AAt?$AAe?$AA?$AA@ ; `string'
PUBLIC	??_C@_0DD@GBGGGKGG@?$CI_Ptr_user?5?$CG?5?$CI_BIG_ALLOCATION_AL@ ; `string'
PUBLIC	??_C@_1HE@CDMBFOKC@?$AA?$CC?$AA?$CI?$AA_?$AAP?$AAt?$AAr?$AA_?$AAu?$AAs?$AAe?$AAr?$AA?5?$AA?$CG?$AA?5?$AA?$CI?$AA_?$AAB?$AAI?$AAG?$AA_?$AAA?$AAL?$AAL?$AAO?$AAC?$AAA?$AAT?$AAI?$AAO?$AAN?$AA_?$AAA@ ; `string'
PUBLIC	??_C@_0EI@NOJHEJCJ@reinterpret_cast?$DMuintptr_t?5?$CK?$DO?$CI_P@ ; `string'
PUBLIC	??_C@_1JO@EKLKIEHP@?$AA?$CC?$AAr?$AAe?$AAi?$AAn?$AAt?$AAe?$AAr?$AAp?$AAr?$AAe?$AAt?$AA_?$AAc?$AAa?$AAs?$AAt?$AA?$DM?$AAu?$AAi?$AAn?$AAt?$AAp?$AAt?$AAr?$AA_?$AAt?$AA?5?$AA?$CK?$AA?$DO?$AA?$CI?$AA_@ ; `string'
PUBLIC	??_C@_0BL@OCKMEJON@_Ptr_container?5?$DM?5_Ptr_user?$AA@ ; `string'
PUBLIC	??_C@_1EE@PDHAHDDC@?$AA?$CC?$AA_?$AAP?$AAt?$AAr?$AA_?$AAc?$AAo?$AAn?$AAt?$AAa?$AAi?$AAn?$AAe?$AAr?$AA?5?$AA?$DM?$AA?5?$AA_?$AAP?$AAt?$AAr?$AA_?$AAu?$AAs?$AAe?$AAr?$AA?$CC?$AA?5?$AA?$CG?$AA?$CG?$AA?5@ ; `string'
PUBLIC	??_C@_0DB@GLFJLNCE@2?5?$CK?5sizeof?$CIvoid?5?$CK?$CJ?5?$DM?$DN?5_Ptr_user?5@ ; `string'
PUBLIC	??_C@_1HA@NAPGMHAO@?$AA?$CC?$AA2?$AA?5?$AA?$CK?$AA?5?$AAs?$AAi?$AAz?$AAe?$AAo?$AAf?$AA?$CI?$AAv?$AAo?$AAi?$AAd?$AA?5?$AA?$CK?$AA?$CJ?$AA?5?$AA?$DM?$AA?$DN?$AA?5?$AA_?$AAP?$AAt?$AAr?$AA_?$AAu?$AAs?$AAe?$AAr@ ; `string'
PUBLIC	??_C@_0CN@BLHJCAL@_Ptr_user?5?9?5_Ptr_container?5?$DM?$DN?5_N@ ; `string'
PUBLIC	??_C@_1GI@DHJGPFNI@?$AA?$CC?$AA_?$AAP?$AAt?$AAr?$AA_?$AAu?$AAs?$AAe?$AAr?$AA?5?$AA?9?$AA?5?$AA_?$AAP?$AAt?$AAr?$AA_?$AAc?$AAo?$AAn?$AAt?$AAa?$AAi?$AAn?$AAe?$AAr?$AA?5?$AA?$DM?$AA?$DN?$AA?5?$AA_@ ; `string'
PUBLIC	??_R4exception@std@@6B@				; std::exception::`RTTI Complete Object Locator'
PUBLIC	??_R3exception@std@@8				; std::exception::`RTTI Class Hierarchy Descriptor'
PUBLIC	??_R2exception@std@@8				; std::exception::`RTTI Base Class Array'
PUBLIC	??_R1A@?0A@EA@exception@std@@8			; std::exception::`RTTI Base Class Descriptor at (0,-1,0,64)'
PUBLIC	??_R4runtime_error@std@@6B@			; std::runtime_error::`RTTI Complete Object Locator'
PUBLIC	??_R3runtime_error@std@@8			; std::runtime_error::`RTTI Class Hierarchy Descriptor'
PUBLIC	??_R2runtime_error@std@@8			; std::runtime_error::`RTTI Base Class Array'
PUBLIC	??_R1A@?0A@EA@runtime_error@std@@8		; std::runtime_error::`RTTI Base Class Descriptor at (0,-1,0,64)'
PUBLIC	??_R4Raven_Steering@@6B@			; Raven_Steering::`RTTI Complete Object Locator'
PUBLIC	??_R0?AVRaven_Steering@@@8			; Raven_Steering `RTTI Type Descriptor'
PUBLIC	??_R3Raven_Steering@@8				; Raven_Steering::`RTTI Class Hierarchy Descriptor'
PUBLIC	??_R2Raven_Steering@@8				; Raven_Steering::`RTTI Base Class Array'
PUBLIC	??_R1A@?0A@EA@Raven_Steering@@8			; Raven_Steering::`RTTI Base Class Descriptor at (0,-1,0,64)'
PUBLIC	__real@0000000000000000
PUBLIC	__real@0010000000000000
PUBLIC	__real@00800000
PUBLIC	__real@3cb0000000000000
PUBLIC	__real@3fd3333333333333
PUBLIC	__real@3fe921f9f01b866e
PUBLIC	__real@3ff0000000000000
PUBLIC	__real@3ff3333333333333
PUBLIC	__real@4000000000000000
PUBLIC	__real@4015fdbab21815a0
PUBLIC	__real@401921f9f01b866e
PUBLIC	__real@4044000000000000
PUBLIC	__real@40e0000000000000
PUBLIC	__real@7f7fffff
PUBLIC	__real@7fefffffffffffff
PUBLIC	__xmm@80000000000000008000000000000000
EXTRN	??2@YAPAXI@Z:PROC				; operator new
EXTRN	??3@YAXPAX@Z:PROC				; operator delete
EXTRN	??3@YAXPAXI@Z:PROC				; operator delete
EXTRN	__invalid_parameter:PROC
EXTRN	??0_Lockit@std@@QAE@H@Z:PROC			; std::_Lockit::_Lockit
EXTRN	??1_Lockit@std@@QAE@XZ:PROC			; std::_Lockit::~_Lockit
EXTRN	_rand:PROC
EXTRN	_cos:PROC
EXTRN	_sin:PROC
EXTRN	_sqrt:PROC
EXTRN	_memcpy:PROC
EXTRN	_memmove:PROC
EXTRN	___std_exception_copy:PROC
EXTRN	___std_exception_destroy:PROC
EXTRN	??_Eexception@std@@UAEPAXI@Z:PROC		; std::exception::`vector deleting destructor'
EXTRN	_strlen:PROC
EXTRN	__CrtDbgReportW:PROC
EXTRN	?_Debug_message@std@@YAXPB_W0I@Z:PROC		; std::_Debug_message
EXTRN	?_Xbad_alloc@std@@YAXXZ:PROC			; std::_Xbad_alloc
EXTRN	?_Xlength_error@std@@YAXPBD@Z:PROC		; std::_Xlength_error
EXTRN	?_Xout_of_range@std@@YAXPBD@Z:PROC		; std::_Xout_of_range
EXTRN	??_Eruntime_error@std@@UAEPAXI@Z:PROC		; std::runtime_error::`vector deleting destructor'
EXTRN	??_ERaven_Steering@@UAEPAXI@Z:PROC		; Raven_Steering::`vector deleting destructor'
EXTRN	_lua_settop:PROC
EXTRN	_lua_isnumber:PROC
EXTRN	_lua_tonumber:PROC
EXTRN	_lua_getfield:PROC
EXTRN	?Instance@Raven_Scriptor@@SAPAV1@XZ:PROC	; Raven_Scriptor::Instance
EXTRN	@_RTC_CheckStackVars@8:PROC
EXTRN	@__security_check_cookie@4:PROC
EXTRN	__CxxThrowException@8:PROC
EXTRN	__RTC_CheckEsp:PROC
EXTRN	__RTC_InitBase:PROC
EXTRN	__RTC_Shutdown:PROC
EXTRN	___CxxFrameHandler3:PROC
EXTRN	??_7type_info@@6B@:QWORD			; type_info::`vftable'
EXTRN	___security_cookie:DWORD
EXTRN	__fltused:DWORD
_BSS	SEGMENT
?MaxInt@@3HB DD	01H DUP (?)				; MaxInt
	ALIGN	8

?MaxDouble@@3NB DQ 01H DUP (?)				; MaxDouble
?MinDouble@@3NB DQ 01H DUP (?)				; MinDouble
?MaxFloat@@3MB DD 01H DUP (?)				; MaxFloat
?MinFloat@@3MB DD 01H DUP (?)				; MinFloat
_BSS	ENDS
;	COMDAT ?id@?$codecvt@DDU_Mbstatet@@@std@@2V0locale@2@A
_BSS	SEGMENT
?id@?$codecvt@DDU_Mbstatet@@@std@@2V0locale@2@A DD 01H DUP (?) ; std::codecvt<char,char,_Mbstatet>::id
_BSS	ENDS
;	COMDAT ?id@?$num_put@DV?$ostreambuf_iterator@DU?$char_traits@D@std@@@std@@@std@@2V0locale@2@A
_BSS	SEGMENT
?id@?$num_put@DV?$ostreambuf_iterator@DU?$char_traits@D@std@@@std@@@std@@2V0locale@2@A DD 01H DUP (?) ; std::num_put<char,std::ostreambuf_iterator<char,std::char_traits<char> > >::id
_BSS	ENDS
;	COMDAT ?id@?$num_get@DV?$istreambuf_iterator@DU?$char_traits@D@std@@@std@@@std@@2V0locale@2@A
_BSS	SEGMENT
?id@?$num_get@DV?$istreambuf_iterator@DU?$char_traits@D@std@@@std@@@std@@2V0locale@2@A DD 01H DUP (?) ; std::num_get<char,std::istreambuf_iterator<char,std::char_traits<char> > >::id
_BSS	ENDS
;	COMDAT ?id@?$numpunct@D@std@@2V0locale@2@A
_BSS	SEGMENT
?id@?$numpunct@D@std@@2V0locale@2@A DD 01H DUP (?)	; std::numpunct<char>::id
_BSS	ENDS
CRT$XCU	SEGMENT
?MaxInt$initializer$@@3P6AXXZA DD FLAT:??__EMaxInt@@YAXXZ ; MaxInt$initializer$
CRT$XCU	ENDS
;	COMDAT __xmm@80000000000000008000000000000000
CONST	SEGMENT
__xmm@80000000000000008000000000000000 DB 00H, 00H, 00H, 00H, 00H, 00H, 00H
	DB	080H, 00H, 00H, 00H, 00H, 00H, 00H, 00H, 080H
CONST	ENDS
;	COMDAT __real@7fefffffffffffff
CONST	SEGMENT
__real@7fefffffffffffff DQ 07fefffffffffffffr	; 1.79769e+308
CONST	ENDS
;	COMDAT __real@7f7fffff
CONST	SEGMENT
__real@7f7fffff DD 07f7fffffr			; 3.40282e+38
CONST	ENDS
;	COMDAT __real@40e0000000000000
CONST	SEGMENT
__real@40e0000000000000 DQ 040e0000000000000r	; 32768
CONST	ENDS
;	COMDAT __real@4044000000000000
CONST	SEGMENT
__real@4044000000000000 DQ 04044000000000000r	; 40
CONST	ENDS
;	COMDAT __real@401921f9f01b866e
CONST	SEGMENT
__real@401921f9f01b866e DQ 0401921f9f01b866er	; 6.28318
CONST	ENDS
;	COMDAT __real@4015fdbab21815a0
CONST	SEGMENT
__real@4015fdbab21815a0 DQ 04015fdbab21815a0r	; 5.49778
CONST	ENDS
;	COMDAT __real@4000000000000000
CONST	SEGMENT
__real@4000000000000000 DQ 04000000000000000r	; 2
CONST	ENDS
;	COMDAT __real@3ff3333333333333
CONST	SEGMENT
__real@3ff3333333333333 DQ 03ff3333333333333r	; 1.2
CONST	ENDS
;	COMDAT __real@3ff0000000000000
CONST	SEGMENT
__real@3ff0000000000000 DQ 03ff0000000000000r	; 1
CONST	ENDS
;	COMDAT __real@3fe921f9f01b866e
CONST	SEGMENT
__real@3fe921f9f01b866e DQ 03fe921f9f01b866er	; 0.785397
CONST	ENDS
;	COMDAT __real@3fd3333333333333
CONST	SEGMENT
__real@3fd3333333333333 DQ 03fd3333333333333r	; 0.3
CONST	ENDS
;	COMDAT __real@3cb0000000000000
CONST	SEGMENT
__real@3cb0000000000000 DQ 03cb0000000000000r	; 2.22045e-16
CONST	ENDS
;	COMDAT __real@00800000
CONST	SEGMENT
__real@00800000 DD 000800000r			; 1.17549e-38
CONST	ENDS
;	COMDAT __real@0010000000000000
CONST	SEGMENT
__real@0010000000000000 DQ 00010000000000000r	; 2.22507e-308
CONST	ENDS
;	COMDAT __real@0000000000000000
CONST	SEGMENT
__real@0000000000000000 DQ 00000000000000000r	; 0
CONST	ENDS
;	COMDAT rtc$TMZ
rtc$TMZ	SEGMENT
__RTC_Shutdown.rtc$TMZ DD FLAT:__RTC_Shutdown
rtc$TMZ	ENDS
;	COMDAT rtc$IMZ
rtc$IMZ	SEGMENT
__RTC_InitBase.rtc$IMZ DD FLAT:__RTC_InitBase
rtc$IMZ	ENDS
;	COMDAT ??_R1A@?0A@EA@Raven_Steering@@8
rdata$r	SEGMENT
??_R1A@?0A@EA@Raven_Steering@@8 DD FLAT:??_R0?AVRaven_Steering@@@8 ; Raven_Steering::`RTTI Base Class Descriptor at (0,-1,0,64)'
	DD	00H
	DD	00H
	DD	0ffffffffH
	DD	00H
	DD	040H
	DD	FLAT:??_R3Raven_Steering@@8
rdata$r	ENDS
;	COMDAT ??_R2Raven_Steering@@8
rdata$r	SEGMENT
??_R2Raven_Steering@@8 DD FLAT:??_R1A@?0A@EA@Raven_Steering@@8 ; Raven_Steering::`RTTI Base Class Array'
rdata$r	ENDS
;	COMDAT ??_R3Raven_Steering@@8
rdata$r	SEGMENT
??_R3Raven_Steering@@8 DD 00H				; Raven_Steering::`RTTI Class Hierarchy Descriptor'
	DD	00H
	DD	01H
	DD	FLAT:??_R2Raven_Steering@@8
rdata$r	ENDS
;	COMDAT ??_R0?AVRaven_Steering@@@8
data$r	SEGMENT
??_R0?AVRaven_Steering@@@8 DD FLAT:??_7type_info@@6B@	; Raven_Steering `RTTI Type Descriptor'
	DD	00H
	DB	'.?AVRaven_Steering@@', 00H
data$r	ENDS
;	COMDAT ??_R4Raven_Steering@@6B@
rdata$r	SEGMENT
??_R4Raven_Steering@@6B@ DD 00H				; Raven_Steering::`RTTI Complete Object Locator'
	DD	00H
	DD	00H
	DD	FLAT:??_R0?AVRaven_Steering@@@8
	DD	FLAT:??_R3Raven_Steering@@8
rdata$r	ENDS
;	COMDAT ??_R1A@?0A@EA@runtime_error@std@@8
rdata$r	SEGMENT
??_R1A@?0A@EA@runtime_error@std@@8 DD FLAT:??_R0?AVruntime_error@std@@@8 ; std::runtime_error::`RTTI Base Class Descriptor at (0,-1,0,64)'
	DD	01H
	DD	00H
	DD	0ffffffffH
	DD	00H
	DD	040H
	DD	FLAT:??_R3runtime_error@std@@8
rdata$r	ENDS
;	COMDAT ??_R2runtime_error@std@@8
rdata$r	SEGMENT
??_R2runtime_error@std@@8 DD FLAT:??_R1A@?0A@EA@runtime_error@std@@8 ; std::runtime_error::`RTTI Base Class Array'
	DD	FLAT:??_R1A@?0A@EA@exception@std@@8
rdata$r	ENDS
;	COMDAT ??_R3runtime_error@std@@8
rdata$r	SEGMENT
??_R3runtime_error@std@@8 DD 00H			; std::runtime_error::`RTTI Class Hierarchy Descriptor'
	DD	00H
	DD	02H
	DD	FLAT:??_R2runtime_error@std@@8
rdata$r	ENDS
;	COMDAT ??_R4runtime_error@std@@6B@
rdata$r	SEGMENT
??_R4runtime_error@std@@6B@ DD 00H			; std::runtime_error::`RTTI Complete Object Locator'
	DD	00H
	DD	00H
	DD	FLAT:??_R0?AVruntime_error@std@@@8
	DD	FLAT:??_R3runtime_error@std@@8
rdata$r	ENDS
;	COMDAT ??_R1A@?0A@EA@exception@std@@8
rdata$r	SEGMENT
??_R1A@?0A@EA@exception@std@@8 DD FLAT:??_R0?AVexception@std@@@8 ; std::exception::`RTTI Base Class Descriptor at (0,-1,0,64)'
	DD	00H
	DD	00H
	DD	0ffffffffH
	DD	00H
	DD	040H
	DD	FLAT:??_R3exception@std@@8
rdata$r	ENDS
;	COMDAT ??_R2exception@std@@8
rdata$r	SEGMENT
??_R2exception@std@@8 DD FLAT:??_R1A@?0A@EA@exception@std@@8 ; std::exception::`RTTI Base Class Array'
rdata$r	ENDS
;	COMDAT ??_R3exception@std@@8
rdata$r	SEGMENT
??_R3exception@std@@8 DD 00H				; std::exception::`RTTI Class Hierarchy Descriptor'
	DD	00H
	DD	01H
	DD	FLAT:??_R2exception@std@@8
rdata$r	ENDS
;	COMDAT ??_R4exception@std@@6B@
rdata$r	SEGMENT
??_R4exception@std@@6B@ DD 00H				; std::exception::`RTTI Complete Object Locator'
	DD	00H
	DD	00H
	DD	FLAT:??_R0?AVexception@std@@@8
	DD	FLAT:??_R3exception@std@@8
rdata$r	ENDS
;	COMDAT ??_C@_1GI@DHJGPFNI@?$AA?$CC?$AA_?$AAP?$AAt?$AAr?$AA_?$AAu?$AAs?$AAe?$AAr?$AA?5?$AA?9?$AA?5?$AA_?$AAP?$AAt?$AAr?$AA_?$AAc?$AAo?$AAn?$AAt?$AAa?$AAi?$AAn?$AAe?$AAr?$AA?5?$AA?$DM?$AA?$DN?$AA?5?$AA_@
CONST	SEGMENT
??_C@_1GI@DHJGPFNI@?$AA?$CC?$AA_?$AAP?$AAt?$AAr?$AA_?$AAu?$AAs?$AAe?$AAr?$AA?5?$AA?9?$AA?5?$AA_?$AAP?$AAt?$AAr?$AA_?$AAc?$AAo?$AAn?$AAt?$AAa?$AAi?$AAn?$AAe?$AAr?$AA?5?$AA?$DM?$AA?$DN?$AA?5?$AA_@ DB '"'
	DB	00H, '_', 00H, 'P', 00H, 't', 00H, 'r', 00H, '_', 00H, 'u', 00H
	DB	's', 00H, 'e', 00H, 'r', 00H, ' ', 00H, '-', 00H, ' ', 00H, '_'
	DB	00H, 'P', 00H, 't', 00H, 'r', 00H, '_', 00H, 'c', 00H, 'o', 00H
	DB	'n', 00H, 't', 00H, 'a', 00H, 'i', 00H, 'n', 00H, 'e', 00H, 'r'
	DB	00H, ' ', 00H, '<', 00H, '=', 00H, ' ', 00H, '_', 00H, 'N', 00H
	DB	'O', 00H, 'N', 00H, '_', 00H, 'U', 00H, 'S', 00H, 'E', 00H, 'R'
	DB	00H, '_', 00H, 'S', 00H, 'I', 00H, 'Z', 00H, 'E', 00H, '"', 00H
	DB	' ', 00H, '&', 00H, '&', 00H, ' ', 00H, '0', 00H, 00H, 00H ; `string'
CONST	ENDS
;	COMDAT ??_C@_0CN@BLHJCAL@_Ptr_user?5?9?5_Ptr_container?5?$DM?$DN?5_N@
CONST	SEGMENT
??_C@_0CN@BLHJCAL@_Ptr_user?5?9?5_Ptr_container?5?$DM?$DN?5_N@ DB '_Ptr_u'
	DB	'ser - _Ptr_container <= _NON_USER_SIZE', 00H ; `string'
CONST	ENDS
;	COMDAT ??_C@_1HA@NAPGMHAO@?$AA?$CC?$AA2?$AA?5?$AA?$CK?$AA?5?$AAs?$AAi?$AAz?$AAe?$AAo?$AAf?$AA?$CI?$AAv?$AAo?$AAi?$AAd?$AA?5?$AA?$CK?$AA?$CJ?$AA?5?$AA?$DM?$AA?$DN?$AA?5?$AA_?$AAP?$AAt?$AAr?$AA_?$AAu?$AAs?$AAe?$AAr@
CONST	SEGMENT
??_C@_1HA@NAPGMHAO@?$AA?$CC?$AA2?$AA?5?$AA?$CK?$AA?5?$AAs?$AAi?$AAz?$AAe?$AAo?$AAf?$AA?$CI?$AAv?$AAo?$AAi?$AAd?$AA?5?$AA?$CK?$AA?$CJ?$AA?5?$AA?$DM?$AA?$DN?$AA?5?$AA_?$AAP?$AAt?$AAr?$AA_?$AAu?$AAs?$AAe?$AAr@ DB '"'
	DB	00H, '2', 00H, ' ', 00H, '*', 00H, ' ', 00H, 's', 00H, 'i', 00H
	DB	'z', 00H, 'e', 00H, 'o', 00H, 'f', 00H, '(', 00H, 'v', 00H, 'o'
	DB	00H, 'i', 00H, 'd', 00H, ' ', 00H, '*', 00H, ')', 00H, ' ', 00H
	DB	'<', 00H, '=', 00H, ' ', 00H, '_', 00H, 'P', 00H, 't', 00H, 'r'
	DB	00H, '_', 00H, 'u', 00H, 's', 00H, 'e', 00H, 'r', 00H, ' ', 00H
	DB	'-', 00H, ' ', 00H, '_', 00H, 'P', 00H, 't', 00H, 'r', 00H, '_'
	DB	00H, 'c', 00H, 'o', 00H, 'n', 00H, 't', 00H, 'a', 00H, 'i', 00H
	DB	'n', 00H, 'e', 00H, 'r', 00H, '"', 00H, ' ', 00H, '&', 00H, '&'
	DB	00H, ' ', 00H, '0', 00H, 00H, 00H		; `string'
CONST	ENDS
;	COMDAT ??_C@_0DB@GLFJLNCE@2?5?$CK?5sizeof?$CIvoid?5?$CK?$CJ?5?$DM?$DN?5_Ptr_user?5@
CONST	SEGMENT
??_C@_0DB@GLFJLNCE@2?5?$CK?5sizeof?$CIvoid?5?$CK?$CJ?5?$DM?$DN?5_Ptr_user?5@ DB '2'
	DB	' * sizeof(void *) <= _Ptr_user - _Ptr_container', 00H ; `string'
CONST	ENDS
;	COMDAT ??_C@_1EE@PDHAHDDC@?$AA?$CC?$AA_?$AAP?$AAt?$AAr?$AA_?$AAc?$AAo?$AAn?$AAt?$AAa?$AAi?$AAn?$AAe?$AAr?$AA?5?$AA?$DM?$AA?5?$AA_?$AAP?$AAt?$AAr?$AA_?$AAu?$AAs?$AAe?$AAr?$AA?$CC?$AA?5?$AA?$CG?$AA?$CG?$AA?5@
CONST	SEGMENT
??_C@_1EE@PDHAHDDC@?$AA?$CC?$AA_?$AAP?$AAt?$AAr?$AA_?$AAc?$AAo?$AAn?$AAt?$AAa?$AAi?$AAn?$AAe?$AAr?$AA?5?$AA?$DM?$AA?5?$AA_?$AAP?$AAt?$AAr?$AA_?$AAu?$AAs?$AAe?$AAr?$AA?$CC?$AA?5?$AA?$CG?$AA?$CG?$AA?5@ DB '"'
	DB	00H, '_', 00H, 'P', 00H, 't', 00H, 'r', 00H, '_', 00H, 'c', 00H
	DB	'o', 00H, 'n', 00H, 't', 00H, 'a', 00H, 'i', 00H, 'n', 00H, 'e'
	DB	00H, 'r', 00H, ' ', 00H, '<', 00H, ' ', 00H, '_', 00H, 'P', 00H
	DB	't', 00H, 'r', 00H, '_', 00H, 'u', 00H, 's', 00H, 'e', 00H, 'r'
	DB	00H, '"', 00H, ' ', 00H, '&', 00H, '&', 00H, ' ', 00H, '0', 00H
	DB	00H, 00H					; `string'
CONST	ENDS
;	COMDAT ??_C@_0BL@OCKMEJON@_Ptr_container?5?$DM?5_Ptr_user?$AA@
CONST	SEGMENT
??_C@_0BL@OCKMEJON@_Ptr_container?5?$DM?5_Ptr_user?$AA@ DB '_Ptr_containe'
	DB	'r < _Ptr_user', 00H				; `string'
CONST	ENDS
;	COMDAT ??_C@_1JO@EKLKIEHP@?$AA?$CC?$AAr?$AAe?$AAi?$AAn?$AAt?$AAe?$AAr?$AAp?$AAr?$AAe?$AAt?$AA_?$AAc?$AAa?$AAs?$AAt?$AA?$DM?$AAu?$AAi?$AAn?$AAt?$AAp?$AAt?$AAr?$AA_?$AAt?$AA?5?$AA?$CK?$AA?$DO?$AA?$CI?$AA_@
CONST	SEGMENT
??_C@_1JO@EKLKIEHP@?$AA?$CC?$AAr?$AAe?$AAi?$AAn?$AAt?$AAe?$AAr?$AAp?$AAr?$AAe?$AAt?$AA_?$AAc?$AAa?$AAs?$AAt?$AA?$DM?$AAu?$AAi?$AAn?$AAt?$AAp?$AAt?$AAr?$AA_?$AAt?$AA?5?$AA?$CK?$AA?$DO?$AA?$CI?$AA_@ DB '"'
	DB	00H, 'r', 00H, 'e', 00H, 'i', 00H, 'n', 00H, 't', 00H, 'e', 00H
	DB	'r', 00H, 'p', 00H, 'r', 00H, 'e', 00H, 't', 00H, '_', 00H, 'c'
	DB	00H, 'a', 00H, 's', 00H, 't', 00H, '<', 00H, 'u', 00H, 'i', 00H
	DB	'n', 00H, 't', 00H, 'p', 00H, 't', 00H, 'r', 00H, '_', 00H, 't'
	DB	00H, ' ', 00H, '*', 00H, '>', 00H, '(', 00H, '_', 00H, 'P', 00H
	DB	't', 00H, 'r', 00H, '_', 00H, 'p', 00H, 't', 00H, 'r', 00H, ')'
	DB	00H, '[', 00H, '-', 00H, '1', 00H, ']', 00H, ' ', 00H, '=', 00H
	DB	'=', 00H, ' ', 00H, '_', 00H, 'B', 00H, 'I', 00H, 'G', 00H, '_'
	DB	00H, 'A', 00H, 'L', 00H, 'L', 00H, 'O', 00H, 'C', 00H, 'A', 00H
	DB	'T', 00H, 'I', 00H, 'O', 00H, 'N', 00H, '_', 00H, 'S', 00H, 'E'
	DB	00H, 'N', 00H, 'T', 00H, 'I', 00H, 'N', 00H, 'E', 00H, 'L', 00H
	DB	'"', 00H, ' ', 00H, '&', 00H, '&', 00H, ' ', 00H, '0', 00H, 00H
	DB	00H						; `string'
CONST	ENDS
;	COMDAT ??_C@_0EI@NOJHEJCJ@reinterpret_cast?$DMuintptr_t?5?$CK?$DO?$CI_P@
CONST	SEGMENT
??_C@_0EI@NOJHEJCJ@reinterpret_cast?$DMuintptr_t?5?$CK?$DO?$CI_P@ DB 'rei'
	DB	'nterpret_cast<uintptr_t *>(_Ptr_ptr)[-1] == _BIG_ALLOCATION_S'
	DB	'ENTINEL', 00H				; `string'
CONST	ENDS
;	COMDAT ??_C@_1HE@CDMBFOKC@?$AA?$CC?$AA?$CI?$AA_?$AAP?$AAt?$AAr?$AA_?$AAu?$AAs?$AAe?$AAr?$AA?5?$AA?$CG?$AA?5?$AA?$CI?$AA_?$AAB?$AAI?$AAG?$AA_?$AAA?$AAL?$AAL?$AAO?$AAC?$AAA?$AAT?$AAI?$AAO?$AAN?$AA_?$AAA@
CONST	SEGMENT
??_C@_1HE@CDMBFOKC@?$AA?$CC?$AA?$CI?$AA_?$AAP?$AAt?$AAr?$AA_?$AAu?$AAs?$AAe?$AAr?$AA?5?$AA?$CG?$AA?5?$AA?$CI?$AA_?$AAB?$AAI?$AAG?$AA_?$AAA?$AAL?$AAL?$AAO?$AAC?$AAA?$AAT?$AAI?$AAO?$AAN?$AA_?$AAA@ DB '"'
	DB	00H, '(', 00H, '_', 00H, 'P', 00H, 't', 00H, 'r', 00H, '_', 00H
	DB	'u', 00H, 's', 00H, 'e', 00H, 'r', 00H, ' ', 00H, '&', 00H, ' '
	DB	00H, '(', 00H, '_', 00H, 'B', 00H, 'I', 00H, 'G', 00H, '_', 00H
	DB	'A', 00H, 'L', 00H, 'L', 00H, 'O', 00H, 'C', 00H, 'A', 00H, 'T'
	DB	00H, 'I', 00H, 'O', 00H, 'N', 00H, '_', 00H, 'A', 00H, 'L', 00H
	DB	'I', 00H, 'G', 00H, 'N', 00H, 'M', 00H, 'E', 00H, 'N', 00H, 'T'
	DB	00H, ' ', 00H, '-', 00H, ' ', 00H, '1', 00H, ')', 00H, ')', 00H
	DB	' ', 00H, '=', 00H, '=', 00H, ' ', 00H, '0', 00H, '"', 00H, ' '
	DB	00H, '&', 00H, '&', 00H, ' ', 00H, '0', 00H, 00H, 00H ; `string'
CONST	ENDS
;	COMDAT ??_C@_0DD@GBGGGKGG@?$CI_Ptr_user?5?$CG?5?$CI_BIG_ALLOCATION_AL@
CONST	SEGMENT
??_C@_0DD@GBGGGKGG@?$CI_Ptr_user?5?$CG?5?$CI_BIG_ALLOCATION_AL@ DB '(_Ptr'
	DB	'_user & (_BIG_ALLOCATION_ALIGNMENT - 1)) == 0', 00H ; `string'
CONST	ENDS
;	COMDAT ??_C@_1CC@LOFJFFDB@?$AAs?$AAt?$AAd?$AA?3?$AA?3?$AA_?$AAD?$AAe?$AAa?$AAl?$AAl?$AAo?$AAc?$AAa?$AAt?$AAe?$AA?$AA@
CONST	SEGMENT
??_C@_1CC@LOFJFFDB@?$AAs?$AAt?$AAd?$AA?3?$AA?3?$AA_?$AAD?$AAe?$AAa?$AAl?$AAl?$AAo?$AAc?$AAa?$AAt?$AAe?$AA?$AA@ DB 's'
	DB	00H, 't', 00H, 'd', 00H, ':', 00H, ':', 00H, '_', 00H, 'D', 00H
	DB	'e', 00H, 'a', 00H, 'l', 00H, 'l', 00H, 'o', 00H, 'c', 00H, 'a'
	DB	00H, 't', 00H, 'e', 00H, 00H, 00H		; `string'
CONST	ENDS
;	COMDAT ??_C@_1FK@EJGLHMGC@?$AA?$CC?$AA_?$AAC?$AAo?$AAu?$AAn?$AAt?$AA?5?$AA?$DM?$AA?$DN?$AA?5?$AA?$CI?$AAs?$AAi?$AAz?$AAe?$AA_?$AAt?$AA?$CJ?$AA?$CI?$AA?9?$AA1?$AA?$CJ?$AA?5?$AA?1?$AA?5?$AAs?$AAi?$AAz?$AAe?$AAo?$AAf@
CONST	SEGMENT
??_C@_1FK@EJGLHMGC@?$AA?$CC?$AA_?$AAC?$AAo?$AAu?$AAn?$AAt?$AA?5?$AA?$DM?$AA?$DN?$AA?5?$AA?$CI?$AAs?$AAi?$AAz?$AAe?$AA_?$AAt?$AA?$CJ?$AA?$CI?$AA?9?$AA1?$AA?$CJ?$AA?5?$AA?1?$AA?5?$AAs?$AAi?$AAz?$AAe?$AAo?$AAf@ DB '"'
	DB	00H, '_', 00H, 'C', 00H, 'o', 00H, 'u', 00H, 'n', 00H, 't', 00H
	DB	' ', 00H, '<', 00H, '=', 00H, ' ', 00H, '(', 00H, 's', 00H, 'i'
	DB	00H, 'z', 00H, 'e', 00H, '_', 00H, 't', 00H, ')', 00H, '(', 00H
	DB	'-', 00H, '1', 00H, ')', 00H, ' ', 00H, '/', 00H, ' ', 00H, 's'
	DB	00H, 'i', 00H, 'z', 00H, 'e', 00H, 'o', 00H, 'f', 00H, ' ', 00H
	DB	'(', 00H, '_', 00H, 'T', 00H, 'y', 00H, ')', 00H, '"', 00H, ' '
	DB	00H, '&', 00H, '&', 00H, ' ', 00H, '0', 00H, 00H, 00H ; `string'
CONST	ENDS
;	COMDAT ??_C@_0CG@FHBDFCGK@_Count?5?$DM?$DN?5?$CIsize_t?$CJ?$CI?91?$CJ?5?1?5sizeof?5@
CONST	SEGMENT
??_C@_0CG@FHBDFCGK@_Count?5?$DM?$DN?5?$CIsize_t?$CJ?$CI?91?$CJ?5?1?5sizeof?5@ DB '_'
	DB	'Count <= (size_t)(-1) / sizeof (_Ty)', 00H	; `string'
CONST	ENDS
;	COMDAT ??_C@_1CC@GKJLLHIM@?$AA?$CC?$AA_?$AAP?$AAt?$AAr?$AA?5?$AA?$CB?$AA?$DN?$AA?5?$AA0?$AA?$CC?$AA?5?$AA?$CG?$AA?$CG?$AA?5?$AA0?$AA?$AA@
CONST	SEGMENT
??_C@_1CC@GKJLLHIM@?$AA?$CC?$AA_?$AAP?$AAt?$AAr?$AA?5?$AA?$CB?$AA?$DN?$AA?5?$AA0?$AA?$CC?$AA?5?$AA?$CG?$AA?$CG?$AA?5?$AA0?$AA?$AA@ DB '"'
	DB	00H, '_', 00H, 'P', 00H, 't', 00H, 'r', 00H, ' ', 00H, '!', 00H
	DB	'=', 00H, ' ', 00H, '0', 00H, '"', 00H, ' ', 00H, '&', 00H, '&'
	DB	00H, ' ', 00H, '0', 00H, 00H, 00H		; `string'
CONST	ENDS
;	COMDAT ??_C@_09GLJCAGLP@_Ptr?5?$CB?$DN?50?$AA@
CONST	SEGMENT
??_C@_09GLJCAGLP@_Ptr?5?$CB?$DN?50?$AA@ DB '_Ptr != 0', 00H ; `string'
CONST	ENDS
;	COMDAT ??_C@_1BO@NKFMJPA@?$AAs?$AAt?$AAd?$AA?3?$AA?3?$AA_?$AAA?$AAl?$AAl?$AAo?$AAc?$AAa?$AAt?$AAe?$AA?$AA@
CONST	SEGMENT
??_C@_1BO@NKFMJPA@?$AAs?$AAt?$AAd?$AA?3?$AA?3?$AA_?$AAA?$AAl?$AAl?$AAo?$AAc?$AAa?$AAt?$AAe?$AA?$AA@ DB 's'
	DB	00H, 't', 00H, 'd', 00H, ':', 00H, ':', 00H, '_', 00H, 'A', 00H
	DB	'l', 00H, 'l', 00H, 'o', 00H, 'c', 00H, 'a', 00H, 't', 00H, 'e'
	DB	00H, 00H, 00H				; `string'
CONST	ENDS
;	COMDAT ??_C@_1GI@MOGLCDAO@?$AAD?$AA?3?$AA?2?$AAM?$AAi?$AAc?$AAr?$AAo?$AAs?$AAo?$AAf?$AAt?$AA?5?$AAV?$AAi?$AAs?$AAu?$AAa?$AAl?$AA?5?$AAS?$AAt?$AAu?$AAd?$AAi?$AAo?$AA?5?$AA1?$AA4?$AA?4?$AA0?$AA?2@
CONST	SEGMENT
??_C@_1GI@MOGLCDAO@?$AAD?$AA?3?$AA?2?$AAM?$AAi?$AAc?$AAr?$AAo?$AAs?$AAo?$AAf?$AAt?$AA?5?$AAV?$AAi?$AAs?$AAu?$AAa?$AAl?$AA?5?$AAS?$AAt?$AAu?$AAd?$AAi?$AAo?$AA?5?$AA1?$AA4?$AA?4?$AA0?$AA?2@ DB 'D'
	DB	00H, ':', 00H, '\', 00H, 'M', 00H, 'i', 00H, 'c', 00H, 'r', 00H
	DB	'o', 00H, 's', 00H, 'o', 00H, 'f', 00H, 't', 00H, ' ', 00H, 'V'
	DB	00H, 'i', 00H, 's', 00H, 'u', 00H, 'a', 00H, 'l', 00H, ' ', 00H
	DB	'S', 00H, 't', 00H, 'u', 00H, 'd', 00H, 'i', 00H, 'o', 00H, ' '
	DB	00H, '1', 00H, '4', 00H, '.', 00H, '0', 00H, '\', 00H, 'V', 00H
	DB	'C', 00H, '\', 00H, 'i', 00H, 'n', 00H, 'c', 00H, 'l', 00H, 'u'
	DB	00H, 'd', 00H, 'e', 00H, '\', 00H, 'x', 00H, 'm', 00H, 'e', 00H
	DB	'm', 00H, 'o', 00H, 'r', 00H, 'y', 00H, '0', 00H, 00H, 00H ; `string'
CONST	ENDS
;	COMDAT ??_C@_1DG@HGDKEBPG@?$AA?$CC?$AA_?$AAP?$AAt?$AAr?$AA_?$AAc?$AAo?$AAn?$AAt?$AAa?$AAi?$AAn?$AAe?$AAr?$AA?5?$AA?$CB?$AA?$DN?$AA?5?$AA0?$AA?$CC?$AA?5?$AA?$CG?$AA?$CG?$AA?5?$AA0?$AA?$AA@
CONST	SEGMENT
??_C@_1DG@HGDKEBPG@?$AA?$CC?$AA_?$AAP?$AAt?$AAr?$AA_?$AAc?$AAo?$AAn?$AAt?$AAa?$AAi?$AAn?$AAe?$AAr?$AA?5?$AA?$CB?$AA?$DN?$AA?5?$AA0?$AA?$CC?$AA?5?$AA?$CG?$AA?$CG?$AA?5?$AA0?$AA?$AA@ DB '"'
	DB	00H, '_', 00H, 'P', 00H, 't', 00H, 'r', 00H, '_', 00H, 'c', 00H
	DB	'o', 00H, 'n', 00H, 't', 00H, 'a', 00H, 'i', 00H, 'n', 00H, 'e'
	DB	00H, 'r', 00H, ' ', 00H, '!', 00H, '=', 00H, ' ', 00H, '0', 00H
	DB	'"', 00H, ' ', 00H, '&', 00H, '&', 00H, ' ', 00H, '0', 00H, 00H
	DB	00H						; `string'
CONST	ENDS
;	COMDAT ??_C@_0BE@LMNLACIC@_Ptr_container?5?$CB?$DN?50?$AA@
CONST	SEGMENT
??_C@_0BE@LMNLACIC@_Ptr_container?5?$CB?$DN?50?$AA@ DB '_Ptr_container !='
	DB	' 0', 00H					; `string'
CONST	ENDS
;	COMDAT ??_C@_1CK@EOPGIILJ@?$AAi?$AAn?$AAv?$AAa?$AAl?$AAi?$AAd?$AA?5?$AAn?$AAu?$AAl?$AAl?$AA?5?$AAp?$AAo?$AAi?$AAn?$AAt?$AAe?$AAr?$AA?$AA@
CONST	SEGMENT
??_C@_1CK@EOPGIILJ@?$AAi?$AAn?$AAv?$AAa?$AAl?$AAi?$AAd?$AA?5?$AAn?$AAu?$AAl?$AAl?$AA?5?$AAp?$AAo?$AAi?$AAn?$AAt?$AAe?$AAr?$AA?$AA@ DB 'i'
	DB	00H, 'n', 00H, 'v', 00H, 'a', 00H, 'l', 00H, 'i', 00H, 'd', 00H
	DB	' ', 00H, 'n', 00H, 'u', 00H, 'l', 00H, 'l', 00H, ' ', 00H, 'p'
	DB	00H, 'o', 00H, 'i', 00H, 'n', 00H, 't', 00H, 'e', 00H, 'r', 00H
	DB	00H, 00H					; `string'
CONST	ENDS
;	COMDAT ??_C@_0CB@NOKEJIID@?$DMPopLuaNumber?$DO?5Cannot?5retrieve?3?5@
CONST	SEGMENT
??_C@_0CB@NOKEJIID@?$DMPopLuaNumber?$DO?5Cannot?5retrieve?3?5@ DB '<PopLu'
	DB	'aNumber> Cannot retrieve: ', 00H		; `string'
CONST	ENDS
;	COMDAT ??_C@_0BA@JFNIOLAK@string?5too?5long?$AA@
CONST	SEGMENT
??_C@_0BA@JFNIOLAK@string?5too?5long?$AA@ DB 'string too long', 00H ; `string'
CONST	ENDS
;	COMDAT ??_C@_0BI@CFPLBAOH@invalid?5string?5position?$AA@
CONST	SEGMENT
??_C@_0BI@CFPLBAOH@invalid?5string?5position?$AA@ DB 'invalid string posi'
	DB	'tion', 00H					; `string'
CONST	ENDS
;	COMDAT ??_C@_0BD@OLBABOEK@vector?$DMT?$DO?5too?5long?$AA@
CONST	SEGMENT
??_C@_0BD@OLBABOEK@vector?$DMT?$DO?5too?5long?$AA@ DB 'vector<T> too long'
	DB	00H						; `string'
CONST	ENDS
;	COMDAT ??_C@_1CG@JNLFBNGN@?$AA?$CC?$AAi?$AAn?$AAv?$AAa?$AAl?$AAi?$AAd?$AA?5?$AAa?$AAr?$AAg?$AAu?$AAm?$AAe?$AAn?$AAt?$AA?$CC?$AA?$AA@
CONST	SEGMENT
??_C@_1CG@JNLFBNGN@?$AA?$CC?$AAi?$AAn?$AAv?$AAa?$AAl?$AAi?$AAd?$AA?5?$AAa?$AAr?$AAg?$AAu?$AAm?$AAe?$AAn?$AAt?$AA?$CC?$AA?$AA@ DB '"'
	DB	00H, 'i', 00H, 'n', 00H, 'v', 00H, 'a', 00H, 'l', 00H, 'i', 00H
	DB	'd', 00H, ' ', 00H, 'a', 00H, 'r', 00H, 'g', 00H, 'u', 00H, 'm'
	DB	00H, 'e', 00H, 'n', 00H, 't', 00H, '"', 00H, 00H, 00H ; `string'
CONST	ENDS
;	COMDAT ??_C@_1OE@HJIALJKP@?$AAs?$AAt?$AAd?$AA?3?$AA?3?$AA_?$AAL?$AAi?$AAs?$AAt?$AA_?$AAc?$AAo?$AAn?$AAs?$AAt?$AA_?$AAi?$AAt?$AAe?$AAr?$AAa?$AAt?$AAo?$AAr?$AA?$DM?$AAc?$AAl?$AAa?$AAs?$AAs?$AA?5@
CONST	SEGMENT
??_C@_1OE@HJIALJKP@?$AAs?$AAt?$AAd?$AA?3?$AA?3?$AA_?$AAL?$AAi?$AAs?$AAt?$AA_?$AAc?$AAo?$AAn?$AAs?$AAt?$AA_?$AAi?$AAt?$AAe?$AAr?$AAa?$AAt?$AAo?$AAr?$AA?$DM?$AAc?$AAl?$AAa?$AAs?$AAs?$AA?5@ DB 's'
	DB	00H, 't', 00H, 'd', 00H, ':', 00H, ':', 00H, '_', 00H, 'L', 00H
	DB	'i', 00H, 's', 00H, 't', 00H, '_', 00H, 'c', 00H, 'o', 00H, 'n'
	DB	00H, 's', 00H, 't', 00H, '_', 00H, 'i', 00H, 't', 00H, 'e', 00H
	DB	'r', 00H, 'a', 00H, 't', 00H, 'o', 00H, 'r', 00H, '<', 00H, 'c'
	DB	00H, 'l', 00H, 'a', 00H, 's', 00H, 's', 00H, ' ', 00H, 's', 00H
	DB	't', 00H, 'd', 00H, ':', 00H, ':', 00H, '_', 00H, 'L', 00H, 'i'
	DB	00H, 's', 00H, 't', 00H, '_', 00H, 'v', 00H, 'a', 00H, 'l', 00H
	DB	'<', 00H, 's', 00H, 't', 00H, 'r', 00H, 'u', 00H, 'c', 00H, 't'
	DB	00H, ' ', 00H, 's', 00H, 't', 00H, 'd', 00H, ':', 00H, ':', 00H
	DB	'_', 00H, 'L', 00H, 'i', 00H, 's', 00H, 't', 00H, '_', 00H, 's'
	DB	00H, 'i', 00H, 'm', 00H, 'p', 00H, 'l', 00H, 'e', 00H, '_', 00H
	DB	't', 00H, 'y', 00H, 'p', 00H, 'e', 00H, 's', 00H, '<', 00H, 'c'
	DB	00H, 'l', 00H, 'a', 00H, 's', 00H, 's', 00H, ' ', 00H, 'R', 00H
	DB	'a', 00H, 'v', 00H, 'e', 00H, 'n', 00H, '_', 00H, 'B', 00H, 'o'
	DB	00H, 't', 00H, ' ', 00H, '*', 00H, '>', 00H, ' ', 00H, '>', 00H
	DB	' ', 00H, '>', 00H, ':', 00H, ':', 00H, 'o', 00H, 'p', 00H, 'e'
	DB	00H, 'r', 00H, 'a', 00H, 't', 00H, 'o', 00H, 'r', 00H, ' ', 00H
	DB	'=', 00H, '=', 00H, 00H, 00H			; `string'
CONST	ENDS
;	COMDAT ??_C@_1FO@GJIHNDLM@?$AA?$CC?$AAS?$AAt?$AAa?$AAn?$AAd?$AAa?$AAr?$AAd?$AA?5?$AAC?$AA?$CL?$AA?$CL?$AA?5?$AAL?$AAi?$AAb?$AAr?$AAa?$AAr?$AAi?$AAe?$AAs?$AA?5?$AAI?$AAn?$AAv?$AAa?$AAl?$AAi?$AAd?$AA?5@
CONST	SEGMENT
??_C@_1FO@GJIHNDLM@?$AA?$CC?$AAS?$AAt?$AAa?$AAn?$AAd?$AAa?$AAr?$AAd?$AA?5?$AAC?$AA?$CL?$AA?$CL?$AA?5?$AAL?$AAi?$AAb?$AAr?$AAa?$AAr?$AAi?$AAe?$AAs?$AA?5?$AAI?$AAn?$AAv?$AAa?$AAl?$AAi?$AAd?$AA?5@ DB '"'
	DB	00H, 'S', 00H, 't', 00H, 'a', 00H, 'n', 00H, 'd', 00H, 'a', 00H
	DB	'r', 00H, 'd', 00H, ' ', 00H, 'C', 00H, '+', 00H, '+', 00H, ' '
	DB	00H, 'L', 00H, 'i', 00H, 'b', 00H, 'r', 00H, 'a', 00H, 'r', 00H
	DB	'i', 00H, 'e', 00H, 's', 00H, ' ', 00H, 'I', 00H, 'n', 00H, 'v'
	DB	00H, 'a', 00H, 'l', 00H, 'i', 00H, 'd', 00H, ' ', 00H, 'A', 00H
	DB	'r', 00H, 'g', 00H, 'u', 00H, 'm', 00H, 'e', 00H, 'n', 00H, 't'
	DB	00H, '"', 00H, ' ', 00H, '&', 00H, '&', 00H, ' ', 00H, '0', 00H
	DB	00H, 00H					; `string'
CONST	ENDS
;	COMDAT ??_C@_0CI@FNPHFCCM@Standard?5C?$CL?$CL?5Libraries?5Invalid?5A@
CONST	SEGMENT
??_C@_0CI@FNPHFCCM@Standard?5C?$CL?$CL?5Libraries?5Invalid?5A@ DB 'Standa'
	DB	'rd C++ Libraries Invalid Argument', 00H	; `string'
CONST	ENDS
;	COMDAT ??_C@_1DI@MDELDGPI@?$AAl?$AAi?$AAs?$AAt?$AA?5?$AAi?$AAt?$AAe?$AAr?$AAa?$AAt?$AAo?$AAr?$AAs?$AA?5?$AAi?$AAn?$AAc?$AAo?$AAm?$AAp?$AAa?$AAt?$AAi?$AAb?$AAl?$AAe?$AA?$AA@
CONST	SEGMENT
??_C@_1DI@MDELDGPI@?$AAl?$AAi?$AAs?$AAt?$AA?5?$AAi?$AAt?$AAe?$AAr?$AAa?$AAt?$AAo?$AAr?$AAs?$AA?5?$AAi?$AAn?$AAc?$AAo?$AAm?$AAp?$AAa?$AAt?$AAi?$AAb?$AAl?$AAe?$AA?$AA@ DB 'l'
	DB	00H, 'i', 00H, 's', 00H, 't', 00H, ' ', 00H, 'i', 00H, 't', 00H
	DB	'e', 00H, 'r', 00H, 'a', 00H, 't', 00H, 'o', 00H, 'r', 00H, 's'
	DB	00H, ' ', 00H, 'i', 00H, 'n', 00H, 'c', 00H, 'o', 00H, 'm', 00H
	DB	'p', 00H, 'a', 00H, 't', 00H, 'i', 00H, 'b', 00H, 'l', 00H, 'e'
	DB	00H, 00H, 00H				; `string'
CONST	ENDS
;	COMDAT ??_C@_1GG@PGPFJPKM@?$AAD?$AA?3?$AA?2?$AAM?$AAi?$AAc?$AAr?$AAo?$AAs?$AAo?$AAf?$AAt?$AA?5?$AAV?$AAi?$AAs?$AAu?$AAa?$AAl?$AA?5?$AAS?$AAt?$AAu?$AAd?$AAi?$AAo?$AA?5?$AA1?$AA4?$AA?4?$AA0?$AA?2@
CONST	SEGMENT
??_C@_1GG@PGPFJPKM@?$AAD?$AA?3?$AA?2?$AAM?$AAi?$AAc?$AAr?$AAo?$AAs?$AAo?$AAf?$AAt?$AA?5?$AAV?$AAi?$AAs?$AAu?$AAa?$AAl?$AA?5?$AAS?$AAt?$AAu?$AAd?$AAi?$AAo?$AA?5?$AA1?$AA4?$AA?4?$AA0?$AA?2@ DB 'D'
	DB	00H, ':', 00H, '\', 00H, 'M', 00H, 'i', 00H, 'c', 00H, 'r', 00H
	DB	'o', 00H, 's', 00H, 'o', 00H, 'f', 00H, 't', 00H, ' ', 00H, 'V'
	DB	00H, 'i', 00H, 's', 00H, 'u', 00H, 'a', 00H, 'l', 00H, ' ', 00H
	DB	'S', 00H, 't', 00H, 'u', 00H, 'd', 00H, 'i', 00H, 'o', 00H, ' '
	DB	00H, '1', 00H, '4', 00H, '.', 00H, '0', 00H, '\', 00H, 'V', 00H
	DB	'C', 00H, '\', 00H, 'i', 00H, 'n', 00H, 'c', 00H, 'l', 00H, 'u'
	DB	00H, 'd', 00H, 'e', 00H, '\', 00H, 'x', 00H, 's', 00H, 't', 00H
	DB	'r', 00H, 'i', 00H, 'n', 00H, 'g', 00H, 00H, 00H ; `string'
CONST	ENDS
;	COMDAT ??_C@_1KC@ILGGEGM@?$AAs?$AAt?$AAd?$AA?3?$AA?3?$AAv?$AAe?$AAc?$AAt?$AAo?$AAr?$AA?$DM?$AAs?$AAt?$AAr?$AAu?$AAc?$AAt?$AA?5?$AAV?$AAe?$AAc?$AAt?$AAo?$AAr?$AA2?$AAD?$AA?0?$AAc?$AAl?$AAa?$AAs@
CONST	SEGMENT
??_C@_1KC@ILGGEGM@?$AAs?$AAt?$AAd?$AA?3?$AA?3?$AAv?$AAe?$AAc?$AAt?$AAo?$AAr?$AA?$DM?$AAs?$AAt?$AAr?$AAu?$AAc?$AAt?$AA?5?$AAV?$AAe?$AAc?$AAt?$AAo?$AAr?$AA2?$AAD?$AA?0?$AAc?$AAl?$AAa?$AAs@ DB 's'
	DB	00H, 't', 00H, 'd', 00H, ':', 00H, ':', 00H, 'v', 00H, 'e', 00H
	DB	'c', 00H, 't', 00H, 'o', 00H, 'r', 00H, '<', 00H, 's', 00H, 't'
	DB	00H, 'r', 00H, 'u', 00H, 'c', 00H, 't', 00H, ' ', 00H, 'V', 00H
	DB	'e', 00H, 'c', 00H, 't', 00H, 'o', 00H, 'r', 00H, '2', 00H, 'D'
	DB	00H, ',', 00H, 'c', 00H, 'l', 00H, 'a', 00H, 's', 00H, 's', 00H
	DB	' ', 00H, 's', 00H, 't', 00H, 'd', 00H, ':', 00H, ':', 00H, 'a'
	DB	00H, 'l', 00H, 'l', 00H, 'o', 00H, 'c', 00H, 'a', 00H, 't', 00H
	DB	'o', 00H, 'r', 00H, '<', 00H, 's', 00H, 't', 00H, 'r', 00H, 'u'
	DB	00H, 'c', 00H, 't', 00H, ' ', 00H, 'V', 00H, 'e', 00H, 'c', 00H
	DB	't', 00H, 'o', 00H, 'r', 00H, '2', 00H, 'D', 00H, '>', 00H, ' '
	DB	00H, '>', 00H, ':', 00H, ':', 00H, 'o', 00H, 'p', 00H, 'e', 00H
	DB	'r', 00H, 'a', 00H, 't', 00H, 'o', 00H, 'r', 00H, ' ', 00H, '['
	DB	00H, ']', 00H, 00H, 00H			; `string'
CONST	ENDS
;	COMDAT ??_C@_1JO@KOMOHDBM@?$AAs?$AAt?$AAd?$AA?3?$AA?3?$AAv?$AAe?$AAc?$AAt?$AAo?$AAr?$AA?$DM?$AAc?$AAl?$AAa?$AAs?$AAs?$AA?5?$AAW?$AAa?$AAl?$AAl?$AA2?$AAD?$AA?5?$AA?$CK?$AA?0?$AAc?$AAl?$AAa?$AAs?$AAs@
CONST	SEGMENT
??_C@_1JO@KOMOHDBM@?$AAs?$AAt?$AAd?$AA?3?$AA?3?$AAv?$AAe?$AAc?$AAt?$AAo?$AAr?$AA?$DM?$AAc?$AAl?$AAa?$AAs?$AAs?$AA?5?$AAW?$AAa?$AAl?$AAl?$AA2?$AAD?$AA?5?$AA?$CK?$AA?0?$AAc?$AAl?$AAa?$AAs?$AAs@ DB 's'
	DB	00H, 't', 00H, 'd', 00H, ':', 00H, ':', 00H, 'v', 00H, 'e', 00H
	DB	'c', 00H, 't', 00H, 'o', 00H, 'r', 00H, '<', 00H, 'c', 00H, 'l'
	DB	00H, 'a', 00H, 's', 00H, 's', 00H, ' ', 00H, 'W', 00H, 'a', 00H
	DB	'l', 00H, 'l', 00H, '2', 00H, 'D', 00H, ' ', 00H, '*', 00H, ','
	DB	00H, 'c', 00H, 'l', 00H, 'a', 00H, 's', 00H, 's', 00H, ' ', 00H
	DB	's', 00H, 't', 00H, 'd', 00H, ':', 00H, ':', 00H, 'a', 00H, 'l'
	DB	00H, 'l', 00H, 'o', 00H, 'c', 00H, 'a', 00H, 't', 00H, 'o', 00H
	DB	'r', 00H, '<', 00H, 'c', 00H, 'l', 00H, 'a', 00H, 's', 00H, 's'
	DB	00H, ' ', 00H, 'W', 00H, 'a', 00H, 'l', 00H, 'l', 00H, '2', 00H
	DB	'D', 00H, ' ', 00H, '*', 00H, '>', 00H, ' ', 00H, '>', 00H, ':'
	DB	00H, ':', 00H, 'o', 00H, 'p', 00H, 'e', 00H, 'r', 00H, 'a', 00H
	DB	't', 00H, 'o', 00H, 'r', 00H, ' ', 00H, '[', 00H, ']', 00H, 00H
	DB	00H						; `string'
CONST	ENDS
;	COMDAT ??_C@_1DM@LHGCHCBA@?$AAv?$AAe?$AAc?$AAt?$AAo?$AAr?$AA?5?$AAs?$AAu?$AAb?$AAs?$AAc?$AAr?$AAi?$AAp?$AAt?$AA?5?$AAo?$AAu?$AAt?$AA?5?$AAo?$AAf?$AA?5?$AAr?$AAa?$AAn?$AAg?$AAe?$AA?$AA@
CONST	SEGMENT
??_C@_1DM@LHGCHCBA@?$AAv?$AAe?$AAc?$AAt?$AAo?$AAr?$AA?5?$AAs?$AAu?$AAb?$AAs?$AAc?$AAr?$AAi?$AAp?$AAt?$AA?5?$AAo?$AAu?$AAt?$AA?5?$AAo?$AAf?$AA?5?$AAr?$AAa?$AAn?$AAg?$AAe?$AA?$AA@ DB 'v'
	DB	00H, 'e', 00H, 'c', 00H, 't', 00H, 'o', 00H, 'r', 00H, ' ', 00H
	DB	's', 00H, 'u', 00H, 'b', 00H, 's', 00H, 'c', 00H, 'r', 00H, 'i'
	DB	00H, 'p', 00H, 't', 00H, ' ', 00H, 'o', 00H, 'u', 00H, 't', 00H
	DB	' ', 00H, 'o', 00H, 'f', 00H, ' ', 00H, 'r', 00H, 'a', 00H, 'n'
	DB	00H, 'g', 00H, 'e', 00H, 00H, 00H		; `string'
CONST	ENDS
;	COMDAT ??_C@_1GE@BNGOPDPB@?$AAD?$AA?3?$AA?2?$AAM?$AAi?$AAc?$AAr?$AAo?$AAs?$AAo?$AAf?$AAt?$AA?5?$AAV?$AAi?$AAs?$AAu?$AAa?$AAl?$AA?5?$AAS?$AAt?$AAu?$AAd?$AAi?$AAo?$AA?5?$AA1?$AA4?$AA?4?$AA0?$AA?2@
CONST	SEGMENT
??_C@_1GE@BNGOPDPB@?$AAD?$AA?3?$AA?2?$AAM?$AAi?$AAc?$AAr?$AAo?$AAs?$AAo?$AAf?$AAt?$AA?5?$AAV?$AAi?$AAs?$AAu?$AAa?$AAl?$AA?5?$AAS?$AAt?$AAu?$AAd?$AAi?$AAo?$AA?5?$AA1?$AA4?$AA?4?$AA0?$AA?2@ DB 'D'
	DB	00H, ':', 00H, '\', 00H, 'M', 00H, 'i', 00H, 'c', 00H, 'r', 00H
	DB	'o', 00H, 's', 00H, 'o', 00H, 'f', 00H, 't', 00H, ' ', 00H, 'V'
	DB	00H, 'i', 00H, 's', 00H, 'u', 00H, 'a', 00H, 'l', 00H, ' ', 00H
	DB	'S', 00H, 't', 00H, 'u', 00H, 'd', 00H, 'i', 00H, 'o', 00H, ' '
	DB	00H, '1', 00H, '4', 00H, '.', 00H, '0', 00H, '\', 00H, 'V', 00H
	DB	'C', 00H, '\', 00H, 'i', 00H, 'n', 00H, 'c', 00H, 'l', 00H, 'u'
	DB	00H, 'd', 00H, 'e', 00H, '\', 00H, 'v', 00H, 'e', 00H, 'c', 00H
	DB	't', 00H, 'o', 00H, 'r', 00H, 00H, 00H	; `string'
CONST	ENDS
;	COMDAT ??_C@_1OC@BFEHCKCD@?$AAs?$AAt?$AAd?$AA?3?$AA?3?$AA_?$AAL?$AAi?$AAs?$AAt?$AA_?$AAc?$AAo?$AAn?$AAs?$AAt?$AA_?$AAi?$AAt?$AAe?$AAr?$AAa?$AAt?$AAo?$AAr?$AA?$DM?$AAc?$AAl?$AAa?$AAs?$AAs?$AA?5@
CONST	SEGMENT
??_C@_1OC@BFEHCKCD@?$AAs?$AAt?$AAd?$AA?3?$AA?3?$AA_?$AAL?$AAi?$AAs?$AAt?$AA_?$AAc?$AAo?$AAn?$AAs?$AAt?$AA_?$AAi?$AAt?$AAe?$AAr?$AAa?$AAt?$AAo?$AAr?$AA?$DM?$AAc?$AAl?$AAa?$AAs?$AAs?$AA?5@ DB 's'
	DB	00H, 't', 00H, 'd', 00H, ':', 00H, ':', 00H, '_', 00H, 'L', 00H
	DB	'i', 00H, 's', 00H, 't', 00H, '_', 00H, 'c', 00H, 'o', 00H, 'n'
	DB	00H, 's', 00H, 't', 00H, '_', 00H, 'i', 00H, 't', 00H, 'e', 00H
	DB	'r', 00H, 'a', 00H, 't', 00H, 'o', 00H, 'r', 00H, '<', 00H, 'c'
	DB	00H, 'l', 00H, 'a', 00H, 's', 00H, 's', 00H, ' ', 00H, 's', 00H
	DB	't', 00H, 'd', 00H, ':', 00H, ':', 00H, '_', 00H, 'L', 00H, 'i'
	DB	00H, 's', 00H, 't', 00H, '_', 00H, 'v', 00H, 'a', 00H, 'l', 00H
	DB	'<', 00H, 's', 00H, 't', 00H, 'r', 00H, 'u', 00H, 'c', 00H, 't'
	DB	00H, ' ', 00H, 's', 00H, 't', 00H, 'd', 00H, ':', 00H, ':', 00H
	DB	'_', 00H, 'L', 00H, 'i', 00H, 's', 00H, 't', 00H, '_', 00H, 's'
	DB	00H, 'i', 00H, 'm', 00H, 'p', 00H, 'l', 00H, 'e', 00H, '_', 00H
	DB	't', 00H, 'y', 00H, 'p', 00H, 'e', 00H, 's', 00H, '<', 00H, 'c'
	DB	00H, 'l', 00H, 'a', 00H, 's', 00H, 's', 00H, ' ', 00H, 'R', 00H
	DB	'a', 00H, 'v', 00H, 'e', 00H, 'n', 00H, '_', 00H, 'B', 00H, 'o'
	DB	00H, 't', 00H, ' ', 00H, '*', 00H, '>', 00H, ' ', 00H, '>', 00H
	DB	' ', 00H, '>', 00H, ':', 00H, ':', 00H, 'o', 00H, 'p', 00H, 'e'
	DB	00H, 'r', 00H, 'a', 00H, 't', 00H, 'o', 00H, 'r', 00H, ' ', 00H
	DB	'*', 00H, 00H, 00H				; `string'
CONST	ENDS
;	COMDAT ??_C@_1EC@HILJLMMC@?$AAl?$AAi?$AAs?$AAt?$AA?5?$AAi?$AAt?$AAe?$AAr?$AAa?$AAt?$AAo?$AAr?$AA?5?$AAn?$AAo?$AAt?$AA?5?$AAd?$AAe?$AAr?$AAe?$AAf?$AAe?$AAr?$AAe?$AAn?$AAc?$AAa?$AAb?$AAl?$AAe@
CONST	SEGMENT
??_C@_1EC@HILJLMMC@?$AAl?$AAi?$AAs?$AAt?$AA?5?$AAi?$AAt?$AAe?$AAr?$AAa?$AAt?$AAo?$AAr?$AA?5?$AAn?$AAo?$AAt?$AA?5?$AAd?$AAe?$AAr?$AAe?$AAf?$AAe?$AAr?$AAe?$AAn?$AAc?$AAa?$AAb?$AAl?$AAe@ DB 'l'
	DB	00H, 'i', 00H, 's', 00H, 't', 00H, ' ', 00H, 'i', 00H, 't', 00H
	DB	'e', 00H, 'r', 00H, 'a', 00H, 't', 00H, 'o', 00H, 'r', 00H, ' '
	DB	00H, 'n', 00H, 'o', 00H, 't', 00H, ' ', 00H, 'd', 00H, 'e', 00H
	DB	'r', 00H, 'e', 00H, 'f', 00H, 'e', 00H, 'r', 00H, 'e', 00H, 'n'
	DB	00H, 'c', 00H, 'a', 00H, 'b', 00H, 'l', 00H, 'e', 00H, 00H, 00H ; `string'
CONST	ENDS
;	COMDAT ??_C@_1BO@MEPPHOO@?$AA?$CC?$AAo?$AAu?$AAt?$AA?5?$AAo?$AAf?$AA?5?$AAr?$AAa?$AAn?$AAg?$AAe?$AA?$CC?$AA?$AA@
CONST	SEGMENT
??_C@_1BO@MEPPHOO@?$AA?$CC?$AAo?$AAu?$AAt?$AA?5?$AAo?$AAf?$AA?5?$AAr?$AAa?$AAn?$AAg?$AAe?$AA?$CC?$AA?$AA@ DB '"'
	DB	00H, 'o', 00H, 'u', 00H, 't', 00H, ' ', 00H, 'o', 00H, 'f', 00H
	DB	' ', 00H, 'r', 00H, 'a', 00H, 'n', 00H, 'g', 00H, 'e', 00H, '"'
	DB	00H, 00H, 00H				; `string'
CONST	ENDS
;	COMDAT ??_C@_1OE@NJHNFAGK@?$AAs?$AAt?$AAd?$AA?3?$AA?3?$AA_?$AAL?$AAi?$AAs?$AAt?$AA_?$AAc?$AAo?$AAn?$AAs?$AAt?$AA_?$AAi?$AAt?$AAe?$AAr?$AAa?$AAt?$AAo?$AAr?$AA?$DM?$AAc?$AAl?$AAa?$AAs?$AAs?$AA?5@
CONST	SEGMENT
??_C@_1OE@NJHNFAGK@?$AAs?$AAt?$AAd?$AA?3?$AA?3?$AA_?$AAL?$AAi?$AAs?$AAt?$AA_?$AAc?$AAo?$AAn?$AAs?$AAt?$AA_?$AAi?$AAt?$AAe?$AAr?$AAa?$AAt?$AAo?$AAr?$AA?$DM?$AAc?$AAl?$AAa?$AAs?$AAs?$AA?5@ DB 's'
	DB	00H, 't', 00H, 'd', 00H, ':', 00H, ':', 00H, '_', 00H, 'L', 00H
	DB	'i', 00H, 's', 00H, 't', 00H, '_', 00H, 'c', 00H, 'o', 00H, 'n'
	DB	00H, 's', 00H, 't', 00H, '_', 00H, 'i', 00H, 't', 00H, 'e', 00H
	DB	'r', 00H, 'a', 00H, 't', 00H, 'o', 00H, 'r', 00H, '<', 00H, 'c'
	DB	00H, 'l', 00H, 'a', 00H, 's', 00H, 's', 00H, ' ', 00H, 's', 00H
	DB	't', 00H, 'd', 00H, ':', 00H, ':', 00H, '_', 00H, 'L', 00H, 'i'
	DB	00H, 's', 00H, 't', 00H, '_', 00H, 'v', 00H, 'a', 00H, 'l', 00H
	DB	'<', 00H, 's', 00H, 't', 00H, 'r', 00H, 'u', 00H, 'c', 00H, 't'
	DB	00H, ' ', 00H, 's', 00H, 't', 00H, 'd', 00H, ':', 00H, ':', 00H
	DB	'_', 00H, 'L', 00H, 'i', 00H, 's', 00H, 't', 00H, '_', 00H, 's'
	DB	00H, 'i', 00H, 'm', 00H, 'p', 00H, 'l', 00H, 'e', 00H, '_', 00H
	DB	't', 00H, 'y', 00H, 'p', 00H, 'e', 00H, 's', 00H, '<', 00H, 'c'
	DB	00H, 'l', 00H, 'a', 00H, 's', 00H, 's', 00H, ' ', 00H, 'R', 00H
	DB	'a', 00H, 'v', 00H, 'e', 00H, 'n', 00H, '_', 00H, 'B', 00H, 'o'
	DB	00H, 't', 00H, ' ', 00H, '*', 00H, '>', 00H, ' ', 00H, '>', 00H
	DB	' ', 00H, '>', 00H, ':', 00H, ':', 00H, 'o', 00H, 'p', 00H, 'e'
	DB	00H, 'r', 00H, 'a', 00H, 't', 00H, 'o', 00H, 'r', 00H, ' ', 00H
	DB	'+', 00H, '+', 00H, 00H, 00H			; `string'
CONST	ENDS
;	COMDAT ??_C@_17CNPHIMPH@?$AA?$CF?$AAl?$AAs?$AA?$AA@
CONST	SEGMENT
??_C@_17CNPHIMPH@?$AA?$CF?$AAl?$AAs?$AA?$AA@ DB '%', 00H, 'l', 00H, 's', 00H
	DB	00H, 00H					; `string'
CONST	ENDS
;	COMDAT ??_C@_1FG@IBPIFFN@?$AA?$CC?$AAS?$AAt?$AAa?$AAn?$AAd?$AAa?$AAr?$AAd?$AA?5?$AAC?$AA?$CL?$AA?$CL?$AA?5?$AAL?$AAi?$AAb?$AAr?$AAa?$AAr?$AAi?$AAe?$AAs?$AA?5?$AAO?$AAu?$AAt?$AA?5?$AAo?$AAf?$AA?5?$AAR@
CONST	SEGMENT
??_C@_1FG@IBPIFFN@?$AA?$CC?$AAS?$AAt?$AAa?$AAn?$AAd?$AAa?$AAr?$AAd?$AA?5?$AAC?$AA?$CL?$AA?$CL?$AA?5?$AAL?$AAi?$AAb?$AAr?$AAa?$AAr?$AAi?$AAe?$AAs?$AA?5?$AAO?$AAu?$AAt?$AA?5?$AAo?$AAf?$AA?5?$AAR@ DB '"'
	DB	00H, 'S', 00H, 't', 00H, 'a', 00H, 'n', 00H, 'd', 00H, 'a', 00H
	DB	'r', 00H, 'd', 00H, ' ', 00H, 'C', 00H, '+', 00H, '+', 00H, ' '
	DB	00H, 'L', 00H, 'i', 00H, 'b', 00H, 'r', 00H, 'a', 00H, 'r', 00H
	DB	'i', 00H, 'e', 00H, 's', 00H, ' ', 00H, 'O', 00H, 'u', 00H, 't'
	DB	00H, ' ', 00H, 'o', 00H, 'f', 00H, ' ', 00H, 'R', 00H, 'a', 00H
	DB	'n', 00H, 'g', 00H, 'e', 00H, '"', 00H, ' ', 00H, '&', 00H, '&'
	DB	00H, ' ', 00H, '0', 00H, 00H, 00H		; `string'
CONST	ENDS
;	COMDAT ??_C@_0CE@OFMIGAMM@Standard?5C?$CL?$CL?5Libraries?5Out?5of?5Ra@
CONST	SEGMENT
??_C@_0CE@OFMIGAMM@Standard?5C?$CL?$CL?5Libraries?5Out?5of?5Ra@ DB 'Stand'
	DB	'ard C++ Libraries Out of Range', 00H	; `string'
CONST	ENDS
;	COMDAT ??_C@_1EA@DOGAGKDH@?$AAl?$AAi?$AAs?$AAt?$AA?5?$AAi?$AAt?$AAe?$AAr?$AAa?$AAt?$AAo?$AAr?$AA?5?$AAn?$AAo?$AAt?$AA?5?$AAi?$AAn?$AAc?$AAr?$AAe?$AAm?$AAe?$AAn?$AAt?$AAa?$AAb?$AAl?$AAe?$AA?$AA@
CONST	SEGMENT
??_C@_1EA@DOGAGKDH@?$AAl?$AAi?$AAs?$AAt?$AA?5?$AAi?$AAt?$AAe?$AAr?$AAa?$AAt?$AAo?$AAr?$AA?5?$AAn?$AAo?$AAt?$AA?5?$AAi?$AAn?$AAc?$AAr?$AAe?$AAm?$AAe?$AAn?$AAt?$AAa?$AAb?$AAl?$AAe?$AA?$AA@ DB 'l'
	DB	00H, 'i', 00H, 's', 00H, 't', 00H, ' ', 00H, 'i', 00H, 't', 00H
	DB	'e', 00H, 'r', 00H, 'a', 00H, 't', 00H, 'o', 00H, 'r', 00H, ' '
	DB	00H, 'n', 00H, 'o', 00H, 't', 00H, ' ', 00H, 'i', 00H, 'n', 00H
	DB	'c', 00H, 'r', 00H, 'e', 00H, 'm', 00H, 'e', 00H, 'n', 00H, 't'
	DB	00H, 'a', 00H, 'b', 00H, 'l', 00H, 'e', 00H, 00H, 00H ; `string'
CONST	ENDS
;	COMDAT ??_C@_1GA@IINJPBGE@?$AAD?$AA?3?$AA?2?$AAM?$AAi?$AAc?$AAr?$AAo?$AAs?$AAo?$AAf?$AAt?$AA?5?$AAV?$AAi?$AAs?$AAu?$AAa?$AAl?$AA?5?$AAS?$AAt?$AAu?$AAd?$AAi?$AAo?$AA?5?$AA1?$AA4?$AA?4?$AA0?$AA?2@
CONST	SEGMENT
??_C@_1GA@IINJPBGE@?$AAD?$AA?3?$AA?2?$AAM?$AAi?$AAc?$AAr?$AAo?$AAs?$AAo?$AAf?$AAt?$AA?5?$AAV?$AAi?$AAs?$AAu?$AAa?$AAl?$AA?5?$AAS?$AAt?$AAu?$AAd?$AAi?$AAo?$AA?5?$AA1?$AA4?$AA?4?$AA0?$AA?2@ DB 'D'
	DB	00H, ':', 00H, '\', 00H, 'M', 00H, 'i', 00H, 'c', 00H, 'r', 00H
	DB	'o', 00H, 's', 00H, 'o', 00H, 'f', 00H, 't', 00H, ' ', 00H, 'V'
	DB	00H, 'i', 00H, 's', 00H, 'u', 00H, 'a', 00H, 'l', 00H, ' ', 00H
	DB	'S', 00H, 't', 00H, 'u', 00H, 'd', 00H, 'i', 00H, 'o', 00H, ' '
	DB	00H, '1', 00H, '4', 00H, '.', 00H, '0', 00H, '\', 00H, 'V', 00H
	DB	'C', 00H, '\', 00H, 'i', 00H, 'n', 00H, 'c', 00H, 'l', 00H, 'u'
	DB	00H, 'd', 00H, 'e', 00H, '\', 00H, 'l', 00H, 'i', 00H, 's', 00H
	DB	't', 00H, 00H, 00H				; `string'
CONST	ENDS
;	COMDAT ??_7Raven_Steering@@6B@
CONST	SEGMENT
??_7Raven_Steering@@6B@ DD FLAT:??_R4Raven_Steering@@6B@ ; Raven_Steering::`vftable'
	DD	FLAT:??_ERaven_Steering@@UAEPAXI@Z
CONST	ENDS
;	COMDAT __CT??_R0?AVexception@std@@@8??0exception@std@@QAE@ABV01@@Z12
xdata$x	SEGMENT
__CT??_R0?AVexception@std@@@8??0exception@std@@QAE@ABV01@@Z12 DD 00H
	DD	FLAT:??_R0?AVexception@std@@@8
	DD	00H
	DD	0ffffffffH
	ORG $+4
	DD	0cH
	DD	FLAT:??0exception@std@@QAE@ABV01@@Z
xdata$x	ENDS
;	COMDAT ??_R0?AVexception@std@@@8
data$r	SEGMENT
??_R0?AVexception@std@@@8 DD FLAT:??_7type_info@@6B@	; std::exception `RTTI Type Descriptor'
	DD	00H
	DB	'.?AVexception@std@@', 00H
data$r	ENDS
;	COMDAT __CT??_R0?AVruntime_error@std@@@8??0runtime_error@std@@QAE@ABV01@@Z12
xdata$x	SEGMENT
__CT??_R0?AVruntime_error@std@@@8??0runtime_error@std@@QAE@ABV01@@Z12 DD 00H
	DD	FLAT:??_R0?AVruntime_error@std@@@8
	DD	00H
	DD	0ffffffffH
	ORG $+4
	DD	0cH
	DD	FLAT:??0runtime_error@std@@QAE@ABV01@@Z
xdata$x	ENDS
;	COMDAT ??_R0?AVruntime_error@std@@@8
data$r	SEGMENT
??_R0?AVruntime_error@std@@@8 DD FLAT:??_7type_info@@6B@ ; std::runtime_error `RTTI Type Descriptor'
	DD	00H
	DB	'.?AVruntime_error@std@@', 00H
data$r	ENDS
;	COMDAT __CTA2?AVruntime_error@std@@
xdata$x	SEGMENT
__CTA2?AVruntime_error@std@@ DD 02H
	DD	FLAT:__CT??_R0?AVruntime_error@std@@@8??0runtime_error@std@@QAE@ABV01@@Z12
	DD	FLAT:__CT??_R0?AVexception@std@@@8??0exception@std@@QAE@ABV01@@Z12
xdata$x	ENDS
;	COMDAT __TI2?AVruntime_error@std@@
xdata$x	SEGMENT
__TI2?AVruntime_error@std@@ DD 00H
	DD	FLAT:??1runtime_error@std@@UAE@XZ
	DD	00H
	DD	FLAT:__CTA2?AVruntime_error@std@@
xdata$x	ENDS
;	COMDAT ??_7runtime_error@std@@6B@
CONST	SEGMENT
??_7runtime_error@std@@6B@ DD FLAT:??_R4runtime_error@std@@6B@ ; std::runtime_error::`vftable'
	DD	FLAT:??_Eruntime_error@std@@UAEPAXI@Z
	DD	FLAT:?what@exception@std@@UBEPBDXZ
CONST	ENDS
;	COMDAT ?npos@?$basic_string@DU?$char_traits@D@std@@V?$allocator@D@2@@std@@2IB
CONST	SEGMENT
?npos@?$basic_string@DU?$char_traits@D@std@@V?$allocator@D@2@@std@@2IB DD 0ffffffffH ; std::basic_string<char,std::char_traits<char>,std::allocator<char> >::npos
CONST	ENDS
;	COMDAT ??_C@_1DC@POOIKBAO@?$AAI?$AAT?$AAE?$AAR?$AAA?$AAT?$AAO?$AAR?$AA?5?$AAL?$AAI?$AAS?$AAT?$AA?5?$AAC?$AAO?$AAR?$AAR?$AAU?$AAP?$AAT?$AAE?$AAD?$AA?$CB?$AA?$AA@
CONST	SEGMENT
??_C@_1DC@POOIKBAO@?$AAI?$AAT?$AAE?$AAR?$AAA?$AAT?$AAO?$AAR?$AA?5?$AAL?$AAI?$AAS?$AAT?$AA?5?$AAC?$AAO?$AAR?$AAR?$AAU?$AAP?$AAT?$AAE?$AAD?$AA?$CB?$AA?$AA@ DB 'I'
	DB	00H, 'T', 00H, 'E', 00H, 'R', 00H, 'A', 00H, 'T', 00H, 'O', 00H
	DB	'R', 00H, ' ', 00H, 'L', 00H, 'I', 00H, 'S', 00H, 'T', 00H, ' '
	DB	00H, 'C', 00H, 'O', 00H, 'R', 00H, 'R', 00H, 'U', 00H, 'P', 00H
	DB	'T', 00H, 'E', 00H, 'D', 00H, '!', 00H, 00H, 00H ; `string'
CONST	ENDS
;	COMDAT ??_C@_1GI@DDIAPGKN@?$AAD?$AA?3?$AA?2?$AAM?$AAi?$AAc?$AAr?$AAo?$AAs?$AAo?$AAf?$AAt?$AA?5?$AAV?$AAi?$AAs?$AAu?$AAa?$AAl?$AA?5?$AAS?$AAt?$AAu?$AAd?$AAi?$AAo?$AA?5?$AA1?$AA4?$AA?4?$AA0?$AA?2@
CONST	SEGMENT
??_C@_1GI@DDIAPGKN@?$AAD?$AA?3?$AA?2?$AAM?$AAi?$AAc?$AAr?$AAo?$AAs?$AAo?$AAf?$AAt?$AA?5?$AAV?$AAi?$AAs?$AAu?$AAa?$AAl?$AA?5?$AAS?$AAt?$AAu?$AAd?$AAi?$AAo?$AA?5?$AA1?$AA4?$AA?4?$AA0?$AA?2@ DB 'D'
	DB	00H, ':', 00H, '\', 00H, 'M', 00H, 'i', 00H, 'c', 00H, 'r', 00H
	DB	'o', 00H, 's', 00H, 'o', 00H, 'f', 00H, 't', 00H, ' ', 00H, 'V'
	DB	00H, 'i', 00H, 's', 00H, 'u', 00H, 'a', 00H, 'l', 00H, ' ', 00H
	DB	'S', 00H, 't', 00H, 'u', 00H, 'd', 00H, 'i', 00H, 'o', 00H, ' '
	DB	00H, '1', 00H, '4', 00H, '.', 00H, '0', 00H, '\', 00H, 'V', 00H
	DB	'C', 00H, '\', 00H, 'i', 00H, 'n', 00H, 'c', 00H, 'l', 00H, 'u'
	DB	00H, 'd', 00H, 'e', 00H, '\', 00H, 'x', 00H, 'u', 00H, 't', 00H
	DB	'i', 00H, 'l', 00H, 'i', 00H, 't', 00H, 'y', 00H, 00H, 00H ; `string'
CONST	ENDS
;	COMDAT ??_C@_0BC@EOODALEL@Unknown?5exception?$AA@
CONST	SEGMENT
??_C@_0BC@EOODALEL@Unknown?5exception?$AA@ DB 'Unknown exception', 00H ; `string'
CONST	ENDS
;	COMDAT ??_7exception@std@@6B@
CONST	SEGMENT
??_7exception@std@@6B@ DD FLAT:??_R4exception@std@@6B@	; std::exception::`vftable'
	DD	FLAT:??_Eexception@std@@UAEPAXI@Z
	DD	FLAT:?what@exception@std@@UBEPBDXZ
CONST	ENDS
;	COMDAT xdata$x
xdata$x	SEGMENT
__unwindtable$??$construct@UVector2D@@$$V@?$allocator@UVector2D@@@std@@QAEXPAUVector2D@@@Z DD 0ffffffffH
	DD	FLAT:__unwindfunclet$??$construct@UVector2D@@$$V@?$allocator@UVector2D@@@std@@QAEXPAUVector2D@@@Z$0
__ehfuncinfo$??$construct@UVector2D@@$$V@?$allocator@UVector2D@@@std@@QAEXPAUVector2D@@@Z DD 019930522H
	DD	01H
	DD	FLAT:__unwindtable$??$construct@UVector2D@@$$V@?$allocator@UVector2D@@@std@@QAEXPAUVector2D@@@Z
	DD	2 DUP(00H)
	DD	2 DUP(00H)
	DD	00H
	DD	01H
xdata$x	ENDS
;	COMDAT xdata$x
xdata$x	SEGMENT
__catchsym$??$_Uninit_def_fill_n@PAUVector2D@@IV?$allocator@UVector2D@@@std@@U1@@std@@YAXPAUVector2D@@IAAU?$_Wrap_alloc@V?$allocator@UVector2D@@@std@@@0@0U_Nonscalar_ptr_iterator_tag@0@@Z$2 DD 040H
	DD	00H
	DD	00H
	DD	FLAT:__catch$??$_Uninit_def_fill_n@PAUVector2D@@IV?$allocator@UVector2D@@@std@@U1@@std@@YAXPAUVector2D@@IAAU?$_Wrap_alloc@V?$allocator@UVector2D@@@std@@@0@0U_Nonscalar_ptr_iterator_tag@0@@Z$0
__unwindtable$??$_Uninit_def_fill_n@PAUVector2D@@IV?$allocator@UVector2D@@@std@@U1@@std@@YAXPAUVector2D@@IAAU?$_Wrap_alloc@V?$allocator@UVector2D@@@std@@@0@0U_Nonscalar_ptr_iterator_tag@0@@Z DD 0ffffffffH
	DD	00H
	DD	0ffffffffH
	DD	00H
__tryblocktable$??$_Uninit_def_fill_n@PAUVector2D@@IV?$allocator@UVector2D@@@std@@U1@@std@@YAXPAUVector2D@@IAAU?$_Wrap_alloc@V?$allocator@UVector2D@@@std@@@0@0U_Nonscalar_ptr_iterator_tag@0@@Z DD 00H
	DD	00H
	DD	01H
	DD	01H
	DD	FLAT:__catchsym$??$_Uninit_def_fill_n@PAUVector2D@@IV?$allocator@UVector2D@@@std@@U1@@std@@YAXPAUVector2D@@IAAU?$_Wrap_alloc@V?$allocator@UVector2D@@@std@@@0@0U_Nonscalar_ptr_iterator_tag@0@@Z$2
__ehfuncinfo$??$_Uninit_def_fill_n@PAUVector2D@@IV?$allocator@UVector2D@@@std@@U1@@std@@YAXPAUVector2D@@IAAU?$_Wrap_alloc@V?$allocator@UVector2D@@@std@@@0@0U_Nonscalar_ptr_iterator_tag@0@@Z DD 019930522H
	DD	02H
	DD	FLAT:__unwindtable$??$_Uninit_def_fill_n@PAUVector2D@@IV?$allocator@UVector2D@@@std@@U1@@std@@YAXPAUVector2D@@IAAU?$_Wrap_alloc@V?$allocator@UVector2D@@@std@@@0@0U_Nonscalar_ptr_iterator_tag@0@@Z
	DD	01H
	DD	FLAT:__tryblocktable$??$_Uninit_def_fill_n@PAUVector2D@@IV?$allocator@UVector2D@@@std@@U1@@std@@YAXPAUVector2D@@IAAU?$_Wrap_alloc@V?$allocator@UVector2D@@@std@@@0@0U_Nonscalar_ptr_iterator_tag@0@@Z
	DD	2 DUP(00H)
	DD	00H
	DD	01H
xdata$x	ENDS
;	COMDAT xdata$x
xdata$x	SEGMENT
__unwindtable$??0?$_List_unchecked_const_iterator@V?$_List_val@U?$_List_simple_types@PAVRaven_Bot@@@std@@@std@@U_Iterator_base12@2@@std@@QAE@PAU?$_List_node@PAVRaven_Bot@@PAX@1@PBV?$_List_val@U?$_List_simple_types@PAVRaven_Bot@@@std@@@1@@Z DD 0ffffffffH
	DD	FLAT:__unwindfunclet$??0?$_List_unchecked_const_iterator@V?$_List_val@U?$_List_simple_types@PAVRaven_Bot@@@std@@@std@@U_Iterator_base12@2@@std@@QAE@PAU?$_List_node@PAVRaven_Bot@@PAX@1@PBV?$_List_val@U?$_List_simple_types@PAVRaven_Bot@@@std@@@1@@Z$0
__ehfuncinfo$??0?$_List_unchecked_const_iterator@V?$_List_val@U?$_List_simple_types@PAVRaven_Bot@@@std@@@std@@U_Iterator_base12@2@@std@@QAE@PAU?$_List_node@PAVRaven_Bot@@PAX@1@PBV?$_List_val@U?$_List_simple_types@PAVRaven_Bot@@@std@@@1@@Z DD 019930522H
	DD	01H
	DD	FLAT:__unwindtable$??0?$_List_unchecked_const_iterator@V?$_List_val@U?$_List_simple_types@PAVRaven_Bot@@@std@@@std@@U_Iterator_base12@2@@std@@QAE@PAU?$_List_node@PAVRaven_Bot@@PAX@1@PBV?$_List_val@U?$_List_simple_types@PAVRaven_Bot@@@std@@@1@@Z
	DD	2 DUP(00H)
	DD	2 DUP(00H)
	DD	00H
	DD	01H
xdata$x	ENDS
;	COMDAT xdata$x
xdata$x	SEGMENT
__unwindtable$??$PopLuaNumber@N@@YANPAUlua_State@@PBD@Z DD 0ffffffffH
	DD	FLAT:__unwindfunclet$??$PopLuaNumber@N@@YANPAUlua_State@@PBD@Z$0
	DD	00H
	DD	FLAT:__unwindfunclet$??$PopLuaNumber@N@@YANPAUlua_State@@PBD@Z$1
__ehfuncinfo$??$PopLuaNumber@N@@YANPAUlua_State@@PBD@Z DD 019930522H
	DD	02H
	DD	FLAT:__unwindtable$??$PopLuaNumber@N@@YANPAUlua_State@@PBD@Z
	DD	2 DUP(00H)
	DD	2 DUP(00H)
	DD	00H
	DD	01H
xdata$x	ENDS
;	COMDAT xdata$x
xdata$x	SEGMENT
__unwindtable$??$?HDU?$char_traits@D@std@@V?$allocator@D@1@@std@@YA?AV?$basic_string@DU?$char_traits@D@std@@V?$allocator@D@2@@0@ABV10@PBD@Z DD 0ffffffffH
	DD	FLAT:__unwindfunclet$??$?HDU?$char_traits@D@std@@V?$allocator@D@1@@std@@YA?AV?$basic_string@DU?$char_traits@D@std@@V?$allocator@D@2@@0@ABV10@PBD@Z$0
__ehfuncinfo$??$?HDU?$char_traits@D@std@@V?$allocator@D@1@@std@@YA?AV?$basic_string@DU?$char_traits@D@std@@V?$allocator@D@2@@0@ABV10@PBD@Z DD 019930522H
	DD	01H
	DD	FLAT:__unwindtable$??$?HDU?$char_traits@D@std@@V?$allocator@D@1@@std@@YA?AV?$basic_string@DU?$char_traits@D@std@@V?$allocator@D@2@@0@ABV10@PBD@Z
	DD	2 DUP(00H)
	DD	2 DUP(00H)
	DD	00H
	DD	01H
xdata$x	ENDS
;	COMDAT xdata$x
xdata$x	SEGMENT
__unwindtable$??$TagNeighbors@VBaseGameEntity@@V?$list@PAVRaven_Bot@@V?$allocator@PAVRaven_Bot@@@std@@@std@@@@YAXPAVBaseGameEntity@@AAV?$list@PAVRaven_Bot@@V?$allocator@PAVRaven_Bot@@@std@@@std@@N@Z DD 0ffffffffH
	DD	FLAT:__unwindfunclet$??$TagNeighbors@VBaseGameEntity@@V?$list@PAVRaven_Bot@@V?$allocator@PAVRaven_Bot@@@std@@@std@@@@YAXPAVBaseGameEntity@@AAV?$list@PAVRaven_Bot@@V?$allocator@PAVRaven_Bot@@@std@@@std@@N@Z$0
	DD	00H
	DD	FLAT:__unwindfunclet$??$TagNeighbors@VBaseGameEntity@@V?$list@PAVRaven_Bot@@V?$allocator@PAVRaven_Bot@@@std@@@std@@@@YAXPAVBaseGameEntity@@AAV?$list@PAVRaven_Bot@@V?$allocator@PAVRaven_Bot@@@std@@@std@@N@Z$1
	DD	00H
	DD	FLAT:__unwindfunclet$??$TagNeighbors@VBaseGameEntity@@V?$list@PAVRaven_Bot@@V?$allocator@PAVRaven_Bot@@@std@@@std@@@@YAXPAVBaseGameEntity@@AAV?$list@PAVRaven_Bot@@V?$allocator@PAVRaven_Bot@@@std@@@std@@N@Z$2
__ehfuncinfo$??$TagNeighbors@VBaseGameEntity@@V?$list@PAVRaven_Bot@@V?$allocator@PAVRaven_Bot@@@std@@@std@@@@YAXPAVBaseGameEntity@@AAV?$list@PAVRaven_Bot@@V?$allocator@PAVRaven_Bot@@@std@@@std@@N@Z DD 019930522H
	DD	03H
	DD	FLAT:__unwindtable$??$TagNeighbors@VBaseGameEntity@@V?$list@PAVRaven_Bot@@V?$allocator@PAVRaven_Bot@@@std@@@std@@@@YAXPAVBaseGameEntity@@AAV?$list@PAVRaven_Bot@@V?$allocator@PAVRaven_Bot@@@std@@@std@@N@Z
	DD	2 DUP(00H)
	DD	2 DUP(00H)
	DD	00H
	DD	01H
xdata$x	ENDS
;	COMDAT xdata$x
xdata$x	SEGMENT
__ehfuncinfo$?end@?$list@PAVRaven_Bot@@V?$allocator@PAVRaven_Bot@@@std@@@std@@QBE?AV?$_List_const_iterator@V?$_List_val@U?$_List_simple_types@PAVRaven_Bot@@@std@@@std@@@2@XZ DD 019930522H
	DD	00H
	DD	00H
	DD	2 DUP(00H)
	DD	2 DUP(00H)
	DD	00H
	DD	05H
xdata$x	ENDS
;	COMDAT xdata$x
xdata$x	SEGMENT
__ehfuncinfo$?end@?$list@PAVRaven_Bot@@V?$allocator@PAVRaven_Bot@@@std@@@std@@QAE?AV?$_List_iterator@V?$_List_val@U?$_List_simple_types@PAVRaven_Bot@@@std@@@std@@@2@XZ DD 019930522H
	DD	00H
	DD	00H
	DD	2 DUP(00H)
	DD	2 DUP(00H)
	DD	00H
	DD	05H
xdata$x	ENDS
;	COMDAT xdata$x
xdata$x	SEGMENT
__ehfuncinfo$?begin@?$list@PAVRaven_Bot@@V?$allocator@PAVRaven_Bot@@@std@@@std@@QBE?AV?$_List_const_iterator@V?$_List_val@U?$_List_simple_types@PAVRaven_Bot@@@std@@@std@@@2@XZ DD 019930522H
	DD	00H
	DD	00H
	DD	2 DUP(00H)
	DD	2 DUP(00H)
	DD	00H
	DD	05H
xdata$x	ENDS
;	COMDAT xdata$x
xdata$x	SEGMENT
__ehfuncinfo$?begin@?$list@PAVRaven_Bot@@V?$allocator@PAVRaven_Bot@@@std@@@std@@QAE?AV?$_List_iterator@V?$_List_val@U?$_List_simple_types@PAVRaven_Bot@@@std@@@std@@@2@XZ DD 019930522H
	DD	00H
	DD	00H
	DD	2 DUP(00H)
	DD	2 DUP(00H)
	DD	00H
	DD	05H
xdata$x	ENDS
xdata$x	SEGMENT
__unwindtable$??0Raven_Steering@@QAE@PAVRaven_Game@@PAVRaven_Bot@@@Z DD 0ffffffffH
	DD	FLAT:__unwindfunclet$??0Raven_Steering@@QAE@PAVRaven_Game@@PAVRaven_Bot@@@Z$0
__unwindtable$?Separation@Raven_Steering@@AAE?AUVector2D@@ABV?$list@PAVRaven_Bot@@V?$allocator@PAVRaven_Bot@@@std@@@std@@@Z DD 0ffffffffH
	DD	FLAT:__unwindfunclet$?Separation@Raven_Steering@@AAE?AUVector2D@@ABV?$list@PAVRaven_Bot@@V?$allocator@PAVRaven_Bot@@@std@@@std@@@Z$0
	DD	00H
	DD	FLAT:__unwindfunclet$?Separation@Raven_Steering@@AAE?AUVector2D@@ABV?$list@PAVRaven_Bot@@V?$allocator@PAVRaven_Bot@@@std@@@std@@@Z$1
__ehfuncinfo$??0Raven_Steering@@QAE@PAVRaven_Game@@PAVRaven_Bot@@@Z DD 019930522H
	DD	01H
	DD	FLAT:__unwindtable$??0Raven_Steering@@QAE@PAVRaven_Game@@PAVRaven_Bot@@@Z
	DD	2 DUP(00H)
	DD	2 DUP(00H)
	DD	00H
	DD	01H
__ehfuncinfo$?Separation@Raven_Steering@@AAE?AUVector2D@@ABV?$list@PAVRaven_Bot@@V?$allocator@PAVRaven_Bot@@@std@@@std@@@Z DD 019930522H
	DD	02H
	DD	FLAT:__unwindtable$?Separation@Raven_Steering@@AAE?AUVector2D@@ABV?$list@PAVRaven_Bot@@V?$allocator@PAVRaven_Bot@@@std@@@std@@@Z
	DD	2 DUP(00H)
	DD	2 DUP(00H)
	DD	00H
	DD	01H
xdata$x	ENDS
;	COMDAT xdata$x
xdata$x	SEGMENT
__ehfuncinfo$??1?$vector@UVector2D@@V?$allocator@UVector2D@@@std@@@std@@QAE@XZ DD 019930522H
	DD	00H
	DD	00H
	DD	2 DUP(00H)
	DD	2 DUP(00H)
	DD	00H
	DD	05H
xdata$x	ENDS
;	COMDAT xdata$x
xdata$x	SEGMENT
__catchsym$??0?$vector@UVector2D@@V?$allocator@UVector2D@@@std@@@std@@QAE@I@Z$3 DD 040H
	DD	00H
	DD	00H
	DD	FLAT:__catch$??0?$vector@UVector2D@@V?$allocator@UVector2D@@@std@@@std@@QAE@I@Z$0
__tryblocktable$??0?$vector@UVector2D@@V?$allocator@UVector2D@@@std@@@std@@QAE@I@Z DD 01H
	DD	01H
	DD	02H
	DD	01H
	DD	FLAT:__catchsym$??0?$vector@UVector2D@@V?$allocator@UVector2D@@@std@@@std@@QAE@I@Z$3
__unwindtable$??0?$vector@UVector2D@@V?$allocator@UVector2D@@@std@@@std@@QAE@I@Z DD 0ffffffffH
	DD	FLAT:__unwindfunclet$??0?$vector@UVector2D@@V?$allocator@UVector2D@@@std@@@std@@QAE@I@Z$2
	DD	00H
	DD	00H
	DD	00H
	DD	00H
__ehfuncinfo$??0?$vector@UVector2D@@V?$allocator@UVector2D@@@std@@@std@@QAE@I@Z DD 019930522H
	DD	03H
	DD	FLAT:__unwindtable$??0?$vector@UVector2D@@V?$allocator@UVector2D@@@std@@@std@@QAE@I@Z
	DD	01H
	DD	FLAT:__tryblocktable$??0?$vector@UVector2D@@V?$allocator@UVector2D@@@std@@@std@@QAE@I@Z
	DD	2 DUP(00H)
	DD	00H
	DD	01H
xdata$x	ENDS
;	COMDAT xdata$x
xdata$x	SEGMENT
__ehfuncinfo$??1?$_Vector_alloc@U?$_Vec_base_types@UVector2D@@V?$allocator@UVector2D@@@std@@@std@@@std@@QAE@XZ DD 019930522H
	DD	00H
	DD	00H
	DD	2 DUP(00H)
	DD	2 DUP(00H)
	DD	00H
	DD	05H
xdata$x	ENDS
;	COMDAT xdata$x
xdata$x	SEGMENT
__unwindtable$??0?$_Vector_alloc@U?$_Vec_base_types@UVector2D@@V?$allocator@UVector2D@@@std@@@std@@@std@@QAE@ABV?$allocator@UVector2D@@@1@@Z DD 0ffffffffH
	DD	FLAT:__unwindfunclet$??0?$_Vector_alloc@U?$_Vec_base_types@UVector2D@@V?$allocator@UVector2D@@@std@@@std@@@std@@QAE@ABV?$allocator@UVector2D@@@1@@Z$0
__ehfuncinfo$??0?$_Vector_alloc@U?$_Vec_base_types@UVector2D@@V?$allocator@UVector2D@@@std@@@std@@@std@@QAE@ABV?$allocator@UVector2D@@@1@@Z DD 019930522H
	DD	01H
	DD	FLAT:__unwindtable$??0?$_Vector_alloc@U?$_Vec_base_types@UVector2D@@V?$allocator@UVector2D@@@std@@@std@@@std@@QAE@ABV?$allocator@UVector2D@@@1@@Z
	DD	2 DUP(00H)
	DD	2 DUP(00H)
	DD	00H
	DD	01H
xdata$x	ENDS
;	COMDAT xdata$x
xdata$x	SEGMENT
__catchsym$?_Copy@?$basic_string@DU?$char_traits@D@std@@V?$allocator@D@2@@std@@QAEXII@Z$5 DD 040H
	DD	00H
	DD	00H
	DD	FLAT:__catch$?_Copy@?$basic_string@DU?$char_traits@D@std@@V?$allocator@D@2@@std@@QAEXII@Z$0
__catchsym$?_Copy@?$basic_string@DU?$char_traits@D@std@@V?$allocator@D@2@@std@@QAEXII@Z$4 DD 040H
	DD	00H
	DD	00H
	DD	FLAT:__catch$?_Copy@?$basic_string@DU?$char_traits@D@std@@V?$allocator@D@2@@std@@QAEXII@Z$1
__unwindtable$?_Copy@?$basic_string@DU?$char_traits@D@std@@V?$allocator@D@2@@std@@QAEXII@Z DD 0ffffffffH
	DD	00H
	DD	0ffffffffH
	DD	00H
	DD	01H
	DD	00H
	DD	01H
	DD	00H
__ehfuncinfo$?_Copy@?$basic_string@DU?$char_traits@D@std@@V?$allocator@D@2@@std@@QAEXII@Z DD 019930522H
	DD	04H
	DD	FLAT:__unwindtable$?_Copy@?$basic_string@DU?$char_traits@D@std@@V?$allocator@D@2@@std@@QAEXII@Z
	DD	02H
	DD	FLAT:__tryblocktable$?_Copy@?$basic_string@DU?$char_traits@D@std@@V?$allocator@D@2@@std@@QAEXII@Z
	DD	2 DUP(00H)
	DD	00H
	DD	01H
__tryblocktable$?_Copy@?$basic_string@DU?$char_traits@D@std@@V?$allocator@D@2@@std@@QAEXII@Z DD 02H
	DD	02H
	DD	03H
	DD	01H
	DD	FLAT:__catchsym$?_Copy@?$basic_string@DU?$char_traits@D@std@@V?$allocator@D@2@@std@@QAEXII@Z$4
	DD	00H
	DD	00H
	DD	03H
	DD	01H
	DD	FLAT:__catchsym$?_Copy@?$basic_string@DU?$char_traits@D@std@@V?$allocator@D@2@@std@@QAEXII@Z$5
xdata$x	ENDS
;	COMDAT xdata$x
xdata$x	SEGMENT
__ehfuncinfo$?c_str@?$basic_string@DU?$char_traits@D@std@@V?$allocator@D@2@@std@@QBEPBDXZ DD 019930522H
	DD	00H
	DD	00H
	DD	2 DUP(00H)
	DD	2 DUP(00H)
	DD	00H
	DD	05H
xdata$x	ENDS
;	COMDAT xdata$x
xdata$x	SEGMENT
__ehfuncinfo$??1?$basic_string@DU?$char_traits@D@std@@V?$allocator@D@2@@std@@QAE@XZ DD 019930522H
	DD	00H
	DD	00H
	DD	2 DUP(00H)
	DD	2 DUP(00H)
	DD	00H
	DD	05H
xdata$x	ENDS
;	COMDAT xdata$x
xdata$x	SEGMENT
__ehfuncinfo$??0?$basic_string@DU?$char_traits@D@std@@V?$allocator@D@2@@std@@QAE@$$QAV01@@Z DD 019930522H
	DD	00H
	DD	00H
	DD	2 DUP(00H)
	DD	2 DUP(00H)
	DD	00H
	DD	05H
xdata$x	ENDS
;	COMDAT xdata$x
xdata$x	SEGMENT
__unwindtable$??0?$basic_string@DU?$char_traits@D@std@@V?$allocator@D@2@@std@@QAE@PBD@Z DD 0ffffffffH
	DD	FLAT:__unwindfunclet$??0?$basic_string@DU?$char_traits@D@std@@V?$allocator@D@2@@std@@QAE@PBD@Z$0
__ehfuncinfo$??0?$basic_string@DU?$char_traits@D@std@@V?$allocator@D@2@@std@@QAE@PBD@Z DD 019930522H
	DD	01H
	DD	FLAT:__unwindtable$??0?$basic_string@DU?$char_traits@D@std@@V?$allocator@D@2@@std@@QAE@PBD@Z
	DD	2 DUP(00H)
	DD	2 DUP(00H)
	DD	00H
	DD	01H
xdata$x	ENDS
;	COMDAT xdata$x
xdata$x	SEGMENT
__ehfuncinfo$??0?$basic_string@DU?$char_traits@D@std@@V?$allocator@D@2@@std@@QAE@XZ DD 019930522H
	DD	00H
	DD	00H
	DD	2 DUP(00H)
	DD	2 DUP(00H)
	DD	00H
	DD	05H
xdata$x	ENDS
;	COMDAT xdata$x
xdata$x	SEGMENT
__ehfuncinfo$??1?$_String_alloc@U?$_String_base_types@DV?$allocator@D@std@@@std@@@std@@QAE@XZ DD 019930522H
	DD	00H
	DD	00H
	DD	2 DUP(00H)
	DD	2 DUP(00H)
	DD	00H
	DD	05H
xdata$x	ENDS
;	COMDAT xdata$x
xdata$x	SEGMENT
__unwindtable$??0?$_String_alloc@U?$_String_base_types@DV?$allocator@D@std@@@std@@@std@@QAE@$$QAV?$allocator@D@1@@Z DD 0ffffffffH
	DD	FLAT:__unwindfunclet$??0?$_String_alloc@U?$_String_base_types@DV?$allocator@D@std@@@std@@@std@@QAE@$$QAV?$allocator@D@1@@Z$0
__ehfuncinfo$??0?$_String_alloc@U?$_String_base_types@DV?$allocator@D@std@@@std@@@std@@QAE@$$QAV?$allocator@D@1@@Z DD 019930522H
	DD	01H
	DD	FLAT:__unwindtable$??0?$_String_alloc@U?$_String_base_types@DV?$allocator@D@std@@@std@@@std@@QAE@$$QAV?$allocator@D@1@@Z
	DD	2 DUP(00H)
	DD	2 DUP(00H)
	DD	00H
	DD	01H
xdata$x	ENDS
;	COMDAT xdata$x
xdata$x	SEGMENT
__unwindtable$??0?$_String_alloc@U?$_String_base_types@DV?$allocator@D@std@@@std@@@std@@QAE@ABV?$allocator@D@1@@Z DD 0ffffffffH
	DD	FLAT:__unwindfunclet$??0?$_String_alloc@U?$_String_base_types@DV?$allocator@D@std@@@std@@@std@@QAE@ABV?$allocator@D@1@@Z$0
__ehfuncinfo$??0?$_String_alloc@U?$_String_base_types@DV?$allocator@D@std@@@std@@@std@@QAE@ABV?$allocator@D@1@@Z DD 019930522H
	DD	01H
	DD	FLAT:__unwindtable$??0?$_String_alloc@U?$_String_base_types@DV?$allocator@D@std@@@std@@@std@@QAE@ABV?$allocator@D@1@@Z
	DD	2 DUP(00H)
	DD	2 DUP(00H)
	DD	00H
	DD	01H
xdata$x	ENDS
;	COMDAT xdata$x
xdata$x	SEGMENT
__unwindtable$?_Adopt@_Iterator_base12@std@@QAEXPBU_Container_base12@2@@Z DD 0ffffffffH
	DD	FLAT:__unwindfunclet$?_Adopt@_Iterator_base12@std@@QAEXPBU_Container_base12@2@@Z$0
	DD	0ffffffffH
	DD	FLAT:__unwindfunclet$?_Adopt@_Iterator_base12@std@@QAEXPBU_Container_base12@2@@Z$1
__ehfuncinfo$?_Adopt@_Iterator_base12@std@@QAEXPBU_Container_base12@2@@Z DD 019930522H
	DD	02H
	DD	FLAT:__unwindtable$?_Adopt@_Iterator_base12@std@@QAEXPBU_Container_base12@2@@Z
	DD	2 DUP(00H)
	DD	2 DUP(00H)
	DD	00H
	DD	01H
xdata$x	ENDS
;	COMDAT xdata$x
xdata$x	SEGMENT
__ehfuncinfo$??1_Iterator_base12@std@@QAE@XZ DD 019930522H
	DD	00H
	DD	00H
	DD	2 DUP(00H)
	DD	2 DUP(00H)
	DD	00H
	DD	05H
xdata$x	ENDS
;	COMDAT xdata$x
xdata$x	SEGMENT
__unwindtable$??4_Iterator_base12@std@@QAEAAU01@ABU01@@Z DD 0ffffffffH
	DD	FLAT:__unwindfunclet$??4_Iterator_base12@std@@QAEAAU01@ABU01@@Z$0
__ehfuncinfo$??4_Iterator_base12@std@@QAEAAU01@ABU01@@Z DD 019930522H
	DD	01H
	DD	FLAT:__unwindtable$??4_Iterator_base12@std@@QAEAAU01@ABU01@@Z
	DD	2 DUP(00H)
	DD	2 DUP(00H)
	DD	00H
	DD	01H
xdata$x	ENDS
;	COMDAT xdata$x
xdata$x	SEGMENT
__ehfuncinfo$??1_Container_base12@std@@QAE@XZ DD 019930522H
	DD	00H
	DD	00H
	DD	2 DUP(00H)
	DD	2 DUP(00H)
	DD	00H
	DD	05H
xdata$x	ENDS
CRT$XCU	SEGMENT
?MaxDouble$initializer$@@3P6AXXZA DD FLAT:??__EMaxDouble@@YAXXZ ; MaxDouble$initializer$
CRT$XCU	ENDS
CRT$XCU	SEGMENT
?MinDouble$initializer$@@3P6AXXZA DD FLAT:??__EMinDouble@@YAXXZ ; MinDouble$initializer$
CRT$XCU	ENDS
CRT$XCU	SEGMENT
?MaxFloat$initializer$@@3P6AXXZA DD FLAT:??__EMaxFloat@@YAXXZ ; MaxFloat$initializer$
CRT$XCU	ENDS
CRT$XCU	SEGMENT
?MinFloat$initializer$@@3P6AXXZA DD FLAT:??__EMinFloat@@YAXXZ ; MinFloat$initializer$
CRT$XCU	ENDS
;	COMDAT CRT$XCU
CRT$XCU	SEGMENT
??id$initializer$@?$num_put@DV?$ostreambuf_iterator@DU?$char_traits@D@std@@@std@@@std@@2P6AXXZA@@3P6AXXZA DD FLAT:??__E?id@?$num_put@DV?$ostreambuf_iterator@DU?$char_traits@D@std@@@std@@@std@@2V0locale@2@A@@YAXXZ ; ??id$initializer$@?$num_put@DV?$ostreambuf_iterator@DU?$char_traits@D@std@@@std@@@std@@2P6AXXZA@@3P6AXXZA
CRT$XCU	ENDS
;	COMDAT CRT$XCU
CRT$XCU	SEGMENT
??id$initializer$@?$num_get@DV?$istreambuf_iterator@DU?$char_traits@D@std@@@std@@@std@@2P6AXXZA@@3P6AXXZA DD FLAT:??__E?id@?$num_get@DV?$istreambuf_iterator@DU?$char_traits@D@std@@@std@@@std@@2V0locale@2@A@@YAXXZ ; ??id$initializer$@?$num_get@DV?$istreambuf_iterator@DU?$char_traits@D@std@@@std@@@std@@2P6AXXZA@@3P6AXXZA
CRT$XCU	ENDS
;	COMDAT CRT$XCU
CRT$XCU	SEGMENT
??id$initializer$@?$codecvt@DDU_Mbstatet@@@std@@2P6AXXZA@@3P6AXXZA DD FLAT:??__E?id@?$codecvt@DDU_Mbstatet@@@std@@2V0locale@2@A@@YAXXZ ; ??id$initializer$@?$codecvt@DDU_Mbstatet@@@std@@2P6AXXZA@@3P6AXXZA
CRT$XCU	ENDS
;	COMDAT CRT$XCU
CRT$XCU	SEGMENT
??id$initializer$@?$numpunct@D@std@@2P6AXXZA@@3P6AXXZA DD FLAT:??__E?id@?$numpunct@D@std@@2V0locale@2@A@@YAXXZ ; ??id$initializer$@?$numpunct@D@std@@2P6AXXZA@@3P6AXXZA
CRT$XCU	ENDS
; Function compile flags: /Odtp /RTCsu
; File d:\microsoft visual studio 14.0\vc\include\xmemory0
;	COMDAT ??$destroy@UVector2D@@@?$allocator@UVector2D@@@std@@QAEXPAUVector2D@@@Z
_TEXT	SEGMENT
_this$ = -4						; size = 4
__Ptr$ = 8						; size = 4
??$destroy@UVector2D@@@?$allocator@UVector2D@@@std@@QAEXPAUVector2D@@@Z PROC ; std::allocator<Vector2D>::destroy<Vector2D>, COMDAT
; _this$ = ecx

; 663  : 		{	// destroy object at _Ptr

	push	ebp
	mov	ebp, esp
	push	ecx
	mov	DWORD PTR [ebp-4], -858993460		; ccccccccH
	mov	DWORD PTR _this$[ebp], ecx

; 664  : 		_Ptr->~_Uty();
; 665  : 		}

	mov	esp, ebp
	pop	ebp
	ret	4
??$destroy@UVector2D@@@?$allocator@UVector2D@@@std@@QAEXPAUVector2D@@@Z ENDP ; std::allocator<Vector2D>::destroy<Vector2D>
_TEXT	ENDS
; Function compile flags: /Odtp /RTCsu
; File d:\microsoft visual studio 14.0\vc\include\xmemory0
;	COMDAT ??$construct@UVector2D@@$$V@?$allocator@UVector2D@@@std@@QAEXPAUVector2D@@@Z
_TEXT	SEGMENT
tv76 = -28						; size = 4
$T2 = -24						; size = 4
$T3 = -20						; size = 4
_this$ = -16						; size = 4
__$EHRec$ = -12						; size = 12
__Ptr$ = 8						; size = 4
??$construct@UVector2D@@$$V@?$allocator@UVector2D@@@std@@QAEXPAUVector2D@@@Z PROC ; std::allocator<Vector2D>::construct<Vector2D>, COMDAT
; _this$ = ecx

; 656  : 		{	// construct _Objty(_Types...) at _Ptr

	push	ebp
	mov	ebp, esp
	push	-1
	push	__ehhandler$??$construct@UVector2D@@$$V@?$allocator@UVector2D@@@std@@QAEXPAUVector2D@@@Z
	mov	eax, DWORD PTR fs:0
	push	eax
	sub	esp, 16					; 00000010H
	mov	eax, -858993460				; ccccccccH
	mov	DWORD PTR [ebp-28], eax
	mov	DWORD PTR [ebp-24], eax
	mov	DWORD PTR [ebp-20], eax
	mov	DWORD PTR [ebp-16], eax
	mov	eax, DWORD PTR ___security_cookie
	xor	eax, ebp
	push	eax
	lea	eax, DWORD PTR __$EHRec$[ebp]
	mov	DWORD PTR fs:0, eax
	mov	DWORD PTR _this$[ebp], ecx

; 657  : 		::new ((void *)_Ptr) _Objty(_STD forward<_Types>(_Args)...);

	mov	eax, DWORD PTR __Ptr$[ebp]
	push	eax
	push	16					; 00000010H
	call	??2@YAPAXIPAX@Z				; operator new
	add	esp, 8
	mov	DWORD PTR $T2[ebp], eax
	mov	DWORD PTR __$EHRec$[ebp+8], 0
	cmp	DWORD PTR $T2[ebp], 0
	je	SHORT $LN3@construct
	mov	ecx, DWORD PTR $T2[ebp]
	call	??0Vector2D@@QAE@XZ			; Vector2D::Vector2D
	mov	DWORD PTR tv76[ebp], eax
	jmp	SHORT $LN4@construct
$LN3@construct:
	mov	DWORD PTR tv76[ebp], 0
$LN4@construct:
	mov	ecx, DWORD PTR tv76[ebp]
	mov	DWORD PTR $T3[ebp], ecx
	mov	DWORD PTR __$EHRec$[ebp+8], -1

; 658  : 		}

	mov	ecx, DWORD PTR __$EHRec$[ebp]
	mov	DWORD PTR fs:0, ecx
	pop	ecx
	add	esp, 28					; 0000001cH
	cmp	ebp, esp
	call	__RTC_CheckEsp
	mov	esp, ebp
	pop	ebp
	ret	4
_TEXT	ENDS
;	COMDAT text$x
text$x	SEGMENT
__unwindfunclet$??$construct@UVector2D@@$$V@?$allocator@UVector2D@@@std@@QAEXPAUVector2D@@@Z$0:
	mov	eax, DWORD PTR __Ptr$[ebp]
	push	eax
	mov	eax, DWORD PTR $T2[ebp]
	push	eax
	call	??3@YAXPAX0@Z				; operator delete
	add	esp, 8
	ret	0
__ehhandler$??$construct@UVector2D@@$$V@?$allocator@UVector2D@@@std@@QAEXPAUVector2D@@@Z:
	mov	edx, DWORD PTR [esp+8]
	lea	eax, DWORD PTR [edx+12]
	mov	ecx, DWORD PTR [edx-20]
	xor	ecx, eax
	call	@__security_check_cookie@4
	mov	eax, OFFSET __ehfuncinfo$??$construct@UVector2D@@$$V@?$allocator@UVector2D@@@std@@QAEXPAUVector2D@@@Z
	jmp	___CxxFrameHandler3
text$x	ENDS
??$construct@UVector2D@@$$V@?$allocator@UVector2D@@@std@@QAEXPAUVector2D@@@Z ENDP ; std::allocator<Vector2D>::construct<Vector2D>
; Function compile flags: /Odtp /RTCsu
; File d:\microsoft visual studio 14.0\vc\include\xmemory0
;	COMDAT ??$destroy@UVector2D@@@?$allocator_traits@V?$allocator@UVector2D@@@std@@@std@@SAXAAV?$allocator@UVector2D@@@1@PAUVector2D@@@Z
_TEXT	SEGMENT
__Al$ = 8						; size = 4
__Ptr$ = 12						; size = 4
??$destroy@UVector2D@@@?$allocator_traits@V?$allocator@UVector2D@@@std@@@std@@SAXAAV?$allocator@UVector2D@@@1@PAUVector2D@@@Z PROC ; std::allocator_traits<std::allocator<Vector2D> >::destroy<Vector2D>, COMDAT

; 781  : 		{	// destroy object at _Ptr

	push	ebp
	mov	ebp, esp

; 782  : 		_Al.destroy(_Ptr);

	mov	eax, DWORD PTR __Ptr$[ebp]
	push	eax
	mov	ecx, DWORD PTR __Al$[ebp]
	call	??$destroy@UVector2D@@@?$allocator@UVector2D@@@std@@QAEXPAUVector2D@@@Z ; std::allocator<Vector2D>::destroy<Vector2D>

; 783  : 		}

	cmp	ebp, esp
	call	__RTC_CheckEsp
	pop	ebp
	ret	0
??$destroy@UVector2D@@@?$allocator_traits@V?$allocator@UVector2D@@@std@@@std@@SAXAAV?$allocator@UVector2D@@@1@PAUVector2D@@@Z ENDP ; std::allocator_traits<std::allocator<Vector2D> >::destroy<Vector2D>
_TEXT	ENDS
; Function compile flags: /Odtp /RTCsu
; File d:\microsoft visual studio 14.0\vc\include\xmemory0
;	COMDAT ??$construct@UVector2D@@$$V@?$allocator_traits@V?$allocator@UVector2D@@@std@@@std@@SAXAAV?$allocator@UVector2D@@@1@PAUVector2D@@@Z
_TEXT	SEGMENT
__Al$ = 8						; size = 4
__Ptr$ = 12						; size = 4
??$construct@UVector2D@@$$V@?$allocator_traits@V?$allocator@UVector2D@@@std@@@std@@SAXAAV?$allocator@UVector2D@@@1@PAUVector2D@@@Z PROC ; std::allocator_traits<std::allocator<Vector2D> >::construct<Vector2D>, COMDAT

; 774  : 		{	// construct _Objty(_Types...) at _Ptr

	push	ebp
	mov	ebp, esp

; 775  : 		_Al.construct(_Ptr, _STD forward<_Types>(_Args)...);

	mov	eax, DWORD PTR __Ptr$[ebp]
	push	eax
	mov	ecx, DWORD PTR __Al$[ebp]
	call	??$construct@UVector2D@@$$V@?$allocator@UVector2D@@@std@@QAEXPAUVector2D@@@Z ; std::allocator<Vector2D>::construct<Vector2D>

; 776  : 		}

	cmp	ebp, esp
	call	__RTC_CheckEsp
	pop	ebp
	ret	0
??$construct@UVector2D@@$$V@?$allocator_traits@V?$allocator@UVector2D@@@std@@@std@@SAXAAV?$allocator@UVector2D@@@1@PAUVector2D@@@Z ENDP ; std::allocator_traits<std::allocator<Vector2D> >::construct<Vector2D>
_TEXT	ENDS
; Function compile flags: /Odtp /RTCsu
; File d:\microsoft visual studio 14.0\vc\include\xmemory0
;	COMDAT ??$construct@U_Container_proxy@std@@U12@@?$allocator@U_Container_proxy@std@@@std@@QAEXPAU_Container_proxy@1@$$QAU21@@Z
_TEXT	SEGMENT
tv74 = -12						; size = 4
$T1 = -8						; size = 4
_this$ = -4						; size = 4
__Ptr$ = 8						; size = 4
_<_Args_0>$ = 12					; size = 4
??$construct@U_Container_proxy@std@@U12@@?$allocator@U_Container_proxy@std@@@std@@QAEXPAU_Container_proxy@1@$$QAU21@@Z PROC ; std::allocator<std::_Container_proxy>::construct<std::_Container_proxy,std::_Container_proxy>, COMDAT
; _this$ = ecx

; 656  : 		{	// construct _Objty(_Types...) at _Ptr

	push	ebp
	mov	ebp, esp
	sub	esp, 12					; 0000000cH
	mov	DWORD PTR [ebp-12], -858993460		; ccccccccH
	mov	DWORD PTR [ebp-8], -858993460		; ccccccccH
	mov	DWORD PTR [ebp-4], -858993460		; ccccccccH
	mov	DWORD PTR _this$[ebp], ecx

; 657  : 		::new ((void *)_Ptr) _Objty(_STD forward<_Types>(_Args)...);

	mov	eax, DWORD PTR __Ptr$[ebp]
	push	eax
	push	8
	call	??2@YAPAXIPAX@Z				; operator new
	add	esp, 8
	mov	DWORD PTR $T1[ebp], eax
	cmp	DWORD PTR $T1[ebp], 0
	je	SHORT $LN3@construct
	mov	ecx, DWORD PTR _<_Args_0>$[ebp]
	push	ecx
	call	??$forward@U_Container_proxy@std@@@std@@YA$$QAU_Container_proxy@0@AAU10@@Z ; std::forward<std::_Container_proxy>
	add	esp, 4
	mov	edx, DWORD PTR [eax]
	mov	eax, DWORD PTR [eax+4]
	mov	ecx, DWORD PTR $T1[ebp]
	mov	DWORD PTR [ecx], edx
	mov	DWORD PTR [ecx+4], eax
	mov	edx, DWORD PTR $T1[ebp]
	mov	DWORD PTR tv74[ebp], edx
	jmp	SHORT $LN1@construct
$LN3@construct:
	mov	DWORD PTR tv74[ebp], 0
$LN1@construct:

; 658  : 		}

	add	esp, 12					; 0000000cH
	cmp	ebp, esp
	call	__RTC_CheckEsp
	mov	esp, ebp
	pop	ebp
	ret	8
??$construct@U_Container_proxy@std@@U12@@?$allocator@U_Container_proxy@std@@@std@@QAEXPAU_Container_proxy@1@$$QAU21@@Z ENDP ; std::allocator<std::_Container_proxy>::construct<std::_Container_proxy,std::_Container_proxy>
_TEXT	ENDS
; Function compile flags: /Odtp /RTCsu
; File d:\microsoft visual studio 14.0\vc\include\xmemory0
;	COMDAT ??$destroy@U_Container_proxy@std@@@?$allocator@U_Container_proxy@std@@@std@@QAEXPAU_Container_proxy@1@@Z
_TEXT	SEGMENT
_this$ = -4						; size = 4
__Ptr$ = 8						; size = 4
??$destroy@U_Container_proxy@std@@@?$allocator@U_Container_proxy@std@@@std@@QAEXPAU_Container_proxy@1@@Z PROC ; std::allocator<std::_Container_proxy>::destroy<std::_Container_proxy>, COMDAT
; _this$ = ecx

; 663  : 		{	// destroy object at _Ptr

	push	ebp
	mov	ebp, esp
	push	ecx
	mov	DWORD PTR [ebp-4], -858993460		; ccccccccH
	mov	DWORD PTR _this$[ebp], ecx

; 664  : 		_Ptr->~_Uty();
; 665  : 		}

	mov	esp, ebp
	pop	ebp
	ret	4
??$destroy@U_Container_proxy@std@@@?$allocator@U_Container_proxy@std@@@std@@QAEXPAU_Container_proxy@1@@Z ENDP ; std::allocator<std::_Container_proxy>::destroy<std::_Container_proxy>
_TEXT	ENDS
; Function compile flags: /Odtp /RTCsu
; File d:\microsoft visual studio 14.0\vc\include\xmemory0
;	COMDAT ??$construct@PADAAPAD@?$allocator@D@std@@QAEXPAPADAAPAD@Z
_TEXT	SEGMENT
tv73 = -12						; size = 4
$T1 = -8						; size = 4
_this$ = -4						; size = 4
__Ptr$ = 8						; size = 4
_<_Args_0>$ = 12					; size = 4
??$construct@PADAAPAD@?$allocator@D@std@@QAEXPAPADAAPAD@Z PROC ; std::allocator<char>::construct<char *,char * &>, COMDAT
; _this$ = ecx

; 656  : 		{	// construct _Objty(_Types...) at _Ptr

	push	ebp
	mov	ebp, esp
	sub	esp, 12					; 0000000cH
	mov	DWORD PTR [ebp-12], -858993460		; ccccccccH
	mov	DWORD PTR [ebp-8], -858993460		; ccccccccH
	mov	DWORD PTR [ebp-4], -858993460		; ccccccccH
	mov	DWORD PTR _this$[ebp], ecx

; 657  : 		::new ((void *)_Ptr) _Objty(_STD forward<_Types>(_Args)...);

	mov	eax, DWORD PTR __Ptr$[ebp]
	push	eax
	push	4
	call	??2@YAPAXIPAX@Z				; operator new
	add	esp, 8
	mov	DWORD PTR $T1[ebp], eax
	cmp	DWORD PTR $T1[ebp], 0
	je	SHORT $LN3@construct
	mov	ecx, DWORD PTR _<_Args_0>$[ebp]
	push	ecx
	call	??$forward@AAPAD@std@@YAAAPADAAPAD@Z	; std::forward<char * &>
	add	esp, 4
	mov	edx, DWORD PTR $T1[ebp]
	mov	eax, DWORD PTR [eax]
	mov	DWORD PTR [edx], eax
	mov	ecx, DWORD PTR $T1[ebp]
	mov	DWORD PTR tv73[ebp], ecx
	jmp	SHORT $LN1@construct
$LN3@construct:
	mov	DWORD PTR tv73[ebp], 0
$LN1@construct:

; 658  : 		}

	add	esp, 12					; 0000000cH
	cmp	ebp, esp
	call	__RTC_CheckEsp
	mov	esp, ebp
	pop	ebp
	ret	8
??$construct@PADAAPAD@?$allocator@D@std@@QAEXPAPADAAPAD@Z ENDP ; std::allocator<char>::construct<char *,char * &>
_TEXT	ENDS
; Function compile flags: /Odtp /RTCsu
; File d:\microsoft visual studio 14.0\vc\include\xmemory0
;	COMDAT ??$destroy@PAD@?$allocator@D@std@@QAEXPAPAD@Z
_TEXT	SEGMENT
_this$ = -4						; size = 4
__Ptr$ = 8						; size = 4
??$destroy@PAD@?$allocator@D@std@@QAEXPAPAD@Z PROC	; std::allocator<char>::destroy<char *>, COMDAT
; _this$ = ecx

; 663  : 		{	// destroy object at _Ptr

	push	ebp
	mov	ebp, esp
	push	ecx
	mov	DWORD PTR [ebp-4], -858993460		; ccccccccH
	mov	DWORD PTR _this$[ebp], ecx

; 664  : 		_Ptr->~_Uty();
; 665  : 		}

	mov	esp, ebp
	pop	ebp
	ret	4
??$destroy@PAD@?$allocator@D@std@@QAEXPAPAD@Z ENDP	; std::allocator<char>::destroy<char *>
_TEXT	ENDS
; Function compile flags: /Odtp /RTCsu
; File d:\microsoft visual studio 14.0\vc\include\xmemory0
;	COMDAT ??$destroy@UVector2D@@@?$_Wrap_alloc@V?$allocator@UVector2D@@@std@@@std@@QAEXPAUVector2D@@@Z
_TEXT	SEGMENT
_this$ = -4						; size = 4
__Ptr$ = 8						; size = 4
??$destroy@UVector2D@@@?$_Wrap_alloc@V?$allocator@UVector2D@@@std@@@std@@QAEXPAUVector2D@@@Z PROC ; std::_Wrap_alloc<std::allocator<Vector2D> >::destroy<Vector2D>, COMDAT
; _this$ = ecx

; 926  : 		{	// destroy object at _Ptr

	push	ebp
	mov	ebp, esp
	push	ecx
	mov	DWORD PTR [ebp-4], -858993460		; ccccccccH
	mov	DWORD PTR _this$[ebp], ecx

; 927  : 		_Mytraits::destroy(*this, _Ptr);

	mov	eax, DWORD PTR __Ptr$[ebp]
	push	eax
	mov	ecx, DWORD PTR _this$[ebp]
	push	ecx
	call	??$destroy@UVector2D@@@?$allocator_traits@V?$allocator@UVector2D@@@std@@@std@@SAXAAV?$allocator@UVector2D@@@1@PAUVector2D@@@Z ; std::allocator_traits<std::allocator<Vector2D> >::destroy<Vector2D>
	add	esp, 8

; 928  : 		}

	add	esp, 4
	cmp	ebp, esp
	call	__RTC_CheckEsp
	mov	esp, ebp
	pop	ebp
	ret	4
??$destroy@UVector2D@@@?$_Wrap_alloc@V?$allocator@UVector2D@@@std@@@std@@QAEXPAUVector2D@@@Z ENDP ; std::_Wrap_alloc<std::allocator<Vector2D> >::destroy<Vector2D>
_TEXT	ENDS
; Function compile flags: /Odtp /RTCsu
; File d:\microsoft visual studio 14.0\vc\include\xmemory0
;	COMDAT ??$construct@UVector2D@@$$V@?$_Wrap_alloc@V?$allocator@UVector2D@@@std@@@std@@QAEXPAUVector2D@@@Z
_TEXT	SEGMENT
_this$ = -4						; size = 4
__Ptr$ = 8						; size = 4
??$construct@UVector2D@@$$V@?$_Wrap_alloc@V?$allocator@UVector2D@@@std@@@std@@QAEXPAUVector2D@@@Z PROC ; std::_Wrap_alloc<std::allocator<Vector2D> >::construct<Vector2D>, COMDAT
; _this$ = ecx

; 918  : 		{	// construct _Ty(_Types...) at _Ptr

	push	ebp
	mov	ebp, esp
	push	ecx
	mov	DWORD PTR [ebp-4], -858993460		; ccccccccH
	mov	DWORD PTR _this$[ebp], ecx

; 919  : 		_Mytraits::construct(*this, _Ptr,

	mov	eax, DWORD PTR __Ptr$[ebp]
	push	eax
	mov	ecx, DWORD PTR _this$[ebp]
	push	ecx
	call	??$construct@UVector2D@@$$V@?$allocator_traits@V?$allocator@UVector2D@@@std@@@std@@SAXAAV?$allocator@UVector2D@@@1@PAUVector2D@@@Z ; std::allocator_traits<std::allocator<Vector2D> >::construct<Vector2D>
	add	esp, 8

; 920  : 			_STD forward<_Types>(_Args)...);
; 921  : 		}

	add	esp, 4
	cmp	ebp, esp
	call	__RTC_CheckEsp
	mov	esp, ebp
	pop	ebp
	ret	4
??$construct@UVector2D@@$$V@?$_Wrap_alloc@V?$allocator@UVector2D@@@std@@@std@@QAEXPAUVector2D@@@Z ENDP ; std::_Wrap_alloc<std::allocator<Vector2D> >::construct<Vector2D>
_TEXT	ENDS
; Function compile flags: /Odtp /RTCsu
; File d:\microsoft visual studio 14.0\vc\include\xlocnum
;	COMDAT ??__E?id@?$numpunct@D@std@@2V0locale@2@A@@YAXXZ
text$di	SEGMENT
??__E?id@?$numpunct@D@std@@2V0locale@2@A@@YAXXZ PROC	; `dynamic initializer for 'std::numpunct<char>::id'', COMDAT

; 259  : 	__PURE_APPDOMAIN_GLOBAL locale::id numpunct<_Elem>::id;

	push	ebp
	mov	ebp, esp
	push	0
	mov	ecx, OFFSET ?id@?$numpunct@D@std@@2V0locale@2@A ; std::numpunct<char>::id
	call	??0id@locale@std@@QAE@I@Z		; std::locale::id::id
	cmp	ebp, esp
	call	__RTC_CheckEsp
	pop	ebp
	ret	0
??__E?id@?$numpunct@D@std@@2V0locale@2@A@@YAXXZ ENDP	; `dynamic initializer for 'std::numpunct<char>::id''
text$di	ENDS
; Function compile flags: /Odtp /RTCsu
; File d:\microsoft visual studio 14.0\vc\include\xlocale
;	COMDAT ??__E?id@?$codecvt@DDU_Mbstatet@@@std@@2V0locale@2@A@@YAXXZ
text$di	SEGMENT
??__E?id@?$codecvt@DDU_Mbstatet@@@std@@2V0locale@2@A@@YAXXZ PROC ; `dynamic initializer for 'std::codecvt<char,char,_Mbstatet>::id'', COMDAT

; 994  : 	__PURE_APPDOMAIN_GLOBAL locale::id codecvt<_Elem, _Byte, _Statype>::id;

	push	ebp
	mov	ebp, esp
	push	0
	mov	ecx, OFFSET ?id@?$codecvt@DDU_Mbstatet@@@std@@2V0locale@2@A ; std::codecvt<char,char,_Mbstatet>::id
	call	??0id@locale@std@@QAE@I@Z		; std::locale::id::id
	cmp	ebp, esp
	call	__RTC_CheckEsp
	pop	ebp
	ret	0
??__E?id@?$codecvt@DDU_Mbstatet@@@std@@2V0locale@2@A@@YAXXZ ENDP ; `dynamic initializer for 'std::codecvt<char,char,_Mbstatet>::id''
text$di	ENDS
; Function compile flags: /Odtp /RTCsu
; File d:\microsoft visual studio 14.0\vc\include\xlocnum
;	COMDAT ??__E?id@?$num_get@DV?$istreambuf_iterator@DU?$char_traits@D@std@@@std@@@std@@2V0locale@2@A@@YAXXZ
text$di	SEGMENT
??__E?id@?$num_get@DV?$istreambuf_iterator@DU?$char_traits@D@std@@@std@@@std@@2V0locale@2@A@@YAXXZ PROC ; `dynamic initializer for 'std::num_get<char,std::istreambuf_iterator<char,std::char_traits<char> > >::id'', COMDAT

; 1114 : 	__PURE_APPDOMAIN_GLOBAL locale::id num_get<_Elem, _InIt>::id;

	push	ebp
	mov	ebp, esp
	push	0
	mov	ecx, OFFSET ?id@?$num_get@DV?$istreambuf_iterator@DU?$char_traits@D@std@@@std@@@std@@2V0locale@2@A ; std::num_get<char,std::istreambuf_iterator<char,std::char_traits<char> > >::id
	call	??0id@locale@std@@QAE@I@Z		; std::locale::id::id
	cmp	ebp, esp
	call	__RTC_CheckEsp
	pop	ebp
	ret	0
??__E?id@?$num_get@DV?$istreambuf_iterator@DU?$char_traits@D@std@@@std@@@std@@2V0locale@2@A@@YAXXZ ENDP ; `dynamic initializer for 'std::num_get<char,std::istreambuf_iterator<char,std::char_traits<char> > >::id''
text$di	ENDS
; Function compile flags: /Odtp /RTCsu
; File d:\microsoft visual studio 14.0\vc\include\xlocnum
;	COMDAT ??__E?id@?$num_put@DV?$ostreambuf_iterator@DU?$char_traits@D@std@@@std@@@std@@2V0locale@2@A@@YAXXZ
text$di	SEGMENT
??__E?id@?$num_put@DV?$ostreambuf_iterator@DU?$char_traits@D@std@@@std@@@std@@2V0locale@2@A@@YAXXZ PROC ; `dynamic initializer for 'std::num_put<char,std::ostreambuf_iterator<char,std::char_traits<char> > >::id'', COMDAT

; 1558 : 	__PURE_APPDOMAIN_GLOBAL locale::id num_put<_Elem, _OutIt>::id;

	push	ebp
	mov	ebp, esp
	push	0
	mov	ecx, OFFSET ?id@?$num_put@DV?$ostreambuf_iterator@DU?$char_traits@D@std@@@std@@@std@@2V0locale@2@A ; std::num_put<char,std::ostreambuf_iterator<char,std::char_traits<char> > >::id
	call	??0id@locale@std@@QAE@I@Z		; std::locale::id::id
	cmp	ebp, esp
	call	__RTC_CheckEsp
	pop	ebp
	ret	0
??__E?id@?$num_put@DV?$ostreambuf_iterator@DU?$char_traits@D@std@@@std@@@std@@2V0locale@2@A@@YAXXZ ENDP ; `dynamic initializer for 'std::num_put<char,std::ostreambuf_iterator<char,std::char_traits<char> > >::id''
text$di	ENDS
; Function compile flags: /Odtp /RTCsu
; File d:\microsoft visual studio 14.0\vc\include\xmemory0
;	COMDAT ??$_Destroy_range@U?$_Wrap_alloc@V?$allocator@UVector2D@@@std@@@std@@@std@@YAXPAUVector2D@@0AAU?$_Wrap_alloc@V?$allocator@UVector2D@@@std@@@0@U_Nonscalar_ptr_iterator_tag@0@@Z
_TEXT	SEGMENT
__First$ = 8						; size = 4
__Last$ = 12						; size = 4
__Al$ = 16						; size = 4
___formal$ = 20						; size = 1
??$_Destroy_range@U?$_Wrap_alloc@V?$allocator@UVector2D@@@std@@@std@@@std@@YAXPAUVector2D@@0AAU?$_Wrap_alloc@V?$allocator@UVector2D@@@std@@@0@U_Nonscalar_ptr_iterator_tag@0@@Z PROC ; std::_Destroy_range<std::_Wrap_alloc<std::allocator<Vector2D> > >, COMDAT

; 170  : 	{	// destroy [_First, _Last), arbitrary type

	push	ebp
	mov	ebp, esp

; 171  : 	for (; _First != _Last; ++_First)

	jmp	SHORT $LN4@Destroy_ra
$LN2@Destroy_ra:
	mov	eax, DWORD PTR __First$[ebp]
	add	eax, 16					; 00000010H
	mov	DWORD PTR __First$[ebp], eax
$LN4@Destroy_ra:
	mov	ecx, DWORD PTR __First$[ebp]
	cmp	ecx, DWORD PTR __Last$[ebp]
	je	SHORT $LN1@Destroy_ra

; 172  : 		_Al.destroy(_STD addressof(*_First));

	mov	edx, DWORD PTR __First$[ebp]
	push	edx
	call	??$addressof@UVector2D@@@std@@YAPAUVector2D@@AAU1@@Z ; std::addressof<Vector2D>
	add	esp, 4
	push	eax
	mov	ecx, DWORD PTR __Al$[ebp]
	call	??$destroy@UVector2D@@@?$_Wrap_alloc@V?$allocator@UVector2D@@@std@@@std@@QAEXPAUVector2D@@@Z ; std::_Wrap_alloc<std::allocator<Vector2D> >::destroy<Vector2D>
	jmp	SHORT $LN2@Destroy_ra
$LN1@Destroy_ra:

; 173  : 	}

	cmp	ebp, esp
	call	__RTC_CheckEsp
	pop	ebp
	ret	0
??$_Destroy_range@U?$_Wrap_alloc@V?$allocator@UVector2D@@@std@@@std@@@std@@YAXPAUVector2D@@0AAU?$_Wrap_alloc@V?$allocator@UVector2D@@@std@@@0@U_Nonscalar_ptr_iterator_tag@0@@Z ENDP ; std::_Destroy_range<std::_Wrap_alloc<std::allocator<Vector2D> > >
_TEXT	ENDS
; Function compile flags: /Odtp /RTCsu
; File d:\microsoft visual studio 14.0\vc\include\xmemory0
;	COMDAT ??$construct@U_Container_proxy@std@@U12@@?$allocator_traits@V?$allocator@U_Container_proxy@std@@@std@@@std@@SAXAAV?$allocator@U_Container_proxy@std@@@1@PAU_Container_proxy@1@$$QAU31@@Z
_TEXT	SEGMENT
__Al$ = 8						; size = 4
__Ptr$ = 12						; size = 4
_<_Args_0>$ = 16					; size = 4
??$construct@U_Container_proxy@std@@U12@@?$allocator_traits@V?$allocator@U_Container_proxy@std@@@std@@@std@@SAXAAV?$allocator@U_Container_proxy@std@@@1@PAU_Container_proxy@1@$$QAU31@@Z PROC ; std::allocator_traits<std::allocator<std::_Container_proxy> >::construct<std::_Container_proxy,std::_Container_proxy>, COMDAT

; 774  : 		{	// construct _Objty(_Types...) at _Ptr

	push	ebp
	mov	ebp, esp

; 775  : 		_Al.construct(_Ptr, _STD forward<_Types>(_Args)...);

	mov	eax, DWORD PTR _<_Args_0>$[ebp]
	push	eax
	call	??$forward@U_Container_proxy@std@@@std@@YA$$QAU_Container_proxy@0@AAU10@@Z ; std::forward<std::_Container_proxy>
	add	esp, 4
	push	eax
	mov	ecx, DWORD PTR __Ptr$[ebp]
	push	ecx
	mov	ecx, DWORD PTR __Al$[ebp]
	call	??$construct@U_Container_proxy@std@@U12@@?$allocator@U_Container_proxy@std@@@std@@QAEXPAU_Container_proxy@1@$$QAU21@@Z ; std::allocator<std::_Container_proxy>::construct<std::_Container_proxy,std::_Container_proxy>

; 776  : 		}

	cmp	ebp, esp
	call	__RTC_CheckEsp
	pop	ebp
	ret	0
??$construct@U_Container_proxy@std@@U12@@?$allocator_traits@V?$allocator@U_Container_proxy@std@@@std@@@std@@SAXAAV?$allocator@U_Container_proxy@std@@@1@PAU_Container_proxy@1@$$QAU31@@Z ENDP ; std::allocator_traits<std::allocator<std::_Container_proxy> >::construct<std::_Container_proxy,std::_Container_proxy>
_TEXT	ENDS
; Function compile flags: /Odtp /RTCsu
; File d:\microsoft visual studio 14.0\vc\include\type_traits
;	COMDAT ??$forward@U_Container_proxy@std@@@std@@YA$$QAU_Container_proxy@0@AAU10@@Z
_TEXT	SEGMENT
__Arg$ = 8						; size = 4
??$forward@U_Container_proxy@std@@@std@@YA$$QAU_Container_proxy@0@AAU10@@Z PROC ; std::forward<std::_Container_proxy>, COMDAT

; 1293 : 	{	// forward an lvalue as either an lvalue or an rvalue

	push	ebp
	mov	ebp, esp

; 1294 : 	return (static_cast<_Ty&&>(_Arg));

	mov	eax, DWORD PTR __Arg$[ebp]

; 1295 : 	}

	pop	ebp
	ret	0
??$forward@U_Container_proxy@std@@@std@@YA$$QAU_Container_proxy@0@AAU10@@Z ENDP ; std::forward<std::_Container_proxy>
_TEXT	ENDS
; Function compile flags: /Odtp /RTCsu
; File d:\microsoft visual studio 14.0\vc\include\xmemory0
;	COMDAT ??$destroy@U_Container_proxy@std@@@?$allocator_traits@V?$allocator@U_Container_proxy@std@@@std@@@std@@SAXAAV?$allocator@U_Container_proxy@std@@@1@PAU_Container_proxy@1@@Z
_TEXT	SEGMENT
__Al$ = 8						; size = 4
__Ptr$ = 12						; size = 4
??$destroy@U_Container_proxy@std@@@?$allocator_traits@V?$allocator@U_Container_proxy@std@@@std@@@std@@SAXAAV?$allocator@U_Container_proxy@std@@@1@PAU_Container_proxy@1@@Z PROC ; std::allocator_traits<std::allocator<std::_Container_proxy> >::destroy<std::_Container_proxy>, COMDAT

; 781  : 		{	// destroy object at _Ptr

	push	ebp
	mov	ebp, esp

; 782  : 		_Al.destroy(_Ptr);

	mov	eax, DWORD PTR __Ptr$[ebp]
	push	eax
	mov	ecx, DWORD PTR __Al$[ebp]
	call	??$destroy@U_Container_proxy@std@@@?$allocator@U_Container_proxy@std@@@std@@QAEXPAU_Container_proxy@1@@Z ; std::allocator<std::_Container_proxy>::destroy<std::_Container_proxy>

; 783  : 		}

	cmp	ebp, esp
	call	__RTC_CheckEsp
	pop	ebp
	ret	0
??$destroy@U_Container_proxy@std@@@?$allocator_traits@V?$allocator@U_Container_proxy@std@@@std@@@std@@SAXAAV?$allocator@U_Container_proxy@std@@@1@PAU_Container_proxy@1@@Z ENDP ; std::allocator_traits<std::allocator<std::_Container_proxy> >::destroy<std::_Container_proxy>
_TEXT	ENDS
; Function compile flags: /Odtp /RTCsu
; File d:\microsoft visual studio 14.0\vc\include\xmemory0
;	COMDAT ??$construct@PADAAPAD@?$allocator_traits@V?$allocator@D@std@@@std@@SAXAAV?$allocator@D@1@PAPADAAPAD@Z
_TEXT	SEGMENT
__Al$ = 8						; size = 4
__Ptr$ = 12						; size = 4
_<_Args_0>$ = 16					; size = 4
??$construct@PADAAPAD@?$allocator_traits@V?$allocator@D@std@@@std@@SAXAAV?$allocator@D@1@PAPADAAPAD@Z PROC ; std::allocator_traits<std::allocator<char> >::construct<char *,char * &>, COMDAT

; 774  : 		{	// construct _Objty(_Types...) at _Ptr

	push	ebp
	mov	ebp, esp

; 775  : 		_Al.construct(_Ptr, _STD forward<_Types>(_Args)...);

	mov	eax, DWORD PTR _<_Args_0>$[ebp]
	push	eax
	call	??$forward@AAPAD@std@@YAAAPADAAPAD@Z	; std::forward<char * &>
	add	esp, 4
	push	eax
	mov	ecx, DWORD PTR __Ptr$[ebp]
	push	ecx
	mov	ecx, DWORD PTR __Al$[ebp]
	call	??$construct@PADAAPAD@?$allocator@D@std@@QAEXPAPADAAPAD@Z ; std::allocator<char>::construct<char *,char * &>

; 776  : 		}

	cmp	ebp, esp
	call	__RTC_CheckEsp
	pop	ebp
	ret	0
??$construct@PADAAPAD@?$allocator_traits@V?$allocator@D@std@@@std@@SAXAAV?$allocator@D@1@PAPADAAPAD@Z ENDP ; std::allocator_traits<std::allocator<char> >::construct<char *,char * &>
_TEXT	ENDS
; Function compile flags: /Odtp /RTCsu
; File d:\microsoft visual studio 14.0\vc\include\type_traits
;	COMDAT ??$forward@AAPAD@std@@YAAAPADAAPAD@Z
_TEXT	SEGMENT
__Arg$ = 8						; size = 4
??$forward@AAPAD@std@@YAAAPADAAPAD@Z PROC		; std::forward<char * &>, COMDAT

; 1293 : 	{	// forward an lvalue as either an lvalue or an rvalue

	push	ebp
	mov	ebp, esp

; 1294 : 	return (static_cast<_Ty&&>(_Arg));

	mov	eax, DWORD PTR __Arg$[ebp]

; 1295 : 	}

	pop	ebp
	ret	0
??$forward@AAPAD@std@@YAAAPADAAPAD@Z ENDP		; std::forward<char * &>
_TEXT	ENDS
; Function compile flags: /Odtp /RTCsu
; File d:\microsoft visual studio 14.0\vc\include\xstddef
;	COMDAT ??$_Addressof@D@std@@YAPADAADU?$integral_constant@_N$0A@@0@@Z
_TEXT	SEGMENT
__Val$ = 8						; size = 4
___formal$ = 12						; size = 1
??$_Addressof@D@std@@YAPADAADU?$integral_constant@_N$0A@@0@@Z PROC ; std::_Addressof<char>, COMDAT

; 691  : 	{	// return address of object _Val

	push	ebp
	mov	ebp, esp

; 692  : 	return (reinterpret_cast<_Ty *>(

	mov	eax, DWORD PTR __Val$[ebp]

; 693  : 		&const_cast<char&>(
; 694  : 		reinterpret_cast<const volatile char&>(_Val))));
; 695  : 	}

	pop	ebp
	ret	0
??$_Addressof@D@std@@YAPADAADU?$integral_constant@_N$0A@@0@@Z ENDP ; std::_Addressof<char>
_TEXT	ENDS
; Function compile flags: /Odtp /RTCsu
; File d:\microsoft visual studio 14.0\vc\include\xmemory0
;	COMDAT ??$destroy@PAD@?$allocator_traits@V?$allocator@D@std@@@std@@SAXAAV?$allocator@D@1@PAPAD@Z
_TEXT	SEGMENT
__Al$ = 8						; size = 4
__Ptr$ = 12						; size = 4
??$destroy@PAD@?$allocator_traits@V?$allocator@D@std@@@std@@SAXAAV?$allocator@D@1@PAPAD@Z PROC ; std::allocator_traits<std::allocator<char> >::destroy<char *>, COMDAT

; 781  : 		{	// destroy object at _Ptr

	push	ebp
	mov	ebp, esp

; 782  : 		_Al.destroy(_Ptr);

	mov	eax, DWORD PTR __Ptr$[ebp]
	push	eax
	mov	ecx, DWORD PTR __Al$[ebp]
	call	??$destroy@PAD@?$allocator@D@std@@QAEXPAPAD@Z ; std::allocator<char>::destroy<char *>

; 783  : 		}

	cmp	ebp, esp
	call	__RTC_CheckEsp
	pop	ebp
	ret	0
??$destroy@PAD@?$allocator_traits@V?$allocator@D@std@@@std@@SAXAAV?$allocator@D@1@PAPAD@Z ENDP ; std::allocator_traits<std::allocator<char> >::destroy<char *>
_TEXT	ENDS
; Function compile flags: /Odtp /RTCsu
; File d:\microsoft visual studio 14.0\vc\include\type_traits
;	COMDAT ??$forward@ABV?$allocator@D@std@@@std@@YAABV?$allocator@D@0@ABV10@@Z
_TEXT	SEGMENT
__Arg$ = 8						; size = 4
??$forward@ABV?$allocator@D@std@@@std@@YAABV?$allocator@D@0@ABV10@@Z PROC ; std::forward<std::allocator<char> const &>, COMDAT

; 1293 : 	{	// forward an lvalue as either an lvalue or an rvalue

	push	ebp
	mov	ebp, esp

; 1294 : 	return (static_cast<_Ty&&>(_Arg));

	mov	eax, DWORD PTR __Arg$[ebp]

; 1295 : 	}

	pop	ebp
	ret	0
??$forward@ABV?$allocator@D@std@@@std@@YAABV?$allocator@D@0@ABV10@@Z ENDP ; std::forward<std::allocator<char> const &>
_TEXT	ENDS
; Function compile flags: /Odtp /RTCsu
; File d:\microsoft visual studio 14.0\vc\include\type_traits
;	COMDAT ??$forward@V?$allocator@D@std@@@std@@YA$$QAV?$allocator@D@0@AAV10@@Z
_TEXT	SEGMENT
__Arg$ = 8						; size = 4
??$forward@V?$allocator@D@std@@@std@@YA$$QAV?$allocator@D@0@AAV10@@Z PROC ; std::forward<std::allocator<char> >, COMDAT

; 1293 : 	{	// forward an lvalue as either an lvalue or an rvalue

	push	ebp
	mov	ebp, esp

; 1294 : 	return (static_cast<_Ty&&>(_Arg));

	mov	eax, DWORD PTR __Arg$[ebp]

; 1295 : 	}

	pop	ebp
	ret	0
??$forward@V?$allocator@D@std@@@std@@YA$$QAV?$allocator@D@0@AAV10@@Z ENDP ; std::forward<std::allocator<char> >
_TEXT	ENDS
; Function compile flags: /Odtp /RTCsu
; File d:\microsoft visual studio 14.0\vc\include\type_traits
;	COMDAT ??$forward@ABV?$allocator@UVector2D@@@std@@@std@@YAABV?$allocator@UVector2D@@@0@ABV10@@Z
_TEXT	SEGMENT
__Arg$ = 8						; size = 4
??$forward@ABV?$allocator@UVector2D@@@std@@@std@@YAABV?$allocator@UVector2D@@@0@ABV10@@Z PROC ; std::forward<std::allocator<Vector2D> const &>, COMDAT

; 1293 : 	{	// forward an lvalue as either an lvalue or an rvalue

	push	ebp
	mov	ebp, esp

; 1294 : 	return (static_cast<_Ty&&>(_Arg));

	mov	eax, DWORD PTR __Arg$[ebp]

; 1295 : 	}

	pop	ebp
	ret	0
??$forward@ABV?$allocator@UVector2D@@@std@@@std@@YAABV?$allocator@UVector2D@@@0@ABV10@@Z ENDP ; std::forward<std::allocator<Vector2D> const &>
_TEXT	ENDS
; Function compile flags: /Odtp /RTCsu
; File d:\microsoft visual studio 14.0\vc\include\xmemory
;	COMDAT ??$_Uninit_def_fill_n@PAUVector2D@@IV?$allocator@UVector2D@@@std@@U1@@std@@YAXPAUVector2D@@IAAU?$_Wrap_alloc@V?$allocator@UVector2D@@@std@@@0@0U_Nonscalar_ptr_iterator_tag@0@@Z
_TEXT	SEGMENT
__Next$ = -20						; size = 4
__$EHRec$ = -16						; size = 16
__First$ = 8						; size = 4
__Count$ = 12						; size = 4
__Al$ = 16						; size = 4
___formal$ = 20						; size = 4
___formal$ = 24						; size = 1
??$_Uninit_def_fill_n@PAUVector2D@@IV?$allocator@UVector2D@@@std@@U1@@std@@YAXPAUVector2D@@IAAU?$_Wrap_alloc@V?$allocator@UVector2D@@@std@@@0@0U_Nonscalar_ptr_iterator_tag@0@@Z PROC ; std::_Uninit_def_fill_n<Vector2D *,unsigned int,std::allocator<Vector2D>,Vector2D>, COMDAT

; 643  : 	{	// copy _Count * _Valty() to raw _First, using _Al, arbitrary type

	push	ebp
	mov	ebp, esp
	push	-1
	push	__ehhandler$??$_Uninit_def_fill_n@PAUVector2D@@IV?$allocator@UVector2D@@@std@@U1@@std@@YAXPAUVector2D@@IAAU?$_Wrap_alloc@V?$allocator@UVector2D@@@std@@@0@0U_Nonscalar_ptr_iterator_tag@0@@Z
	mov	eax, DWORD PTR fs:0
	push	eax
	push	ecx
	push	ecx
	push	ebx
	push	esi
	push	edi
	mov	DWORD PTR [ebp-20], -858993460		; ccccccccH
	mov	eax, DWORD PTR ___security_cookie
	xor	eax, ebp
	push	eax
	lea	eax, DWORD PTR __$EHRec$[ebp+4]
	mov	DWORD PTR fs:0, eax
	mov	DWORD PTR __$EHRec$[ebp], esp

; 644  :  #if _ITERATOR_DEBUG_LEVEL == 2
; 645  : //	if (_Count < 0)
; 646  : //		_DEBUG_ERROR("negative count in uninitialized fill");
; 647  :  #endif /* _ITERATOR_DEBUG_LEVEL == 2 */
; 648  : 
; 649  : 	_FwdIt _Next = _First;

	mov	eax, DWORD PTR __First$[ebp]
	mov	DWORD PTR __Next$[ebp], eax

; 650  : 
; 651  : 	_TRY_BEGIN

	mov	DWORD PTR __$EHRec$[ebp+12], 0

; 652  : 	for (; 0 < _Count; --_Count, (void)++_First)

	jmp	SHORT $LN4@Uninit_def
$LN2@Uninit_def:
	mov	ecx, DWORD PTR __Count$[ebp]
	sub	ecx, 1
	mov	DWORD PTR __Count$[ebp], ecx
	mov	edx, DWORD PTR __First$[ebp]
	add	edx, 16					; 00000010H
	mov	DWORD PTR __First$[ebp], edx
$LN4@Uninit_def:
	cmp	DWORD PTR __Count$[ebp], 0
	jbe	SHORT $LN3@Uninit_def

; 653  : 
; 654  : 		_Al.construct(_First);

	mov	eax, DWORD PTR __First$[ebp]
	push	eax
	mov	ecx, DWORD PTR __Al$[ebp]
	call	??$construct@UVector2D@@$$V@?$_Wrap_alloc@V?$allocator@UVector2D@@@std@@@std@@QAEXPAUVector2D@@@Z ; std::_Wrap_alloc<std::allocator<Vector2D> >::construct<Vector2D>
	jmp	SHORT $LN2@Uninit_def
$LN3@Uninit_def:
	jmp	SHORT $LN10@Uninit_def
__catch$??$_Uninit_def_fill_n@PAUVector2D@@IV?$allocator@UVector2D@@@std@@U1@@std@@YAXPAUVector2D@@IAAU?$_Wrap_alloc@V?$allocator@UVector2D@@@std@@@0@0U_Nonscalar_ptr_iterator_tag@0@@Z$0:

; 655  : 
; 656  : 	_CATCH_ALL
; 657  : 	for (; _Next != _First; ++_Next)

	jmp	SHORT $LN7@Uninit_def
$LN5@Uninit_def:
	mov	ecx, DWORD PTR __Next$[ebp]
	add	ecx, 16					; 00000010H
	mov	DWORD PTR __Next$[ebp], ecx
$LN7@Uninit_def:
	mov	edx, DWORD PTR __Next$[ebp]
	cmp	edx, DWORD PTR __First$[ebp]
	je	SHORT $LN6@Uninit_def

; 658  : 		_Al.destroy(_Next);

	mov	eax, DWORD PTR __Next$[ebp]
	push	eax
	mov	ecx, DWORD PTR __Al$[ebp]
	call	??$destroy@UVector2D@@@?$_Wrap_alloc@V?$allocator@UVector2D@@@std@@@std@@QAEXPAUVector2D@@@Z ; std::_Wrap_alloc<std::allocator<Vector2D> >::destroy<Vector2D>
	jmp	SHORT $LN5@Uninit_def
$LN6@Uninit_def:

; 659  : 	_RERAISE;

	push	0
	push	0
	call	__CxxThrowException@8

; 660  : 	_CATCH_END

	mov	eax, $LN13@Uninit_def
	ret	0
$LN10@Uninit_def:
	mov	DWORD PTR __$EHRec$[ebp+12], -1
	jmp	SHORT $LN9@Uninit_def
$LN13@Uninit_def:
	mov	DWORD PTR __$EHRec$[ebp+12], -1
$LN9@Uninit_def:

; 661  : 	}

	mov	ecx, DWORD PTR __$EHRec$[ebp+4]
	mov	DWORD PTR fs:0, ecx
	pop	ecx
	pop	edi
	pop	esi
	pop	ebx
	add	esp, 20					; 00000014H
	cmp	ebp, esp
	call	__RTC_CheckEsp
	mov	esp, ebp
	pop	ebp
	ret	0
_TEXT	ENDS
;	COMDAT text$x
text$x	SEGMENT
__ehhandler$??$_Uninit_def_fill_n@PAUVector2D@@IV?$allocator@UVector2D@@@std@@U1@@std@@YAXPAUVector2D@@IAAU?$_Wrap_alloc@V?$allocator@UVector2D@@@std@@@0@0U_Nonscalar_ptr_iterator_tag@0@@Z:
	mov	edx, DWORD PTR [esp+8]
	lea	eax, DWORD PTR [edx+12]
	mov	ecx, DWORD PTR [edx-24]
	xor	ecx, eax
	call	@__security_check_cookie@4
	mov	eax, OFFSET __ehfuncinfo$??$_Uninit_def_fill_n@PAUVector2D@@IV?$allocator@UVector2D@@@std@@U1@@std@@YAXPAUVector2D@@IAAU?$_Wrap_alloc@V?$allocator@UVector2D@@@std@@@0@0U_Nonscalar_ptr_iterator_tag@0@@Z
	jmp	___CxxFrameHandler3
text$x	ENDS
??$_Uninit_def_fill_n@PAUVector2D@@IV?$allocator@UVector2D@@@std@@U1@@std@@YAXPAUVector2D@@IAAU?$_Wrap_alloc@V?$allocator@UVector2D@@@std@@@0@0U_Nonscalar_ptr_iterator_tag@0@@Z ENDP ; std::_Uninit_def_fill_n<Vector2D *,unsigned int,std::allocator<Vector2D>,Vector2D>
; Function compile flags: /Odtp /RTCsu
; File d:\microsoft visual studio 14.0\vc\include\xutility
;	COMDAT ??$_Ptr_cat@UVector2D@@U1@@std@@YA?AU_Nonscalar_ptr_iterator_tag@0@PAUVector2D@@0@Z
_TEXT	SEGMENT
__Cat$ = -5						; size = 1
___formal$ = 8						; size = 4
___formal$ = 12						; size = 4
??$_Ptr_cat@UVector2D@@U1@@std@@YA?AU_Nonscalar_ptr_iterator_tag@0@PAUVector2D@@0@Z PROC ; std::_Ptr_cat<Vector2D,Vector2D>, COMDAT

; 640  : 	{	// return pointer category from pointers

	push	ebp
	mov	ebp, esp
	sub	esp, 12					; 0000000cH
	mov	DWORD PTR [ebp-12], -858993460		; ccccccccH
	mov	DWORD PTR [ebp-8], -858993460		; ccccccccH
	mov	DWORD PTR [ebp-4], -858993460		; ccccccccH

; 641  : 	typename _Ptr_cat_helper<_Elem1, _Elem2>::type _Cat;
; 642  : 	return (_Cat);

	mov	al, BYTE PTR __Cat$[ebp]

; 643  : 	}

	push	edx
	mov	ecx, ebp
	push	eax
	lea	edx, DWORD PTR $LN5@Ptr_cat
	call	@_RTC_CheckStackVars@8
	pop	eax
	pop	edx
	mov	esp, ebp
	pop	ebp
	ret	0
	npad	1
$LN5@Ptr_cat:
	DD	1
	DD	$LN4@Ptr_cat
$LN4@Ptr_cat:
	DD	-5					; fffffffbH
	DD	1
	DD	$LN3@Ptr_cat
$LN3@Ptr_cat:
	DB	95					; 0000005fH
	DB	67					; 00000043H
	DB	97					; 00000061H
	DB	116					; 00000074H
	DB	0
??$_Ptr_cat@UVector2D@@U1@@std@@YA?AU_Nonscalar_ptr_iterator_tag@0@PAUVector2D@@0@Z ENDP ; std::_Ptr_cat<Vector2D,Vector2D>
_TEXT	ENDS
; Function compile flags: /Odtp /RTCsu
; File d:\microsoft visual studio 14.0\vc\include\xutility
;	COMDAT ??$_Val_type@PAUVector2D@@@std@@YAPAUVector2D@@PAU1@@Z
_TEXT	SEGMENT
___formal$ = 8						; size = 4
??$_Val_type@PAUVector2D@@@std@@YAPAUVector2D@@PAU1@@Z PROC ; std::_Val_type<Vector2D *>, COMDAT

; 874  : 	{	// return value type from arbitrary argument

	push	ebp
	mov	ebp, esp

; 875  : 	return (0);

	xor	eax, eax

; 876  : 	}

	pop	ebp
	ret	0
??$_Val_type@PAUVector2D@@@std@@YAPAUVector2D@@PAU1@@Z ENDP ; std::_Val_type<Vector2D *>
_TEXT	ENDS
; Function compile flags: /Odtp /RTCsu
; File d:\microsoft visual studio 14.0\vc\include\xstddef
;	COMDAT ??$_Addressof@UVector2D@@@std@@YAPAUVector2D@@AAU1@U?$integral_constant@_N$0A@@0@@Z
_TEXT	SEGMENT
__Val$ = 8						; size = 4
___formal$ = 12						; size = 1
??$_Addressof@UVector2D@@@std@@YAPAUVector2D@@AAU1@U?$integral_constant@_N$0A@@0@@Z PROC ; std::_Addressof<Vector2D>, COMDAT

; 691  : 	{	// return address of object _Val

	push	ebp
	mov	ebp, esp

; 692  : 	return (reinterpret_cast<_Ty *>(

	mov	eax, DWORD PTR __Val$[ebp]

; 693  : 		&const_cast<char&>(
; 694  : 		reinterpret_cast<const volatile char&>(_Val))));
; 695  : 	}

	pop	ebp
	ret	0
??$_Addressof@UVector2D@@@std@@YAPAUVector2D@@AAU1@U?$integral_constant@_N$0A@@0@@Z ENDP ; std::_Addressof<Vector2D>
_TEXT	ENDS
; Function compile flags: /Odtp /RTCsu
;	COMDAT ??4?$_List_iterator@V?$_List_val@U?$_List_simple_types@PAVRaven_Bot@@@std@@@std@@@std@@QAEAAV01@$$QAV01@@Z
_TEXT	SEGMENT
_this$ = -4						; size = 4
___that$ = 8						; size = 4
??4?$_List_iterator@V?$_List_val@U?$_List_simple_types@PAVRaven_Bot@@@std@@@std@@@std@@QAEAAV01@$$QAV01@@Z PROC ; std::_List_iterator<std::_List_val<std::_List_simple_types<Raven_Bot *> > >::operator=, COMDAT
; _this$ = ecx
	push	ebp
	mov	ebp, esp
	push	ecx
	mov	DWORD PTR [ebp-4], -858993460		; ccccccccH
	mov	DWORD PTR _this$[ebp], ecx
	mov	eax, DWORD PTR ___that$[ebp]
	push	eax
	mov	ecx, DWORD PTR _this$[ebp]
	call	??4?$_List_const_iterator@V?$_List_val@U?$_List_simple_types@PAVRaven_Bot@@@std@@@std@@@std@@QAEAAV01@$$QAV01@@Z
	mov	eax, DWORD PTR _this$[ebp]
	add	esp, 4
	cmp	ebp, esp
	call	__RTC_CheckEsp
	mov	esp, ebp
	pop	ebp
	ret	4
??4?$_List_iterator@V?$_List_val@U?$_List_simple_types@PAVRaven_Bot@@@std@@@std@@@std@@QAEAAV01@$$QAV01@@Z ENDP ; std::_List_iterator<std::_List_val<std::_List_simple_types<Raven_Bot *> > >::operator=
_TEXT	ENDS
; Function compile flags: /Odtp /RTCsu
;	COMDAT ??1?$_List_iterator@V?$_List_val@U?$_List_simple_types@PAVRaven_Bot@@@std@@@std@@@std@@QAE@XZ
_TEXT	SEGMENT
_this$ = -4						; size = 4
??1?$_List_iterator@V?$_List_val@U?$_List_simple_types@PAVRaven_Bot@@@std@@@std@@@std@@QAE@XZ PROC ; std::_List_iterator<std::_List_val<std::_List_simple_types<Raven_Bot *> > >::~_List_iterator<std::_List_val<std::_List_simple_types<Raven_Bot *> > >, COMDAT
; _this$ = ecx
	push	ebp
	mov	ebp, esp
	push	ecx
	mov	DWORD PTR [ebp-4], -858993460		; ccccccccH
	mov	DWORD PTR _this$[ebp], ecx
	mov	ecx, DWORD PTR _this$[ebp]
	call	??1?$_List_const_iterator@V?$_List_val@U?$_List_simple_types@PAVRaven_Bot@@@std@@@std@@@std@@QAE@XZ
	add	esp, 4
	cmp	ebp, esp
	call	__RTC_CheckEsp
	mov	esp, ebp
	pop	ebp
	ret	0
??1?$_List_iterator@V?$_List_val@U?$_List_simple_types@PAVRaven_Bot@@@std@@@std@@@std@@QAE@XZ ENDP ; std::_List_iterator<std::_List_val<std::_List_simple_types<Raven_Bot *> > >::~_List_iterator<std::_List_val<std::_List_simple_types<Raven_Bot *> > >
_TEXT	ENDS
; Function compile flags: /Odtp /RTCsu
; File d:\microsoft visual studio 14.0\vc\include\list
;	COMDAT ??E?$_List_iterator@V?$_List_val@U?$_List_simple_types@PAVRaven_Bot@@@std@@@std@@@std@@QAEAAV01@XZ
_TEXT	SEGMENT
_this$ = -4						; size = 4
??E?$_List_iterator@V?$_List_val@U?$_List_simple_types@PAVRaven_Bot@@@std@@@std@@@std@@QAEAAV01@XZ PROC ; std::_List_iterator<std::_List_val<std::_List_simple_types<Raven_Bot *> > >::operator++, COMDAT
; _this$ = ecx

; 370  : 		{	// preincrement

	push	ebp
	mov	ebp, esp
	push	ecx
	mov	DWORD PTR [ebp-4], -858993460		; ccccccccH
	mov	DWORD PTR _this$[ebp], ecx

; 371  : 		++(*(_Mybase *)this);

	mov	ecx, DWORD PTR _this$[ebp]
	call	??E?$_List_const_iterator@V?$_List_val@U?$_List_simple_types@PAVRaven_Bot@@@std@@@std@@@std@@QAEAAV01@XZ ; std::_List_const_iterator<std::_List_val<std::_List_simple_types<Raven_Bot *> > >::operator++

; 372  : 		return (*this);

	mov	eax, DWORD PTR _this$[ebp]

; 373  : 		}

	add	esp, 4
	cmp	ebp, esp
	call	__RTC_CheckEsp
	mov	esp, ebp
	pop	ebp
	ret	0
??E?$_List_iterator@V?$_List_val@U?$_List_simple_types@PAVRaven_Bot@@@std@@@std@@@std@@QAEAAV01@XZ ENDP ; std::_List_iterator<std::_List_val<std::_List_simple_types<Raven_Bot *> > >::operator++
_TEXT	ENDS
; Function compile flags: /Odtp /RTCsu
; File d:\microsoft visual studio 14.0\vc\include\list
;	COMDAT ??D?$_List_iterator@V?$_List_val@U?$_List_simple_types@PAVRaven_Bot@@@std@@@std@@@std@@QBEAAPAVRaven_Bot@@XZ
_TEXT	SEGMENT
_this$ = -4						; size = 4
??D?$_List_iterator@V?$_List_val@U?$_List_simple_types@PAVRaven_Bot@@@std@@@std@@@std@@QBEAAPAVRaven_Bot@@XZ PROC ; std::_List_iterator<std::_List_val<std::_List_simple_types<Raven_Bot *> > >::operator*, COMDAT
; _this$ = ecx

; 360  : 		{	// return designated value

	push	ebp
	mov	ebp, esp
	push	ecx
	mov	DWORD PTR [ebp-4], -858993460		; ccccccccH
	mov	DWORD PTR _this$[ebp], ecx

; 361  : 		return ((reference)**(_Mybase *)this);

	mov	ecx, DWORD PTR _this$[ebp]
	call	??D?$_List_const_iterator@V?$_List_val@U?$_List_simple_types@PAVRaven_Bot@@@std@@@std@@@std@@QBEABQAVRaven_Bot@@XZ ; std::_List_const_iterator<std::_List_val<std::_List_simple_types<Raven_Bot *> > >::operator*

; 362  : 		}

	add	esp, 4
	cmp	ebp, esp
	call	__RTC_CheckEsp
	mov	esp, ebp
	pop	ebp
	ret	0
??D?$_List_iterator@V?$_List_val@U?$_List_simple_types@PAVRaven_Bot@@@std@@@std@@@std@@QBEAAPAVRaven_Bot@@XZ ENDP ; std::_List_iterator<std::_List_val<std::_List_simple_types<Raven_Bot *> > >::operator*
_TEXT	ENDS
; Function compile flags: /Odtp /RTCsu
; File d:\microsoft visual studio 14.0\vc\include\list
;	COMDAT ??0?$_List_iterator@V?$_List_val@U?$_List_simple_types@PAVRaven_Bot@@@std@@@std@@@std@@QAE@PAU?$_List_node@PAVRaven_Bot@@PAX@1@PBV?$_List_val@U?$_List_simple_types@PAVRaven_Bot@@@std@@@1@@Z
_TEXT	SEGMENT
_this$ = -4						; size = 4
__Pnode$ = 8						; size = 4
__Plist$ = 12						; size = 4
??0?$_List_iterator@V?$_List_val@U?$_List_simple_types@PAVRaven_Bot@@@std@@@std@@@std@@QAE@PAU?$_List_node@PAVRaven_Bot@@PAX@1@PBV?$_List_val@U?$_List_simple_types@PAVRaven_Bot@@@std@@@1@@Z PROC ; std::_List_iterator<std::_List_val<std::_List_simple_types<Raven_Bot *> > >::_List_iterator<std::_List_val<std::_List_simple_types<Raven_Bot *> > >, COMDAT
; _this$ = ecx

; 343  : 		{	// construct with node pointer _Pnode

	push	ebp
	mov	ebp, esp
	push	ecx
	mov	DWORD PTR [ebp-4], -858993460		; ccccccccH
	mov	DWORD PTR _this$[ebp], ecx

; 342  : 		: _Mybase(_Pnode, _Plist)

	mov	eax, DWORD PTR __Plist$[ebp]
	push	eax
	mov	ecx, DWORD PTR __Pnode$[ebp]
	push	ecx
	mov	ecx, DWORD PTR _this$[ebp]
	call	??0?$_List_const_iterator@V?$_List_val@U?$_List_simple_types@PAVRaven_Bot@@@std@@@std@@@std@@QAE@PAU?$_List_node@PAVRaven_Bot@@PAX@1@PBV?$_List_val@U?$_List_simple_types@PAVRaven_Bot@@@std@@@1@@Z ; std::_List_const_iterator<std::_List_val<std::_List_simple_types<Raven_Bot *> > >::_List_const_iterator<std::_List_val<std::_List_simple_types<Raven_Bot *> > >

; 344  : 		}

	mov	eax, DWORD PTR _this$[ebp]
	add	esp, 4
	cmp	ebp, esp
	call	__RTC_CheckEsp
	mov	esp, ebp
	pop	ebp
	ret	8
??0?$_List_iterator@V?$_List_val@U?$_List_simple_types@PAVRaven_Bot@@@std@@@std@@@std@@QAE@PAU?$_List_node@PAVRaven_Bot@@PAX@1@PBV?$_List_val@U?$_List_simple_types@PAVRaven_Bot@@@std@@@1@@Z ENDP ; std::_List_iterator<std::_List_val<std::_List_simple_types<Raven_Bot *> > >::_List_iterator<std::_List_val<std::_List_simple_types<Raven_Bot *> > >
_TEXT	ENDS
; Function compile flags: /Odtp /RTCsu
; File d:\microsoft visual studio 14.0\vc\include\list
;	COMDAT ??0?$_List_iterator@V?$_List_val@U?$_List_simple_types@PAVRaven_Bot@@@std@@@std@@@std@@QAE@XZ
_TEXT	SEGMENT
_this$ = -4						; size = 4
??0?$_List_iterator@V?$_List_val@U?$_List_simple_types@PAVRaven_Bot@@@std@@@std@@@std@@QAE@XZ PROC ; std::_List_iterator<std::_List_val<std::_List_simple_types<Raven_Bot *> > >::_List_iterator<std::_List_val<std::_List_simple_types<Raven_Bot *> > >, COMDAT
; _this$ = ecx

; 337  : 	_List_iterator()

	push	ebp
	mov	ebp, esp
	push	ecx
	mov	DWORD PTR [ebp-4], -858993460		; ccccccccH
	mov	DWORD PTR _this$[ebp], ecx

; 338  : 		{	// construct with null node

	mov	ecx, DWORD PTR _this$[ebp]
	call	??0?$_List_const_iterator@V?$_List_val@U?$_List_simple_types@PAVRaven_Bot@@@std@@@std@@@std@@QAE@XZ ; std::_List_const_iterator<std::_List_val<std::_List_simple_types<Raven_Bot *> > >::_List_const_iterator<std::_List_val<std::_List_simple_types<Raven_Bot *> > >

; 339  : 		}

	mov	eax, DWORD PTR _this$[ebp]
	add	esp, 4
	cmp	ebp, esp
	call	__RTC_CheckEsp
	mov	esp, ebp
	pop	ebp
	ret	0
??0?$_List_iterator@V?$_List_val@U?$_List_simple_types@PAVRaven_Bot@@@std@@@std@@@std@@QAE@XZ ENDP ; std::_List_iterator<std::_List_val<std::_List_simple_types<Raven_Bot *> > >::_List_iterator<std::_List_val<std::_List_simple_types<Raven_Bot *> > >
_TEXT	ENDS
; Function compile flags: /Odtp /RTCsu
; File d:\microsoft visual studio 14.0\vc\include\xmemory0
;	COMDAT ??$_Allocate@D@std@@YAPADIPAD_N@Z
_TEXT	SEGMENT
__Ptr_container$1 = -16					; size = 4
__Block_size$2 = -12					; size = 4
__User_size$ = -8					; size = 4
__Ptr$ = -4						; size = 4
__Count$ = 8						; size = 4
___formal$ = 12						; size = 4
__Try_aligned_allocation$ = 16				; size = 1
??$_Allocate@D@std@@YAPADIPAD_N@Z PROC			; std::_Allocate<char>, COMDAT

; 54   : 	{	// allocate storage for _Count elements of type _Ty

	push	ebp
	mov	ebp, esp
	sub	esp, 16					; 00000010H
	mov	eax, -858993460				; ccccccccH
	mov	DWORD PTR [ebp-16], eax
	mov	DWORD PTR [ebp-12], eax
	mov	DWORD PTR [ebp-8], eax
	mov	DWORD PTR [ebp-4], eax

; 55   : 	void *_Ptr = 0;

	mov	DWORD PTR __Ptr$[ebp], 0

; 56   : 
; 57   : 	if (_Count == 0)

	cmp	DWORD PTR __Count$[ebp], 0
	jne	SHORT $LN2@Allocate

; 58   : 		return (static_cast<_Ty *>(_Ptr));

	mov	eax, DWORD PTR __Ptr$[ebp]
	jmp	$LN9@Allocate
$LN2@Allocate:

; 59   : 
; 60   : 	// check overflow of multiply
; 61   : 	if ((size_t)(-1) / sizeof (_Ty) < _Count)

	cmp	DWORD PTR __Count$[ebp], -1
	jbe	SHORT $LN3@Allocate

; 62   : 		_Xbad_alloc();	// report no memory

	call	?_Xbad_alloc@std@@YAXXZ			; std::_Xbad_alloc
$LN3@Allocate:

; 63   : 	const size_t _User_size = _Count * sizeof (_Ty);

	mov	eax, DWORD PTR __Count$[ebp]
	mov	DWORD PTR __User_size$[ebp], eax

; 64   : 
; 65   :  #if defined(_M_IX86) || defined(_M_X64)
; 66   : 	if (_Try_aligned_allocation
; 67   : 		&& _BIG_ALLOCATION_THRESHOLD <= _User_size)

	movzx	ecx, BYTE PTR __Try_aligned_allocation$[ebp]
	test	ecx, ecx
	je	$LN4@Allocate
	cmp	DWORD PTR __User_size$[ebp], 4096	; 00001000H
	jb	$LN4@Allocate

; 68   : 		{	// allocate large block
; 69   : 		static_assert(sizeof (void *) < _BIG_ALLOCATION_ALIGNMENT,
; 70   : 			"Big allocations should at least match vector register size");
; 71   : 		const size_t _Block_size = _NON_USER_SIZE + _User_size;

	mov	edx, DWORD PTR __User_size$[ebp]
	add	edx, 39					; 00000027H
	mov	DWORD PTR __Block_size$2[ebp], edx

; 72   : 		if (_Block_size <= _User_size)

	mov	eax, DWORD PTR __Block_size$2[ebp]
	cmp	eax, DWORD PTR __User_size$[ebp]
	ja	SHORT $LN6@Allocate

; 73   : 			_Xbad_alloc();	// report no memory

	call	?_Xbad_alloc@std@@YAXXZ			; std::_Xbad_alloc
$LN6@Allocate:

; 74   : 		const uintptr_t _Ptr_container =
; 75   : 			reinterpret_cast<uintptr_t>(::operator new(_Block_size));

	mov	ecx, DWORD PTR __Block_size$2[ebp]
	push	ecx
	call	??2@YAPAXI@Z				; operator new
	add	esp, 4
	mov	DWORD PTR __Ptr_container$1[ebp], eax

; 76   : 		_SCL_SECURE_ALWAYS_VALIDATE(_Ptr_container != 0);

	cmp	DWORD PTR __Ptr_container$1[ebp], 0
	jne	SHORT $LN7@Allocate
	mov	edx, OFFSET ??_C@_0BE@LMNLACIC@_Ptr_container?5?$CB?$DN?50?$AA@
	test	edx, edx
	je	SHORT $LN10@Allocate
	xor	eax, eax
	jne	SHORT $LN11@Allocate
$LN10@Allocate:
	push	OFFSET ??_C@_1DG@HGDKEBPG@?$AA?$CC?$AA_?$AAP?$AAt?$AAr?$AA_?$AAc?$AAo?$AAn?$AAt?$AAa?$AAi?$AAn?$AAe?$AAr?$AA?5?$AA?$CB?$AA?$DN?$AA?5?$AA0?$AA?$CC?$AA?5?$AA?$CG?$AA?$CG?$AA?5?$AA0?$AA?$AA@
	push	OFFSET ??_C@_17CNPHIMPH@?$AA?$CF?$AAl?$AAs?$AA?$AA@
	push	0
	push	76					; 0000004cH
	push	OFFSET ??_C@_1GI@MOGLCDAO@?$AAD?$AA?3?$AA?2?$AAM?$AAi?$AAc?$AAr?$AAo?$AAs?$AAo?$AAf?$AAt?$AA?5?$AAV?$AAi?$AAs?$AAu?$AAa?$AAl?$AA?5?$AAS?$AAt?$AAu?$AAd?$AAi?$AAo?$AA?5?$AA1?$AA4?$AA?4?$AA0?$AA?2@
	push	2
	call	__CrtDbgReportW
	add	esp, 24					; 00000018H
	cmp	eax, 1
	jne	SHORT $LN11@Allocate
	int	3
$LN11@Allocate:
	push	0
	push	76					; 0000004cH
	push	OFFSET ??_C@_1GI@MOGLCDAO@?$AAD?$AA?3?$AA?2?$AAM?$AAi?$AAc?$AAr?$AAo?$AAs?$AAo?$AAf?$AAt?$AA?5?$AAV?$AAi?$AAs?$AAu?$AAa?$AAl?$AA?5?$AAS?$AAt?$AAu?$AAd?$AAi?$AAo?$AA?5?$AA1?$AA4?$AA?4?$AA0?$AA?2@
	push	OFFSET ??_C@_1BO@NKFMJPA@?$AAs?$AAt?$AAd?$AA?3?$AA?3?$AA_?$AAA?$AAl?$AAl?$AAo?$AAc?$AAa?$AAt?$AAe?$AA?$AA@
	push	OFFSET ??_C@_1CG@JNLFBNGN@?$AA?$CC?$AAi?$AAn?$AAv?$AAa?$AAl?$AAi?$AAd?$AA?5?$AAa?$AAr?$AAg?$AAu?$AAm?$AAe?$AAn?$AAt?$AA?$CC?$AA?$AA@
	call	__invalid_parameter
	add	esp, 20					; 00000014H
$LN7@Allocate:

; 77   : 		_Ptr = reinterpret_cast<void *>((_Ptr_container + _NON_USER_SIZE)

	mov	edx, DWORD PTR __Ptr_container$1[ebp]
	add	edx, 39					; 00000027H
	and	edx, -32				; ffffffe0H
	mov	DWORD PTR __Ptr$[ebp], edx

; 78   : 			& ~(_BIG_ALLOCATION_ALIGNMENT - 1));
; 79   : 		static_cast<uintptr_t *>(_Ptr)[-1] = _Ptr_container;

	mov	eax, 4
	imul	ecx, eax, -1
	mov	edx, DWORD PTR __Ptr$[ebp]
	mov	eax, DWORD PTR __Ptr_container$1[ebp]
	mov	DWORD PTR [edx+ecx], eax

; 80   : 
; 81   :  #ifdef _DEBUG
; 82   : 		static_cast<uintptr_t *>(_Ptr)[-2] = _BIG_ALLOCATION_SENTINEL;

	mov	ecx, 4
	imul	edx, ecx, -2
	mov	eax, DWORD PTR __Ptr$[ebp]
	mov	DWORD PTR [eax+edx], -84215046		; fafafafaH

; 83   :  #endif /* _DEBUG */
; 84   : 		}
; 85   : 	else

	jmp	SHORT $LN5@Allocate
$LN4@Allocate:

; 86   :  #endif /* defined(_M_IX86) || defined(_M_X64) */
; 87   : 
; 88   : 		{	// allocate normal block
; 89   : 		_Ptr = ::operator new(_User_size);

	mov	ecx, DWORD PTR __User_size$[ebp]
	push	ecx
	call	??2@YAPAXI@Z				; operator new
	add	esp, 4
	mov	DWORD PTR __Ptr$[ebp], eax

; 90   : 		_SCL_SECURE_ALWAYS_VALIDATE(_Ptr != 0);

	cmp	DWORD PTR __Ptr$[ebp], 0
	jne	SHORT $LN5@Allocate
	mov	edx, OFFSET ??_C@_09GLJCAGLP@_Ptr?5?$CB?$DN?50?$AA@
	test	edx, edx
	je	SHORT $LN12@Allocate
	xor	eax, eax
	jne	SHORT $LN13@Allocate
$LN12@Allocate:
	push	OFFSET ??_C@_1CC@GKJLLHIM@?$AA?$CC?$AA_?$AAP?$AAt?$AAr?$AA?5?$AA?$CB?$AA?$DN?$AA?5?$AA0?$AA?$CC?$AA?5?$AA?$CG?$AA?$CG?$AA?5?$AA0?$AA?$AA@
	push	OFFSET ??_C@_17CNPHIMPH@?$AA?$CF?$AAl?$AAs?$AA?$AA@
	push	0
	push	90					; 0000005aH
	push	OFFSET ??_C@_1GI@MOGLCDAO@?$AAD?$AA?3?$AA?2?$AAM?$AAi?$AAc?$AAr?$AAo?$AAs?$AAo?$AAf?$AAt?$AA?5?$AAV?$AAi?$AAs?$AAu?$AAa?$AAl?$AA?5?$AAS?$AAt?$AAu?$AAd?$AAi?$AAo?$AA?5?$AA1?$AA4?$AA?4?$AA0?$AA?2@
	push	2
	call	__CrtDbgReportW
	add	esp, 24					; 00000018H
	cmp	eax, 1
	jne	SHORT $LN13@Allocate
	int	3
$LN13@Allocate:
	push	0
	push	90					; 0000005aH
	push	OFFSET ??_C@_1GI@MOGLCDAO@?$AAD?$AA?3?$AA?2?$AAM?$AAi?$AAc?$AAr?$AAo?$AAs?$AAo?$AAf?$AAt?$AA?5?$AAV?$AAi?$AAs?$AAu?$AAa?$AAl?$AA?5?$AAS?$AAt?$AAu?$AAd?$AAi?$AAo?$AA?5?$AA1?$AA4?$AA?4?$AA0?$AA?2@
	push	OFFSET ??_C@_1BO@NKFMJPA@?$AAs?$AAt?$AAd?$AA?3?$AA?3?$AA_?$AAA?$AAl?$AAl?$AAo?$AAc?$AAa?$AAt?$AAe?$AA?$AA@
	push	OFFSET ??_C@_1CG@JNLFBNGN@?$AA?$CC?$AAi?$AAn?$AAv?$AAa?$AAl?$AAi?$AAd?$AA?5?$AAa?$AAr?$AAg?$AAu?$AAm?$AAe?$AAn?$AAt?$AA?$CC?$AA?$AA@
	call	__invalid_parameter
	add	esp, 20					; 00000014H
$LN5@Allocate:

; 91   : 		}
; 92   : 	return (static_cast<_Ty *>(_Ptr));

	mov	eax, DWORD PTR __Ptr$[ebp]
$LN9@Allocate:

; 93   : 	}

	add	esp, 16					; 00000010H
	cmp	ebp, esp
	call	__RTC_CheckEsp
	mov	esp, ebp
	pop	ebp
	ret	0
??$_Allocate@D@std@@YAPADIPAD_N@Z ENDP			; std::_Allocate<char>
_TEXT	ENDS
; Function compile flags: /Odtp /RTCsu
; File d:\microsoft visual studio 14.0\vc\include\xmemory0
;	COMDAT ??$_Deallocate@U_Container_proxy@std@@@std@@YAXPAU_Container_proxy@0@I@Z
_TEXT	SEGMENT
__Ptr_container$1 = -16					; size = 4
__Ptr_ptr$2 = -12					; size = 4
__Ptr_user$3 = -8					; size = 4
__User_size$ = -4					; size = 4
__Ptr$ = 8						; size = 4
__Count$ = 12						; size = 4
??$_Deallocate@U_Container_proxy@std@@@std@@YAXPAU_Container_proxy@0@I@Z PROC ; std::_Deallocate<std::_Container_proxy>, COMDAT

; 98   : 	{	// deallocate storage for _Count elements of type _Ty

	push	ebp
	mov	ebp, esp
	sub	esp, 16					; 00000010H
	mov	eax, -858993460				; ccccccccH
	mov	DWORD PTR [ebp-16], eax
	mov	DWORD PTR [ebp-12], eax
	mov	DWORD PTR [ebp-8], eax
	mov	DWORD PTR [ebp-4], eax

; 99   :  #if defined(_M_IX86) || defined(_M_X64)
; 100  : 	_SCL_SECURE_ALWAYS_VALIDATE(_Count <= (size_t)(-1) / sizeof (_Ty));

	cmp	DWORD PTR __Count$[ebp], 536870911	; 1fffffffH
	jbe	SHORT $LN2@Deallocate
	mov	eax, OFFSET ??_C@_0CG@FHBDFCGK@_Count?5?$DM?$DN?5?$CIsize_t?$CJ?$CI?91?$CJ?5?1?5sizeof?5@
	test	eax, eax
	je	SHORT $LN10@Deallocate
	xor	ecx, ecx
	jne	SHORT $LN11@Deallocate
$LN10@Deallocate:
	push	OFFSET ??_C@_1FK@EJGLHMGC@?$AA?$CC?$AA_?$AAC?$AAo?$AAu?$AAn?$AAt?$AA?5?$AA?$DM?$AA?$DN?$AA?5?$AA?$CI?$AAs?$AAi?$AAz?$AAe?$AA_?$AAt?$AA?$CJ?$AA?$CI?$AA?9?$AA1?$AA?$CJ?$AA?5?$AA?1?$AA?5?$AAs?$AAi?$AAz?$AAe?$AAo?$AAf@
	push	OFFSET ??_C@_17CNPHIMPH@?$AA?$CF?$AAl?$AAs?$AA?$AA@
	push	0
	push	100					; 00000064H
	push	OFFSET ??_C@_1GI@MOGLCDAO@?$AAD?$AA?3?$AA?2?$AAM?$AAi?$AAc?$AAr?$AAo?$AAs?$AAo?$AAf?$AAt?$AA?5?$AAV?$AAi?$AAs?$AAu?$AAa?$AAl?$AA?5?$AAS?$AAt?$AAu?$AAd?$AAi?$AAo?$AA?5?$AA1?$AA4?$AA?4?$AA0?$AA?2@
	push	2
	call	__CrtDbgReportW
	add	esp, 24					; 00000018H
	cmp	eax, 1
	jne	SHORT $LN11@Deallocate
	int	3
$LN11@Deallocate:
	push	0
	push	100					; 00000064H
	push	OFFSET ??_C@_1GI@MOGLCDAO@?$AAD?$AA?3?$AA?2?$AAM?$AAi?$AAc?$AAr?$AAo?$AAs?$AAo?$AAf?$AAt?$AA?5?$AAV?$AAi?$AAs?$AAu?$AAa?$AAl?$AA?5?$AAS?$AAt?$AAu?$AAd?$AAi?$AAo?$AA?5?$AA1?$AA4?$AA?4?$AA0?$AA?2@
	push	OFFSET ??_C@_1CC@LOFJFFDB@?$AAs?$AAt?$AAd?$AA?3?$AA?3?$AA_?$AAD?$AAe?$AAa?$AAl?$AAl?$AAo?$AAc?$AAa?$AAt?$AAe?$AA?$AA@
	push	OFFSET ??_C@_1CG@JNLFBNGN@?$AA?$CC?$AAi?$AAn?$AAv?$AAa?$AAl?$AAi?$AAd?$AA?5?$AAa?$AAr?$AAg?$AAu?$AAm?$AAe?$AAn?$AAt?$AA?$CC?$AA?$AA@
	call	__invalid_parameter
	add	esp, 20					; 00000014H
$LN2@Deallocate:

; 101  : 	const size_t _User_size = _Count * sizeof (_Ty);

	mov	eax, DWORD PTR __Count$[ebp]
	shl	eax, 3
	mov	DWORD PTR __User_size$[ebp], eax

; 102  : 	if (_BIG_ALLOCATION_THRESHOLD <= _User_size)

	cmp	DWORD PTR __User_size$[ebp], 4096	; 00001000H
	jb	$LN3@Deallocate

; 103  : 		{	// deallocate large block
; 104  : 		const uintptr_t _Ptr_user = reinterpret_cast<uintptr_t>(_Ptr);

	mov	ecx, DWORD PTR __Ptr$[ebp]
	mov	DWORD PTR __Ptr_user$3[ebp], ecx

; 105  : 		_SCL_SECURE_ALWAYS_VALIDATE(

	mov	edx, DWORD PTR __Ptr_user$3[ebp]
	and	edx, 31					; 0000001fH
	je	SHORT $LN4@Deallocate
	mov	eax, OFFSET ??_C@_0DD@GBGGGKGG@?$CI_Ptr_user?5?$CG?5?$CI_BIG_ALLOCATION_AL@
	test	eax, eax
	je	SHORT $LN12@Deallocate
	xor	ecx, ecx
	jne	SHORT $LN13@Deallocate
$LN12@Deallocate:
	push	OFFSET ??_C@_1HE@CDMBFOKC@?$AA?$CC?$AA?$CI?$AA_?$AAP?$AAt?$AAr?$AA_?$AAu?$AAs?$AAe?$AAr?$AA?5?$AA?$CG?$AA?5?$AA?$CI?$AA_?$AAB?$AAI?$AAG?$AA_?$AAA?$AAL?$AAL?$AAO?$AAC?$AAA?$AAT?$AAI?$AAO?$AAN?$AA_?$AAA@
	push	OFFSET ??_C@_17CNPHIMPH@?$AA?$CF?$AAl?$AAs?$AA?$AA@
	push	0
	push	106					; 0000006aH
	push	OFFSET ??_C@_1GI@MOGLCDAO@?$AAD?$AA?3?$AA?2?$AAM?$AAi?$AAc?$AAr?$AAo?$AAs?$AAo?$AAf?$AAt?$AA?5?$AAV?$AAi?$AAs?$AAu?$AAa?$AAl?$AA?5?$AAS?$AAt?$AAu?$AAd?$AAi?$AAo?$AA?5?$AA1?$AA4?$AA?4?$AA0?$AA?2@
	push	2
	call	__CrtDbgReportW
	add	esp, 24					; 00000018H
	cmp	eax, 1
	jne	SHORT $LN13@Deallocate
	int	3
$LN13@Deallocate:
	push	0
	push	106					; 0000006aH
	push	OFFSET ??_C@_1GI@MOGLCDAO@?$AAD?$AA?3?$AA?2?$AAM?$AAi?$AAc?$AAr?$AAo?$AAs?$AAo?$AAf?$AAt?$AA?5?$AAV?$AAi?$AAs?$AAu?$AAa?$AAl?$AA?5?$AAS?$AAt?$AAu?$AAd?$AAi?$AAo?$AA?5?$AA1?$AA4?$AA?4?$AA0?$AA?2@
	push	OFFSET ??_C@_1CC@LOFJFFDB@?$AAs?$AAt?$AAd?$AA?3?$AA?3?$AA_?$AAD?$AAe?$AAa?$AAl?$AAl?$AAo?$AAc?$AAa?$AAt?$AAe?$AA?$AA@
	push	OFFSET ??_C@_1CG@JNLFBNGN@?$AA?$CC?$AAi?$AAn?$AAv?$AAa?$AAl?$AAi?$AAd?$AA?5?$AAa?$AAr?$AAg?$AAu?$AAm?$AAe?$AAn?$AAt?$AA?$CC?$AA?$AA@
	call	__invalid_parameter
	add	esp, 20					; 00000014H
$LN4@Deallocate:

; 106  : 			(_Ptr_user & (_BIG_ALLOCATION_ALIGNMENT - 1)) == 0);
; 107  : 		const uintptr_t _Ptr_ptr = _Ptr_user - sizeof(void *);

	mov	eax, DWORD PTR __Ptr_user$3[ebp]
	sub	eax, 4
	mov	DWORD PTR __Ptr_ptr$2[ebp], eax

; 108  : 		const uintptr_t _Ptr_container =
; 109  : 			*reinterpret_cast<uintptr_t *>(_Ptr_ptr);

	mov	ecx, DWORD PTR __Ptr_ptr$2[ebp]
	mov	edx, DWORD PTR [ecx]
	mov	DWORD PTR __Ptr_container$1[ebp], edx

; 110  : 
; 111  :  #ifdef _DEBUG
; 112  : 		// If the following asserts, it likely means that we are performing
; 113  : 		// an aligned delete on memory coming from an unaligned allocation.
; 114  : 		_SCL_SECURE_ALWAYS_VALIDATE(

	mov	eax, 4
	imul	ecx, eax, -1
	mov	edx, DWORD PTR __Ptr_ptr$2[ebp]
	cmp	DWORD PTR [edx+ecx], -84215046		; fafafafaH
	je	SHORT $LN5@Deallocate
	mov	eax, OFFSET ??_C@_0EI@NOJHEJCJ@reinterpret_cast?$DMuintptr_t?5?$CK?$DO?$CI_P@
	test	eax, eax
	je	SHORT $LN14@Deallocate
	xor	ecx, ecx
	jne	SHORT $LN15@Deallocate
$LN14@Deallocate:
	push	OFFSET ??_C@_1JO@EKLKIEHP@?$AA?$CC?$AAr?$AAe?$AAi?$AAn?$AAt?$AAe?$AAr?$AAp?$AAr?$AAe?$AAt?$AA_?$AAc?$AAa?$AAs?$AAt?$AA?$DM?$AAu?$AAi?$AAn?$AAt?$AAp?$AAt?$AAr?$AA_?$AAt?$AA?5?$AA?$CK?$AA?$DO?$AA?$CI?$AA_@
	push	OFFSET ??_C@_17CNPHIMPH@?$AA?$CF?$AAl?$AAs?$AA?$AA@
	push	0
	push	116					; 00000074H
	push	OFFSET ??_C@_1GI@MOGLCDAO@?$AAD?$AA?3?$AA?2?$AAM?$AAi?$AAc?$AAr?$AAo?$AAs?$AAo?$AAf?$AAt?$AA?5?$AAV?$AAi?$AAs?$AAu?$AAa?$AAl?$AA?5?$AAS?$AAt?$AAu?$AAd?$AAi?$AAo?$AA?5?$AA1?$AA4?$AA?4?$AA0?$AA?2@
	push	2
	call	__CrtDbgReportW
	add	esp, 24					; 00000018H
	cmp	eax, 1
	jne	SHORT $LN15@Deallocate
	int	3
$LN15@Deallocate:
	push	0
	push	116					; 00000074H
	push	OFFSET ??_C@_1GI@MOGLCDAO@?$AAD?$AA?3?$AA?2?$AAM?$AAi?$AAc?$AAr?$AAo?$AAs?$AAo?$AAf?$AAt?$AA?5?$AAV?$AAi?$AAs?$AAu?$AAa?$AAl?$AA?5?$AAS?$AAt?$AAu?$AAd?$AAi?$AAo?$AA?5?$AA1?$AA4?$AA?4?$AA0?$AA?2@
	push	OFFSET ??_C@_1CC@LOFJFFDB@?$AAs?$AAt?$AAd?$AA?3?$AA?3?$AA_?$AAD?$AAe?$AAa?$AAl?$AAl?$AAo?$AAc?$AAa?$AAt?$AAe?$AA?$AA@
	push	OFFSET ??_C@_1CG@JNLFBNGN@?$AA?$CC?$AAi?$AAn?$AAv?$AAa?$AAl?$AAi?$AAd?$AA?5?$AAa?$AAr?$AAg?$AAu?$AAm?$AAe?$AAn?$AAt?$AA?$CC?$AA?$AA@
	call	__invalid_parameter
	add	esp, 20					; 00000014H
$LN5@Deallocate:

; 115  : 			reinterpret_cast<uintptr_t *>(_Ptr_ptr)[-1] ==
; 116  : 				_BIG_ALLOCATION_SENTINEL);
; 117  :  #endif /* _DEBUG */
; 118  : 
; 119  : 		// Extra paranoia on aligned allocation/deallocation
; 120  : 		_SCL_SECURE_ALWAYS_VALIDATE(_Ptr_container < _Ptr_user);

	mov	eax, DWORD PTR __Ptr_container$1[ebp]
	cmp	eax, DWORD PTR __Ptr_user$3[ebp]
	jb	SHORT $LN6@Deallocate
	mov	ecx, OFFSET ??_C@_0BL@OCKMEJON@_Ptr_container?5?$DM?5_Ptr_user?$AA@
	test	ecx, ecx
	je	SHORT $LN16@Deallocate
	xor	edx, edx
	jne	SHORT $LN17@Deallocate
$LN16@Deallocate:
	push	OFFSET ??_C@_1EE@PDHAHDDC@?$AA?$CC?$AA_?$AAP?$AAt?$AAr?$AA_?$AAc?$AAo?$AAn?$AAt?$AAa?$AAi?$AAn?$AAe?$AAr?$AA?5?$AA?$DM?$AA?5?$AA_?$AAP?$AAt?$AAr?$AA_?$AAu?$AAs?$AAe?$AAr?$AA?$CC?$AA?5?$AA?$CG?$AA?$CG?$AA?5@
	push	OFFSET ??_C@_17CNPHIMPH@?$AA?$CF?$AAl?$AAs?$AA?$AA@
	push	0
	push	120					; 00000078H
	push	OFFSET ??_C@_1GI@MOGLCDAO@?$AAD?$AA?3?$AA?2?$AAM?$AAi?$AAc?$AAr?$AAo?$AAs?$AAo?$AAf?$AAt?$AA?5?$AAV?$AAi?$AAs?$AAu?$AAa?$AAl?$AA?5?$AAS?$AAt?$AAu?$AAd?$AAi?$AAo?$AA?5?$AA1?$AA4?$AA?4?$AA0?$AA?2@
	push	2
	call	__CrtDbgReportW
	add	esp, 24					; 00000018H
	cmp	eax, 1
	jne	SHORT $LN17@Deallocate
	int	3
$LN17@Deallocate:
	push	0
	push	120					; 00000078H
	push	OFFSET ??_C@_1GI@MOGLCDAO@?$AAD?$AA?3?$AA?2?$AAM?$AAi?$AAc?$AAr?$AAo?$AAs?$AAo?$AAf?$AAt?$AA?5?$AAV?$AAi?$AAs?$AAu?$AAa?$AAl?$AA?5?$AAS?$AAt?$AAu?$AAd?$AAi?$AAo?$AA?5?$AA1?$AA4?$AA?4?$AA0?$AA?2@
	push	OFFSET ??_C@_1CC@LOFJFFDB@?$AAs?$AAt?$AAd?$AA?3?$AA?3?$AA_?$AAD?$AAe?$AAa?$AAl?$AAl?$AAo?$AAc?$AAa?$AAt?$AAe?$AA?$AA@
	push	OFFSET ??_C@_1CG@JNLFBNGN@?$AA?$CC?$AAi?$AAn?$AAv?$AAa?$AAl?$AAi?$AAd?$AA?5?$AAa?$AAr?$AAg?$AAu?$AAm?$AAe?$AAn?$AAt?$AA?$CC?$AA?$AA@
	call	__invalid_parameter
	add	esp, 20					; 00000014H
$LN6@Deallocate:

; 121  : 
; 122  :  #ifdef _DEBUG
; 123  : 		_SCL_SECURE_ALWAYS_VALIDATE(2 * sizeof(void *)

	mov	ecx, DWORD PTR __Ptr_user$3[ebp]
	sub	ecx, DWORD PTR __Ptr_container$1[ebp]
	cmp	ecx, 8
	jae	SHORT $LN7@Deallocate
	mov	edx, OFFSET ??_C@_0DB@GLFJLNCE@2?5?$CK?5sizeof?$CIvoid?5?$CK?$CJ?5?$DM?$DN?5_Ptr_user?5@
	test	edx, edx
	je	SHORT $LN18@Deallocate
	xor	eax, eax
	jne	SHORT $LN19@Deallocate
$LN18@Deallocate:
	push	OFFSET ??_C@_1HA@NAPGMHAO@?$AA?$CC?$AA2?$AA?5?$AA?$CK?$AA?5?$AAs?$AAi?$AAz?$AAe?$AAo?$AAf?$AA?$CI?$AAv?$AAo?$AAi?$AAd?$AA?5?$AA?$CK?$AA?$CJ?$AA?5?$AA?$DM?$AA?$DN?$AA?5?$AA_?$AAP?$AAt?$AAr?$AA_?$AAu?$AAs?$AAe?$AAr@
	push	OFFSET ??_C@_17CNPHIMPH@?$AA?$CF?$AAl?$AAs?$AA?$AA@
	push	0
	push	124					; 0000007cH
	push	OFFSET ??_C@_1GI@MOGLCDAO@?$AAD?$AA?3?$AA?2?$AAM?$AAi?$AAc?$AAr?$AAo?$AAs?$AAo?$AAf?$AAt?$AA?5?$AAV?$AAi?$AAs?$AAu?$AAa?$AAl?$AA?5?$AAS?$AAt?$AAu?$AAd?$AAi?$AAo?$AA?5?$AA1?$AA4?$AA?4?$AA0?$AA?2@
	push	2
	call	__CrtDbgReportW
	add	esp, 24					; 00000018H
	cmp	eax, 1
	jne	SHORT $LN19@Deallocate
	int	3
$LN19@Deallocate:
	push	0
	push	124					; 0000007cH
	push	OFFSET ??_C@_1GI@MOGLCDAO@?$AAD?$AA?3?$AA?2?$AAM?$AAi?$AAc?$AAr?$AAo?$AAs?$AAo?$AAf?$AAt?$AA?5?$AAV?$AAi?$AAs?$AAu?$AAa?$AAl?$AA?5?$AAS?$AAt?$AAu?$AAd?$AAi?$AAo?$AA?5?$AA1?$AA4?$AA?4?$AA0?$AA?2@
	push	OFFSET ??_C@_1CC@LOFJFFDB@?$AAs?$AAt?$AAd?$AA?3?$AA?3?$AA_?$AAD?$AAe?$AAa?$AAl?$AAl?$AAo?$AAc?$AAa?$AAt?$AAe?$AA?$AA@
	push	OFFSET ??_C@_1CG@JNLFBNGN@?$AA?$CC?$AAi?$AAn?$AAv?$AAa?$AAl?$AAi?$AAd?$AA?5?$AAa?$AAr?$AAg?$AAu?$AAm?$AAe?$AAn?$AAt?$AA?$CC?$AA?$AA@
	call	__invalid_parameter
	add	esp, 20					; 00000014H
$LN7@Deallocate:

; 124  : 			<= _Ptr_user - _Ptr_container);
; 125  : 
; 126  :  #else /* _DEBUG */
; 127  : 		_SCL_SECURE_ALWAYS_VALIDATE(sizeof(void *)
; 128  : 			<= _Ptr_user - _Ptr_container);
; 129  :  #endif /* _DEBUG */
; 130  : 
; 131  : 		_SCL_SECURE_ALWAYS_VALIDATE(_Ptr_user - _Ptr_container

	mov	edx, DWORD PTR __Ptr_user$3[ebp]
	sub	edx, DWORD PTR __Ptr_container$1[ebp]
	cmp	edx, 39					; 00000027H
	jbe	SHORT $LN8@Deallocate
	mov	eax, OFFSET ??_C@_0CN@BLHJCAL@_Ptr_user?5?9?5_Ptr_container?5?$DM?$DN?5_N@
	test	eax, eax
	je	SHORT $LN20@Deallocate
	xor	ecx, ecx
	jne	SHORT $LN21@Deallocate
$LN20@Deallocate:
	push	OFFSET ??_C@_1GI@DHJGPFNI@?$AA?$CC?$AA_?$AAP?$AAt?$AAr?$AA_?$AAu?$AAs?$AAe?$AAr?$AA?5?$AA?9?$AA?5?$AA_?$AAP?$AAt?$AAr?$AA_?$AAc?$AAo?$AAn?$AAt?$AAa?$AAi?$AAn?$AAe?$AAr?$AA?5?$AA?$DM?$AA?$DN?$AA?5?$AA_@
	push	OFFSET ??_C@_17CNPHIMPH@?$AA?$CF?$AAl?$AAs?$AA?$AA@
	push	0
	push	132					; 00000084H
	push	OFFSET ??_C@_1GI@MOGLCDAO@?$AAD?$AA?3?$AA?2?$AAM?$AAi?$AAc?$AAr?$AAo?$AAs?$AAo?$AAf?$AAt?$AA?5?$AAV?$AAi?$AAs?$AAu?$AAa?$AAl?$AA?5?$AAS?$AAt?$AAu?$AAd?$AAi?$AAo?$AA?5?$AA1?$AA4?$AA?4?$AA0?$AA?2@
	push	2
	call	__CrtDbgReportW
	add	esp, 24					; 00000018H
	cmp	eax, 1
	jne	SHORT $LN21@Deallocate
	int	3
$LN21@Deallocate:
	push	0
	push	132					; 00000084H
	push	OFFSET ??_C@_1GI@MOGLCDAO@?$AAD?$AA?3?$AA?2?$AAM?$AAi?$AAc?$AAr?$AAo?$AAs?$AAo?$AAf?$AAt?$AA?5?$AAV?$AAi?$AAs?$AAu?$AAa?$AAl?$AA?5?$AAS?$AAt?$AAu?$AAd?$AAi?$AAo?$AA?5?$AA1?$AA4?$AA?4?$AA0?$AA?2@
	push	OFFSET ??_C@_1CC@LOFJFFDB@?$AAs?$AAt?$AAd?$AA?3?$AA?3?$AA_?$AAD?$AAe?$AAa?$AAl?$AAl?$AAo?$AAc?$AAa?$AAt?$AAe?$AA?$AA@
	push	OFFSET ??_C@_1CG@JNLFBNGN@?$AA?$CC?$AAi?$AAn?$AAv?$AAa?$AAl?$AAi?$AAd?$AA?5?$AAa?$AAr?$AAg?$AAu?$AAm?$AAe?$AAn?$AAt?$AA?$CC?$AA?$AA@
	call	__invalid_parameter
	add	esp, 20					; 00000014H
$LN8@Deallocate:

; 132  : 			<= _NON_USER_SIZE);
; 133  : 
; 134  : 		_Ptr = reinterpret_cast<_Ty *>(_Ptr_container);

	mov	eax, DWORD PTR __Ptr_container$1[ebp]
	mov	DWORD PTR __Ptr$[ebp], eax
$LN3@Deallocate:

; 135  : 		}
; 136  :  #endif /* defined(_M_IX86) || defined(_M_X64) */
; 137  : 
; 138  : 	::operator delete(_Ptr);

	mov	ecx, DWORD PTR __Ptr$[ebp]
	push	ecx
	call	??3@YAXPAX@Z				; operator delete
	add	esp, 4

; 139  : 	}

	add	esp, 16					; 00000010H
	cmp	ebp, esp
	call	__RTC_CheckEsp
	mov	esp, ebp
	pop	ebp
	ret	0
??$_Deallocate@U_Container_proxy@std@@@std@@YAXPAU_Container_proxy@0@I@Z ENDP ; std::_Deallocate<std::_Container_proxy>
_TEXT	ENDS
; Function compile flags: /Odtp /RTCsu
; File d:\microsoft visual studio 14.0\vc\include\xmemory0
;	COMDAT ??$_Allocate@U_Container_proxy@std@@@std@@YAPAU_Container_proxy@0@IPAU10@_N@Z
_TEXT	SEGMENT
__Ptr_container$1 = -16					; size = 4
__Block_size$2 = -12					; size = 4
__User_size$ = -8					; size = 4
__Ptr$ = -4						; size = 4
__Count$ = 8						; size = 4
___formal$ = 12						; size = 4
__Try_aligned_allocation$ = 16				; size = 1
??$_Allocate@U_Container_proxy@std@@@std@@YAPAU_Container_proxy@0@IPAU10@_N@Z PROC ; std::_Allocate<std::_Container_proxy>, COMDAT

; 54   : 	{	// allocate storage for _Count elements of type _Ty

	push	ebp
	mov	ebp, esp
	sub	esp, 16					; 00000010H
	mov	eax, -858993460				; ccccccccH
	mov	DWORD PTR [ebp-16], eax
	mov	DWORD PTR [ebp-12], eax
	mov	DWORD PTR [ebp-8], eax
	mov	DWORD PTR [ebp-4], eax

; 55   : 	void *_Ptr = 0;

	mov	DWORD PTR __Ptr$[ebp], 0

; 56   : 
; 57   : 	if (_Count == 0)

	cmp	DWORD PTR __Count$[ebp], 0
	jne	SHORT $LN2@Allocate

; 58   : 		return (static_cast<_Ty *>(_Ptr));

	mov	eax, DWORD PTR __Ptr$[ebp]
	jmp	$LN9@Allocate
$LN2@Allocate:

; 59   : 
; 60   : 	// check overflow of multiply
; 61   : 	if ((size_t)(-1) / sizeof (_Ty) < _Count)

	cmp	DWORD PTR __Count$[ebp], 536870911	; 1fffffffH
	jbe	SHORT $LN3@Allocate

; 62   : 		_Xbad_alloc();	// report no memory

	call	?_Xbad_alloc@std@@YAXXZ			; std::_Xbad_alloc
$LN3@Allocate:

; 63   : 	const size_t _User_size = _Count * sizeof (_Ty);

	mov	eax, DWORD PTR __Count$[ebp]
	shl	eax, 3
	mov	DWORD PTR __User_size$[ebp], eax

; 64   : 
; 65   :  #if defined(_M_IX86) || defined(_M_X64)
; 66   : 	if (_Try_aligned_allocation
; 67   : 		&& _BIG_ALLOCATION_THRESHOLD <= _User_size)

	movzx	ecx, BYTE PTR __Try_aligned_allocation$[ebp]
	test	ecx, ecx
	je	$LN4@Allocate
	cmp	DWORD PTR __User_size$[ebp], 4096	; 00001000H
	jb	$LN4@Allocate

; 68   : 		{	// allocate large block
; 69   : 		static_assert(sizeof (void *) < _BIG_ALLOCATION_ALIGNMENT,
; 70   : 			"Big allocations should at least match vector register size");
; 71   : 		const size_t _Block_size = _NON_USER_SIZE + _User_size;

	mov	edx, DWORD PTR __User_size$[ebp]
	add	edx, 39					; 00000027H
	mov	DWORD PTR __Block_size$2[ebp], edx

; 72   : 		if (_Block_size <= _User_size)

	mov	eax, DWORD PTR __Block_size$2[ebp]
	cmp	eax, DWORD PTR __User_size$[ebp]
	ja	SHORT $LN6@Allocate

; 73   : 			_Xbad_alloc();	// report no memory

	call	?_Xbad_alloc@std@@YAXXZ			; std::_Xbad_alloc
$LN6@Allocate:

; 74   : 		const uintptr_t _Ptr_container =
; 75   : 			reinterpret_cast<uintptr_t>(::operator new(_Block_size));

	mov	ecx, DWORD PTR __Block_size$2[ebp]
	push	ecx
	call	??2@YAPAXI@Z				; operator new
	add	esp, 4
	mov	DWORD PTR __Ptr_container$1[ebp], eax

; 76   : 		_SCL_SECURE_ALWAYS_VALIDATE(_Ptr_container != 0);

	cmp	DWORD PTR __Ptr_container$1[ebp], 0
	jne	SHORT $LN7@Allocate
	mov	edx, OFFSET ??_C@_0BE@LMNLACIC@_Ptr_container?5?$CB?$DN?50?$AA@
	test	edx, edx
	je	SHORT $LN10@Allocate
	xor	eax, eax
	jne	SHORT $LN11@Allocate
$LN10@Allocate:
	push	OFFSET ??_C@_1DG@HGDKEBPG@?$AA?$CC?$AA_?$AAP?$AAt?$AAr?$AA_?$AAc?$AAo?$AAn?$AAt?$AAa?$AAi?$AAn?$AAe?$AAr?$AA?5?$AA?$CB?$AA?$DN?$AA?5?$AA0?$AA?$CC?$AA?5?$AA?$CG?$AA?$CG?$AA?5?$AA0?$AA?$AA@
	push	OFFSET ??_C@_17CNPHIMPH@?$AA?$CF?$AAl?$AAs?$AA?$AA@
	push	0
	push	76					; 0000004cH
	push	OFFSET ??_C@_1GI@MOGLCDAO@?$AAD?$AA?3?$AA?2?$AAM?$AAi?$AAc?$AAr?$AAo?$AAs?$AAo?$AAf?$AAt?$AA?5?$AAV?$AAi?$AAs?$AAu?$AAa?$AAl?$AA?5?$AAS?$AAt?$AAu?$AAd?$AAi?$AAo?$AA?5?$AA1?$AA4?$AA?4?$AA0?$AA?2@
	push	2
	call	__CrtDbgReportW
	add	esp, 24					; 00000018H
	cmp	eax, 1
	jne	SHORT $LN11@Allocate
	int	3
$LN11@Allocate:
	push	0
	push	76					; 0000004cH
	push	OFFSET ??_C@_1GI@MOGLCDAO@?$AAD?$AA?3?$AA?2?$AAM?$AAi?$AAc?$AAr?$AAo?$AAs?$AAo?$AAf?$AAt?$AA?5?$AAV?$AAi?$AAs?$AAu?$AAa?$AAl?$AA?5?$AAS?$AAt?$AAu?$AAd?$AAi?$AAo?$AA?5?$AA1?$AA4?$AA?4?$AA0?$AA?2@
	push	OFFSET ??_C@_1BO@NKFMJPA@?$AAs?$AAt?$AAd?$AA?3?$AA?3?$AA_?$AAA?$AAl?$AAl?$AAo?$AAc?$AAa?$AAt?$AAe?$AA?$AA@
	push	OFFSET ??_C@_1CG@JNLFBNGN@?$AA?$CC?$AAi?$AAn?$AAv?$AAa?$AAl?$AAi?$AAd?$AA?5?$AAa?$AAr?$AAg?$AAu?$AAm?$AAe?$AAn?$AAt?$AA?$CC?$AA?$AA@
	call	__invalid_parameter
	add	esp, 20					; 00000014H
$LN7@Allocate:

; 77   : 		_Ptr = reinterpret_cast<void *>((_Ptr_container + _NON_USER_SIZE)

	mov	edx, DWORD PTR __Ptr_container$1[ebp]
	add	edx, 39					; 00000027H
	and	edx, -32				; ffffffe0H
	mov	DWORD PTR __Ptr$[ebp], edx

; 78   : 			& ~(_BIG_ALLOCATION_ALIGNMENT - 1));
; 79   : 		static_cast<uintptr_t *>(_Ptr)[-1] = _Ptr_container;

	mov	eax, 4
	imul	ecx, eax, -1
	mov	edx, DWORD PTR __Ptr$[ebp]
	mov	eax, DWORD PTR __Ptr_container$1[ebp]
	mov	DWORD PTR [edx+ecx], eax

; 80   : 
; 81   :  #ifdef _DEBUG
; 82   : 		static_cast<uintptr_t *>(_Ptr)[-2] = _BIG_ALLOCATION_SENTINEL;

	mov	ecx, 4
	imul	edx, ecx, -2
	mov	eax, DWORD PTR __Ptr$[ebp]
	mov	DWORD PTR [eax+edx], -84215046		; fafafafaH

; 83   :  #endif /* _DEBUG */
; 84   : 		}
; 85   : 	else

	jmp	SHORT $LN5@Allocate
$LN4@Allocate:

; 86   :  #endif /* defined(_M_IX86) || defined(_M_X64) */
; 87   : 
; 88   : 		{	// allocate normal block
; 89   : 		_Ptr = ::operator new(_User_size);

	mov	ecx, DWORD PTR __User_size$[ebp]
	push	ecx
	call	??2@YAPAXI@Z				; operator new
	add	esp, 4
	mov	DWORD PTR __Ptr$[ebp], eax

; 90   : 		_SCL_SECURE_ALWAYS_VALIDATE(_Ptr != 0);

	cmp	DWORD PTR __Ptr$[ebp], 0
	jne	SHORT $LN5@Allocate
	mov	edx, OFFSET ??_C@_09GLJCAGLP@_Ptr?5?$CB?$DN?50?$AA@
	test	edx, edx
	je	SHORT $LN12@Allocate
	xor	eax, eax
	jne	SHORT $LN13@Allocate
$LN12@Allocate:
	push	OFFSET ??_C@_1CC@GKJLLHIM@?$AA?$CC?$AA_?$AAP?$AAt?$AAr?$AA?5?$AA?$CB?$AA?$DN?$AA?5?$AA0?$AA?$CC?$AA?5?$AA?$CG?$AA?$CG?$AA?5?$AA0?$AA?$AA@
	push	OFFSET ??_C@_17CNPHIMPH@?$AA?$CF?$AAl?$AAs?$AA?$AA@
	push	0
	push	90					; 0000005aH
	push	OFFSET ??_C@_1GI@MOGLCDAO@?$AAD?$AA?3?$AA?2?$AAM?$AAi?$AAc?$AAr?$AAo?$AAs?$AAo?$AAf?$AAt?$AA?5?$AAV?$AAi?$AAs?$AAu?$AAa?$AAl?$AA?5?$AAS?$AAt?$AAu?$AAd?$AAi?$AAo?$AA?5?$AA1?$AA4?$AA?4?$AA0?$AA?2@
	push	2
	call	__CrtDbgReportW
	add	esp, 24					; 00000018H
	cmp	eax, 1
	jne	SHORT $LN13@Allocate
	int	3
$LN13@Allocate:
	push	0
	push	90					; 0000005aH
	push	OFFSET ??_C@_1GI@MOGLCDAO@?$AAD?$AA?3?$AA?2?$AAM?$AAi?$AAc?$AAr?$AAo?$AAs?$AAo?$AAf?$AAt?$AA?5?$AAV?$AAi?$AAs?$AAu?$AAa?$AAl?$AA?5?$AAS?$AAt?$AAu?$AAd?$AAi?$AAo?$AA?5?$AA1?$AA4?$AA?4?$AA0?$AA?2@
	push	OFFSET ??_C@_1BO@NKFMJPA@?$AAs?$AAt?$AAd?$AA?3?$AA?3?$AA_?$AAA?$AAl?$AAl?$AAo?$AAc?$AAa?$AAt?$AAe?$AA?$AA@
	push	OFFSET ??_C@_1CG@JNLFBNGN@?$AA?$CC?$AAi?$AAn?$AAv?$AAa?$AAl?$AAi?$AAd?$AA?5?$AAa?$AAr?$AAg?$AAu?$AAm?$AAe?$AAn?$AAt?$AA?$CC?$AA?$AA@
	call	__invalid_parameter
	add	esp, 20					; 00000014H
$LN5@Allocate:

; 91   : 		}
; 92   : 	return (static_cast<_Ty *>(_Ptr));

	mov	eax, DWORD PTR __Ptr$[ebp]
$LN9@Allocate:

; 93   : 	}

	add	esp, 16					; 00000010H
	cmp	ebp, esp
	call	__RTC_CheckEsp
	mov	esp, ebp
	pop	ebp
	ret	0
??$_Allocate@U_Container_proxy@std@@@std@@YAPAU_Container_proxy@0@IPAU10@_N@Z ENDP ; std::_Allocate<std::_Container_proxy>
_TEXT	ENDS
; Function compile flags: /Odtp /RTCsu
; File d:\microsoft visual studio 14.0\vc\include\xmemory0
;	COMDAT ??$_Deallocate@D@std@@YAXPADI@Z
_TEXT	SEGMENT
__Ptr_container$1 = -16					; size = 4
__Ptr_ptr$2 = -12					; size = 4
__Ptr_user$3 = -8					; size = 4
__User_size$ = -4					; size = 4
__Ptr$ = 8						; size = 4
__Count$ = 12						; size = 4
??$_Deallocate@D@std@@YAXPADI@Z PROC			; std::_Deallocate<char>, COMDAT

; 98   : 	{	// deallocate storage for _Count elements of type _Ty

	push	ebp
	mov	ebp, esp
	sub	esp, 16					; 00000010H
	mov	eax, -858993460				; ccccccccH
	mov	DWORD PTR [ebp-16], eax
	mov	DWORD PTR [ebp-12], eax
	mov	DWORD PTR [ebp-8], eax
	mov	DWORD PTR [ebp-4], eax

; 99   :  #if defined(_M_IX86) || defined(_M_X64)
; 100  : 	_SCL_SECURE_ALWAYS_VALIDATE(_Count <= (size_t)(-1) / sizeof (_Ty));

	cmp	DWORD PTR __Count$[ebp], -1
	jbe	SHORT $LN2@Deallocate
	mov	eax, OFFSET ??_C@_0CG@FHBDFCGK@_Count?5?$DM?$DN?5?$CIsize_t?$CJ?$CI?91?$CJ?5?1?5sizeof?5@
	test	eax, eax
	je	SHORT $LN10@Deallocate
	xor	ecx, ecx
	jne	SHORT $LN11@Deallocate
$LN10@Deallocate:
	push	OFFSET ??_C@_1FK@EJGLHMGC@?$AA?$CC?$AA_?$AAC?$AAo?$AAu?$AAn?$AAt?$AA?5?$AA?$DM?$AA?$DN?$AA?5?$AA?$CI?$AAs?$AAi?$AAz?$AAe?$AA_?$AAt?$AA?$CJ?$AA?$CI?$AA?9?$AA1?$AA?$CJ?$AA?5?$AA?1?$AA?5?$AAs?$AAi?$AAz?$AAe?$AAo?$AAf@
	push	OFFSET ??_C@_17CNPHIMPH@?$AA?$CF?$AAl?$AAs?$AA?$AA@
	push	0
	push	100					; 00000064H
	push	OFFSET ??_C@_1GI@MOGLCDAO@?$AAD?$AA?3?$AA?2?$AAM?$AAi?$AAc?$AAr?$AAo?$AAs?$AAo?$AAf?$AAt?$AA?5?$AAV?$AAi?$AAs?$AAu?$AAa?$AAl?$AA?5?$AAS?$AAt?$AAu?$AAd?$AAi?$AAo?$AA?5?$AA1?$AA4?$AA?4?$AA0?$AA?2@
	push	2
	call	__CrtDbgReportW
	add	esp, 24					; 00000018H
	cmp	eax, 1
	jne	SHORT $LN11@Deallocate
	int	3
$LN11@Deallocate:
	push	0
	push	100					; 00000064H
	push	OFFSET ??_C@_1GI@MOGLCDAO@?$AAD?$AA?3?$AA?2?$AAM?$AAi?$AAc?$AAr?$AAo?$AAs?$AAo?$AAf?$AAt?$AA?5?$AAV?$AAi?$AAs?$AAu?$AAa?$AAl?$AA?5?$AAS?$AAt?$AAu?$AAd?$AAi?$AAo?$AA?5?$AA1?$AA4?$AA?4?$AA0?$AA?2@
	push	OFFSET ??_C@_1CC@LOFJFFDB@?$AAs?$AAt?$AAd?$AA?3?$AA?3?$AA_?$AAD?$AAe?$AAa?$AAl?$AAl?$AAo?$AAc?$AAa?$AAt?$AAe?$AA?$AA@
	push	OFFSET ??_C@_1CG@JNLFBNGN@?$AA?$CC?$AAi?$AAn?$AAv?$AAa?$AAl?$AAi?$AAd?$AA?5?$AAa?$AAr?$AAg?$AAu?$AAm?$AAe?$AAn?$AAt?$AA?$CC?$AA?$AA@
	call	__invalid_parameter
	add	esp, 20					; 00000014H
$LN2@Deallocate:

; 101  : 	const size_t _User_size = _Count * sizeof (_Ty);

	mov	eax, DWORD PTR __Count$[ebp]
	mov	DWORD PTR __User_size$[ebp], eax

; 102  : 	if (_BIG_ALLOCATION_THRESHOLD <= _User_size)

	cmp	DWORD PTR __User_size$[ebp], 4096	; 00001000H
	jb	$LN3@Deallocate

; 103  : 		{	// deallocate large block
; 104  : 		const uintptr_t _Ptr_user = reinterpret_cast<uintptr_t>(_Ptr);

	mov	ecx, DWORD PTR __Ptr$[ebp]
	mov	DWORD PTR __Ptr_user$3[ebp], ecx

; 105  : 		_SCL_SECURE_ALWAYS_VALIDATE(

	mov	edx, DWORD PTR __Ptr_user$3[ebp]
	and	edx, 31					; 0000001fH
	je	SHORT $LN4@Deallocate
	mov	eax, OFFSET ??_C@_0DD@GBGGGKGG@?$CI_Ptr_user?5?$CG?5?$CI_BIG_ALLOCATION_AL@
	test	eax, eax
	je	SHORT $LN12@Deallocate
	xor	ecx, ecx
	jne	SHORT $LN13@Deallocate
$LN12@Deallocate:
	push	OFFSET ??_C@_1HE@CDMBFOKC@?$AA?$CC?$AA?$CI?$AA_?$AAP?$AAt?$AAr?$AA_?$AAu?$AAs?$AAe?$AAr?$AA?5?$AA?$CG?$AA?5?$AA?$CI?$AA_?$AAB?$AAI?$AAG?$AA_?$AAA?$AAL?$AAL?$AAO?$AAC?$AAA?$AAT?$AAI?$AAO?$AAN?$AA_?$AAA@
	push	OFFSET ??_C@_17CNPHIMPH@?$AA?$CF?$AAl?$AAs?$AA?$AA@
	push	0
	push	106					; 0000006aH
	push	OFFSET ??_C@_1GI@MOGLCDAO@?$AAD?$AA?3?$AA?2?$AAM?$AAi?$AAc?$AAr?$AAo?$AAs?$AAo?$AAf?$AAt?$AA?5?$AAV?$AAi?$AAs?$AAu?$AAa?$AAl?$AA?5?$AAS?$AAt?$AAu?$AAd?$AAi?$AAo?$AA?5?$AA1?$AA4?$AA?4?$AA0?$AA?2@
	push	2
	call	__CrtDbgReportW
	add	esp, 24					; 00000018H
	cmp	eax, 1
	jne	SHORT $LN13@Deallocate
	int	3
$LN13@Deallocate:
	push	0
	push	106					; 0000006aH
	push	OFFSET ??_C@_1GI@MOGLCDAO@?$AAD?$AA?3?$AA?2?$AAM?$AAi?$AAc?$AAr?$AAo?$AAs?$AAo?$AAf?$AAt?$AA?5?$AAV?$AAi?$AAs?$AAu?$AAa?$AAl?$AA?5?$AAS?$AAt?$AAu?$AAd?$AAi?$AAo?$AA?5?$AA1?$AA4?$AA?4?$AA0?$AA?2@
	push	OFFSET ??_C@_1CC@LOFJFFDB@?$AAs?$AAt?$AAd?$AA?3?$AA?3?$AA_?$AAD?$AAe?$AAa?$AAl?$AAl?$AAo?$AAc?$AAa?$AAt?$AAe?$AA?$AA@
	push	OFFSET ??_C@_1CG@JNLFBNGN@?$AA?$CC?$AAi?$AAn?$AAv?$AAa?$AAl?$AAi?$AAd?$AA?5?$AAa?$AAr?$AAg?$AAu?$AAm?$AAe?$AAn?$AAt?$AA?$CC?$AA?$AA@
	call	__invalid_parameter
	add	esp, 20					; 00000014H
$LN4@Deallocate:

; 106  : 			(_Ptr_user & (_BIG_ALLOCATION_ALIGNMENT - 1)) == 0);
; 107  : 		const uintptr_t _Ptr_ptr = _Ptr_user - sizeof(void *);

	mov	eax, DWORD PTR __Ptr_user$3[ebp]
	sub	eax, 4
	mov	DWORD PTR __Ptr_ptr$2[ebp], eax

; 108  : 		const uintptr_t _Ptr_container =
; 109  : 			*reinterpret_cast<uintptr_t *>(_Ptr_ptr);

	mov	ecx, DWORD PTR __Ptr_ptr$2[ebp]
	mov	edx, DWORD PTR [ecx]
	mov	DWORD PTR __Ptr_container$1[ebp], edx

; 110  : 
; 111  :  #ifdef _DEBUG
; 112  : 		// If the following asserts, it likely means that we are performing
; 113  : 		// an aligned delete on memory coming from an unaligned allocation.
; 114  : 		_SCL_SECURE_ALWAYS_VALIDATE(

	mov	eax, 4
	imul	ecx, eax, -1
	mov	edx, DWORD PTR __Ptr_ptr$2[ebp]
	cmp	DWORD PTR [edx+ecx], -84215046		; fafafafaH
	je	SHORT $LN5@Deallocate
	mov	eax, OFFSET ??_C@_0EI@NOJHEJCJ@reinterpret_cast?$DMuintptr_t?5?$CK?$DO?$CI_P@
	test	eax, eax
	je	SHORT $LN14@Deallocate
	xor	ecx, ecx
	jne	SHORT $LN15@Deallocate
$LN14@Deallocate:
	push	OFFSET ??_C@_1JO@EKLKIEHP@?$AA?$CC?$AAr?$AAe?$AAi?$AAn?$AAt?$AAe?$AAr?$AAp?$AAr?$AAe?$AAt?$AA_?$AAc?$AAa?$AAs?$AAt?$AA?$DM?$AAu?$AAi?$AAn?$AAt?$AAp?$AAt?$AAr?$AA_?$AAt?$AA?5?$AA?$CK?$AA?$DO?$AA?$CI?$AA_@
	push	OFFSET ??_C@_17CNPHIMPH@?$AA?$CF?$AAl?$AAs?$AA?$AA@
	push	0
	push	116					; 00000074H
	push	OFFSET ??_C@_1GI@MOGLCDAO@?$AAD?$AA?3?$AA?2?$AAM?$AAi?$AAc?$AAr?$AAo?$AAs?$AAo?$AAf?$AAt?$AA?5?$AAV?$AAi?$AAs?$AAu?$AAa?$AAl?$AA?5?$AAS?$AAt?$AAu?$AAd?$AAi?$AAo?$AA?5?$AA1?$AA4?$AA?4?$AA0?$AA?2@
	push	2
	call	__CrtDbgReportW
	add	esp, 24					; 00000018H
	cmp	eax, 1
	jne	SHORT $LN15@Deallocate
	int	3
$LN15@Deallocate:
	push	0
	push	116					; 00000074H
	push	OFFSET ??_C@_1GI@MOGLCDAO@?$AAD?$AA?3?$AA?2?$AAM?$AAi?$AAc?$AAr?$AAo?$AAs?$AAo?$AAf?$AAt?$AA?5?$AAV?$AAi?$AAs?$AAu?$AAa?$AAl?$AA?5?$AAS?$AAt?$AAu?$AAd?$AAi?$AAo?$AA?5?$AA1?$AA4?$AA?4?$AA0?$AA?2@
	push	OFFSET ??_C@_1CC@LOFJFFDB@?$AAs?$AAt?$AAd?$AA?3?$AA?3?$AA_?$AAD?$AAe?$AAa?$AAl?$AAl?$AAo?$AAc?$AAa?$AAt?$AAe?$AA?$AA@
	push	OFFSET ??_C@_1CG@JNLFBNGN@?$AA?$CC?$AAi?$AAn?$AAv?$AAa?$AAl?$AAi?$AAd?$AA?5?$AAa?$AAr?$AAg?$AAu?$AAm?$AAe?$AAn?$AAt?$AA?$CC?$AA?$AA@
	call	__invalid_parameter
	add	esp, 20					; 00000014H
$LN5@Deallocate:

; 115  : 			reinterpret_cast<uintptr_t *>(_Ptr_ptr)[-1] ==
; 116  : 				_BIG_ALLOCATION_SENTINEL);
; 117  :  #endif /* _DEBUG */
; 118  : 
; 119  : 		// Extra paranoia on aligned allocation/deallocation
; 120  : 		_SCL_SECURE_ALWAYS_VALIDATE(_Ptr_container < _Ptr_user);

	mov	eax, DWORD PTR __Ptr_container$1[ebp]
	cmp	eax, DWORD PTR __Ptr_user$3[ebp]
	jb	SHORT $LN6@Deallocate
	mov	ecx, OFFSET ??_C@_0BL@OCKMEJON@_Ptr_container?5?$DM?5_Ptr_user?$AA@
	test	ecx, ecx
	je	SHORT $LN16@Deallocate
	xor	edx, edx
	jne	SHORT $LN17@Deallocate
$LN16@Deallocate:
	push	OFFSET ??_C@_1EE@PDHAHDDC@?$AA?$CC?$AA_?$AAP?$AAt?$AAr?$AA_?$AAc?$AAo?$AAn?$AAt?$AAa?$AAi?$AAn?$AAe?$AAr?$AA?5?$AA?$DM?$AA?5?$AA_?$AAP?$AAt?$AAr?$AA_?$AAu?$AAs?$AAe?$AAr?$AA?$CC?$AA?5?$AA?$CG?$AA?$CG?$AA?5@
	push	OFFSET ??_C@_17CNPHIMPH@?$AA?$CF?$AAl?$AAs?$AA?$AA@
	push	0
	push	120					; 00000078H
	push	OFFSET ??_C@_1GI@MOGLCDAO@?$AAD?$AA?3?$AA?2?$AAM?$AAi?$AAc?$AAr?$AAo?$AAs?$AAo?$AAf?$AAt?$AA?5?$AAV?$AAi?$AAs?$AAu?$AAa?$AAl?$AA?5?$AAS?$AAt?$AAu?$AAd?$AAi?$AAo?$AA?5?$AA1?$AA4?$AA?4?$AA0?$AA?2@
	push	2
	call	__CrtDbgReportW
	add	esp, 24					; 00000018H
	cmp	eax, 1
	jne	SHORT $LN17@Deallocate
	int	3
$LN17@Deallocate:
	push	0
	push	120					; 00000078H
	push	OFFSET ??_C@_1GI@MOGLCDAO@?$AAD?$AA?3?$AA?2?$AAM?$AAi?$AAc?$AAr?$AAo?$AAs?$AAo?$AAf?$AAt?$AA?5?$AAV?$AAi?$AAs?$AAu?$AAa?$AAl?$AA?5?$AAS?$AAt?$AAu?$AAd?$AAi?$AAo?$AA?5?$AA1?$AA4?$AA?4?$AA0?$AA?2@
	push	OFFSET ??_C@_1CC@LOFJFFDB@?$AAs?$AAt?$AAd?$AA?3?$AA?3?$AA_?$AAD?$AAe?$AAa?$AAl?$AAl?$AAo?$AAc?$AAa?$AAt?$AAe?$AA?$AA@
	push	OFFSET ??_C@_1CG@JNLFBNGN@?$AA?$CC?$AAi?$AAn?$AAv?$AAa?$AAl?$AAi?$AAd?$AA?5?$AAa?$AAr?$AAg?$AAu?$AAm?$AAe?$AAn?$AAt?$AA?$CC?$AA?$AA@
	call	__invalid_parameter
	add	esp, 20					; 00000014H
$LN6@Deallocate:

; 121  : 
; 122  :  #ifdef _DEBUG
; 123  : 		_SCL_SECURE_ALWAYS_VALIDATE(2 * sizeof(void *)

	mov	ecx, DWORD PTR __Ptr_user$3[ebp]
	sub	ecx, DWORD PTR __Ptr_container$1[ebp]
	cmp	ecx, 8
	jae	SHORT $LN7@Deallocate
	mov	edx, OFFSET ??_C@_0DB@GLFJLNCE@2?5?$CK?5sizeof?$CIvoid?5?$CK?$CJ?5?$DM?$DN?5_Ptr_user?5@
	test	edx, edx
	je	SHORT $LN18@Deallocate
	xor	eax, eax
	jne	SHORT $LN19@Deallocate
$LN18@Deallocate:
	push	OFFSET ??_C@_1HA@NAPGMHAO@?$AA?$CC?$AA2?$AA?5?$AA?$CK?$AA?5?$AAs?$AAi?$AAz?$AAe?$AAo?$AAf?$AA?$CI?$AAv?$AAo?$AAi?$AAd?$AA?5?$AA?$CK?$AA?$CJ?$AA?5?$AA?$DM?$AA?$DN?$AA?5?$AA_?$AAP?$AAt?$AAr?$AA_?$AAu?$AAs?$AAe?$AAr@
	push	OFFSET ??_C@_17CNPHIMPH@?$AA?$CF?$AAl?$AAs?$AA?$AA@
	push	0
	push	124					; 0000007cH
	push	OFFSET ??_C@_1GI@MOGLCDAO@?$AAD?$AA?3?$AA?2?$AAM?$AAi?$AAc?$AAr?$AAo?$AAs?$AAo?$AAf?$AAt?$AA?5?$AAV?$AAi?$AAs?$AAu?$AAa?$AAl?$AA?5?$AAS?$AAt?$AAu?$AAd?$AAi?$AAo?$AA?5?$AA1?$AA4?$AA?4?$AA0?$AA?2@
	push	2
	call	__CrtDbgReportW
	add	esp, 24					; 00000018H
	cmp	eax, 1
	jne	SHORT $LN19@Deallocate
	int	3
$LN19@Deallocate:
	push	0
	push	124					; 0000007cH
	push	OFFSET ??_C@_1GI@MOGLCDAO@?$AAD?$AA?3?$AA?2?$AAM?$AAi?$AAc?$AAr?$AAo?$AAs?$AAo?$AAf?$AAt?$AA?5?$AAV?$AAi?$AAs?$AAu?$AAa?$AAl?$AA?5?$AAS?$AAt?$AAu?$AAd?$AAi?$AAo?$AA?5?$AA1?$AA4?$AA?4?$AA0?$AA?2@
	push	OFFSET ??_C@_1CC@LOFJFFDB@?$AAs?$AAt?$AAd?$AA?3?$AA?3?$AA_?$AAD?$AAe?$AAa?$AAl?$AAl?$AAo?$AAc?$AAa?$AAt?$AAe?$AA?$AA@
	push	OFFSET ??_C@_1CG@JNLFBNGN@?$AA?$CC?$AAi?$AAn?$AAv?$AAa?$AAl?$AAi?$AAd?$AA?5?$AAa?$AAr?$AAg?$AAu?$AAm?$AAe?$AAn?$AAt?$AA?$CC?$AA?$AA@
	call	__invalid_parameter
	add	esp, 20					; 00000014H
$LN7@Deallocate:

; 124  : 			<= _Ptr_user - _Ptr_container);
; 125  : 
; 126  :  #else /* _DEBUG */
; 127  : 		_SCL_SECURE_ALWAYS_VALIDATE(sizeof(void *)
; 128  : 			<= _Ptr_user - _Ptr_container);
; 129  :  #endif /* _DEBUG */
; 130  : 
; 131  : 		_SCL_SECURE_ALWAYS_VALIDATE(_Ptr_user - _Ptr_container

	mov	edx, DWORD PTR __Ptr_user$3[ebp]
	sub	edx, DWORD PTR __Ptr_container$1[ebp]
	cmp	edx, 39					; 00000027H
	jbe	SHORT $LN8@Deallocate
	mov	eax, OFFSET ??_C@_0CN@BLHJCAL@_Ptr_user?5?9?5_Ptr_container?5?$DM?$DN?5_N@
	test	eax, eax
	je	SHORT $LN20@Deallocate
	xor	ecx, ecx
	jne	SHORT $LN21@Deallocate
$LN20@Deallocate:
	push	OFFSET ??_C@_1GI@DHJGPFNI@?$AA?$CC?$AA_?$AAP?$AAt?$AAr?$AA_?$AAu?$AAs?$AAe?$AAr?$AA?5?$AA?9?$AA?5?$AA_?$AAP?$AAt?$AAr?$AA_?$AAc?$AAo?$AAn?$AAt?$AAa?$AAi?$AAn?$AAe?$AAr?$AA?5?$AA?$DM?$AA?$DN?$AA?5?$AA_@
	push	OFFSET ??_C@_17CNPHIMPH@?$AA?$CF?$AAl?$AAs?$AA?$AA@
	push	0
	push	132					; 00000084H
	push	OFFSET ??_C@_1GI@MOGLCDAO@?$AAD?$AA?3?$AA?2?$AAM?$AAi?$AAc?$AAr?$AAo?$AAs?$AAo?$AAf?$AAt?$AA?5?$AAV?$AAi?$AAs?$AAu?$AAa?$AAl?$AA?5?$AAS?$AAt?$AAu?$AAd?$AAi?$AAo?$AA?5?$AA1?$AA4?$AA?4?$AA0?$AA?2@
	push	2
	call	__CrtDbgReportW
	add	esp, 24					; 00000018H
	cmp	eax, 1
	jne	SHORT $LN21@Deallocate
	int	3
$LN21@Deallocate:
	push	0
	push	132					; 00000084H
	push	OFFSET ??_C@_1GI@MOGLCDAO@?$AAD?$AA?3?$AA?2?$AAM?$AAi?$AAc?$AAr?$AAo?$AAs?$AAo?$AAf?$AAt?$AA?5?$AAV?$AAi?$AAs?$AAu?$AAa?$AAl?$AA?5?$AAS?$AAt?$AAu?$AAd?$AAi?$AAo?$AA?5?$AA1?$AA4?$AA?4?$AA0?$AA?2@
	push	OFFSET ??_C@_1CC@LOFJFFDB@?$AAs?$AAt?$AAd?$AA?3?$AA?3?$AA_?$AAD?$AAe?$AAa?$AAl?$AAl?$AAo?$AAc?$AAa?$AAt?$AAe?$AA?$AA@
	push	OFFSET ??_C@_1CG@JNLFBNGN@?$AA?$CC?$AAi?$AAn?$AAv?$AAa?$AAl?$AAi?$AAd?$AA?5?$AAa?$AAr?$AAg?$AAu?$AAm?$AAe?$AAn?$AAt?$AA?$CC?$AA?$AA@
	call	__invalid_parameter
	add	esp, 20					; 00000014H
$LN8@Deallocate:

; 132  : 			<= _NON_USER_SIZE);
; 133  : 
; 134  : 		_Ptr = reinterpret_cast<_Ty *>(_Ptr_container);

	mov	eax, DWORD PTR __Ptr_container$1[ebp]
	mov	DWORD PTR __Ptr$[ebp], eax
$LN3@Deallocate:

; 135  : 		}
; 136  :  #endif /* defined(_M_IX86) || defined(_M_X64) */
; 137  : 
; 138  : 	::operator delete(_Ptr);

	mov	ecx, DWORD PTR __Ptr$[ebp]
	push	ecx
	call	??3@YAXPAX@Z				; operator delete
	add	esp, 4

; 139  : 	}

	add	esp, 16					; 00000010H
	cmp	ebp, esp
	call	__RTC_CheckEsp
	mov	esp, ebp
	pop	ebp
	ret	0
??$_Deallocate@D@std@@YAXPADI@Z ENDP			; std::_Deallocate<char>
_TEXT	ENDS
; Function compile flags: /Odtp /RTCsu
; File d:\microsoft visual studio 14.0\vc\include\xmemory0
;	COMDAT ??$_Deallocate@UVector2D@@@std@@YAXPAUVector2D@@I@Z
_TEXT	SEGMENT
__Ptr_container$1 = -16					; size = 4
__Ptr_ptr$2 = -12					; size = 4
__Ptr_user$3 = -8					; size = 4
__User_size$ = -4					; size = 4
__Ptr$ = 8						; size = 4
__Count$ = 12						; size = 4
??$_Deallocate@UVector2D@@@std@@YAXPAUVector2D@@I@Z PROC ; std::_Deallocate<Vector2D>, COMDAT

; 98   : 	{	// deallocate storage for _Count elements of type _Ty

	push	ebp
	mov	ebp, esp
	sub	esp, 16					; 00000010H
	mov	eax, -858993460				; ccccccccH
	mov	DWORD PTR [ebp-16], eax
	mov	DWORD PTR [ebp-12], eax
	mov	DWORD PTR [ebp-8], eax
	mov	DWORD PTR [ebp-4], eax

; 99   :  #if defined(_M_IX86) || defined(_M_X64)
; 100  : 	_SCL_SECURE_ALWAYS_VALIDATE(_Count <= (size_t)(-1) / sizeof (_Ty));

	cmp	DWORD PTR __Count$[ebp], 268435455	; 0fffffffH
	jbe	SHORT $LN2@Deallocate
	mov	eax, OFFSET ??_C@_0CG@FHBDFCGK@_Count?5?$DM?$DN?5?$CIsize_t?$CJ?$CI?91?$CJ?5?1?5sizeof?5@
	test	eax, eax
	je	SHORT $LN10@Deallocate
	xor	ecx, ecx
	jne	SHORT $LN11@Deallocate
$LN10@Deallocate:
	push	OFFSET ??_C@_1FK@EJGLHMGC@?$AA?$CC?$AA_?$AAC?$AAo?$AAu?$AAn?$AAt?$AA?5?$AA?$DM?$AA?$DN?$AA?5?$AA?$CI?$AAs?$AAi?$AAz?$AAe?$AA_?$AAt?$AA?$CJ?$AA?$CI?$AA?9?$AA1?$AA?$CJ?$AA?5?$AA?1?$AA?5?$AAs?$AAi?$AAz?$AAe?$AAo?$AAf@
	push	OFFSET ??_C@_17CNPHIMPH@?$AA?$CF?$AAl?$AAs?$AA?$AA@
	push	0
	push	100					; 00000064H
	push	OFFSET ??_C@_1GI@MOGLCDAO@?$AAD?$AA?3?$AA?2?$AAM?$AAi?$AAc?$AAr?$AAo?$AAs?$AAo?$AAf?$AAt?$AA?5?$AAV?$AAi?$AAs?$AAu?$AAa?$AAl?$AA?5?$AAS?$AAt?$AAu?$AAd?$AAi?$AAo?$AA?5?$AA1?$AA4?$AA?4?$AA0?$AA?2@
	push	2
	call	__CrtDbgReportW
	add	esp, 24					; 00000018H
	cmp	eax, 1
	jne	SHORT $LN11@Deallocate
	int	3
$LN11@Deallocate:
	push	0
	push	100					; 00000064H
	push	OFFSET ??_C@_1GI@MOGLCDAO@?$AAD?$AA?3?$AA?2?$AAM?$AAi?$AAc?$AAr?$AAo?$AAs?$AAo?$AAf?$AAt?$AA?5?$AAV?$AAi?$AAs?$AAu?$AAa?$AAl?$AA?5?$AAS?$AAt?$AAu?$AAd?$AAi?$AAo?$AA?5?$AA1?$AA4?$AA?4?$AA0?$AA?2@
	push	OFFSET ??_C@_1CC@LOFJFFDB@?$AAs?$AAt?$AAd?$AA?3?$AA?3?$AA_?$AAD?$AAe?$AAa?$AAl?$AAl?$AAo?$AAc?$AAa?$AAt?$AAe?$AA?$AA@
	push	OFFSET ??_C@_1CG@JNLFBNGN@?$AA?$CC?$AAi?$AAn?$AAv?$AAa?$AAl?$AAi?$AAd?$AA?5?$AAa?$AAr?$AAg?$AAu?$AAm?$AAe?$AAn?$AAt?$AA?$CC?$AA?$AA@
	call	__invalid_parameter
	add	esp, 20					; 00000014H
$LN2@Deallocate:

; 101  : 	const size_t _User_size = _Count * sizeof (_Ty);

	mov	eax, DWORD PTR __Count$[ebp]
	shl	eax, 4
	mov	DWORD PTR __User_size$[ebp], eax

; 102  : 	if (_BIG_ALLOCATION_THRESHOLD <= _User_size)

	cmp	DWORD PTR __User_size$[ebp], 4096	; 00001000H
	jb	$LN3@Deallocate

; 103  : 		{	// deallocate large block
; 104  : 		const uintptr_t _Ptr_user = reinterpret_cast<uintptr_t>(_Ptr);

	mov	ecx, DWORD PTR __Ptr$[ebp]
	mov	DWORD PTR __Ptr_user$3[ebp], ecx

; 105  : 		_SCL_SECURE_ALWAYS_VALIDATE(

	mov	edx, DWORD PTR __Ptr_user$3[ebp]
	and	edx, 31					; 0000001fH
	je	SHORT $LN4@Deallocate
	mov	eax, OFFSET ??_C@_0DD@GBGGGKGG@?$CI_Ptr_user?5?$CG?5?$CI_BIG_ALLOCATION_AL@
	test	eax, eax
	je	SHORT $LN12@Deallocate
	xor	ecx, ecx
	jne	SHORT $LN13@Deallocate
$LN12@Deallocate:
	push	OFFSET ??_C@_1HE@CDMBFOKC@?$AA?$CC?$AA?$CI?$AA_?$AAP?$AAt?$AAr?$AA_?$AAu?$AAs?$AAe?$AAr?$AA?5?$AA?$CG?$AA?5?$AA?$CI?$AA_?$AAB?$AAI?$AAG?$AA_?$AAA?$AAL?$AAL?$AAO?$AAC?$AAA?$AAT?$AAI?$AAO?$AAN?$AA_?$AAA@
	push	OFFSET ??_C@_17CNPHIMPH@?$AA?$CF?$AAl?$AAs?$AA?$AA@
	push	0
	push	106					; 0000006aH
	push	OFFSET ??_C@_1GI@MOGLCDAO@?$AAD?$AA?3?$AA?2?$AAM?$AAi?$AAc?$AAr?$AAo?$AAs?$AAo?$AAf?$AAt?$AA?5?$AAV?$AAi?$AAs?$AAu?$AAa?$AAl?$AA?5?$AAS?$AAt?$AAu?$AAd?$AAi?$AAo?$AA?5?$AA1?$AA4?$AA?4?$AA0?$AA?2@
	push	2
	call	__CrtDbgReportW
	add	esp, 24					; 00000018H
	cmp	eax, 1
	jne	SHORT $LN13@Deallocate
	int	3
$LN13@Deallocate:
	push	0
	push	106					; 0000006aH
	push	OFFSET ??_C@_1GI@MOGLCDAO@?$AAD?$AA?3?$AA?2?$AAM?$AAi?$AAc?$AAr?$AAo?$AAs?$AAo?$AAf?$AAt?$AA?5?$AAV?$AAi?$AAs?$AAu?$AAa?$AAl?$AA?5?$AAS?$AAt?$AAu?$AAd?$AAi?$AAo?$AA?5?$AA1?$AA4?$AA?4?$AA0?$AA?2@
	push	OFFSET ??_C@_1CC@LOFJFFDB@?$AAs?$AAt?$AAd?$AA?3?$AA?3?$AA_?$AAD?$AAe?$AAa?$AAl?$AAl?$AAo?$AAc?$AAa?$AAt?$AAe?$AA?$AA@
	push	OFFSET ??_C@_1CG@JNLFBNGN@?$AA?$CC?$AAi?$AAn?$AAv?$AAa?$AAl?$AAi?$AAd?$AA?5?$AAa?$AAr?$AAg?$AAu?$AAm?$AAe?$AAn?$AAt?$AA?$CC?$AA?$AA@
	call	__invalid_parameter
	add	esp, 20					; 00000014H
$LN4@Deallocate:

; 106  : 			(_Ptr_user & (_BIG_ALLOCATION_ALIGNMENT - 1)) == 0);
; 107  : 		const uintptr_t _Ptr_ptr = _Ptr_user - sizeof(void *);

	mov	eax, DWORD PTR __Ptr_user$3[ebp]
	sub	eax, 4
	mov	DWORD PTR __Ptr_ptr$2[ebp], eax

; 108  : 		const uintptr_t _Ptr_container =
; 109  : 			*reinterpret_cast<uintptr_t *>(_Ptr_ptr);

	mov	ecx, DWORD PTR __Ptr_ptr$2[ebp]
	mov	edx, DWORD PTR [ecx]
	mov	DWORD PTR __Ptr_container$1[ebp], edx

; 110  : 
; 111  :  #ifdef _DEBUG
; 112  : 		// If the following asserts, it likely means that we are performing
; 113  : 		// an aligned delete on memory coming from an unaligned allocation.
; 114  : 		_SCL_SECURE_ALWAYS_VALIDATE(

	mov	eax, 4
	imul	ecx, eax, -1
	mov	edx, DWORD PTR __Ptr_ptr$2[ebp]
	cmp	DWORD PTR [edx+ecx], -84215046		; fafafafaH
	je	SHORT $LN5@Deallocate
	mov	eax, OFFSET ??_C@_0EI@NOJHEJCJ@reinterpret_cast?$DMuintptr_t?5?$CK?$DO?$CI_P@
	test	eax, eax
	je	SHORT $LN14@Deallocate
	xor	ecx, ecx
	jne	SHORT $LN15@Deallocate
$LN14@Deallocate:
	push	OFFSET ??_C@_1JO@EKLKIEHP@?$AA?$CC?$AAr?$AAe?$AAi?$AAn?$AAt?$AAe?$AAr?$AAp?$AAr?$AAe?$AAt?$AA_?$AAc?$AAa?$AAs?$AAt?$AA?$DM?$AAu?$AAi?$AAn?$AAt?$AAp?$AAt?$AAr?$AA_?$AAt?$AA?5?$AA?$CK?$AA?$DO?$AA?$CI?$AA_@
	push	OFFSET ??_C@_17CNPHIMPH@?$AA?$CF?$AAl?$AAs?$AA?$AA@
	push	0
	push	116					; 00000074H
	push	OFFSET ??_C@_1GI@MOGLCDAO@?$AAD?$AA?3?$AA?2?$AAM?$AAi?$AAc?$AAr?$AAo?$AAs?$AAo?$AAf?$AAt?$AA?5?$AAV?$AAi?$AAs?$AAu?$AAa?$AAl?$AA?5?$AAS?$AAt?$AAu?$AAd?$AAi?$AAo?$AA?5?$AA1?$AA4?$AA?4?$AA0?$AA?2@
	push	2
	call	__CrtDbgReportW
	add	esp, 24					; 00000018H
	cmp	eax, 1
	jne	SHORT $LN15@Deallocate
	int	3
$LN15@Deallocate:
	push	0
	push	116					; 00000074H
	push	OFFSET ??_C@_1GI@MOGLCDAO@?$AAD?$AA?3?$AA?2?$AAM?$AAi?$AAc?$AAr?$AAo?$AAs?$AAo?$AAf?$AAt?$AA?5?$AAV?$AAi?$AAs?$AAu?$AAa?$AAl?$AA?5?$AAS?$AAt?$AAu?$AAd?$AAi?$AAo?$AA?5?$AA1?$AA4?$AA?4?$AA0?$AA?2@
	push	OFFSET ??_C@_1CC@LOFJFFDB@?$AAs?$AAt?$AAd?$AA?3?$AA?3?$AA_?$AAD?$AAe?$AAa?$AAl?$AAl?$AAo?$AAc?$AAa?$AAt?$AAe?$AA?$AA@
	push	OFFSET ??_C@_1CG@JNLFBNGN@?$AA?$CC?$AAi?$AAn?$AAv?$AAa?$AAl?$AAi?$AAd?$AA?5?$AAa?$AAr?$AAg?$AAu?$AAm?$AAe?$AAn?$AAt?$AA?$CC?$AA?$AA@
	call	__invalid_parameter
	add	esp, 20					; 00000014H
$LN5@Deallocate:

; 115  : 			reinterpret_cast<uintptr_t *>(_Ptr_ptr)[-1] ==
; 116  : 				_BIG_ALLOCATION_SENTINEL);
; 117  :  #endif /* _DEBUG */
; 118  : 
; 119  : 		// Extra paranoia on aligned allocation/deallocation
; 120  : 		_SCL_SECURE_ALWAYS_VALIDATE(_Ptr_container < _Ptr_user);

	mov	eax, DWORD PTR __Ptr_container$1[ebp]
	cmp	eax, DWORD PTR __Ptr_user$3[ebp]
	jb	SHORT $LN6@Deallocate
	mov	ecx, OFFSET ??_C@_0BL@OCKMEJON@_Ptr_container?5?$DM?5_Ptr_user?$AA@
	test	ecx, ecx
	je	SHORT $LN16@Deallocate
	xor	edx, edx
	jne	SHORT $LN17@Deallocate
$LN16@Deallocate:
	push	OFFSET ??_C@_1EE@PDHAHDDC@?$AA?$CC?$AA_?$AAP?$AAt?$AAr?$AA_?$AAc?$AAo?$AAn?$AAt?$AAa?$AAi?$AAn?$AAe?$AAr?$AA?5?$AA?$DM?$AA?5?$AA_?$AAP?$AAt?$AAr?$AA_?$AAu?$AAs?$AAe?$AAr?$AA?$CC?$AA?5?$AA?$CG?$AA?$CG?$AA?5@
	push	OFFSET ??_C@_17CNPHIMPH@?$AA?$CF?$AAl?$AAs?$AA?$AA@
	push	0
	push	120					; 00000078H
	push	OFFSET ??_C@_1GI@MOGLCDAO@?$AAD?$AA?3?$AA?2?$AAM?$AAi?$AAc?$AAr?$AAo?$AAs?$AAo?$AAf?$AAt?$AA?5?$AAV?$AAi?$AAs?$AAu?$AAa?$AAl?$AA?5?$AAS?$AAt?$AAu?$AAd?$AAi?$AAo?$AA?5?$AA1?$AA4?$AA?4?$AA0?$AA?2@
	push	2
	call	__CrtDbgReportW
	add	esp, 24					; 00000018H
	cmp	eax, 1
	jne	SHORT $LN17@Deallocate
	int	3
$LN17@Deallocate:
	push	0
	push	120					; 00000078H
	push	OFFSET ??_C@_1GI@MOGLCDAO@?$AAD?$AA?3?$AA?2?$AAM?$AAi?$AAc?$AAr?$AAo?$AAs?$AAo?$AAf?$AAt?$AA?5?$AAV?$AAi?$AAs?$AAu?$AAa?$AAl?$AA?5?$AAS?$AAt?$AAu?$AAd?$AAi?$AAo?$AA?5?$AA1?$AA4?$AA?4?$AA0?$AA?2@
	push	OFFSET ??_C@_1CC@LOFJFFDB@?$AAs?$AAt?$AAd?$AA?3?$AA?3?$AA_?$AAD?$AAe?$AAa?$AAl?$AAl?$AAo?$AAc?$AAa?$AAt?$AAe?$AA?$AA@
	push	OFFSET ??_C@_1CG@JNLFBNGN@?$AA?$CC?$AAi?$AAn?$AAv?$AAa?$AAl?$AAi?$AAd?$AA?5?$AAa?$AAr?$AAg?$AAu?$AAm?$AAe?$AAn?$AAt?$AA?$CC?$AA?$AA@
	call	__invalid_parameter
	add	esp, 20					; 00000014H
$LN6@Deallocate:

; 121  : 
; 122  :  #ifdef _DEBUG
; 123  : 		_SCL_SECURE_ALWAYS_VALIDATE(2 * sizeof(void *)

	mov	ecx, DWORD PTR __Ptr_user$3[ebp]
	sub	ecx, DWORD PTR __Ptr_container$1[ebp]
	cmp	ecx, 8
	jae	SHORT $LN7@Deallocate
	mov	edx, OFFSET ??_C@_0DB@GLFJLNCE@2?5?$CK?5sizeof?$CIvoid?5?$CK?$CJ?5?$DM?$DN?5_Ptr_user?5@
	test	edx, edx
	je	SHORT $LN18@Deallocate
	xor	eax, eax
	jne	SHORT $LN19@Deallocate
$LN18@Deallocate:
	push	OFFSET ??_C@_1HA@NAPGMHAO@?$AA?$CC?$AA2?$AA?5?$AA?$CK?$AA?5?$AAs?$AAi?$AAz?$AAe?$AAo?$AAf?$AA?$CI?$AAv?$AAo?$AAi?$AAd?$AA?5?$AA?$CK?$AA?$CJ?$AA?5?$AA?$DM?$AA?$DN?$AA?5?$AA_?$AAP?$AAt?$AAr?$AA_?$AAu?$AAs?$AAe?$AAr@
	push	OFFSET ??_C@_17CNPHIMPH@?$AA?$CF?$AAl?$AAs?$AA?$AA@
	push	0
	push	124					; 0000007cH
	push	OFFSET ??_C@_1GI@MOGLCDAO@?$AAD?$AA?3?$AA?2?$AAM?$AAi?$AAc?$AAr?$AAo?$AAs?$AAo?$AAf?$AAt?$AA?5?$AAV?$AAi?$AAs?$AAu?$AAa?$AAl?$AA?5?$AAS?$AAt?$AAu?$AAd?$AAi?$AAo?$AA?5?$AA1?$AA4?$AA?4?$AA0?$AA?2@
	push	2
	call	__CrtDbgReportW
	add	esp, 24					; 00000018H
	cmp	eax, 1
	jne	SHORT $LN19@Deallocate
	int	3
$LN19@Deallocate:
	push	0
	push	124					; 0000007cH
	push	OFFSET ??_C@_1GI@MOGLCDAO@?$AAD?$AA?3?$AA?2?$AAM?$AAi?$AAc?$AAr?$AAo?$AAs?$AAo?$AAf?$AAt?$AA?5?$AAV?$AAi?$AAs?$AAu?$AAa?$AAl?$AA?5?$AAS?$AAt?$AAu?$AAd?$AAi?$AAo?$AA?5?$AA1?$AA4?$AA?4?$AA0?$AA?2@
	push	OFFSET ??_C@_1CC@LOFJFFDB@?$AAs?$AAt?$AAd?$AA?3?$AA?3?$AA_?$AAD?$AAe?$AAa?$AAl?$AAl?$AAo?$AAc?$AAa?$AAt?$AAe?$AA?$AA@
	push	OFFSET ??_C@_1CG@JNLFBNGN@?$AA?$CC?$AAi?$AAn?$AAv?$AAa?$AAl?$AAi?$AAd?$AA?5?$AAa?$AAr?$AAg?$AAu?$AAm?$AAe?$AAn?$AAt?$AA?$CC?$AA?$AA@
	call	__invalid_parameter
	add	esp, 20					; 00000014H
$LN7@Deallocate:

; 124  : 			<= _Ptr_user - _Ptr_container);
; 125  : 
; 126  :  #else /* _DEBUG */
; 127  : 		_SCL_SECURE_ALWAYS_VALIDATE(sizeof(void *)
; 128  : 			<= _Ptr_user - _Ptr_container);
; 129  :  #endif /* _DEBUG */
; 130  : 
; 131  : 		_SCL_SECURE_ALWAYS_VALIDATE(_Ptr_user - _Ptr_container

	mov	edx, DWORD PTR __Ptr_user$3[ebp]
	sub	edx, DWORD PTR __Ptr_container$1[ebp]
	cmp	edx, 39					; 00000027H
	jbe	SHORT $LN8@Deallocate
	mov	eax, OFFSET ??_C@_0CN@BLHJCAL@_Ptr_user?5?9?5_Ptr_container?5?$DM?$DN?5_N@
	test	eax, eax
	je	SHORT $LN20@Deallocate
	xor	ecx, ecx
	jne	SHORT $LN21@Deallocate
$LN20@Deallocate:
	push	OFFSET ??_C@_1GI@DHJGPFNI@?$AA?$CC?$AA_?$AAP?$AAt?$AAr?$AA_?$AAu?$AAs?$AAe?$AAr?$AA?5?$AA?9?$AA?5?$AA_?$AAP?$AAt?$AAr?$AA_?$AAc?$AAo?$AAn?$AAt?$AAa?$AAi?$AAn?$AAe?$AAr?$AA?5?$AA?$DM?$AA?$DN?$AA?5?$AA_@
	push	OFFSET ??_C@_17CNPHIMPH@?$AA?$CF?$AAl?$AAs?$AA?$AA@
	push	0
	push	132					; 00000084H
	push	OFFSET ??_C@_1GI@MOGLCDAO@?$AAD?$AA?3?$AA?2?$AAM?$AAi?$AAc?$AAr?$AAo?$AAs?$AAo?$AAf?$AAt?$AA?5?$AAV?$AAi?$AAs?$AAu?$AAa?$AAl?$AA?5?$AAS?$AAt?$AAu?$AAd?$AAi?$AAo?$AA?5?$AA1?$AA4?$AA?4?$AA0?$AA?2@
	push	2
	call	__CrtDbgReportW
	add	esp, 24					; 00000018H
	cmp	eax, 1
	jne	SHORT $LN21@Deallocate
	int	3
$LN21@Deallocate:
	push	0
	push	132					; 00000084H
	push	OFFSET ??_C@_1GI@MOGLCDAO@?$AAD?$AA?3?$AA?2?$AAM?$AAi?$AAc?$AAr?$AAo?$AAs?$AAo?$AAf?$AAt?$AA?5?$AAV?$AAi?$AAs?$AAu?$AAa?$AAl?$AA?5?$AAS?$AAt?$AAu?$AAd?$AAi?$AAo?$AA?5?$AA1?$AA4?$AA?4?$AA0?$AA?2@
	push	OFFSET ??_C@_1CC@LOFJFFDB@?$AAs?$AAt?$AAd?$AA?3?$AA?3?$AA_?$AAD?$AAe?$AAa?$AAl?$AAl?$AAo?$AAc?$AAa?$AAt?$AAe?$AA?$AA@
	push	OFFSET ??_C@_1CG@JNLFBNGN@?$AA?$CC?$AAi?$AAn?$AAv?$AAa?$AAl?$AAi?$AAd?$AA?5?$AAa?$AAr?$AAg?$AAu?$AAm?$AAe?$AAn?$AAt?$AA?$CC?$AA?$AA@
	call	__invalid_parameter
	add	esp, 20					; 00000014H
$LN8@Deallocate:

; 132  : 			<= _NON_USER_SIZE);
; 133  : 
; 134  : 		_Ptr = reinterpret_cast<_Ty *>(_Ptr_container);

	mov	eax, DWORD PTR __Ptr_container$1[ebp]
	mov	DWORD PTR __Ptr$[ebp], eax
$LN3@Deallocate:

; 135  : 		}
; 136  :  #endif /* defined(_M_IX86) || defined(_M_X64) */
; 137  : 
; 138  : 	::operator delete(_Ptr);

	mov	ecx, DWORD PTR __Ptr$[ebp]
	push	ecx
	call	??3@YAXPAX@Z				; operator delete
	add	esp, 4

; 139  : 	}

	add	esp, 16					; 00000010H
	cmp	ebp, esp
	call	__RTC_CheckEsp
	mov	esp, ebp
	pop	ebp
	ret	0
??$_Deallocate@UVector2D@@@std@@YAXPAUVector2D@@I@Z ENDP ; std::_Deallocate<Vector2D>
_TEXT	ENDS
; Function compile flags: /Odtp /RTCsu
; File d:\microsoft visual studio 14.0\vc\include\xmemory0
;	COMDAT ??$_Allocate@UVector2D@@@std@@YAPAUVector2D@@IPAU1@_N@Z
_TEXT	SEGMENT
__Ptr_container$1 = -16					; size = 4
__Block_size$2 = -12					; size = 4
__User_size$ = -8					; size = 4
__Ptr$ = -4						; size = 4
__Count$ = 8						; size = 4
___formal$ = 12						; size = 4
__Try_aligned_allocation$ = 16				; size = 1
??$_Allocate@UVector2D@@@std@@YAPAUVector2D@@IPAU1@_N@Z PROC ; std::_Allocate<Vector2D>, COMDAT

; 54   : 	{	// allocate storage for _Count elements of type _Ty

	push	ebp
	mov	ebp, esp
	sub	esp, 16					; 00000010H
	mov	eax, -858993460				; ccccccccH
	mov	DWORD PTR [ebp-16], eax
	mov	DWORD PTR [ebp-12], eax
	mov	DWORD PTR [ebp-8], eax
	mov	DWORD PTR [ebp-4], eax

; 55   : 	void *_Ptr = 0;

	mov	DWORD PTR __Ptr$[ebp], 0

; 56   : 
; 57   : 	if (_Count == 0)

	cmp	DWORD PTR __Count$[ebp], 0
	jne	SHORT $LN2@Allocate

; 58   : 		return (static_cast<_Ty *>(_Ptr));

	mov	eax, DWORD PTR __Ptr$[ebp]
	jmp	$LN9@Allocate
$LN2@Allocate:

; 59   : 
; 60   : 	// check overflow of multiply
; 61   : 	if ((size_t)(-1) / sizeof (_Ty) < _Count)

	cmp	DWORD PTR __Count$[ebp], 268435455	; 0fffffffH
	jbe	SHORT $LN3@Allocate

; 62   : 		_Xbad_alloc();	// report no memory

	call	?_Xbad_alloc@std@@YAXXZ			; std::_Xbad_alloc
$LN3@Allocate:

; 63   : 	const size_t _User_size = _Count * sizeof (_Ty);

	mov	eax, DWORD PTR __Count$[ebp]
	shl	eax, 4
	mov	DWORD PTR __User_size$[ebp], eax

; 64   : 
; 65   :  #if defined(_M_IX86) || defined(_M_X64)
; 66   : 	if (_Try_aligned_allocation
; 67   : 		&& _BIG_ALLOCATION_THRESHOLD <= _User_size)

	movzx	ecx, BYTE PTR __Try_aligned_allocation$[ebp]
	test	ecx, ecx
	je	$LN4@Allocate
	cmp	DWORD PTR __User_size$[ebp], 4096	; 00001000H
	jb	$LN4@Allocate

; 68   : 		{	// allocate large block
; 69   : 		static_assert(sizeof (void *) < _BIG_ALLOCATION_ALIGNMENT,
; 70   : 			"Big allocations should at least match vector register size");
; 71   : 		const size_t _Block_size = _NON_USER_SIZE + _User_size;

	mov	edx, DWORD PTR __User_size$[ebp]
	add	edx, 39					; 00000027H
	mov	DWORD PTR __Block_size$2[ebp], edx

; 72   : 		if (_Block_size <= _User_size)

	mov	eax, DWORD PTR __Block_size$2[ebp]
	cmp	eax, DWORD PTR __User_size$[ebp]
	ja	SHORT $LN6@Allocate

; 73   : 			_Xbad_alloc();	// report no memory

	call	?_Xbad_alloc@std@@YAXXZ			; std::_Xbad_alloc
$LN6@Allocate:

; 74   : 		const uintptr_t _Ptr_container =
; 75   : 			reinterpret_cast<uintptr_t>(::operator new(_Block_size));

	mov	ecx, DWORD PTR __Block_size$2[ebp]
	push	ecx
	call	??2@YAPAXI@Z				; operator new
	add	esp, 4
	mov	DWORD PTR __Ptr_container$1[ebp], eax

; 76   : 		_SCL_SECURE_ALWAYS_VALIDATE(_Ptr_container != 0);

	cmp	DWORD PTR __Ptr_container$1[ebp], 0
	jne	SHORT $LN7@Allocate
	mov	edx, OFFSET ??_C@_0BE@LMNLACIC@_Ptr_container?5?$CB?$DN?50?$AA@
	test	edx, edx
	je	SHORT $LN10@Allocate
	xor	eax, eax
	jne	SHORT $LN11@Allocate
$LN10@Allocate:
	push	OFFSET ??_C@_1DG@HGDKEBPG@?$AA?$CC?$AA_?$AAP?$AAt?$AAr?$AA_?$AAc?$AAo?$AAn?$AAt?$AAa?$AAi?$AAn?$AAe?$AAr?$AA?5?$AA?$CB?$AA?$DN?$AA?5?$AA0?$AA?$CC?$AA?5?$AA?$CG?$AA?$CG?$AA?5?$AA0?$AA?$AA@
	push	OFFSET ??_C@_17CNPHIMPH@?$AA?$CF?$AAl?$AAs?$AA?$AA@
	push	0
	push	76					; 0000004cH
	push	OFFSET ??_C@_1GI@MOGLCDAO@?$AAD?$AA?3?$AA?2?$AAM?$AAi?$AAc?$AAr?$AAo?$AAs?$AAo?$AAf?$AAt?$AA?5?$AAV?$AAi?$AAs?$AAu?$AAa?$AAl?$AA?5?$AAS?$AAt?$AAu?$AAd?$AAi?$AAo?$AA?5?$AA1?$AA4?$AA?4?$AA0?$AA?2@
	push	2
	call	__CrtDbgReportW
	add	esp, 24					; 00000018H
	cmp	eax, 1
	jne	SHORT $LN11@Allocate
	int	3
$LN11@Allocate:
	push	0
	push	76					; 0000004cH
	push	OFFSET ??_C@_1GI@MOGLCDAO@?$AAD?$AA?3?$AA?2?$AAM?$AAi?$AAc?$AAr?$AAo?$AAs?$AAo?$AAf?$AAt?$AA?5?$AAV?$AAi?$AAs?$AAu?$AAa?$AAl?$AA?5?$AAS?$AAt?$AAu?$AAd?$AAi?$AAo?$AA?5?$AA1?$AA4?$AA?4?$AA0?$AA?2@
	push	OFFSET ??_C@_1BO@NKFMJPA@?$AAs?$AAt?$AAd?$AA?3?$AA?3?$AA_?$AAA?$AAl?$AAl?$AAo?$AAc?$AAa?$AAt?$AAe?$AA?$AA@
	push	OFFSET ??_C@_1CG@JNLFBNGN@?$AA?$CC?$AAi?$AAn?$AAv?$AAa?$AAl?$AAi?$AAd?$AA?5?$AAa?$AAr?$AAg?$AAu?$AAm?$AAe?$AAn?$AAt?$AA?$CC?$AA?$AA@
	call	__invalid_parameter
	add	esp, 20					; 00000014H
$LN7@Allocate:

; 77   : 		_Ptr = reinterpret_cast<void *>((_Ptr_container + _NON_USER_SIZE)

	mov	edx, DWORD PTR __Ptr_container$1[ebp]
	add	edx, 39					; 00000027H
	and	edx, -32				; ffffffe0H
	mov	DWORD PTR __Ptr$[ebp], edx

; 78   : 			& ~(_BIG_ALLOCATION_ALIGNMENT - 1));
; 79   : 		static_cast<uintptr_t *>(_Ptr)[-1] = _Ptr_container;

	mov	eax, 4
	imul	ecx, eax, -1
	mov	edx, DWORD PTR __Ptr$[ebp]
	mov	eax, DWORD PTR __Ptr_container$1[ebp]
	mov	DWORD PTR [edx+ecx], eax

; 80   : 
; 81   :  #ifdef _DEBUG
; 82   : 		static_cast<uintptr_t *>(_Ptr)[-2] = _BIG_ALLOCATION_SENTINEL;

	mov	ecx, 4
	imul	edx, ecx, -2
	mov	eax, DWORD PTR __Ptr$[ebp]
	mov	DWORD PTR [eax+edx], -84215046		; fafafafaH

; 83   :  #endif /* _DEBUG */
; 84   : 		}
; 85   : 	else

	jmp	SHORT $LN5@Allocate
$LN4@Allocate:

; 86   :  #endif /* defined(_M_IX86) || defined(_M_X64) */
; 87   : 
; 88   : 		{	// allocate normal block
; 89   : 		_Ptr = ::operator new(_User_size);

	mov	ecx, DWORD PTR __User_size$[ebp]
	push	ecx
	call	??2@YAPAXI@Z				; operator new
	add	esp, 4
	mov	DWORD PTR __Ptr$[ebp], eax

; 90   : 		_SCL_SECURE_ALWAYS_VALIDATE(_Ptr != 0);

	cmp	DWORD PTR __Ptr$[ebp], 0
	jne	SHORT $LN5@Allocate
	mov	edx, OFFSET ??_C@_09GLJCAGLP@_Ptr?5?$CB?$DN?50?$AA@
	test	edx, edx
	je	SHORT $LN12@Allocate
	xor	eax, eax
	jne	SHORT $LN13@Allocate
$LN12@Allocate:
	push	OFFSET ??_C@_1CC@GKJLLHIM@?$AA?$CC?$AA_?$AAP?$AAt?$AAr?$AA?5?$AA?$CB?$AA?$DN?$AA?5?$AA0?$AA?$CC?$AA?5?$AA?$CG?$AA?$CG?$AA?5?$AA0?$AA?$AA@
	push	OFFSET ??_C@_17CNPHIMPH@?$AA?$CF?$AAl?$AAs?$AA?$AA@
	push	0
	push	90					; 0000005aH
	push	OFFSET ??_C@_1GI@MOGLCDAO@?$AAD?$AA?3?$AA?2?$AAM?$AAi?$AAc?$AAr?$AAo?$AAs?$AAo?$AAf?$AAt?$AA?5?$AAV?$AAi?$AAs?$AAu?$AAa?$AAl?$AA?5?$AAS?$AAt?$AAu?$AAd?$AAi?$AAo?$AA?5?$AA1?$AA4?$AA?4?$AA0?$AA?2@
	push	2
	call	__CrtDbgReportW
	add	esp, 24					; 00000018H
	cmp	eax, 1
	jne	SHORT $LN13@Allocate
	int	3
$LN13@Allocate:
	push	0
	push	90					; 0000005aH
	push	OFFSET ??_C@_1GI@MOGLCDAO@?$AAD?$AA?3?$AA?2?$AAM?$AAi?$AAc?$AAr?$AAo?$AAs?$AAo?$AAf?$AAt?$AA?5?$AAV?$AAi?$AAs?$AAu?$AAa?$AAl?$AA?5?$AAS?$AAt?$AAu?$AAd?$AAi?$AAo?$AA?5?$AA1?$AA4?$AA?4?$AA0?$AA?2@
	push	OFFSET ??_C@_1BO@NKFMJPA@?$AAs?$AAt?$AAd?$AA?3?$AA?3?$AA_?$AAA?$AAl?$AAl?$AAo?$AAc?$AAa?$AAt?$AAe?$AA?$AA@
	push	OFFSET ??_C@_1CG@JNLFBNGN@?$AA?$CC?$AAi?$AAn?$AAv?$AAa?$AAl?$AAi?$AAd?$AA?5?$AAa?$AAr?$AAg?$AAu?$AAm?$AAe?$AAn?$AAt?$AA?$CC?$AA?$AA@
	call	__invalid_parameter
	add	esp, 20					; 00000014H
$LN5@Allocate:

; 91   : 		}
; 92   : 	return (static_cast<_Ty *>(_Ptr));

	mov	eax, DWORD PTR __Ptr$[ebp]
$LN9@Allocate:

; 93   : 	}

	add	esp, 16					; 00000010H
	cmp	ebp, esp
	call	__RTC_CheckEsp
	mov	esp, ebp
	pop	ebp
	ret	0
??$_Allocate@UVector2D@@@std@@YAPAUVector2D@@IPAU1@_N@Z ENDP ; std::_Allocate<Vector2D>
_TEXT	ENDS
; Function compile flags: /Odtp /RTCsu
; File d:\microsoft visual studio 14.0\vc\include\xmemory0
;	COMDAT ??$?0D@?$allocator@U_Container_proxy@std@@@std@@QAE@ABV?$allocator@D@1@@Z
_TEXT	SEGMENT
_this$ = -4						; size = 4
___formal$ = 8						; size = 4
??$?0D@?$allocator@U_Container_proxy@std@@@std@@QAE@ABV?$allocator@D@1@@Z PROC ; std::allocator<std::_Container_proxy>::allocator<std::_Container_proxy><char>, COMDAT
; _this$ = ecx

; 629  : 		{	// construct from a related allocator (do nothing)

	push	ebp
	mov	ebp, esp
	push	ecx
	mov	DWORD PTR [ebp-4], -858993460		; ccccccccH
	mov	DWORD PTR _this$[ebp], ecx

; 630  : 		}

	mov	eax, DWORD PTR _this$[ebp]
	mov	esp, ebp
	pop	ebp
	ret	4
??$?0D@?$allocator@U_Container_proxy@std@@@std@@QAE@ABV?$allocator@D@1@@Z ENDP ; std::allocator<std::_Container_proxy>::allocator<std::_Container_proxy><char>
_TEXT	ENDS
; Function compile flags: /Odtp /RTCsu
; File d:\microsoft visual studio 14.0\vc\include\xmemory0
;	COMDAT ??$?0U?$_Wrap_alloc@V?$allocator@D@std@@@std@@@?$_Wrap_alloc@V?$allocator@U_Container_proxy@std@@@std@@@std@@QAE@AAU?$_Wrap_alloc@V?$allocator@D@std@@@1@@Z
_TEXT	SEGMENT
_this$ = -4						; size = 4
__Right$ = 8						; size = 4
??$?0U?$_Wrap_alloc@V?$allocator@D@std@@@std@@@?$_Wrap_alloc@V?$allocator@U_Container_proxy@std@@@std@@@std@@QAE@AAU?$_Wrap_alloc@V?$allocator@D@std@@@1@@Z PROC ; std::_Wrap_alloc<std::allocator<std::_Container_proxy> >::_Wrap_alloc<std::allocator<std::_Container_proxy> ><std::_Wrap_alloc<std::allocator<char> > >, COMDAT
; _this$ = ecx

; 876  : 		{	// construct from a related allocator

	push	ebp
	mov	ebp, esp
	push	ecx
	mov	DWORD PTR [ebp-4], -858993460		; ccccccccH
	mov	DWORD PTR _this$[ebp], ecx

; 875  : 		: _Mybase(_Right)

	mov	eax, DWORD PTR __Right$[ebp]
	push	eax
	mov	ecx, DWORD PTR _this$[ebp]
	call	??$?0D@?$allocator@U_Container_proxy@std@@@std@@QAE@ABV?$allocator@D@1@@Z ; std::allocator<std::_Container_proxy>::allocator<std::_Container_proxy><char>

; 877  : 		}

	mov	eax, DWORD PTR _this$[ebp]
	add	esp, 4
	cmp	ebp, esp
	call	__RTC_CheckEsp
	mov	esp, ebp
	pop	ebp
	ret	4
??$?0U?$_Wrap_alloc@V?$allocator@D@std@@@std@@@?$_Wrap_alloc@V?$allocator@U_Container_proxy@std@@@std@@@std@@QAE@AAU?$_Wrap_alloc@V?$allocator@D@std@@@1@@Z ENDP ; std::_Wrap_alloc<std::allocator<std::_Container_proxy> >::_Wrap_alloc<std::allocator<std::_Container_proxy> ><std::_Wrap_alloc<std::allocator<char> > >
_TEXT	ENDS
; Function compile flags: /Odtp /RTCsu
; File d:\microsoft visual studio 14.0\vc\include\xmemory0
;	COMDAT ??$_Destroy_range@U?$_Wrap_alloc@V?$allocator@UVector2D@@@std@@@std@@@std@@YAXPAUVector2D@@0AAU?$_Wrap_alloc@V?$allocator@UVector2D@@@std@@@0@@Z
_TEXT	SEGMENT
$T1 = -1						; size = 1
__First$ = 8						; size = 4
__Last$ = 12						; size = 4
__Al$ = 16						; size = 4
??$_Destroy_range@U?$_Wrap_alloc@V?$allocator@UVector2D@@@std@@@std@@@std@@YAXPAUVector2D@@0AAU?$_Wrap_alloc@V?$allocator@UVector2D@@@std@@@0@@Z PROC ; std::_Destroy_range<std::_Wrap_alloc<std::allocator<Vector2D> > >, COMDAT

; 185  : 	{	// destroy [_First, _Last)

	push	ebp
	mov	ebp, esp
	push	ecx
	mov	DWORD PTR [ebp-4], -858993460		; ccccccccH

; 186  : 	_Destroy_range(_First, _Last, _Al, _Ptr_cat(_First, _Last));

	mov	eax, DWORD PTR __Last$[ebp]
	push	eax
	mov	ecx, DWORD PTR __First$[ebp]
	push	ecx
	call	??$_Ptr_cat@UVector2D@@U1@@std@@YA?AU_Nonscalar_ptr_iterator_tag@0@PAUVector2D@@0@Z ; std::_Ptr_cat<Vector2D,Vector2D>
	add	esp, 8
	mov	BYTE PTR $T1[ebp], al
	movzx	edx, BYTE PTR $T1[ebp]
	push	edx
	mov	eax, DWORD PTR __Al$[ebp]
	push	eax
	mov	ecx, DWORD PTR __Last$[ebp]
	push	ecx
	mov	edx, DWORD PTR __First$[ebp]
	push	edx
	call	??$_Destroy_range@U?$_Wrap_alloc@V?$allocator@UVector2D@@@std@@@std@@@std@@YAXPAUVector2D@@0AAU?$_Wrap_alloc@V?$allocator@UVector2D@@@std@@@0@U_Nonscalar_ptr_iterator_tag@0@@Z ; std::_Destroy_range<std::_Wrap_alloc<std::allocator<Vector2D> > >
	add	esp, 16					; 00000010H

; 187  : 	}

	add	esp, 4
	cmp	ebp, esp
	call	__RTC_CheckEsp
	mov	esp, ebp
	pop	ebp
	ret	0
??$_Destroy_range@U?$_Wrap_alloc@V?$allocator@UVector2D@@@std@@@std@@@std@@YAXPAUVector2D@@0AAU?$_Wrap_alloc@V?$allocator@UVector2D@@@std@@@0@@Z ENDP ; std::_Destroy_range<std::_Wrap_alloc<std::allocator<Vector2D> > >
_TEXT	ENDS
; Function compile flags: /Odtp /RTCsu
; File d:\microsoft visual studio 14.0\vc\include\xmemory0
;	COMDAT ??$construct@U_Container_proxy@std@@U12@@?$_Wrap_alloc@V?$allocator@U_Container_proxy@std@@@std@@@std@@QAEXPAU_Container_proxy@1@$$QAU21@@Z
_TEXT	SEGMENT
_this$ = -4						; size = 4
__Ptr$ = 8						; size = 4
_<_Args_0>$ = 12					; size = 4
??$construct@U_Container_proxy@std@@U12@@?$_Wrap_alloc@V?$allocator@U_Container_proxy@std@@@std@@@std@@QAEXPAU_Container_proxy@1@$$QAU21@@Z PROC ; std::_Wrap_alloc<std::allocator<std::_Container_proxy> >::construct<std::_Container_proxy,std::_Container_proxy>, COMDAT
; _this$ = ecx

; 918  : 		{	// construct _Ty(_Types...) at _Ptr

	push	ebp
	mov	ebp, esp
	push	ecx
	mov	DWORD PTR [ebp-4], -858993460		; ccccccccH
	mov	DWORD PTR _this$[ebp], ecx

; 919  : 		_Mytraits::construct(*this, _Ptr,

	mov	eax, DWORD PTR _<_Args_0>$[ebp]
	push	eax
	call	??$forward@U_Container_proxy@std@@@std@@YA$$QAU_Container_proxy@0@AAU10@@Z ; std::forward<std::_Container_proxy>
	add	esp, 4
	push	eax
	mov	ecx, DWORD PTR __Ptr$[ebp]
	push	ecx
	mov	edx, DWORD PTR _this$[ebp]
	push	edx
	call	??$construct@U_Container_proxy@std@@U12@@?$allocator_traits@V?$allocator@U_Container_proxy@std@@@std@@@std@@SAXAAV?$allocator@U_Container_proxy@std@@@1@PAU_Container_proxy@1@$$QAU31@@Z ; std::allocator_traits<std::allocator<std::_Container_proxy> >::construct<std::_Container_proxy,std::_Container_proxy>
	add	esp, 12					; 0000000cH

; 920  : 			_STD forward<_Types>(_Args)...);
; 921  : 		}

	add	esp, 4
	cmp	ebp, esp
	call	__RTC_CheckEsp
	mov	esp, ebp
	pop	ebp
	ret	8
??$construct@U_Container_proxy@std@@U12@@?$_Wrap_alloc@V?$allocator@U_Container_proxy@std@@@std@@@std@@QAEXPAU_Container_proxy@1@$$QAU21@@Z ENDP ; std::_Wrap_alloc<std::allocator<std::_Container_proxy> >::construct<std::_Container_proxy,std::_Container_proxy>
_TEXT	ENDS
; Function compile flags: /Odtp /RTCsu
; File d:\microsoft visual studio 14.0\vc\include\xmemory0
;	COMDAT ??$destroy@U_Container_proxy@std@@@?$_Wrap_alloc@V?$allocator@U_Container_proxy@std@@@std@@@std@@QAEXPAU_Container_proxy@1@@Z
_TEXT	SEGMENT
_this$ = -4						; size = 4
__Ptr$ = 8						; size = 4
??$destroy@U_Container_proxy@std@@@?$_Wrap_alloc@V?$allocator@U_Container_proxy@std@@@std@@@std@@QAEXPAU_Container_proxy@1@@Z PROC ; std::_Wrap_alloc<std::allocator<std::_Container_proxy> >::destroy<std::_Container_proxy>, COMDAT
; _this$ = ecx

; 926  : 		{	// destroy object at _Ptr

	push	ebp
	mov	ebp, esp
	push	ecx
	mov	DWORD PTR [ebp-4], -858993460		; ccccccccH
	mov	DWORD PTR _this$[ebp], ecx

; 927  : 		_Mytraits::destroy(*this, _Ptr);

	mov	eax, DWORD PTR __Ptr$[ebp]
	push	eax
	mov	ecx, DWORD PTR _this$[ebp]
	push	ecx
	call	??$destroy@U_Container_proxy@std@@@?$allocator_traits@V?$allocator@U_Container_proxy@std@@@std@@@std@@SAXAAV?$allocator@U_Container_proxy@std@@@1@PAU_Container_proxy@1@@Z ; std::allocator_traits<std::allocator<std::_Container_proxy> >::destroy<std::_Container_proxy>
	add	esp, 8

; 928  : 		}

	add	esp, 4
	cmp	ebp, esp
	call	__RTC_CheckEsp
	mov	esp, ebp
	pop	ebp
	ret	4
??$destroy@U_Container_proxy@std@@@?$_Wrap_alloc@V?$allocator@U_Container_proxy@std@@@std@@@std@@QAEXPAU_Container_proxy@1@@Z ENDP ; std::_Wrap_alloc<std::allocator<std::_Container_proxy> >::destroy<std::_Container_proxy>
_TEXT	ENDS
; Function compile flags: /Odtp /RTCsu
; File d:\microsoft visual studio 14.0\vc\include\xmemory0
;	COMDAT ??$?0UVector2D@@@?$allocator@U_Container_proxy@std@@@std@@QAE@ABV?$allocator@UVector2D@@@1@@Z
_TEXT	SEGMENT
_this$ = -4						; size = 4
___formal$ = 8						; size = 4
??$?0UVector2D@@@?$allocator@U_Container_proxy@std@@@std@@QAE@ABV?$allocator@UVector2D@@@1@@Z PROC ; std::allocator<std::_Container_proxy>::allocator<std::_Container_proxy><Vector2D>, COMDAT
; _this$ = ecx

; 629  : 		{	// construct from a related allocator (do nothing)

	push	ebp
	mov	ebp, esp
	push	ecx
	mov	DWORD PTR [ebp-4], -858993460		; ccccccccH
	mov	DWORD PTR _this$[ebp], ecx

; 630  : 		}

	mov	eax, DWORD PTR _this$[ebp]
	mov	esp, ebp
	pop	ebp
	ret	4
??$?0UVector2D@@@?$allocator@U_Container_proxy@std@@@std@@QAE@ABV?$allocator@UVector2D@@@1@@Z ENDP ; std::allocator<std::_Container_proxy>::allocator<std::_Container_proxy><Vector2D>
_TEXT	ENDS
; Function compile flags: /Odtp /RTCsu
; File d:\microsoft visual studio 14.0\vc\include\xmemory0
;	COMDAT ??$?0U?$_Wrap_alloc@V?$allocator@UVector2D@@@std@@@std@@@?$_Wrap_alloc@V?$allocator@U_Container_proxy@std@@@std@@@std@@QAE@AAU?$_Wrap_alloc@V?$allocator@UVector2D@@@std@@@1@@Z
_TEXT	SEGMENT
_this$ = -4						; size = 4
__Right$ = 8						; size = 4
??$?0U?$_Wrap_alloc@V?$allocator@UVector2D@@@std@@@std@@@?$_Wrap_alloc@V?$allocator@U_Container_proxy@std@@@std@@@std@@QAE@AAU?$_Wrap_alloc@V?$allocator@UVector2D@@@std@@@1@@Z PROC ; std::_Wrap_alloc<std::allocator<std::_Container_proxy> >::_Wrap_alloc<std::allocator<std::_Container_proxy> ><std::_Wrap_alloc<std::allocator<Vector2D> > >, COMDAT
; _this$ = ecx

; 876  : 		{	// construct from a related allocator

	push	ebp
	mov	ebp, esp
	push	ecx
	mov	DWORD PTR [ebp-4], -858993460		; ccccccccH
	mov	DWORD PTR _this$[ebp], ecx

; 875  : 		: _Mybase(_Right)

	mov	eax, DWORD PTR __Right$[ebp]
	push	eax
	mov	ecx, DWORD PTR _this$[ebp]
	call	??$?0UVector2D@@@?$allocator@U_Container_proxy@std@@@std@@QAE@ABV?$allocator@UVector2D@@@1@@Z ; std::allocator<std::_Container_proxy>::allocator<std::_Container_proxy><Vector2D>

; 877  : 		}

	mov	eax, DWORD PTR _this$[ebp]
	add	esp, 4
	cmp	ebp, esp
	call	__RTC_CheckEsp
	mov	esp, ebp
	pop	ebp
	ret	4
??$?0U?$_Wrap_alloc@V?$allocator@UVector2D@@@std@@@std@@@?$_Wrap_alloc@V?$allocator@U_Container_proxy@std@@@std@@@std@@QAE@AAU?$_Wrap_alloc@V?$allocator@UVector2D@@@std@@@1@@Z ENDP ; std::_Wrap_alloc<std::allocator<std::_Container_proxy> >::_Wrap_alloc<std::allocator<std::_Container_proxy> ><std::_Wrap_alloc<std::allocator<Vector2D> > >
_TEXT	ENDS
; Function compile flags: /Odtp /RTCsu
; File d:\microsoft visual studio 14.0\vc\include\xmemory0
;	COMDAT ?deallocate@?$_Wrap_alloc@V?$allocator@U_Container_proxy@std@@@std@@@std@@QAEXPAU_Container_proxy@2@I@Z
_TEXT	SEGMENT
_this$ = -4						; size = 4
__Ptr$ = 8						; size = 4
__Count$ = 12						; size = 4
?deallocate@?$_Wrap_alloc@V?$allocator@U_Container_proxy@std@@@std@@@std@@QAEXPAU_Container_proxy@2@I@Z PROC ; std::_Wrap_alloc<std::allocator<std::_Container_proxy> >::deallocate, COMDAT
; _this$ = ecx

; 910  : 		{	// deallocate object at _Ptr, ignore size

	push	ebp
	mov	ebp, esp
	push	ecx
	mov	DWORD PTR [ebp-4], -858993460		; ccccccccH
	mov	DWORD PTR _this$[ebp], ecx

; 911  : 		_Mybase::deallocate(_Ptr, _Count);

	mov	eax, DWORD PTR __Count$[ebp]
	push	eax
	mov	ecx, DWORD PTR __Ptr$[ebp]
	push	ecx
	mov	ecx, DWORD PTR _this$[ebp]
	call	?deallocate@?$allocator@U_Container_proxy@std@@@std@@QAEXPAU_Container_proxy@2@I@Z ; std::allocator<std::_Container_proxy>::deallocate

; 912  : 		}

	add	esp, 4
	cmp	ebp, esp
	call	__RTC_CheckEsp
	mov	esp, ebp
	pop	ebp
	ret	8
?deallocate@?$_Wrap_alloc@V?$allocator@U_Container_proxy@std@@@std@@@std@@QAEXPAU_Container_proxy@2@I@Z ENDP ; std::_Wrap_alloc<std::allocator<std::_Container_proxy> >::deallocate
_TEXT	ENDS
; Function compile flags: /Odtp /RTCsu
; File d:\microsoft visual studio 14.0\vc\include\xmemory0
;	COMDAT ?allocate@?$_Wrap_alloc@V?$allocator@U_Container_proxy@std@@@std@@@std@@QAEPAU_Container_proxy@2@I@Z
_TEXT	SEGMENT
_this$ = -4						; size = 4
__Count$ = 8						; size = 4
?allocate@?$_Wrap_alloc@V?$allocator@U_Container_proxy@std@@@std@@@std@@QAEPAU_Container_proxy@2@I@Z PROC ; std::_Wrap_alloc<std::allocator<std::_Container_proxy> >::allocate, COMDAT
; _this$ = ecx

; 899  : 		{	// allocate array of _Count elements

	push	ebp
	mov	ebp, esp
	push	ecx
	mov	DWORD PTR [ebp-4], -858993460		; ccccccccH
	mov	DWORD PTR _this$[ebp], ecx

; 900  : 		return (_Mybase::allocate(_Count));

	mov	eax, DWORD PTR __Count$[ebp]
	push	eax
	mov	ecx, DWORD PTR _this$[ebp]
	call	?allocate@?$allocator@U_Container_proxy@std@@@std@@QAEPAU_Container_proxy@2@I@Z ; std::allocator<std::_Container_proxy>::allocate

; 901  : 		}

	add	esp, 4
	cmp	ebp, esp
	call	__RTC_CheckEsp
	mov	esp, ebp
	pop	ebp
	ret	4
?allocate@?$_Wrap_alloc@V?$allocator@U_Container_proxy@std@@@std@@@std@@QAEPAU_Container_proxy@2@I@Z ENDP ; std::_Wrap_alloc<std::allocator<std::_Container_proxy> >::allocate
_TEXT	ENDS
; Function compile flags: /Odtp /RTCsu
; File d:\microsoft visual studio 14.0\vc\include\xmemory0
;	COMDAT ?allocate@?$allocator@U_Container_proxy@std@@@std@@QAEPAU_Container_proxy@2@I@Z
_TEXT	SEGMENT
_this$ = -4						; size = 4
__Count$ = 8						; size = 4
?allocate@?$allocator@U_Container_proxy@std@@@std@@QAEPAU_Container_proxy@2@I@Z PROC ; std::allocator<std::_Container_proxy>::allocate, COMDAT
; _this$ = ecx

; 644  : 		{	// allocate array of _Count elements

	push	ebp
	mov	ebp, esp
	push	ecx
	mov	DWORD PTR [ebp-4], -858993460		; ccccccccH
	mov	DWORD PTR _this$[ebp], ecx

; 645  : 		return (_Allocate(_Count, (pointer)0));

	push	1
	push	0
	mov	eax, DWORD PTR __Count$[ebp]
	push	eax
	call	??$_Allocate@U_Container_proxy@std@@@std@@YAPAU_Container_proxy@0@IPAU10@_N@Z ; std::_Allocate<std::_Container_proxy>
	add	esp, 12					; 0000000cH

; 646  : 		}

	add	esp, 4
	cmp	ebp, esp
	call	__RTC_CheckEsp
	mov	esp, ebp
	pop	ebp
	ret	4
?allocate@?$allocator@U_Container_proxy@std@@@std@@QAEPAU_Container_proxy@2@I@Z ENDP ; std::allocator<std::_Container_proxy>::allocate
_TEXT	ENDS
; Function compile flags: /Odtp /RTCsu
; File d:\microsoft visual studio 14.0\vc\include\xmemory0
;	COMDAT ?deallocate@?$allocator@U_Container_proxy@std@@@std@@QAEXPAU_Container_proxy@2@I@Z
_TEXT	SEGMENT
_this$ = -4						; size = 4
__Ptr$ = 8						; size = 4
__Count$ = 12						; size = 4
?deallocate@?$allocator@U_Container_proxy@std@@@std@@QAEXPAU_Container_proxy@2@I@Z PROC ; std::allocator<std::_Container_proxy>::deallocate, COMDAT
; _this$ = ecx

; 639  : 		{	// deallocate object at _Ptr

	push	ebp
	mov	ebp, esp
	push	ecx
	mov	DWORD PTR [ebp-4], -858993460		; ccccccccH
	mov	DWORD PTR _this$[ebp], ecx

; 640  : 		_Deallocate(_Ptr, _Count);

	mov	eax, DWORD PTR __Count$[ebp]
	push	eax
	mov	ecx, DWORD PTR __Ptr$[ebp]
	push	ecx
	call	??$_Deallocate@U_Container_proxy@std@@@std@@YAXPAU_Container_proxy@0@I@Z ; std::_Deallocate<std::_Container_proxy>
	add	esp, 8

; 641  : 		}

	add	esp, 4
	cmp	ebp, esp
	call	__RTC_CheckEsp
	mov	esp, ebp
	pop	ebp
	ret	8
?deallocate@?$allocator@U_Container_proxy@std@@@std@@QAEXPAU_Container_proxy@2@I@Z ENDP ; std::allocator<std::_Container_proxy>::deallocate
_TEXT	ENDS
; Function compile flags: /Odtp /RTCsu
; File d:\microsoft visual studio 14.0\vc\include\xmemory0
;	COMDAT ??$construct@PADAAPAD@?$_Wrap_alloc@V?$allocator@D@std@@@std@@QAEXPAPADAAPAD@Z
_TEXT	SEGMENT
_this$ = -4						; size = 4
__Ptr$ = 8						; size = 4
_<_Args_0>$ = 12					; size = 4
??$construct@PADAAPAD@?$_Wrap_alloc@V?$allocator@D@std@@@std@@QAEXPAPADAAPAD@Z PROC ; std::_Wrap_alloc<std::allocator<char> >::construct<char *,char * &>, COMDAT
; _this$ = ecx

; 918  : 		{	// construct _Ty(_Types...) at _Ptr

	push	ebp
	mov	ebp, esp
	push	ecx
	mov	DWORD PTR [ebp-4], -858993460		; ccccccccH
	mov	DWORD PTR _this$[ebp], ecx

; 919  : 		_Mytraits::construct(*this, _Ptr,

	mov	eax, DWORD PTR _<_Args_0>$[ebp]
	push	eax
	call	??$forward@AAPAD@std@@YAAAPADAAPAD@Z	; std::forward<char * &>
	add	esp, 4
	push	eax
	mov	ecx, DWORD PTR __Ptr$[ebp]
	push	ecx
	mov	edx, DWORD PTR _this$[ebp]
	push	edx
	call	??$construct@PADAAPAD@?$allocator_traits@V?$allocator@D@std@@@std@@SAXAAV?$allocator@D@1@PAPADAAPAD@Z ; std::allocator_traits<std::allocator<char> >::construct<char *,char * &>
	add	esp, 12					; 0000000cH

; 920  : 			_STD forward<_Types>(_Args)...);
; 921  : 		}

	add	esp, 4
	cmp	ebp, esp
	call	__RTC_CheckEsp
	mov	esp, ebp
	pop	ebp
	ret	8
??$construct@PADAAPAD@?$_Wrap_alloc@V?$allocator@D@std@@@std@@QAEXPAPADAAPAD@Z ENDP ; std::_Wrap_alloc<std::allocator<char> >::construct<char *,char * &>
_TEXT	ENDS
; Function compile flags: /Odtp /RTCsu
; File d:\microsoft visual studio 14.0\vc\include\xutility
;	COMDAT ??$_Debug_pointer_if@$$CBD@std@@YAX_NPBDPB_WI@Z
_TEXT	SEGMENT
__Test$ = 8						; size = 1
__Ptr$ = 12						; size = 4
__File$ = 16						; size = 4
__Line$ = 20						; size = 4
??$_Debug_pointer_if@$$CBD@std@@YAX_NPBDPB_WI@Z PROC	; std::_Debug_pointer_if<char const >, COMDAT

; 774  : 	{	// conditionally test pointer for non-singularity, pointers

	push	ebp
	mov	ebp, esp

; 775  : 	if (_Test && _Ptr == 0)

	movzx	eax, BYTE PTR __Test$[ebp]
	test	eax, eax
	je	SHORT $LN1@Debug_poin
	cmp	DWORD PTR __Ptr$[ebp], 0
	jne	SHORT $LN1@Debug_poin

; 776  : 		_DEBUG_ERROR2("invalid null pointer", _File, _Line);

	mov	ecx, DWORD PTR __Line$[ebp]
	push	ecx
	mov	edx, DWORD PTR __File$[ebp]
	push	edx
	push	OFFSET ??_C@_1CK@EOPGIILJ@?$AAi?$AAn?$AAv?$AAa?$AAl?$AAi?$AAd?$AA?5?$AAn?$AAu?$AAl?$AAl?$AA?5?$AAp?$AAo?$AAi?$AAn?$AAt?$AAe?$AAr?$AA?$AA@
	call	?_Debug_message@std@@YAXPB_W0I@Z	; std::_Debug_message
	add	esp, 12					; 0000000cH
$LN1@Debug_poin:

; 777  : 	}

	cmp	ebp, esp
	call	__RTC_CheckEsp
	pop	ebp
	ret	0
??$_Debug_pointer_if@$$CBD@std@@YAX_NPBDPB_WI@Z ENDP	; std::_Debug_pointer_if<char const >
_TEXT	ENDS
; Function compile flags: /Odtp /RTCsu
; File d:\microsoft visual studio 14.0\vc\include\xstddef
;	COMDAT ??$addressof@D@std@@YAPADAAD@Z
_TEXT	SEGMENT
$T1 = -2						; size = 1
__Val$ = 8						; size = 4
??$addressof@D@std@@YAPADAAD@Z PROC			; std::addressof<char>, COMDAT

; 699  : 	{	// return address of _Val

	push	ebp
	mov	ebp, esp
	push	ecx
	mov	DWORD PTR [ebp-4], -858993460		; ccccccccH

; 700  : 	return (_Addressof(_Val, is_function<_Ty>()));

	movzx	eax, BYTE PTR $T1[ebp]
	push	eax
	mov	ecx, DWORD PTR __Val$[ebp]
	push	ecx
	call	??$_Addressof@D@std@@YAPADAADU?$integral_constant@_N$0A@@0@@Z ; std::_Addressof<char>
	add	esp, 8

; 701  : 	}

	add	esp, 4
	cmp	ebp, esp
	call	__RTC_CheckEsp
	mov	esp, ebp
	pop	ebp
	ret	0
??$addressof@D@std@@YAPADAAD@Z ENDP			; std::addressof<char>
_TEXT	ENDS
; Function compile flags: /Odtp /RTCsu
; File d:\microsoft visual studio 14.0\vc\include\xmemory0
;	COMDAT ??$destroy@PAD@?$_Wrap_alloc@V?$allocator@D@std@@@std@@QAEXPAPAD@Z
_TEXT	SEGMENT
_this$ = -4						; size = 4
__Ptr$ = 8						; size = 4
??$destroy@PAD@?$_Wrap_alloc@V?$allocator@D@std@@@std@@QAEXPAPAD@Z PROC ; std::_Wrap_alloc<std::allocator<char> >::destroy<char *>, COMDAT
; _this$ = ecx

; 926  : 		{	// destroy object at _Ptr

	push	ebp
	mov	ebp, esp
	push	ecx
	mov	DWORD PTR [ebp-4], -858993460		; ccccccccH
	mov	DWORD PTR _this$[ebp], ecx

; 927  : 		_Mytraits::destroy(*this, _Ptr);

	mov	eax, DWORD PTR __Ptr$[ebp]
	push	eax
	mov	ecx, DWORD PTR _this$[ebp]
	push	ecx
	call	??$destroy@PAD@?$allocator_traits@V?$allocator@D@std@@@std@@SAXAAV?$allocator@D@1@PAPAD@Z ; std::allocator_traits<std::allocator<char> >::destroy<char *>
	add	esp, 8

; 928  : 		}

	add	esp, 4
	cmp	ebp, esp
	call	__RTC_CheckEsp
	mov	esp, ebp
	pop	ebp
	ret	4
??$destroy@PAD@?$_Wrap_alloc@V?$allocator@D@std@@@std@@QAEXPAPAD@Z ENDP ; std::_Wrap_alloc<std::allocator<char> >::destroy<char *>
_TEXT	ENDS
; Function compile flags: /Odtp /RTCsu
; File d:\microsoft visual studio 14.0\vc\include\xutility
;	COMDAT ??$?0ABV?$allocator@D@std@@$$V@?$_Compressed_pair@U?$_Wrap_alloc@V?$allocator@D@std@@@std@@V?$_String_val@U?$_Simple_types@D@std@@@2@$00@std@@QAE@U_One_then_variadic_args_t@1@ABV?$allocator@D@1@@Z
_TEXT	SEGMENT
_this$ = -4						; size = 4
___formal$ = 8						; size = 1
__Val1$ = 12						; size = 4
??$?0ABV?$allocator@D@std@@$$V@?$_Compressed_pair@U?$_Wrap_alloc@V?$allocator@D@std@@@std@@V?$_String_val@U?$_Simple_types@D@std@@@2@$00@std@@QAE@U_One_then_variadic_args_t@1@ABV?$allocator@D@1@@Z PROC ; std::_Compressed_pair<std::_Wrap_alloc<std::allocator<char> >,std::_String_val<std::_Simple_types<char> >,1>::_Compressed_pair<std::_Wrap_alloc<std::allocator<char> >,std::_String_val<std::_Simple_types<char> >,1><std::allocator<char> const &>, COMDAT
; _this$ = ecx

; 288  : 		{	// construct from forwarded values

	push	ebp
	mov	ebp, esp
	push	ecx
	mov	DWORD PTR [ebp-4], -858993460		; ccccccccH
	mov	DWORD PTR _this$[ebp], ecx

; 286  : 		: _Ty1(_STD forward<_Other1>(_Val1)),

	mov	eax, DWORD PTR __Val1$[ebp]
	push	eax
	call	??$forward@ABV?$allocator@D@std@@@std@@YAABV?$allocator@D@0@ABV10@@Z ; std::forward<std::allocator<char> const &>
	add	esp, 4
	push	eax
	mov	ecx, DWORD PTR _this$[ebp]
	call	??0?$_Wrap_alloc@V?$allocator@D@std@@@std@@QAE@ABV?$allocator@D@1@@Z ; std::_Wrap_alloc<std::allocator<char> >::_Wrap_alloc<std::allocator<char> >

; 287  : 			_Myval2(_STD forward<_Other2>(_Val2)...)

	mov	ecx, DWORD PTR _this$[ebp]
	call	??0?$_String_val@U?$_Simple_types@D@std@@@std@@QAE@XZ ; std::_String_val<std::_Simple_types<char> >::_String_val<std::_Simple_types<char> >

; 289  : 		}

	mov	eax, DWORD PTR _this$[ebp]
	add	esp, 4
	cmp	ebp, esp
	call	__RTC_CheckEsp
	mov	esp, ebp
	pop	ebp
	ret	8
??$?0ABV?$allocator@D@std@@$$V@?$_Compressed_pair@U?$_Wrap_alloc@V?$allocator@D@std@@@std@@V?$_String_val@U?$_Simple_types@D@std@@@2@$00@std@@QAE@U_One_then_variadic_args_t@1@ABV?$allocator@D@1@@Z ENDP ; std::_Compressed_pair<std::_Wrap_alloc<std::allocator<char> >,std::_String_val<std::_Simple_types<char> >,1>::_Compressed_pair<std::_Wrap_alloc<std::allocator<char> >,std::_String_val<std::_Simple_types<char> >,1><std::allocator<char> const &>
_TEXT	ENDS
; Function compile flags: /Odtp /RTCsu
; File d:\microsoft visual studio 14.0\vc\include\xutility
;	COMDAT ??$?0V?$allocator@D@std@@$$V@?$_Compressed_pair@U?$_Wrap_alloc@V?$allocator@D@std@@@std@@V?$_String_val@U?$_Simple_types@D@std@@@2@$00@std@@QAE@U_One_then_variadic_args_t@1@$$QAV?$allocator@D@1@@Z
_TEXT	SEGMENT
_this$ = -4						; size = 4
___formal$ = 8						; size = 1
__Val1$ = 12						; size = 4
??$?0V?$allocator@D@std@@$$V@?$_Compressed_pair@U?$_Wrap_alloc@V?$allocator@D@std@@@std@@V?$_String_val@U?$_Simple_types@D@std@@@2@$00@std@@QAE@U_One_then_variadic_args_t@1@$$QAV?$allocator@D@1@@Z PROC ; std::_Compressed_pair<std::_Wrap_alloc<std::allocator<char> >,std::_String_val<std::_Simple_types<char> >,1>::_Compressed_pair<std::_Wrap_alloc<std::allocator<char> >,std::_String_val<std::_Simple_types<char> >,1><std::allocator<char> >, COMDAT
; _this$ = ecx

; 288  : 		{	// construct from forwarded values

	push	ebp
	mov	ebp, esp
	push	ecx
	mov	DWORD PTR [ebp-4], -858993460		; ccccccccH
	mov	DWORD PTR _this$[ebp], ecx

; 286  : 		: _Ty1(_STD forward<_Other1>(_Val1)),

	mov	eax, DWORD PTR __Val1$[ebp]
	push	eax
	call	??$forward@V?$allocator@D@std@@@std@@YA$$QAV?$allocator@D@0@AAV10@@Z ; std::forward<std::allocator<char> >
	add	esp, 4
	push	eax
	mov	ecx, DWORD PTR _this$[ebp]
	call	??0?$_Wrap_alloc@V?$allocator@D@std@@@std@@QAE@ABV?$allocator@D@1@@Z ; std::_Wrap_alloc<std::allocator<char> >::_Wrap_alloc<std::allocator<char> >

; 287  : 			_Myval2(_STD forward<_Other2>(_Val2)...)

	mov	ecx, DWORD PTR _this$[ebp]
	call	??0?$_String_val@U?$_Simple_types@D@std@@@std@@QAE@XZ ; std::_String_val<std::_Simple_types<char> >::_String_val<std::_Simple_types<char> >

; 289  : 		}

	mov	eax, DWORD PTR _this$[ebp]
	add	esp, 4
	cmp	ebp, esp
	call	__RTC_CheckEsp
	mov	esp, ebp
	pop	ebp
	ret	8
??$?0V?$allocator@D@std@@$$V@?$_Compressed_pair@U?$_Wrap_alloc@V?$allocator@D@std@@@std@@V?$_String_val@U?$_Simple_types@D@std@@@2@$00@std@@QAE@U_One_then_variadic_args_t@1@$$QAV?$allocator@D@1@@Z ENDP ; std::_Compressed_pair<std::_Wrap_alloc<std::allocator<char> >,std::_String_val<std::_Simple_types<char> >,1>::_Compressed_pair<std::_Wrap_alloc<std::allocator<char> >,std::_String_val<std::_Simple_types<char> >,1><std::allocator<char> >
_TEXT	ENDS
; Function compile flags: /Odtp /RTCsu
; File d:\microsoft visual studio 14.0\vc\include\type_traits
;	COMDAT ??$move@AAV?$allocator@D@std@@@std@@YA$$QAV?$allocator@D@0@AAV10@@Z
_TEXT	SEGMENT
__Arg$ = 8						; size = 4
??$move@AAV?$allocator@D@std@@@std@@YA$$QAV?$allocator@D@0@AAV10@@Z PROC ; std::move<std::allocator<char> &>, COMDAT

; 1309 : 	{	// forward _Arg as movable

	push	ebp
	mov	ebp, esp

; 1310 : 	return (static_cast<typename remove_reference<_Ty>::type&&>(_Arg));

	mov	eax, DWORD PTR __Arg$[ebp]

; 1311 : 	}

	pop	ebp
	ret	0
??$move@AAV?$allocator@D@std@@@std@@YA$$QAV?$allocator@D@0@AAV10@@Z ENDP ; std::move<std::allocator<char> &>
_TEXT	ENDS
; Function compile flags: /Odtp /RTCsu
; File d:\microsoft visual studio 14.0\vc\include\xutility
;	COMDAT ??$?0ABV?$allocator@UVector2D@@@std@@$$V@?$_Compressed_pair@U?$_Wrap_alloc@V?$allocator@UVector2D@@@std@@@std@@V?$_Vector_val@U?$_Simple_types@UVector2D@@@std@@@2@$00@std@@QAE@U_One_then_variadic_args_t@1@ABV?$allocator@UVector2D@@@1@@Z
_TEXT	SEGMENT
_this$ = -4						; size = 4
___formal$ = 8						; size = 1
__Val1$ = 12						; size = 4
??$?0ABV?$allocator@UVector2D@@@std@@$$V@?$_Compressed_pair@U?$_Wrap_alloc@V?$allocator@UVector2D@@@std@@@std@@V?$_Vector_val@U?$_Simple_types@UVector2D@@@std@@@2@$00@std@@QAE@U_One_then_variadic_args_t@1@ABV?$allocator@UVector2D@@@1@@Z PROC ; std::_Compressed_pair<std::_Wrap_alloc<std::allocator<Vector2D> >,std::_Vector_val<std::_Simple_types<Vector2D> >,1>::_Compressed_pair<std::_Wrap_alloc<std::allocator<Vector2D> >,std::_Vector_val<std::_Simple_types<Vector2D> >,1><std::allocator<Vector2D> const &>, COMDAT
; _this$ = ecx

; 288  : 		{	// construct from forwarded values

	push	ebp
	mov	ebp, esp
	push	ecx
	mov	DWORD PTR [ebp-4], -858993460		; ccccccccH
	mov	DWORD PTR _this$[ebp], ecx

; 286  : 		: _Ty1(_STD forward<_Other1>(_Val1)),

	mov	eax, DWORD PTR __Val1$[ebp]
	push	eax
	call	??$forward@ABV?$allocator@UVector2D@@@std@@@std@@YAABV?$allocator@UVector2D@@@0@ABV10@@Z ; std::forward<std::allocator<Vector2D> const &>
	add	esp, 4
	push	eax
	mov	ecx, DWORD PTR _this$[ebp]
	call	??0?$_Wrap_alloc@V?$allocator@UVector2D@@@std@@@std@@QAE@ABV?$allocator@UVector2D@@@1@@Z ; std::_Wrap_alloc<std::allocator<Vector2D> >::_Wrap_alloc<std::allocator<Vector2D> >

; 287  : 			_Myval2(_STD forward<_Other2>(_Val2)...)

	mov	ecx, DWORD PTR _this$[ebp]
	call	??0?$_Vector_val@U?$_Simple_types@UVector2D@@@std@@@std@@QAE@XZ ; std::_Vector_val<std::_Simple_types<Vector2D> >::_Vector_val<std::_Simple_types<Vector2D> >

; 289  : 		}

	mov	eax, DWORD PTR _this$[ebp]
	add	esp, 4
	cmp	ebp, esp
	call	__RTC_CheckEsp
	mov	esp, ebp
	pop	ebp
	ret	8
??$?0ABV?$allocator@UVector2D@@@std@@$$V@?$_Compressed_pair@U?$_Wrap_alloc@V?$allocator@UVector2D@@@std@@@std@@V?$_Vector_val@U?$_Simple_types@UVector2D@@@std@@@2@$00@std@@QAE@U_One_then_variadic_args_t@1@ABV?$allocator@UVector2D@@@1@@Z ENDP ; std::_Compressed_pair<std::_Wrap_alloc<std::allocator<Vector2D> >,std::_Vector_val<std::_Simple_types<Vector2D> >,1>::_Compressed_pair<std::_Wrap_alloc<std::allocator<Vector2D> >,std::_Vector_val<std::_Simple_types<Vector2D> >,1><std::allocator<Vector2D> const &>
_TEXT	ENDS
; Function compile flags: /Odtp /RTCsu
; File d:\microsoft visual studio 14.0\vc\include\type_traits
;	COMDAT ??$forward@V?$basic_string@DU?$char_traits@D@std@@V?$allocator@D@2@@std@@@std@@YA$$QAV?$basic_string@DU?$char_traits@D@std@@V?$allocator@D@2@@0@AAV10@@Z
_TEXT	SEGMENT
__Arg$ = 8						; size = 4
??$forward@V?$basic_string@DU?$char_traits@D@std@@V?$allocator@D@2@@std@@@std@@YA$$QAV?$basic_string@DU?$char_traits@D@std@@V?$allocator@D@2@@0@AAV10@@Z PROC ; std::forward<std::basic_string<char,std::char_traits<char>,std::allocator<char> > >, COMDAT

; 1293 : 	{	// forward an lvalue as either an lvalue or an rvalue

	push	ebp
	mov	ebp, esp

; 1294 : 	return (static_cast<_Ty&&>(_Arg));

	mov	eax, DWORD PTR __Arg$[ebp]

; 1295 : 	}

	pop	ebp
	ret	0
??$forward@V?$basic_string@DU?$char_traits@D@std@@V?$allocator@D@2@@std@@@std@@YA$$QAV?$basic_string@DU?$char_traits@D@std@@V?$allocator@D@2@@0@AAV10@@Z ENDP ; std::forward<std::basic_string<char,std::char_traits<char>,std::allocator<char> > >
_TEXT	ENDS
; Function compile flags: /Odtp /RTCsu
; File d:\microsoft visual studio 14.0\vc\include\type_traits
;	COMDAT ??$move@AAU?$_Wrap_alloc@V?$allocator@D@std@@@std@@@std@@YA$$QAU?$_Wrap_alloc@V?$allocator@D@std@@@0@AAU10@@Z
_TEXT	SEGMENT
__Arg$ = 8						; size = 4
??$move@AAU?$_Wrap_alloc@V?$allocator@D@std@@@std@@@std@@YA$$QAU?$_Wrap_alloc@V?$allocator@D@std@@@0@AAU10@@Z PROC ; std::move<std::_Wrap_alloc<std::allocator<char> > &>, COMDAT

; 1309 : 	{	// forward _Arg as movable

	push	ebp
	mov	ebp, esp

; 1310 : 	return (static_cast<typename remove_reference<_Ty>::type&&>(_Arg));

	mov	eax, DWORD PTR __Arg$[ebp]

; 1311 : 	}

	pop	ebp
	ret	0
??$move@AAU?$_Wrap_alloc@V?$allocator@D@std@@@std@@@std@@YA$$QAU?$_Wrap_alloc@V?$allocator@D@std@@@0@AAU10@@Z ENDP ; std::move<std::_Wrap_alloc<std::allocator<char> > &>
_TEXT	ENDS
; Function compile flags: /Odtp /RTCsu
; File d:\microsoft visual studio 14.0\vc\include\xutility
;	COMDAT ??$_Debug_pointer@$$CBD@std@@YAXPBDPB_WI@Z
_TEXT	SEGMENT
__Ptr$ = 8						; size = 4
__File$ = 12						; size = 4
__Line$ = 16						; size = 4
??$_Debug_pointer@$$CBD@std@@YAXPBDPB_WI@Z PROC		; std::_Debug_pointer<char const >, COMDAT

; 760  : 	{	// test pointer for non-singularity, pointers

	push	ebp
	mov	ebp, esp

; 761  : 	if (_Ptr == 0)

	cmp	DWORD PTR __Ptr$[ebp], 0
	jne	SHORT $LN1@Debug_poin

; 762  : 		_DEBUG_ERROR2("invalid null pointer", _File, _Line);

	mov	eax, DWORD PTR __Line$[ebp]
	push	eax
	mov	ecx, DWORD PTR __File$[ebp]
	push	ecx
	push	OFFSET ??_C@_1CK@EOPGIILJ@?$AAi?$AAn?$AAv?$AAa?$AAl?$AAi?$AAd?$AA?5?$AAn?$AAu?$AAl?$AAl?$AA?5?$AAp?$AAo?$AAi?$AAn?$AAt?$AAe?$AAr?$AA?$AA@
	call	?_Debug_message@std@@YAXPB_W0I@Z	; std::_Debug_message
	add	esp, 12					; 0000000cH
$LN1@Debug_poin:

; 763  : 	}

	cmp	ebp, esp
	call	__RTC_CheckEsp
	pop	ebp
	ret	0
??$_Debug_pointer@$$CBD@std@@YAXPBDPB_WI@Z ENDP		; std::_Debug_pointer<char const >
_TEXT	ENDS
; Function compile flags: /Odtp /RTCsu
; File d:\microsoft visual studio 14.0\vc\include\xmemory
;	COMDAT ??$_Uninitialized_default_fill_n@PAUVector2D@@IU?$_Wrap_alloc@V?$allocator@UVector2D@@@std@@@std@@@std@@YAXPAUVector2D@@IAAU?$_Wrap_alloc@V?$allocator@UVector2D@@@std@@@0@@Z
_TEXT	SEGMENT
$T1 = -1						; size = 1
__First$ = 8						; size = 4
__Count$ = 12						; size = 4
__Al$ = 16						; size = 4
??$_Uninitialized_default_fill_n@PAUVector2D@@IU?$_Wrap_alloc@V?$allocator@UVector2D@@@std@@@std@@@std@@YAXPAUVector2D@@IAAU?$_Wrap_alloc@V?$allocator@UVector2D@@@std@@@0@@Z PROC ; std::_Uninitialized_default_fill_n<Vector2D *,unsigned int,std::_Wrap_alloc<std::allocator<Vector2D> > >, COMDAT

; 688  : 	{	// copy _Count * _Val_type(_First)() to raw _First, using _Al

	push	ebp
	mov	ebp, esp
	push	ecx
	mov	DWORD PTR [ebp-4], -858993460		; ccccccccH

; 689  : 	_Uninit_def_fill_n(_First, _Count, _Al,

	mov	eax, DWORD PTR __First$[ebp]
	push	eax
	mov	ecx, DWORD PTR __First$[ebp]
	push	ecx
	call	??$_Ptr_cat@UVector2D@@U1@@std@@YA?AU_Nonscalar_ptr_iterator_tag@0@PAUVector2D@@0@Z ; std::_Ptr_cat<Vector2D,Vector2D>
	add	esp, 8
	mov	BYTE PTR $T1[ebp], al
	movzx	edx, BYTE PTR $T1[ebp]
	push	edx
	mov	eax, DWORD PTR __First$[ebp]
	push	eax
	call	??$_Val_type@PAUVector2D@@@std@@YAPAUVector2D@@PAU1@@Z ; std::_Val_type<Vector2D *>
	add	esp, 4
	push	eax
	mov	ecx, DWORD PTR __Al$[ebp]
	push	ecx
	mov	edx, DWORD PTR __Count$[ebp]
	push	edx
	mov	eax, DWORD PTR __First$[ebp]
	push	eax
	call	??$_Uninit_def_fill_n@PAUVector2D@@IV?$allocator@UVector2D@@@std@@U1@@std@@YAXPAUVector2D@@IAAU?$_Wrap_alloc@V?$allocator@UVector2D@@@std@@@0@0U_Nonscalar_ptr_iterator_tag@0@@Z ; std::_Uninit_def_fill_n<Vector2D *,unsigned int,std::allocator<Vector2D>,Vector2D>
	add	esp, 20					; 00000014H

; 690  : 		_Val_type(_First), _Ptr_cat(_First, _First));
; 691  : 	}

	add	esp, 4
	cmp	ebp, esp
	call	__RTC_CheckEsp
	mov	esp, ebp
	pop	ebp
	ret	0
??$_Uninitialized_default_fill_n@PAUVector2D@@IU?$_Wrap_alloc@V?$allocator@UVector2D@@@std@@@std@@@std@@YAXPAUVector2D@@IAAU?$_Wrap_alloc@V?$allocator@UVector2D@@@std@@@0@@Z ENDP ; std::_Uninitialized_default_fill_n<Vector2D *,unsigned int,std::_Wrap_alloc<std::allocator<Vector2D> > >
_TEXT	ENDS
; Function compile flags: /Odtp /RTCsu
; File d:\microsoft visual studio 14.0\vc\include\xstddef
;	COMDAT ??$addressof@UVector2D@@@std@@YAPAUVector2D@@AAU1@@Z
_TEXT	SEGMENT
$T1 = -2						; size = 1
__Val$ = 8						; size = 4
??$addressof@UVector2D@@@std@@YAPAUVector2D@@AAU1@@Z PROC ; std::addressof<Vector2D>, COMDAT

; 699  : 	{	// return address of _Val

	push	ebp
	mov	ebp, esp
	push	ecx
	mov	DWORD PTR [ebp-4], -858993460		; ccccccccH

; 700  : 	return (_Addressof(_Val, is_function<_Ty>()));

	movzx	eax, BYTE PTR $T1[ebp]
	push	eax
	mov	ecx, DWORD PTR __Val$[ebp]
	push	ecx
	call	??$_Addressof@UVector2D@@@std@@YAPAUVector2D@@AAU1@U?$integral_constant@_N$0A@@0@@Z ; std::_Addressof<Vector2D>
	add	esp, 8

; 701  : 	}

	add	esp, 4
	cmp	ebp, esp
	call	__RTC_CheckEsp
	mov	esp, ebp
	pop	ebp
	ret	0
